
kernel/bin/kernel.elf:     file format elf64-x86-64


Disassembly of section .text:

0000000000100000 <_ZL8SetEntryP14PageTableEntrym>:
  100000:	f3 0f 1e fa          	endbr64 
  100004:	55                   	push   %rbp
  100005:	48 89 e5             	mov    %rsp,%rbp
  100008:	48 83 ec 10          	sub    $0x10,%rsp
  10000c:	48 89 7d f8          	mov    %rdi,-0x8(%rbp)
  100010:	48 89 75 f0          	mov    %rsi,-0x10(%rbp)
  100014:	48 8b 45 f0          	mov    -0x10(%rbp),%rax
  100018:	83 e0 01             	and    $0x1,%eax
  10001b:	48 8b 55 f8          	mov    -0x8(%rbp),%rdx
  10001f:	83 e0 01             	and    $0x1,%eax
  100022:	89 c1                	mov    %eax,%ecx
  100024:	0f b6 02             	movzbl (%rdx),%eax
  100027:	83 e0 fe             	and    $0xfffffffe,%eax
  10002a:	09 c8                	or     %ecx,%eax
  10002c:	88 02                	mov    %al,(%rdx)
  10002e:	48 8b 45 f0          	mov    -0x10(%rbp),%rax
  100032:	48 d1 e8             	shr    %rax
  100035:	83 e0 01             	and    $0x1,%eax
  100038:	48 8b 55 f8          	mov    -0x8(%rbp),%rdx
  10003c:	83 e0 01             	and    $0x1,%eax
  10003f:	8d 0c 00             	lea    (%rax,%rax,1),%ecx
  100042:	0f b6 02             	movzbl (%rdx),%eax
  100045:	83 e0 fd             	and    $0xfffffffd,%eax
  100048:	09 c8                	or     %ecx,%eax
  10004a:	88 02                	mov    %al,(%rdx)
  10004c:	48 8b 45 f0          	mov    -0x10(%rbp),%rax
  100050:	48 c1 e8 02          	shr    $0x2,%rax
  100054:	83 e0 01             	and    $0x1,%eax
  100057:	48 8b 55 f8          	mov    -0x8(%rbp),%rdx
  10005b:	83 e0 01             	and    $0x1,%eax
  10005e:	8d 0c 85 00 00 00 00 	lea    0x0(,%rax,4),%ecx
  100065:	0f b6 02             	movzbl (%rdx),%eax
  100068:	83 e0 fb             	and    $0xfffffffb,%eax
  10006b:	09 c8                	or     %ecx,%eax
  10006d:	88 02                	mov    %al,(%rdx)
  10006f:	48 8b 45 f0          	mov    -0x10(%rbp),%rax
  100073:	48 c1 e8 03          	shr    $0x3,%rax
  100077:	83 e0 01             	and    $0x1,%eax
  10007a:	48 8b 55 f8          	mov    -0x8(%rbp),%rdx
  10007e:	83 e0 01             	and    $0x1,%eax
  100081:	8d 0c c5 00 00 00 00 	lea    0x0(,%rax,8),%ecx
  100088:	0f b6 02             	movzbl (%rdx),%eax
  10008b:	83 e0 f7             	and    $0xfffffff7,%eax
  10008e:	09 c8                	or     %ecx,%eax
  100090:	88 02                	mov    %al,(%rdx)
  100092:	48 8b 45 f0          	mov    -0x10(%rbp),%rax
  100096:	48 c1 e8 04          	shr    $0x4,%rax
  10009a:	83 e0 01             	and    $0x1,%eax
  10009d:	48 8b 55 f8          	mov    -0x8(%rbp),%rdx
  1000a1:	83 e0 01             	and    $0x1,%eax
  1000a4:	c1 e0 04             	shl    $0x4,%eax
  1000a7:	89 c1                	mov    %eax,%ecx
  1000a9:	0f b6 02             	movzbl (%rdx),%eax
  1000ac:	83 e0 ef             	and    $0xffffffef,%eax
  1000af:	09 c8                	or     %ecx,%eax
  1000b1:	88 02                	mov    %al,(%rdx)
  1000b3:	48 8b 45 f0          	mov    -0x10(%rbp),%rax
  1000b7:	48 c1 e8 3f          	shr    $0x3f,%rax
  1000bb:	83 e0 01             	and    $0x1,%eax
  1000be:	48 8b 55 f8          	mov    -0x8(%rbp),%rdx
  1000c2:	c1 e0 07             	shl    $0x7,%eax
  1000c5:	89 c1                	mov    %eax,%ecx
  1000c7:	0f b6 42 07          	movzbl 0x7(%rdx),%eax
  1000cb:	83 e0 7f             	and    $0x7f,%eax
  1000ce:	09 c8                	or     %ecx,%eax
  1000d0:	88 42 07             	mov    %al,0x7(%rdx)
  1000d3:	90                   	nop
  1000d4:	c9                   	leaveq 
  1000d5:	c3                   	retq   

00000000001000d6 <_ZN16PageTableManager9MapMemoryEmmm>:
  1000d6:	f3 0f 1e fa          	endbr64 
  1000da:	55                   	push   %rbp
  1000db:	48 89 e5             	mov    %rsp,%rbp
  1000de:	48 83 c4 80          	add    $0xffffffffffffff80,%rsp
  1000e2:	48 89 7d 98          	mov    %rdi,-0x68(%rbp)
  1000e6:	48 89 75 90          	mov    %rsi,-0x70(%rbp)
  1000ea:	48 89 55 88          	mov    %rdx,-0x78(%rbp)
  1000ee:	48 89 4d 80          	mov    %rcx,-0x80(%rbp)
  1000f2:	48 8b 55 90          	mov    -0x70(%rbp),%rdx
  1000f6:	48 8d 45 c0          	lea    -0x40(%rbp),%rax
  1000fa:	48 89 d6             	mov    %rdx,%rsi
  1000fd:	48 89 c7             	mov    %rax,%rdi
  100100:	e8 37 df 00 00       	callq  10e03c <_ZN14PageMapIndexerC1Em>
  100105:	48 8b 45 98          	mov    -0x68(%rbp),%rax
  100109:	48 8b 00             	mov    (%rax),%rax
  10010c:	48 8b 55 c0          	mov    -0x40(%rbp),%rdx
  100110:	48 8b 04 d0          	mov    (%rax,%rdx,8),%rax
  100114:	48 89 45 b8          	mov    %rax,-0x48(%rbp)
  100118:	0f b6 45 b8          	movzbl -0x48(%rbp),%eax
  10011c:	83 e0 01             	and    $0x1,%eax
  10011f:	84 c0                	test   %al,%al
  100121:	0f 85 82 00 00 00    	jne    1001a9 <_ZN16PageTableManager9MapMemoryEmmm+0xd3>
  100127:	e8 f6 13 00 00       	callq  101522 <_ZN18PageFrameAllocator15SharedAllocatorEv>
  10012c:	48 89 c7             	mov    %rax,%rdi
  10012f:	e8 42 11 00 00       	callq  101276 <_ZN18PageFrameAllocator11RequestPageEv>
  100134:	48 89 45 f8          	mov    %rax,-0x8(%rbp)
  100138:	48 8b 45 f8          	mov    -0x8(%rbp),%rax
  10013c:	ba 00 10 00 00       	mov    $0x1000,%edx
  100141:	be 00 00 00 00       	mov    $0x0,%esi
  100146:	48 89 c7             	mov    %rax,%rdi
  100149:	e8 1d cd 00 00       	callq  10ce6b <_Z6memsetPvim>
  10014e:	48 8b 45 f8          	mov    -0x8(%rbp),%rax
  100152:	48 c1 e8 0c          	shr    $0xc,%rax
  100156:	25 ff ff ff 0f       	and    $0xfffffff,%eax
  10015b:	89 c0                	mov    %eax,%eax
  10015d:	25 ff ff ff 0f       	and    $0xfffffff,%eax
  100162:	48 c1 e0 0c          	shl    $0xc,%rax
  100166:	48 89 c2             	mov    %rax,%rdx
  100169:	48 8b 45 b8          	mov    -0x48(%rbp),%rax
  10016d:	48 b9 ff 0f 00 00 00 	movabs $0xffffff0000000fff,%rcx
  100174:	ff ff ff 
  100177:	48 21 c8             	and    %rcx,%rax
  10017a:	48 09 d0             	or     %rdx,%rax
  10017d:	48 89 45 b8          	mov    %rax,-0x48(%rbp)
  100181:	48 8b 55 80          	mov    -0x80(%rbp),%rdx
  100185:	48 8d 45 b8          	lea    -0x48(%rbp),%rax
  100189:	48 89 d6             	mov    %rdx,%rsi
  10018c:	48 89 c7             	mov    %rax,%rdi
  10018f:	e8 6c fe ff ff       	callq  100000 <_ZL8SetEntryP14PageTableEntrym>
  100194:	48 8b 45 98          	mov    -0x68(%rbp),%rax
  100198:	48 8b 00             	mov    (%rax),%rax
  10019b:	48 8b 55 c0          	mov    -0x40(%rbp),%rdx
  10019f:	48 8b 4d b8          	mov    -0x48(%rbp),%rcx
  1001a3:	48 89 0c d0          	mov    %rcx,(%rax,%rdx,8)
  1001a7:	eb 16                	jmp    1001bf <_ZN16PageTableManager9MapMemoryEmmm+0xe9>
  1001a9:	48 8b 45 b8          	mov    -0x48(%rbp),%rax
  1001ad:	48 c1 e8 0c          	shr    $0xc,%rax
  1001b1:	25 ff ff ff 0f       	and    $0xfffffff,%eax
  1001b6:	c1 e0 0c             	shl    $0xc,%eax
  1001b9:	48 98                	cltq   
  1001bb:	48 89 45 f8          	mov    %rax,-0x8(%rbp)
  1001bf:	48 8b 55 c8          	mov    -0x38(%rbp),%rdx
  1001c3:	48 8b 45 f8          	mov    -0x8(%rbp),%rax
  1001c7:	48 8b 04 d0          	mov    (%rax,%rdx,8),%rax
  1001cb:	48 89 45 b0          	mov    %rax,-0x50(%rbp)
  1001cf:	0f b6 45 b0          	movzbl -0x50(%rbp),%eax
  1001d3:	83 e0 01             	and    $0x1,%eax
  1001d6:	84 c0                	test   %al,%al
  1001d8:	75 7f                	jne    100259 <_ZN16PageTableManager9MapMemoryEmmm+0x183>
  1001da:	e8 43 13 00 00       	callq  101522 <_ZN18PageFrameAllocator15SharedAllocatorEv>
  1001df:	48 89 c7             	mov    %rax,%rdi
  1001e2:	e8 8f 10 00 00       	callq  101276 <_ZN18PageFrameAllocator11RequestPageEv>
  1001e7:	48 89 45 f0          	mov    %rax,-0x10(%rbp)
  1001eb:	48 8b 45 f0          	mov    -0x10(%rbp),%rax
  1001ef:	ba 00 10 00 00       	mov    $0x1000,%edx
  1001f4:	be 00 00 00 00       	mov    $0x0,%esi
  1001f9:	48 89 c7             	mov    %rax,%rdi
  1001fc:	e8 6a cc 00 00       	callq  10ce6b <_Z6memsetPvim>
  100201:	48 8b 45 f0          	mov    -0x10(%rbp),%rax
  100205:	48 c1 e8 0c          	shr    $0xc,%rax
  100209:	25 ff ff ff 0f       	and    $0xfffffff,%eax
  10020e:	89 c0                	mov    %eax,%eax
  100210:	25 ff ff ff 0f       	and    $0xfffffff,%eax
  100215:	48 c1 e0 0c          	shl    $0xc,%rax
  100219:	48 89 c2             	mov    %rax,%rdx
  10021c:	48 8b 45 b0          	mov    -0x50(%rbp),%rax
  100220:	48 b9 ff 0f 00 00 00 	movabs $0xffffff0000000fff,%rcx
  100227:	ff ff ff 
  10022a:	48 21 c8             	and    %rcx,%rax
  10022d:	48 09 d0             	or     %rdx,%rax
  100230:	48 89 45 b0          	mov    %rax,-0x50(%rbp)
  100234:	48 8b 55 80          	mov    -0x80(%rbp),%rdx
  100238:	48 8d 45 b0          	lea    -0x50(%rbp),%rax
  10023c:	48 89 d6             	mov    %rdx,%rsi
  10023f:	48 89 c7             	mov    %rax,%rdi
  100242:	e8 b9 fd ff ff       	callq  100000 <_ZL8SetEntryP14PageTableEntrym>
  100247:	48 8b 55 c8          	mov    -0x38(%rbp),%rdx
  10024b:	48 8b 45 f8          	mov    -0x8(%rbp),%rax
  10024f:	48 8b 4d b0          	mov    -0x50(%rbp),%rcx
  100253:	48 89 0c d0          	mov    %rcx,(%rax,%rdx,8)
  100257:	eb 16                	jmp    10026f <_ZN16PageTableManager9MapMemoryEmmm+0x199>
  100259:	48 8b 45 b0          	mov    -0x50(%rbp),%rax
  10025d:	48 c1 e8 0c          	shr    $0xc,%rax
  100261:	25 ff ff ff 0f       	and    $0xfffffff,%eax
  100266:	c1 e0 0c             	shl    $0xc,%eax
  100269:	48 98                	cltq   
  10026b:	48 89 45 f0          	mov    %rax,-0x10(%rbp)
  10026f:	48 8b 55 d0          	mov    -0x30(%rbp),%rdx
  100273:	48 8b 45 f0          	mov    -0x10(%rbp),%rax
  100277:	48 8b 04 d0          	mov    (%rax,%rdx,8),%rax
  10027b:	48 89 45 a8          	mov    %rax,-0x58(%rbp)
  10027f:	0f b6 45 a8          	movzbl -0x58(%rbp),%eax
  100283:	83 e0 01             	and    $0x1,%eax
  100286:	84 c0                	test   %al,%al
  100288:	75 7f                	jne    100309 <_ZN16PageTableManager9MapMemoryEmmm+0x233>
  10028a:	e8 93 12 00 00       	callq  101522 <_ZN18PageFrameAllocator15SharedAllocatorEv>
  10028f:	48 89 c7             	mov    %rax,%rdi
  100292:	e8 df 0f 00 00       	callq  101276 <_ZN18PageFrameAllocator11RequestPageEv>
  100297:	48 89 45 e8          	mov    %rax,-0x18(%rbp)
  10029b:	48 8b 45 e8          	mov    -0x18(%rbp),%rax
  10029f:	ba 00 10 00 00       	mov    $0x1000,%edx
  1002a4:	be 00 00 00 00       	mov    $0x0,%esi
  1002a9:	48 89 c7             	mov    %rax,%rdi
  1002ac:	e8 ba cb 00 00       	callq  10ce6b <_Z6memsetPvim>
  1002b1:	48 8b 45 e8          	mov    -0x18(%rbp),%rax
  1002b5:	48 c1 e8 0c          	shr    $0xc,%rax
  1002b9:	25 ff ff ff 0f       	and    $0xfffffff,%eax
  1002be:	89 c0                	mov    %eax,%eax
  1002c0:	25 ff ff ff 0f       	and    $0xfffffff,%eax
  1002c5:	48 c1 e0 0c          	shl    $0xc,%rax
  1002c9:	48 89 c2             	mov    %rax,%rdx
  1002cc:	48 8b 45 a8          	mov    -0x58(%rbp),%rax
  1002d0:	48 b9 ff 0f 00 00 00 	movabs $0xffffff0000000fff,%rcx
  1002d7:	ff ff ff 
  1002da:	48 21 c8             	and    %rcx,%rax
  1002dd:	48 09 d0             	or     %rdx,%rax
  1002e0:	48 89 45 a8          	mov    %rax,-0x58(%rbp)
  1002e4:	48 8b 55 80          	mov    -0x80(%rbp),%rdx
  1002e8:	48 8d 45 a8          	lea    -0x58(%rbp),%rax
  1002ec:	48 89 d6             	mov    %rdx,%rsi
  1002ef:	48 89 c7             	mov    %rax,%rdi
  1002f2:	e8 09 fd ff ff       	callq  100000 <_ZL8SetEntryP14PageTableEntrym>
  1002f7:	48 8b 55 d0          	mov    -0x30(%rbp),%rdx
  1002fb:	48 8b 45 f0          	mov    -0x10(%rbp),%rax
  1002ff:	48 8b 4d a8          	mov    -0x58(%rbp),%rcx
  100303:	48 89 0c d0          	mov    %rcx,(%rax,%rdx,8)
  100307:	eb 16                	jmp    10031f <_ZN16PageTableManager9MapMemoryEmmm+0x249>
  100309:	48 8b 45 a8          	mov    -0x58(%rbp),%rax
  10030d:	48 c1 e8 0c          	shr    $0xc,%rax
  100311:	25 ff ff ff 0f       	and    $0xfffffff,%eax
  100316:	c1 e0 0c             	shl    $0xc,%eax
  100319:	48 98                	cltq   
  10031b:	48 89 45 e8          	mov    %rax,-0x18(%rbp)
  10031f:	48 8b 55 d8          	mov    -0x28(%rbp),%rdx
  100323:	48 8b 45 e8          	mov    -0x18(%rbp),%rax
  100327:	48 8b 04 d0          	mov    (%rax,%rdx,8),%rax
  10032b:	48 89 45 a0          	mov    %rax,-0x60(%rbp)
  10032f:	48 8b 45 88          	mov    -0x78(%rbp),%rax
  100333:	48 c1 e8 0c          	shr    $0xc,%rax
  100337:	25 ff ff ff 0f       	and    $0xfffffff,%eax
  10033c:	89 c0                	mov    %eax,%eax
  10033e:	25 ff ff ff 0f       	and    $0xfffffff,%eax
  100343:	48 c1 e0 0c          	shl    $0xc,%rax
  100347:	48 89 c2             	mov    %rax,%rdx
  10034a:	48 8b 45 a0          	mov    -0x60(%rbp),%rax
  10034e:	48 b9 ff 0f 00 00 00 	movabs $0xffffff0000000fff,%rcx
  100355:	ff ff ff 
  100358:	48 21 c8             	and    %rcx,%rax
  10035b:	48 09 d0             	or     %rdx,%rax
  10035e:	48 89 45 a0          	mov    %rax,-0x60(%rbp)
  100362:	48 8b 55 80          	mov    -0x80(%rbp),%rdx
  100366:	48 8d 45 a0          	lea    -0x60(%rbp),%rax
  10036a:	48 89 d6             	mov    %rdx,%rsi
  10036d:	48 89 c7             	mov    %rax,%rdi
  100370:	e8 8b fc ff ff       	callq  100000 <_ZL8SetEntryP14PageTableEntrym>
  100375:	48 8b 55 d8          	mov    -0x28(%rbp),%rdx
  100379:	48 8b 45 e8          	mov    -0x18(%rbp),%rax
  10037d:	48 8b 4d a0          	mov    -0x60(%rbp),%rcx
  100381:	48 89 0c d0          	mov    %rcx,(%rax,%rdx,8)
  100385:	90                   	nop
  100386:	c9                   	leaveq 
  100387:	c3                   	retq   

0000000000100388 <_ZN16PageTableManager15PhysicalAddressEm>:
  100388:	f3 0f 1e fa          	endbr64 
  10038c:	55                   	push   %rbp
  10038d:	48 89 e5             	mov    %rsp,%rbp
  100390:	48 83 ec 70          	sub    $0x70,%rsp
  100394:	48 89 7d 98          	mov    %rdi,-0x68(%rbp)
  100398:	48 89 75 90          	mov    %rsi,-0x70(%rbp)
  10039c:	48 8b 55 90          	mov    -0x70(%rbp),%rdx
  1003a0:	48 8d 45 c0          	lea    -0x40(%rbp),%rax
  1003a4:	48 89 d6             	mov    %rdx,%rsi
  1003a7:	48 89 c7             	mov    %rax,%rdi
  1003aa:	e8 8d dc 00 00       	callq  10e03c <_ZN14PageMapIndexerC1Em>
  1003af:	48 8b 45 98          	mov    -0x68(%rbp),%rax
  1003b3:	48 8b 00             	mov    (%rax),%rax
  1003b6:	48 8b 55 c0          	mov    -0x40(%rbp),%rdx
  1003ba:	48 8b 04 d0          	mov    (%rax,%rdx,8),%rax
  1003be:	48 89 45 b8          	mov    %rax,-0x48(%rbp)
  1003c2:	48 8b 45 b8          	mov    -0x48(%rbp),%rax
  1003c6:	48 c1 e8 0c          	shr    $0xc,%rax
  1003ca:	25 ff ff ff 0f       	and    $0xfffffff,%eax
  1003cf:	c1 e0 0c             	shl    $0xc,%eax
  1003d2:	48 98                	cltq   
  1003d4:	48 89 45 f8          	mov    %rax,-0x8(%rbp)
  1003d8:	48 8b 55 c8          	mov    -0x38(%rbp),%rdx
  1003dc:	48 8b 45 f8          	mov    -0x8(%rbp),%rax
  1003e0:	48 8b 04 d0          	mov    (%rax,%rdx,8),%rax
  1003e4:	48 89 45 b0          	mov    %rax,-0x50(%rbp)
  1003e8:	48 8b 45 b0          	mov    -0x50(%rbp),%rax
  1003ec:	48 c1 e8 0c          	shr    $0xc,%rax
  1003f0:	25 ff ff ff 0f       	and    $0xfffffff,%eax
  1003f5:	c1 e0 0c             	shl    $0xc,%eax
  1003f8:	48 98                	cltq   
  1003fa:	48 89 45 f0          	mov    %rax,-0x10(%rbp)
  1003fe:	48 8b 55 d0          	mov    -0x30(%rbp),%rdx
  100402:	48 8b 45 f0          	mov    -0x10(%rbp),%rax
  100406:	48 8b 04 d0          	mov    (%rax,%rdx,8),%rax
  10040a:	48 89 45 a8          	mov    %rax,-0x58(%rbp)
  10040e:	48 8b 45 a8          	mov    -0x58(%rbp),%rax
  100412:	48 c1 e8 0c          	shr    $0xc,%rax
  100416:	25 ff ff ff 0f       	and    $0xfffffff,%eax
  10041b:	c1 e0 0c             	shl    $0xc,%eax
  10041e:	48 98                	cltq   
  100420:	48 89 45 e8          	mov    %rax,-0x18(%rbp)
  100424:	48 8b 55 d8          	mov    -0x28(%rbp),%rdx
  100428:	48 8b 45 e8          	mov    -0x18(%rbp),%rax
  10042c:	48 8b 04 d0          	mov    (%rax,%rdx,8),%rax
  100430:	48 89 45 a0          	mov    %rax,-0x60(%rbp)
  100434:	48 8b 45 a0          	mov    -0x60(%rbp),%rax
  100438:	48 c1 e8 0c          	shr    $0xc,%rax
  10043c:	25 ff ff ff 0f       	and    $0xfffffff,%eax
  100441:	c1 e0 0c             	shl    $0xc,%eax
  100444:	48 98                	cltq   
  100446:	48 89 45 e0          	mov    %rax,-0x20(%rbp)
  10044a:	48 8b 45 e0          	mov    -0x20(%rbp),%rax
  10044e:	c9                   	leaveq 
  10044f:	c3                   	retq   

0000000000100450 <_ZN16PageTableManager12SetAsCurrentEv>:
  100450:	f3 0f 1e fa          	endbr64 
  100454:	55                   	push   %rbp
  100455:	48 89 e5             	mov    %rsp,%rbp
  100458:	48 83 ec 20          	sub    $0x20,%rsp
  10045c:	48 89 7d e8          	mov    %rdi,-0x18(%rbp)
  100460:	48 8b 45 e8          	mov    -0x18(%rbp),%rax
  100464:	48 8b 00             	mov    (%rax),%rax
  100467:	48 89 c2             	mov    %rax,%rdx
  10046a:	48 8b 45 e8          	mov    -0x18(%rbp),%rax
  10046e:	48 89 d6             	mov    %rdx,%rsi
  100471:	48 89 c7             	mov    %rax,%rdi
  100474:	e8 0f ff ff ff       	callq  100388 <_ZN16PageTableManager15PhysicalAddressEm>
  100479:	48 89 45 f8          	mov    %rax,-0x8(%rbp)
  10047d:	48 8b 45 f8          	mov    -0x8(%rbp),%rax
  100481:	0f 22 d8             	mov    %rax,%cr3
  100484:	48 8b 45 e8          	mov    -0x18(%rbp),%rax
  100488:	48 89 05 c1 4b 01 00 	mov    %rax,0x14bc1(%rip)        # 115050 <CurrentDirectory>
  10048f:	90                   	nop
  100490:	c9                   	leaveq 
  100491:	c3                   	retq   

0000000000100492 <_ZN16PageTableManager5CloneEv>:
  100492:	f3 0f 1e fa          	endbr64 
  100496:	55                   	push   %rbp
  100497:	48 89 e5             	mov    %rsp,%rbp
  10049a:	53                   	push   %rbx
  10049b:	48 83 ec 28          	sub    $0x28,%rsp
  10049f:	48 89 7d d8          	mov    %rdi,-0x28(%rbp)
  1004a3:	48 8d 3d 9e 4b 01 00 	lea    0x14b9e(%rip),%rdi        # 115048 <KernelDirectory>
  1004aa:	e8 29 dc 00 00       	callq  10e0d8 <_ZN16PageTableManager7GetPML4Ev>
  1004af:	48 89 c2             	mov    %rax,%rdx
  1004b2:	48 8b 45 d8          	mov    -0x28(%rbp),%rax
  1004b6:	48 8b 08             	mov    (%rax),%rcx
  1004b9:	48 8b 45 d8          	mov    -0x28(%rbp),%rax
  1004bd:	48 89 ce             	mov    %rcx,%rsi
  1004c0:	48 89 c7             	mov    %rax,%rdi
  1004c3:	e8 82 08 00 00       	callq  100d4a <_ZN16PageTableManager9ClonePML4EP9PageTableS1_>
  1004c8:	48 89 45 e8          	mov    %rax,-0x18(%rbp)
  1004cc:	bf 08 00 00 00       	mov    $0x8,%edi
  1004d1:	e8 79 35 00 00       	callq  103a4f <_Znwm>
  1004d6:	48 89 c3             	mov    %rax,%rbx
  1004d9:	48 8b 45 e8          	mov    -0x18(%rbp),%rax
  1004dd:	48 89 c6             	mov    %rax,%rsi
  1004e0:	48 89 df             	mov    %rbx,%rdi
  1004e3:	e8 ce db 00 00       	callq  10e0b6 <_ZN16PageTableManagerC1EP9PageTable>
  1004e8:	48 89 5d e0          	mov    %rbx,-0x20(%rbp)
  1004ec:	48 8b 45 e0          	mov    -0x20(%rbp),%rax
  1004f0:	48 83 c4 28          	add    $0x28,%rsp
  1004f4:	5b                   	pop    %rbx
  1004f5:	5d                   	pop    %rbp
  1004f6:	c3                   	retq   
  1004f7:	90                   	nop

00000000001004f8 <_ZN16PageTableManager9ClonePageEPv>:
  1004f8:	f3 0f 1e fa          	endbr64 
  1004fc:	55                   	push   %rbp
  1004fd:	48 89 e5             	mov    %rsp,%rbp
  100500:	48 83 ec 20          	sub    $0x20,%rsp
  100504:	48 89 7d e8          	mov    %rdi,-0x18(%rbp)
  100508:	48 89 75 e0          	mov    %rsi,-0x20(%rbp)
  10050c:	e8 11 10 00 00       	callq  101522 <_ZN18PageFrameAllocator15SharedAllocatorEv>
  100511:	48 89 c7             	mov    %rax,%rdi
  100514:	e8 5d 0d 00 00       	callq  101276 <_ZN18PageFrameAllocator11RequestPageEv>
  100519:	48 89 45 f8          	mov    %rax,-0x8(%rbp)
  10051d:	48 8b 4d e0          	mov    -0x20(%rbp),%rcx
  100521:	48 8b 45 f8          	mov    -0x8(%rbp),%rax
  100525:	ba 00 10 00 00       	mov    $0x1000,%edx
  10052a:	48 89 ce             	mov    %rcx,%rsi
  10052d:	48 89 c7             	mov    %rax,%rdi
  100530:	e8 f4 c8 00 00       	callq  10ce29 <_Z6memcpyPvPKvm>
  100535:	48 8b 45 f8          	mov    -0x8(%rbp),%rax
  100539:	c9                   	leaveq 
  10053a:	c3                   	retq   
  10053b:	90                   	nop

000000000010053c <_ZN16PageTableManager7ClonePTEP9PageTableS1_>:
  10053c:	f3 0f 1e fa          	endbr64 
  100540:	55                   	push   %rbp
  100541:	48 89 e5             	mov    %rsp,%rbp
  100544:	48 83 ec 50          	sub    $0x50,%rsp
  100548:	48 89 7d c8          	mov    %rdi,-0x38(%rbp)
  10054c:	48 89 75 c0          	mov    %rsi,-0x40(%rbp)
  100550:	48 89 55 b8          	mov    %rdx,-0x48(%rbp)
  100554:	e8 c9 0f 00 00       	callq  101522 <_ZN18PageFrameAllocator15SharedAllocatorEv>
  100559:	48 89 c7             	mov    %rax,%rdi
  10055c:	e8 15 0d 00 00       	callq  101276 <_ZN18PageFrameAllocator11RequestPageEv>
  100561:	48 89 45 f0          	mov    %rax,-0x10(%rbp)
  100565:	48 8b 45 f0          	mov    -0x10(%rbp),%rax
  100569:	ba 00 10 00 00       	mov    $0x1000,%edx
  10056e:	be 00 00 00 00       	mov    $0x0,%esi
  100573:	48 89 c7             	mov    %rax,%rdi
  100576:	e8 f0 c8 00 00       	callq  10ce6b <_Z6memsetPvim>
  10057b:	c7 45 fc 00 00 00 00 	movl   $0x0,-0x4(%rbp)
  100582:	81 7d fc ff 01 00 00 	cmpl   $0x1ff,-0x4(%rbp)
  100589:	0f 87 40 02 00 00    	ja     1007cf <_ZN16PageTableManager7ClonePTEP9PageTableS1_+0x293>
  10058f:	48 8b 45 c0          	mov    -0x40(%rbp),%rax
  100593:	8b 55 fc             	mov    -0x4(%rbp),%edx
  100596:	48 8b 04 d0          	mov    (%rax,%rdx,8),%rax
  10059a:	48 c1 e8 0c          	shr    $0xc,%rax
  10059e:	25 ff ff ff 0f       	and    $0xfffffff,%eax
  1005a3:	85 c0                	test   %eax,%eax
  1005a5:	0f 84 1a 02 00 00    	je     1007c5 <_ZN16PageTableManager7ClonePTEP9PageTableS1_+0x289>
  1005ab:	8b 45 fc             	mov    -0x4(%rbp),%eax
  1005ae:	48 8d 14 c5 00 00 00 	lea    0x0(,%rax,8),%rdx
  1005b5:	00 
  1005b6:	48 8b 45 c0          	mov    -0x40(%rbp),%rax
  1005ba:	48 01 d0             	add    %rdx,%rax
  1005bd:	48 8b 00             	mov    (%rax),%rax
  1005c0:	48 89 45 e8          	mov    %rax,-0x18(%rbp)
  1005c4:	8b 45 fc             	mov    -0x4(%rbp),%eax
  1005c7:	48 8d 14 c5 00 00 00 	lea    0x0(,%rax,8),%rdx
  1005ce:	00 
  1005cf:	48 8b 45 b8          	mov    -0x48(%rbp),%rax
  1005d3:	48 01 d0             	add    %rdx,%rax
  1005d6:	48 8b 00             	mov    (%rax),%rax
  1005d9:	48 89 45 e0          	mov    %rax,-0x20(%rbp)
  1005dd:	48 8b 45 e8          	mov    -0x18(%rbp),%rax
  1005e1:	48 3b 45 e0          	cmp    -0x20(%rbp),%rax
  1005e5:	75 1b                	jne    100602 <_ZN16PageTableManager7ClonePTEP9PageTableS1_+0xc6>
  1005e7:	48 8b 45 f0          	mov    -0x10(%rbp),%rax
  1005eb:	8b 55 fc             	mov    -0x4(%rbp),%edx
  1005ee:	48 8b 4d c0          	mov    -0x40(%rbp),%rcx
  1005f2:	8b 75 fc             	mov    -0x4(%rbp),%esi
  1005f5:	48 8b 0c f1          	mov    (%rcx,%rsi,8),%rcx
  1005f9:	48 89 0c d0          	mov    %rcx,(%rax,%rdx,8)
  1005fd:	e9 c4 01 00 00       	jmpq   1007c6 <_ZN16PageTableManager7ClonePTEP9PageTableS1_+0x28a>
  100602:	48 8b 45 c0          	mov    -0x40(%rbp),%rax
  100606:	8b 55 fc             	mov    -0x4(%rbp),%edx
  100609:	48 8b 04 d0          	mov    (%rax,%rdx,8),%rax
  10060d:	48 c1 e8 0c          	shr    $0xc,%rax
  100611:	25 ff ff ff 0f       	and    $0xfffffff,%eax
  100616:	c1 e0 0c             	shl    $0xc,%eax
  100619:	48 98                	cltq   
  10061b:	48 89 45 d8          	mov    %rax,-0x28(%rbp)
  10061f:	48 8b 55 d8          	mov    -0x28(%rbp),%rdx
  100623:	48 8b 45 c8          	mov    -0x38(%rbp),%rax
  100627:	48 89 d6             	mov    %rdx,%rsi
  10062a:	48 89 c7             	mov    %rax,%rdi
  10062d:	e8 c6 fe ff ff       	callq  1004f8 <_ZN16PageTableManager9ClonePageEPv>
  100632:	48 89 45 d0          	mov    %rax,-0x30(%rbp)
  100636:	48 8b 45 d0          	mov    -0x30(%rbp),%rax
  10063a:	48 c1 e8 0c          	shr    $0xc,%rax
  10063e:	89 c1                	mov    %eax,%ecx
  100640:	81 e1 ff ff ff 0f    	and    $0xfffffff,%ecx
  100646:	48 8b 45 f0          	mov    -0x10(%rbp),%rax
  10064a:	8b 55 fc             	mov    -0x4(%rbp),%edx
  10064d:	89 c9                	mov    %ecx,%ecx
  10064f:	81 e1 ff ff ff 0f    	and    $0xfffffff,%ecx
  100655:	48 89 ce             	mov    %rcx,%rsi
  100658:	48 c1 e6 0c          	shl    $0xc,%rsi
  10065c:	48 8b 0c d0          	mov    (%rax,%rdx,8),%rcx
  100660:	48 bf ff 0f 00 00 00 	movabs $0xffffff0000000fff,%rdi
  100667:	ff ff ff 
  10066a:	48 21 f9             	and    %rdi,%rcx
  10066d:	48 09 f1             	or     %rsi,%rcx
  100670:	48 89 0c d0          	mov    %rcx,(%rax,%rdx,8)
  100674:	48 8b 45 c0          	mov    -0x40(%rbp),%rax
  100678:	8b 55 fc             	mov    -0x4(%rbp),%edx
  10067b:	0f b6 04 d0          	movzbl (%rax,%rdx,8),%eax
  10067f:	83 e0 01             	and    $0x1,%eax
  100682:	84 c0                	test   %al,%al
  100684:	74 11                	je     100697 <_ZN16PageTableManager7ClonePTEP9PageTableS1_+0x15b>
  100686:	48 8b 45 f0          	mov    -0x10(%rbp),%rax
  10068a:	8b 55 fc             	mov    -0x4(%rbp),%edx
  10068d:	0f b6 0c d0          	movzbl (%rax,%rdx,8),%ecx
  100691:	83 c9 01             	or     $0x1,%ecx
  100694:	88 0c d0             	mov    %cl,(%rax,%rdx,8)
  100697:	48 8b 45 c0          	mov    -0x40(%rbp),%rax
  10069b:	8b 55 fc             	mov    -0x4(%rbp),%edx
  10069e:	0f b6 04 d0          	movzbl (%rax,%rdx,8),%eax
  1006a2:	d0 e8                	shr    %al
  1006a4:	83 e0 01             	and    $0x1,%eax
  1006a7:	84 c0                	test   %al,%al
  1006a9:	74 11                	je     1006bc <_ZN16PageTableManager7ClonePTEP9PageTableS1_+0x180>
  1006ab:	48 8b 45 f0          	mov    -0x10(%rbp),%rax
  1006af:	8b 55 fc             	mov    -0x4(%rbp),%edx
  1006b2:	0f b6 0c d0          	movzbl (%rax,%rdx,8),%ecx
  1006b6:	83 c9 02             	or     $0x2,%ecx
  1006b9:	88 0c d0             	mov    %cl,(%rax,%rdx,8)
  1006bc:	48 8b 45 c0          	mov    -0x40(%rbp),%rax
  1006c0:	8b 55 fc             	mov    -0x4(%rbp),%edx
  1006c3:	0f b6 04 d0          	movzbl (%rax,%rdx,8),%eax
  1006c7:	c0 e8 02             	shr    $0x2,%al
  1006ca:	83 e0 01             	and    $0x1,%eax
  1006cd:	84 c0                	test   %al,%al
  1006cf:	74 11                	je     1006e2 <_ZN16PageTableManager7ClonePTEP9PageTableS1_+0x1a6>
  1006d1:	48 8b 45 f0          	mov    -0x10(%rbp),%rax
  1006d5:	8b 55 fc             	mov    -0x4(%rbp),%edx
  1006d8:	0f b6 0c d0          	movzbl (%rax,%rdx,8),%ecx
  1006dc:	83 c9 04             	or     $0x4,%ecx
  1006df:	88 0c d0             	mov    %cl,(%rax,%rdx,8)
  1006e2:	48 8b 45 c0          	mov    -0x40(%rbp),%rax
  1006e6:	8b 55 fc             	mov    -0x4(%rbp),%edx
  1006e9:	0f b6 04 d0          	movzbl (%rax,%rdx,8),%eax
  1006ed:	c0 e8 03             	shr    $0x3,%al
  1006f0:	83 e0 01             	and    $0x1,%eax
  1006f3:	84 c0                	test   %al,%al
  1006f5:	74 11                	je     100708 <_ZN16PageTableManager7ClonePTEP9PageTableS1_+0x1cc>
  1006f7:	48 8b 45 f0          	mov    -0x10(%rbp),%rax
  1006fb:	8b 55 fc             	mov    -0x4(%rbp),%edx
  1006fe:	0f b6 0c d0          	movzbl (%rax,%rdx,8),%ecx
  100702:	83 c9 08             	or     $0x8,%ecx
  100705:	88 0c d0             	mov    %cl,(%rax,%rdx,8)
  100708:	48 8b 45 c0          	mov    -0x40(%rbp),%rax
  10070c:	8b 55 fc             	mov    -0x4(%rbp),%edx
  10070f:	0f b6 04 d0          	movzbl (%rax,%rdx,8),%eax
  100713:	c0 e8 05             	shr    $0x5,%al
  100716:	83 e0 01             	and    $0x1,%eax
  100719:	84 c0                	test   %al,%al
  10071b:	74 11                	je     10072e <_ZN16PageTableManager7ClonePTEP9PageTableS1_+0x1f2>
  10071d:	48 8b 45 f0          	mov    -0x10(%rbp),%rax
  100721:	8b 55 fc             	mov    -0x4(%rbp),%edx
  100724:	0f b6 0c d0          	movzbl (%rax,%rdx,8),%ecx
  100728:	83 c9 20             	or     $0x20,%ecx
  10072b:	88 0c d0             	mov    %cl,(%rax,%rdx,8)
  10072e:	48 8b 45 c0          	mov    -0x40(%rbp),%rax
  100732:	8b 55 fc             	mov    -0x4(%rbp),%edx
  100735:	0f b6 04 d0          	movzbl (%rax,%rdx,8),%eax
  100739:	c0 e8 06             	shr    $0x6,%al
  10073c:	83 e0 01             	and    $0x1,%eax
  10073f:	84 c0                	test   %al,%al
  100741:	74 11                	je     100754 <_ZN16PageTableManager7ClonePTEP9PageTableS1_+0x218>
  100743:	48 8b 45 f0          	mov    -0x10(%rbp),%rax
  100747:	8b 55 fc             	mov    -0x4(%rbp),%edx
  10074a:	0f b6 0c d0          	movzbl (%rax,%rdx,8),%ecx
  10074e:	83 c9 40             	or     $0x40,%ecx
  100751:	88 0c d0             	mov    %cl,(%rax,%rdx,8)
  100754:	48 8b 45 c0          	mov    -0x40(%rbp),%rax
  100758:	8b 55 fc             	mov    -0x4(%rbp),%edx
  10075b:	0f b6 04 d0          	movzbl (%rax,%rdx,8),%eax
  10075f:	c0 e8 07             	shr    $0x7,%al
  100762:	84 c0                	test   %al,%al
  100764:	74 11                	je     100777 <_ZN16PageTableManager7ClonePTEP9PageTableS1_+0x23b>
  100766:	48 8b 45 f0          	mov    -0x10(%rbp),%rax
  10076a:	8b 55 fc             	mov    -0x4(%rbp),%edx
  10076d:	0f b6 0c d0          	movzbl (%rax,%rdx,8),%ecx
  100771:	83 c9 80             	or     $0xffffff80,%ecx
  100774:	88 0c d0             	mov    %cl,(%rax,%rdx,8)
  100777:	48 8b 45 c0          	mov    -0x40(%rbp),%rax
  10077b:	8b 55 fc             	mov    -0x4(%rbp),%edx
  10077e:	0f b6 44 d0 01       	movzbl 0x1(%rax,%rdx,8),%eax
  100783:	83 e0 01             	and    $0x1,%eax
  100786:	84 c0                	test   %al,%al
  100788:	74 13                	je     10079d <_ZN16PageTableManager7ClonePTEP9PageTableS1_+0x261>
  10078a:	48 8b 45 f0          	mov    -0x10(%rbp),%rax
  10078e:	8b 55 fc             	mov    -0x4(%rbp),%edx
  100791:	0f b6 4c d0 01       	movzbl 0x1(%rax,%rdx,8),%ecx
  100796:	83 c9 01             	or     $0x1,%ecx
  100799:	88 4c d0 01          	mov    %cl,0x1(%rax,%rdx,8)
  10079d:	48 8b 45 c0          	mov    -0x40(%rbp),%rax
  1007a1:	8b 55 fc             	mov    -0x4(%rbp),%edx
  1007a4:	0f b6 44 d0 07       	movzbl 0x7(%rax,%rdx,8),%eax
  1007a9:	c0 e8 07             	shr    $0x7,%al
  1007ac:	84 c0                	test   %al,%al
  1007ae:	74 16                	je     1007c6 <_ZN16PageTableManager7ClonePTEP9PageTableS1_+0x28a>
  1007b0:	48 8b 45 f0          	mov    -0x10(%rbp),%rax
  1007b4:	8b 55 fc             	mov    -0x4(%rbp),%edx
  1007b7:	0f b6 4c d0 07       	movzbl 0x7(%rax,%rdx,8),%ecx
  1007bc:	83 c9 80             	or     $0xffffff80,%ecx
  1007bf:	88 4c d0 07          	mov    %cl,0x7(%rax,%rdx,8)
  1007c3:	eb 01                	jmp    1007c6 <_ZN16PageTableManager7ClonePTEP9PageTableS1_+0x28a>
  1007c5:	90                   	nop
  1007c6:	83 45 fc 01          	addl   $0x1,-0x4(%rbp)
  1007ca:	e9 b3 fd ff ff       	jmpq   100582 <_ZN16PageTableManager7ClonePTEP9PageTableS1_+0x46>
  1007cf:	48 8b 45 f0          	mov    -0x10(%rbp),%rax
  1007d3:	c9                   	leaveq 
  1007d4:	c3                   	retq   
  1007d5:	90                   	nop

00000000001007d6 <_ZN16PageTableManager7ClonePDEP9PageTableS1_>:
  1007d6:	f3 0f 1e fa          	endbr64 
  1007da:	55                   	push   %rbp
  1007db:	48 89 e5             	mov    %rsp,%rbp
  1007de:	48 83 ec 60          	sub    $0x60,%rsp
  1007e2:	48 89 7d b8          	mov    %rdi,-0x48(%rbp)
  1007e6:	48 89 75 b0          	mov    %rsi,-0x50(%rbp)
  1007ea:	48 89 55 a8          	mov    %rdx,-0x58(%rbp)
  1007ee:	e8 2f 0d 00 00       	callq  101522 <_ZN18PageFrameAllocator15SharedAllocatorEv>
  1007f3:	48 89 c7             	mov    %rax,%rdi
  1007f6:	e8 7b 0a 00 00       	callq  101276 <_ZN18PageFrameAllocator11RequestPageEv>
  1007fb:	48 89 45 f0          	mov    %rax,-0x10(%rbp)
  1007ff:	48 8b 45 f0          	mov    -0x10(%rbp),%rax
  100803:	ba 00 10 00 00       	mov    $0x1000,%edx
  100808:	be 00 00 00 00       	mov    $0x0,%esi
  10080d:	48 89 c7             	mov    %rax,%rdi
  100810:	e8 56 c6 00 00       	callq  10ce6b <_Z6memsetPvim>
  100815:	c7 45 fc 00 00 00 00 	movl   $0x0,-0x4(%rbp)
  10081c:	81 7d fc ff 01 00 00 	cmpl   $0x1ff,-0x4(%rbp)
  100823:	0f 87 61 02 00 00    	ja     100a8a <_ZN16PageTableManager7ClonePDEP9PageTableS1_+0x2b4>
  100829:	48 8b 45 b0          	mov    -0x50(%rbp),%rax
  10082d:	8b 55 fc             	mov    -0x4(%rbp),%edx
  100830:	48 8b 04 d0          	mov    (%rax,%rdx,8),%rax
  100834:	48 c1 e8 0c          	shr    $0xc,%rax
  100838:	25 ff ff ff 0f       	and    $0xfffffff,%eax
  10083d:	85 c0                	test   %eax,%eax
  10083f:	0f 84 3b 02 00 00    	je     100a80 <_ZN16PageTableManager7ClonePDEP9PageTableS1_+0x2aa>
  100845:	8b 45 fc             	mov    -0x4(%rbp),%eax
  100848:	48 8d 14 c5 00 00 00 	lea    0x0(,%rax,8),%rdx
  10084f:	00 
  100850:	48 8b 45 b0          	mov    -0x50(%rbp),%rax
  100854:	48 01 d0             	add    %rdx,%rax
  100857:	48 8b 00             	mov    (%rax),%rax
  10085a:	48 89 45 e8          	mov    %rax,-0x18(%rbp)
  10085e:	8b 45 fc             	mov    -0x4(%rbp),%eax
  100861:	48 8d 14 c5 00 00 00 	lea    0x0(,%rax,8),%rdx
  100868:	00 
  100869:	48 8b 45 a8          	mov    -0x58(%rbp),%rax
  10086d:	48 01 d0             	add    %rdx,%rax
  100870:	48 8b 00             	mov    (%rax),%rax
  100873:	48 89 45 e0          	mov    %rax,-0x20(%rbp)
  100877:	48 8b 45 e8          	mov    -0x18(%rbp),%rax
  10087b:	48 3b 45 e0          	cmp    -0x20(%rbp),%rax
  10087f:	75 1b                	jne    10089c <_ZN16PageTableManager7ClonePDEP9PageTableS1_+0xc6>
  100881:	48 8b 45 f0          	mov    -0x10(%rbp),%rax
  100885:	8b 55 fc             	mov    -0x4(%rbp),%edx
  100888:	48 8b 4d b0          	mov    -0x50(%rbp),%rcx
  10088c:	8b 75 fc             	mov    -0x4(%rbp),%esi
  10088f:	48 8b 0c f1          	mov    (%rcx,%rsi,8),%rcx
  100893:	48 89 0c d0          	mov    %rcx,(%rax,%rdx,8)
  100897:	e9 e5 01 00 00       	jmpq   100a81 <_ZN16PageTableManager7ClonePDEP9PageTableS1_+0x2ab>
  10089c:	48 8b 45 b0          	mov    -0x50(%rbp),%rax
  1008a0:	8b 55 fc             	mov    -0x4(%rbp),%edx
  1008a3:	48 8b 04 d0          	mov    (%rax,%rdx,8),%rax
  1008a7:	48 c1 e8 0c          	shr    $0xc,%rax
  1008ab:	25 ff ff ff 0f       	and    $0xfffffff,%eax
  1008b0:	c1 e0 0c             	shl    $0xc,%eax
  1008b3:	48 98                	cltq   
  1008b5:	48 89 45 d8          	mov    %rax,-0x28(%rbp)
  1008b9:	48 8b 45 a8          	mov    -0x58(%rbp),%rax
  1008bd:	8b 55 fc             	mov    -0x4(%rbp),%edx
  1008c0:	48 8b 04 d0          	mov    (%rax,%rdx,8),%rax
  1008c4:	48 c1 e8 0c          	shr    $0xc,%rax
  1008c8:	25 ff ff ff 0f       	and    $0xfffffff,%eax
  1008cd:	c1 e0 0c             	shl    $0xc,%eax
  1008d0:	48 98                	cltq   
  1008d2:	48 89 45 d0          	mov    %rax,-0x30(%rbp)
  1008d6:	48 8b 55 d0          	mov    -0x30(%rbp),%rdx
  1008da:	48 8b 4d d8          	mov    -0x28(%rbp),%rcx
  1008de:	48 8b 45 b8          	mov    -0x48(%rbp),%rax
  1008e2:	48 89 ce             	mov    %rcx,%rsi
  1008e5:	48 89 c7             	mov    %rax,%rdi
  1008e8:	e8 4f fc ff ff       	callq  10053c <_ZN16PageTableManager7ClonePTEP9PageTableS1_>
  1008ed:	48 89 45 c8          	mov    %rax,-0x38(%rbp)
  1008f1:	48 8b 45 c8          	mov    -0x38(%rbp),%rax
  1008f5:	48 c1 e8 0c          	shr    $0xc,%rax
  1008f9:	89 c1                	mov    %eax,%ecx
  1008fb:	81 e1 ff ff ff 0f    	and    $0xfffffff,%ecx
  100901:	48 8b 45 f0          	mov    -0x10(%rbp),%rax
  100905:	8b 55 fc             	mov    -0x4(%rbp),%edx
  100908:	89 c9                	mov    %ecx,%ecx
  10090a:	81 e1 ff ff ff 0f    	and    $0xfffffff,%ecx
  100910:	48 89 ce             	mov    %rcx,%rsi
  100913:	48 c1 e6 0c          	shl    $0xc,%rsi
  100917:	48 8b 0c d0          	mov    (%rax,%rdx,8),%rcx
  10091b:	48 bf ff 0f 00 00 00 	movabs $0xffffff0000000fff,%rdi
  100922:	ff ff ff 
  100925:	48 21 f9             	and    %rdi,%rcx
  100928:	48 09 f1             	or     %rsi,%rcx
  10092b:	48 89 0c d0          	mov    %rcx,(%rax,%rdx,8)
  10092f:	48 8b 45 b0          	mov    -0x50(%rbp),%rax
  100933:	8b 55 fc             	mov    -0x4(%rbp),%edx
  100936:	0f b6 04 d0          	movzbl (%rax,%rdx,8),%eax
  10093a:	83 e0 01             	and    $0x1,%eax
  10093d:	84 c0                	test   %al,%al
  10093f:	74 11                	je     100952 <_ZN16PageTableManager7ClonePDEP9PageTableS1_+0x17c>
  100941:	48 8b 45 f0          	mov    -0x10(%rbp),%rax
  100945:	8b 55 fc             	mov    -0x4(%rbp),%edx
  100948:	0f b6 0c d0          	movzbl (%rax,%rdx,8),%ecx
  10094c:	83 c9 01             	or     $0x1,%ecx
  10094f:	88 0c d0             	mov    %cl,(%rax,%rdx,8)
  100952:	48 8b 45 b0          	mov    -0x50(%rbp),%rax
  100956:	8b 55 fc             	mov    -0x4(%rbp),%edx
  100959:	0f b6 04 d0          	movzbl (%rax,%rdx,8),%eax
  10095d:	d0 e8                	shr    %al
  10095f:	83 e0 01             	and    $0x1,%eax
  100962:	84 c0                	test   %al,%al
  100964:	74 11                	je     100977 <_ZN16PageTableManager7ClonePDEP9PageTableS1_+0x1a1>
  100966:	48 8b 45 f0          	mov    -0x10(%rbp),%rax
  10096a:	8b 55 fc             	mov    -0x4(%rbp),%edx
  10096d:	0f b6 0c d0          	movzbl (%rax,%rdx,8),%ecx
  100971:	83 c9 02             	or     $0x2,%ecx
  100974:	88 0c d0             	mov    %cl,(%rax,%rdx,8)
  100977:	48 8b 45 b0          	mov    -0x50(%rbp),%rax
  10097b:	8b 55 fc             	mov    -0x4(%rbp),%edx
  10097e:	0f b6 04 d0          	movzbl (%rax,%rdx,8),%eax
  100982:	c0 e8 02             	shr    $0x2,%al
  100985:	83 e0 01             	and    $0x1,%eax
  100988:	84 c0                	test   %al,%al
  10098a:	74 11                	je     10099d <_ZN16PageTableManager7ClonePDEP9PageTableS1_+0x1c7>
  10098c:	48 8b 45 f0          	mov    -0x10(%rbp),%rax
  100990:	8b 55 fc             	mov    -0x4(%rbp),%edx
  100993:	0f b6 0c d0          	movzbl (%rax,%rdx,8),%ecx
  100997:	83 c9 04             	or     $0x4,%ecx
  10099a:	88 0c d0             	mov    %cl,(%rax,%rdx,8)
  10099d:	48 8b 45 b0          	mov    -0x50(%rbp),%rax
  1009a1:	8b 55 fc             	mov    -0x4(%rbp),%edx
  1009a4:	0f b6 04 d0          	movzbl (%rax,%rdx,8),%eax
  1009a8:	c0 e8 03             	shr    $0x3,%al
  1009ab:	83 e0 01             	and    $0x1,%eax
  1009ae:	84 c0                	test   %al,%al
  1009b0:	74 11                	je     1009c3 <_ZN16PageTableManager7ClonePDEP9PageTableS1_+0x1ed>
  1009b2:	48 8b 45 f0          	mov    -0x10(%rbp),%rax
  1009b6:	8b 55 fc             	mov    -0x4(%rbp),%edx
  1009b9:	0f b6 0c d0          	movzbl (%rax,%rdx,8),%ecx
  1009bd:	83 c9 08             	or     $0x8,%ecx
  1009c0:	88 0c d0             	mov    %cl,(%rax,%rdx,8)
  1009c3:	48 8b 45 b0          	mov    -0x50(%rbp),%rax
  1009c7:	8b 55 fc             	mov    -0x4(%rbp),%edx
  1009ca:	0f b6 04 d0          	movzbl (%rax,%rdx,8),%eax
  1009ce:	c0 e8 05             	shr    $0x5,%al
  1009d1:	83 e0 01             	and    $0x1,%eax
  1009d4:	84 c0                	test   %al,%al
  1009d6:	74 11                	je     1009e9 <_ZN16PageTableManager7ClonePDEP9PageTableS1_+0x213>
  1009d8:	48 8b 45 f0          	mov    -0x10(%rbp),%rax
  1009dc:	8b 55 fc             	mov    -0x4(%rbp),%edx
  1009df:	0f b6 0c d0          	movzbl (%rax,%rdx,8),%ecx
  1009e3:	83 c9 20             	or     $0x20,%ecx
  1009e6:	88 0c d0             	mov    %cl,(%rax,%rdx,8)
  1009e9:	48 8b 45 b0          	mov    -0x50(%rbp),%rax
  1009ed:	8b 55 fc             	mov    -0x4(%rbp),%edx
  1009f0:	0f b6 04 d0          	movzbl (%rax,%rdx,8),%eax
  1009f4:	c0 e8 06             	shr    $0x6,%al
  1009f7:	83 e0 01             	and    $0x1,%eax
  1009fa:	84 c0                	test   %al,%al
  1009fc:	74 11                	je     100a0f <_ZN16PageTableManager7ClonePDEP9PageTableS1_+0x239>
  1009fe:	48 8b 45 f0          	mov    -0x10(%rbp),%rax
  100a02:	8b 55 fc             	mov    -0x4(%rbp),%edx
  100a05:	0f b6 0c d0          	movzbl (%rax,%rdx,8),%ecx
  100a09:	83 c9 40             	or     $0x40,%ecx
  100a0c:	88 0c d0             	mov    %cl,(%rax,%rdx,8)
  100a0f:	48 8b 45 b0          	mov    -0x50(%rbp),%rax
  100a13:	8b 55 fc             	mov    -0x4(%rbp),%edx
  100a16:	0f b6 04 d0          	movzbl (%rax,%rdx,8),%eax
  100a1a:	c0 e8 07             	shr    $0x7,%al
  100a1d:	84 c0                	test   %al,%al
  100a1f:	74 11                	je     100a32 <_ZN16PageTableManager7ClonePDEP9PageTableS1_+0x25c>
  100a21:	48 8b 45 f0          	mov    -0x10(%rbp),%rax
  100a25:	8b 55 fc             	mov    -0x4(%rbp),%edx
  100a28:	0f b6 0c d0          	movzbl (%rax,%rdx,8),%ecx
  100a2c:	83 c9 80             	or     $0xffffff80,%ecx
  100a2f:	88 0c d0             	mov    %cl,(%rax,%rdx,8)
  100a32:	48 8b 45 b0          	mov    -0x50(%rbp),%rax
  100a36:	8b 55 fc             	mov    -0x4(%rbp),%edx
  100a39:	0f b6 44 d0 01       	movzbl 0x1(%rax,%rdx,8),%eax
  100a3e:	83 e0 01             	and    $0x1,%eax
  100a41:	84 c0                	test   %al,%al
  100a43:	74 13                	je     100a58 <_ZN16PageTableManager7ClonePDEP9PageTableS1_+0x282>
  100a45:	48 8b 45 f0          	mov    -0x10(%rbp),%rax
  100a49:	8b 55 fc             	mov    -0x4(%rbp),%edx
  100a4c:	0f b6 4c d0 01       	movzbl 0x1(%rax,%rdx,8),%ecx
  100a51:	83 c9 01             	or     $0x1,%ecx
  100a54:	88 4c d0 01          	mov    %cl,0x1(%rax,%rdx,8)
  100a58:	48 8b 45 b0          	mov    -0x50(%rbp),%rax
  100a5c:	8b 55 fc             	mov    -0x4(%rbp),%edx
  100a5f:	0f b6 44 d0 07       	movzbl 0x7(%rax,%rdx,8),%eax
  100a64:	c0 e8 07             	shr    $0x7,%al
  100a67:	84 c0                	test   %al,%al
  100a69:	74 16                	je     100a81 <_ZN16PageTableManager7ClonePDEP9PageTableS1_+0x2ab>
  100a6b:	48 8b 45 f0          	mov    -0x10(%rbp),%rax
  100a6f:	8b 55 fc             	mov    -0x4(%rbp),%edx
  100a72:	0f b6 4c d0 07       	movzbl 0x7(%rax,%rdx,8),%ecx
  100a77:	83 c9 80             	or     $0xffffff80,%ecx
  100a7a:	88 4c d0 07          	mov    %cl,0x7(%rax,%rdx,8)
  100a7e:	eb 01                	jmp    100a81 <_ZN16PageTableManager7ClonePDEP9PageTableS1_+0x2ab>
  100a80:	90                   	nop
  100a81:	83 45 fc 01          	addl   $0x1,-0x4(%rbp)
  100a85:	e9 92 fd ff ff       	jmpq   10081c <_ZN16PageTableManager7ClonePDEP9PageTableS1_+0x46>
  100a8a:	48 8b 45 f0          	mov    -0x10(%rbp),%rax
  100a8e:	c9                   	leaveq 
  100a8f:	c3                   	retq   

0000000000100a90 <_ZN16PageTableManager8ClonePDPEP9PageTableS1_>:
  100a90:	f3 0f 1e fa          	endbr64 
  100a94:	55                   	push   %rbp
  100a95:	48 89 e5             	mov    %rsp,%rbp
  100a98:	48 83 ec 60          	sub    $0x60,%rsp
  100a9c:	48 89 7d b8          	mov    %rdi,-0x48(%rbp)
  100aa0:	48 89 75 b0          	mov    %rsi,-0x50(%rbp)
  100aa4:	48 89 55 a8          	mov    %rdx,-0x58(%rbp)
  100aa8:	e8 75 0a 00 00       	callq  101522 <_ZN18PageFrameAllocator15SharedAllocatorEv>
  100aad:	48 89 c7             	mov    %rax,%rdi
  100ab0:	e8 c1 07 00 00       	callq  101276 <_ZN18PageFrameAllocator11RequestPageEv>
  100ab5:	48 89 45 f0          	mov    %rax,-0x10(%rbp)
  100ab9:	48 8b 45 f0          	mov    -0x10(%rbp),%rax
  100abd:	ba 00 10 00 00       	mov    $0x1000,%edx
  100ac2:	be 00 00 00 00       	mov    $0x0,%esi
  100ac7:	48 89 c7             	mov    %rax,%rdi
  100aca:	e8 9c c3 00 00       	callq  10ce6b <_Z6memsetPvim>
  100acf:	c7 45 fc 00 00 00 00 	movl   $0x0,-0x4(%rbp)
  100ad6:	81 7d fc ff 01 00 00 	cmpl   $0x1ff,-0x4(%rbp)
  100add:	0f 87 61 02 00 00    	ja     100d44 <_ZN16PageTableManager8ClonePDPEP9PageTableS1_+0x2b4>
  100ae3:	48 8b 45 b0          	mov    -0x50(%rbp),%rax
  100ae7:	8b 55 fc             	mov    -0x4(%rbp),%edx
  100aea:	48 8b 04 d0          	mov    (%rax,%rdx,8),%rax
  100aee:	48 c1 e8 0c          	shr    $0xc,%rax
  100af2:	25 ff ff ff 0f       	and    $0xfffffff,%eax
  100af7:	85 c0                	test   %eax,%eax
  100af9:	0f 84 3b 02 00 00    	je     100d3a <_ZN16PageTableManager8ClonePDPEP9PageTableS1_+0x2aa>
  100aff:	8b 45 fc             	mov    -0x4(%rbp),%eax
  100b02:	48 8d 14 c5 00 00 00 	lea    0x0(,%rax,8),%rdx
  100b09:	00 
  100b0a:	48 8b 45 b0          	mov    -0x50(%rbp),%rax
  100b0e:	48 01 d0             	add    %rdx,%rax
  100b11:	48 8b 00             	mov    (%rax),%rax
  100b14:	48 89 45 e8          	mov    %rax,-0x18(%rbp)
  100b18:	8b 45 fc             	mov    -0x4(%rbp),%eax
  100b1b:	48 8d 14 c5 00 00 00 	lea    0x0(,%rax,8),%rdx
  100b22:	00 
  100b23:	48 8b 45 a8          	mov    -0x58(%rbp),%rax
  100b27:	48 01 d0             	add    %rdx,%rax
  100b2a:	48 8b 00             	mov    (%rax),%rax
  100b2d:	48 89 45 e0          	mov    %rax,-0x20(%rbp)
  100b31:	48 8b 45 e8          	mov    -0x18(%rbp),%rax
  100b35:	48 3b 45 e0          	cmp    -0x20(%rbp),%rax
  100b39:	75 1b                	jne    100b56 <_ZN16PageTableManager8ClonePDPEP9PageTableS1_+0xc6>
  100b3b:	48 8b 45 f0          	mov    -0x10(%rbp),%rax
  100b3f:	8b 55 fc             	mov    -0x4(%rbp),%edx
  100b42:	48 8b 4d b0          	mov    -0x50(%rbp),%rcx
  100b46:	8b 75 fc             	mov    -0x4(%rbp),%esi
  100b49:	48 8b 0c f1          	mov    (%rcx,%rsi,8),%rcx
  100b4d:	48 89 0c d0          	mov    %rcx,(%rax,%rdx,8)
  100b51:	e9 e5 01 00 00       	jmpq   100d3b <_ZN16PageTableManager8ClonePDPEP9PageTableS1_+0x2ab>
  100b56:	48 8b 45 b0          	mov    -0x50(%rbp),%rax
  100b5a:	8b 55 fc             	mov    -0x4(%rbp),%edx
  100b5d:	48 8b 04 d0          	mov    (%rax,%rdx,8),%rax
  100b61:	48 c1 e8 0c          	shr    $0xc,%rax
  100b65:	25 ff ff ff 0f       	and    $0xfffffff,%eax
  100b6a:	c1 e0 0c             	shl    $0xc,%eax
  100b6d:	48 98                	cltq   
  100b6f:	48 89 45 d8          	mov    %rax,-0x28(%rbp)
  100b73:	48 8b 45 a8          	mov    -0x58(%rbp),%rax
  100b77:	8b 55 fc             	mov    -0x4(%rbp),%edx
  100b7a:	48 8b 04 d0          	mov    (%rax,%rdx,8),%rax
  100b7e:	48 c1 e8 0c          	shr    $0xc,%rax
  100b82:	25 ff ff ff 0f       	and    $0xfffffff,%eax
  100b87:	c1 e0 0c             	shl    $0xc,%eax
  100b8a:	48 98                	cltq   
  100b8c:	48 89 45 d0          	mov    %rax,-0x30(%rbp)
  100b90:	48 8b 55 d0          	mov    -0x30(%rbp),%rdx
  100b94:	48 8b 4d d8          	mov    -0x28(%rbp),%rcx
  100b98:	48 8b 45 b8          	mov    -0x48(%rbp),%rax
  100b9c:	48 89 ce             	mov    %rcx,%rsi
  100b9f:	48 89 c7             	mov    %rax,%rdi
  100ba2:	e8 2f fc ff ff       	callq  1007d6 <_ZN16PageTableManager7ClonePDEP9PageTableS1_>
  100ba7:	48 89 45 c8          	mov    %rax,-0x38(%rbp)
  100bab:	48 8b 45 c8          	mov    -0x38(%rbp),%rax
  100baf:	48 c1 e8 0c          	shr    $0xc,%rax
  100bb3:	89 c1                	mov    %eax,%ecx
  100bb5:	81 e1 ff ff ff 0f    	and    $0xfffffff,%ecx
  100bbb:	48 8b 45 f0          	mov    -0x10(%rbp),%rax
  100bbf:	8b 55 fc             	mov    -0x4(%rbp),%edx
  100bc2:	89 c9                	mov    %ecx,%ecx
  100bc4:	81 e1 ff ff ff 0f    	and    $0xfffffff,%ecx
  100bca:	48 89 ce             	mov    %rcx,%rsi
  100bcd:	48 c1 e6 0c          	shl    $0xc,%rsi
  100bd1:	48 8b 0c d0          	mov    (%rax,%rdx,8),%rcx
  100bd5:	48 bf ff 0f 00 00 00 	movabs $0xffffff0000000fff,%rdi
  100bdc:	ff ff ff 
  100bdf:	48 21 f9             	and    %rdi,%rcx
  100be2:	48 09 f1             	or     %rsi,%rcx
  100be5:	48 89 0c d0          	mov    %rcx,(%rax,%rdx,8)
  100be9:	48 8b 45 b0          	mov    -0x50(%rbp),%rax
  100bed:	8b 55 fc             	mov    -0x4(%rbp),%edx
  100bf0:	0f b6 04 d0          	movzbl (%rax,%rdx,8),%eax
  100bf4:	83 e0 01             	and    $0x1,%eax
  100bf7:	84 c0                	test   %al,%al
  100bf9:	74 11                	je     100c0c <_ZN16PageTableManager8ClonePDPEP9PageTableS1_+0x17c>
  100bfb:	48 8b 45 f0          	mov    -0x10(%rbp),%rax
  100bff:	8b 55 fc             	mov    -0x4(%rbp),%edx
  100c02:	0f b6 0c d0          	movzbl (%rax,%rdx,8),%ecx
  100c06:	83 c9 01             	or     $0x1,%ecx
  100c09:	88 0c d0             	mov    %cl,(%rax,%rdx,8)
  100c0c:	48 8b 45 b0          	mov    -0x50(%rbp),%rax
  100c10:	8b 55 fc             	mov    -0x4(%rbp),%edx
  100c13:	0f b6 04 d0          	movzbl (%rax,%rdx,8),%eax
  100c17:	d0 e8                	shr    %al
  100c19:	83 e0 01             	and    $0x1,%eax
  100c1c:	84 c0                	test   %al,%al
  100c1e:	74 11                	je     100c31 <_ZN16PageTableManager8ClonePDPEP9PageTableS1_+0x1a1>
  100c20:	48 8b 45 f0          	mov    -0x10(%rbp),%rax
  100c24:	8b 55 fc             	mov    -0x4(%rbp),%edx
  100c27:	0f b6 0c d0          	movzbl (%rax,%rdx,8),%ecx
  100c2b:	83 c9 02             	or     $0x2,%ecx
  100c2e:	88 0c d0             	mov    %cl,(%rax,%rdx,8)
  100c31:	48 8b 45 b0          	mov    -0x50(%rbp),%rax
  100c35:	8b 55 fc             	mov    -0x4(%rbp),%edx
  100c38:	0f b6 04 d0          	movzbl (%rax,%rdx,8),%eax
  100c3c:	c0 e8 02             	shr    $0x2,%al
  100c3f:	83 e0 01             	and    $0x1,%eax
  100c42:	84 c0                	test   %al,%al
  100c44:	74 11                	je     100c57 <_ZN16PageTableManager8ClonePDPEP9PageTableS1_+0x1c7>
  100c46:	48 8b 45 f0          	mov    -0x10(%rbp),%rax
  100c4a:	8b 55 fc             	mov    -0x4(%rbp),%edx
  100c4d:	0f b6 0c d0          	movzbl (%rax,%rdx,8),%ecx
  100c51:	83 c9 04             	or     $0x4,%ecx
  100c54:	88 0c d0             	mov    %cl,(%rax,%rdx,8)
  100c57:	48 8b 45 b0          	mov    -0x50(%rbp),%rax
  100c5b:	8b 55 fc             	mov    -0x4(%rbp),%edx
  100c5e:	0f b6 04 d0          	movzbl (%rax,%rdx,8),%eax
  100c62:	c0 e8 03             	shr    $0x3,%al
  100c65:	83 e0 01             	and    $0x1,%eax
  100c68:	84 c0                	test   %al,%al
  100c6a:	74 11                	je     100c7d <_ZN16PageTableManager8ClonePDPEP9PageTableS1_+0x1ed>
  100c6c:	48 8b 45 f0          	mov    -0x10(%rbp),%rax
  100c70:	8b 55 fc             	mov    -0x4(%rbp),%edx
  100c73:	0f b6 0c d0          	movzbl (%rax,%rdx,8),%ecx
  100c77:	83 c9 08             	or     $0x8,%ecx
  100c7a:	88 0c d0             	mov    %cl,(%rax,%rdx,8)
  100c7d:	48 8b 45 b0          	mov    -0x50(%rbp),%rax
  100c81:	8b 55 fc             	mov    -0x4(%rbp),%edx
  100c84:	0f b6 04 d0          	movzbl (%rax,%rdx,8),%eax
  100c88:	c0 e8 05             	shr    $0x5,%al
  100c8b:	83 e0 01             	and    $0x1,%eax
  100c8e:	84 c0                	test   %al,%al
  100c90:	74 11                	je     100ca3 <_ZN16PageTableManager8ClonePDPEP9PageTableS1_+0x213>
  100c92:	48 8b 45 f0          	mov    -0x10(%rbp),%rax
  100c96:	8b 55 fc             	mov    -0x4(%rbp),%edx
  100c99:	0f b6 0c d0          	movzbl (%rax,%rdx,8),%ecx
  100c9d:	83 c9 20             	or     $0x20,%ecx
  100ca0:	88 0c d0             	mov    %cl,(%rax,%rdx,8)
  100ca3:	48 8b 45 b0          	mov    -0x50(%rbp),%rax
  100ca7:	8b 55 fc             	mov    -0x4(%rbp),%edx
  100caa:	0f b6 04 d0          	movzbl (%rax,%rdx,8),%eax
  100cae:	c0 e8 06             	shr    $0x6,%al
  100cb1:	83 e0 01             	and    $0x1,%eax
  100cb4:	84 c0                	test   %al,%al
  100cb6:	74 11                	je     100cc9 <_ZN16PageTableManager8ClonePDPEP9PageTableS1_+0x239>
  100cb8:	48 8b 45 f0          	mov    -0x10(%rbp),%rax
  100cbc:	8b 55 fc             	mov    -0x4(%rbp),%edx
  100cbf:	0f b6 0c d0          	movzbl (%rax,%rdx,8),%ecx
  100cc3:	83 c9 40             	or     $0x40,%ecx
  100cc6:	88 0c d0             	mov    %cl,(%rax,%rdx,8)
  100cc9:	48 8b 45 b0          	mov    -0x50(%rbp),%rax
  100ccd:	8b 55 fc             	mov    -0x4(%rbp),%edx
  100cd0:	0f b6 04 d0          	movzbl (%rax,%rdx,8),%eax
  100cd4:	c0 e8 07             	shr    $0x7,%al
  100cd7:	84 c0                	test   %al,%al
  100cd9:	74 11                	je     100cec <_ZN16PageTableManager8ClonePDPEP9PageTableS1_+0x25c>
  100cdb:	48 8b 45 f0          	mov    -0x10(%rbp),%rax
  100cdf:	8b 55 fc             	mov    -0x4(%rbp),%edx
  100ce2:	0f b6 0c d0          	movzbl (%rax,%rdx,8),%ecx
  100ce6:	83 c9 80             	or     $0xffffff80,%ecx
  100ce9:	88 0c d0             	mov    %cl,(%rax,%rdx,8)
  100cec:	48 8b 45 b0          	mov    -0x50(%rbp),%rax
  100cf0:	8b 55 fc             	mov    -0x4(%rbp),%edx
  100cf3:	0f b6 44 d0 01       	movzbl 0x1(%rax,%rdx,8),%eax
  100cf8:	83 e0 01             	and    $0x1,%eax
  100cfb:	84 c0                	test   %al,%al
  100cfd:	74 13                	je     100d12 <_ZN16PageTableManager8ClonePDPEP9PageTableS1_+0x282>
  100cff:	48 8b 45 f0          	mov    -0x10(%rbp),%rax
  100d03:	8b 55 fc             	mov    -0x4(%rbp),%edx
  100d06:	0f b6 4c d0 01       	movzbl 0x1(%rax,%rdx,8),%ecx
  100d0b:	83 c9 01             	or     $0x1,%ecx
  100d0e:	88 4c d0 01          	mov    %cl,0x1(%rax,%rdx,8)
  100d12:	48 8b 45 b0          	mov    -0x50(%rbp),%rax
  100d16:	8b 55 fc             	mov    -0x4(%rbp),%edx
  100d19:	0f b6 44 d0 07       	movzbl 0x7(%rax,%rdx,8),%eax
  100d1e:	c0 e8 07             	shr    $0x7,%al
  100d21:	84 c0                	test   %al,%al
  100d23:	74 16                	je     100d3b <_ZN16PageTableManager8ClonePDPEP9PageTableS1_+0x2ab>
  100d25:	48 8b 45 f0          	mov    -0x10(%rbp),%rax
  100d29:	8b 55 fc             	mov    -0x4(%rbp),%edx
  100d2c:	0f b6 4c d0 07       	movzbl 0x7(%rax,%rdx,8),%ecx
  100d31:	83 c9 80             	or     $0xffffff80,%ecx
  100d34:	88 4c d0 07          	mov    %cl,0x7(%rax,%rdx,8)
  100d38:	eb 01                	jmp    100d3b <_ZN16PageTableManager8ClonePDPEP9PageTableS1_+0x2ab>
  100d3a:	90                   	nop
  100d3b:	83 45 fc 01          	addl   $0x1,-0x4(%rbp)
  100d3f:	e9 92 fd ff ff       	jmpq   100ad6 <_ZN16PageTableManager8ClonePDPEP9PageTableS1_+0x46>
  100d44:	48 8b 45 f0          	mov    -0x10(%rbp),%rax
  100d48:	c9                   	leaveq 
  100d49:	c3                   	retq   

0000000000100d4a <_ZN16PageTableManager9ClonePML4EP9PageTableS1_>:
  100d4a:	f3 0f 1e fa          	endbr64 
  100d4e:	55                   	push   %rbp
  100d4f:	48 89 e5             	mov    %rsp,%rbp
  100d52:	48 83 ec 60          	sub    $0x60,%rsp
  100d56:	48 89 7d b8          	mov    %rdi,-0x48(%rbp)
  100d5a:	48 89 75 b0          	mov    %rsi,-0x50(%rbp)
  100d5e:	48 89 55 a8          	mov    %rdx,-0x58(%rbp)
  100d62:	e8 bb 07 00 00       	callq  101522 <_ZN18PageFrameAllocator15SharedAllocatorEv>
  100d67:	48 89 c7             	mov    %rax,%rdi
  100d6a:	e8 07 05 00 00       	callq  101276 <_ZN18PageFrameAllocator11RequestPageEv>
  100d6f:	48 89 45 f0          	mov    %rax,-0x10(%rbp)
  100d73:	48 8b 45 f0          	mov    -0x10(%rbp),%rax
  100d77:	ba 00 10 00 00       	mov    $0x1000,%edx
  100d7c:	be 00 00 00 00       	mov    $0x0,%esi
  100d81:	48 89 c7             	mov    %rax,%rdi
  100d84:	e8 e2 c0 00 00       	callq  10ce6b <_Z6memsetPvim>
  100d89:	c7 45 fc 00 00 00 00 	movl   $0x0,-0x4(%rbp)
  100d90:	81 7d fc ff 01 00 00 	cmpl   $0x1ff,-0x4(%rbp)
  100d97:	0f 87 61 02 00 00    	ja     100ffe <_ZN16PageTableManager9ClonePML4EP9PageTableS1_+0x2b4>
  100d9d:	48 8b 45 b0          	mov    -0x50(%rbp),%rax
  100da1:	8b 55 fc             	mov    -0x4(%rbp),%edx
  100da4:	48 8b 04 d0          	mov    (%rax,%rdx,8),%rax
  100da8:	48 c1 e8 0c          	shr    $0xc,%rax
  100dac:	25 ff ff ff 0f       	and    $0xfffffff,%eax
  100db1:	85 c0                	test   %eax,%eax
  100db3:	0f 84 3b 02 00 00    	je     100ff4 <_ZN16PageTableManager9ClonePML4EP9PageTableS1_+0x2aa>
  100db9:	8b 45 fc             	mov    -0x4(%rbp),%eax
  100dbc:	48 8d 14 c5 00 00 00 	lea    0x0(,%rax,8),%rdx
  100dc3:	00 
  100dc4:	48 8b 45 b0          	mov    -0x50(%rbp),%rax
  100dc8:	48 01 d0             	add    %rdx,%rax
  100dcb:	48 8b 00             	mov    (%rax),%rax
  100dce:	48 89 45 e8          	mov    %rax,-0x18(%rbp)
  100dd2:	8b 45 fc             	mov    -0x4(%rbp),%eax
  100dd5:	48 8d 14 c5 00 00 00 	lea    0x0(,%rax,8),%rdx
  100ddc:	00 
  100ddd:	48 8b 45 a8          	mov    -0x58(%rbp),%rax
  100de1:	48 01 d0             	add    %rdx,%rax
  100de4:	48 8b 00             	mov    (%rax),%rax
  100de7:	48 89 45 e0          	mov    %rax,-0x20(%rbp)
  100deb:	48 8b 45 e8          	mov    -0x18(%rbp),%rax
  100def:	48 3b 45 e0          	cmp    -0x20(%rbp),%rax
  100df3:	75 1b                	jne    100e10 <_ZN16PageTableManager9ClonePML4EP9PageTableS1_+0xc6>
  100df5:	48 8b 45 f0          	mov    -0x10(%rbp),%rax
  100df9:	8b 55 fc             	mov    -0x4(%rbp),%edx
  100dfc:	48 8b 4d b0          	mov    -0x50(%rbp),%rcx
  100e00:	8b 75 fc             	mov    -0x4(%rbp),%esi
  100e03:	48 8b 0c f1          	mov    (%rcx,%rsi,8),%rcx
  100e07:	48 89 0c d0          	mov    %rcx,(%rax,%rdx,8)
  100e0b:	e9 e5 01 00 00       	jmpq   100ff5 <_ZN16PageTableManager9ClonePML4EP9PageTableS1_+0x2ab>
  100e10:	48 8b 45 b0          	mov    -0x50(%rbp),%rax
  100e14:	8b 55 fc             	mov    -0x4(%rbp),%edx
  100e17:	48 8b 04 d0          	mov    (%rax,%rdx,8),%rax
  100e1b:	48 c1 e8 0c          	shr    $0xc,%rax
  100e1f:	25 ff ff ff 0f       	and    $0xfffffff,%eax
  100e24:	c1 e0 0c             	shl    $0xc,%eax
  100e27:	48 98                	cltq   
  100e29:	48 89 45 d8          	mov    %rax,-0x28(%rbp)
  100e2d:	48 8b 45 a8          	mov    -0x58(%rbp),%rax
  100e31:	8b 55 fc             	mov    -0x4(%rbp),%edx
  100e34:	48 8b 04 d0          	mov    (%rax,%rdx,8),%rax
  100e38:	48 c1 e8 0c          	shr    $0xc,%rax
  100e3c:	25 ff ff ff 0f       	and    $0xfffffff,%eax
  100e41:	c1 e0 0c             	shl    $0xc,%eax
  100e44:	48 98                	cltq   
  100e46:	48 89 45 d0          	mov    %rax,-0x30(%rbp)
  100e4a:	48 8b 55 d0          	mov    -0x30(%rbp),%rdx
  100e4e:	48 8b 4d d8          	mov    -0x28(%rbp),%rcx
  100e52:	48 8b 45 b8          	mov    -0x48(%rbp),%rax
  100e56:	48 89 ce             	mov    %rcx,%rsi
  100e59:	48 89 c7             	mov    %rax,%rdi
  100e5c:	e8 2f fc ff ff       	callq  100a90 <_ZN16PageTableManager8ClonePDPEP9PageTableS1_>
  100e61:	48 89 45 c8          	mov    %rax,-0x38(%rbp)
  100e65:	48 8b 45 c8          	mov    -0x38(%rbp),%rax
  100e69:	48 c1 e8 0c          	shr    $0xc,%rax
  100e6d:	89 c1                	mov    %eax,%ecx
  100e6f:	81 e1 ff ff ff 0f    	and    $0xfffffff,%ecx
  100e75:	48 8b 45 f0          	mov    -0x10(%rbp),%rax
  100e79:	8b 55 fc             	mov    -0x4(%rbp),%edx
  100e7c:	89 c9                	mov    %ecx,%ecx
  100e7e:	81 e1 ff ff ff 0f    	and    $0xfffffff,%ecx
  100e84:	48 89 ce             	mov    %rcx,%rsi
  100e87:	48 c1 e6 0c          	shl    $0xc,%rsi
  100e8b:	48 8b 0c d0          	mov    (%rax,%rdx,8),%rcx
  100e8f:	48 bf ff 0f 00 00 00 	movabs $0xffffff0000000fff,%rdi
  100e96:	ff ff ff 
  100e99:	48 21 f9             	and    %rdi,%rcx
  100e9c:	48 09 f1             	or     %rsi,%rcx
  100e9f:	48 89 0c d0          	mov    %rcx,(%rax,%rdx,8)
  100ea3:	48 8b 45 b0          	mov    -0x50(%rbp),%rax
  100ea7:	8b 55 fc             	mov    -0x4(%rbp),%edx
  100eaa:	0f b6 04 d0          	movzbl (%rax,%rdx,8),%eax
  100eae:	83 e0 01             	and    $0x1,%eax
  100eb1:	84 c0                	test   %al,%al
  100eb3:	74 11                	je     100ec6 <_ZN16PageTableManager9ClonePML4EP9PageTableS1_+0x17c>
  100eb5:	48 8b 45 f0          	mov    -0x10(%rbp),%rax
  100eb9:	8b 55 fc             	mov    -0x4(%rbp),%edx
  100ebc:	0f b6 0c d0          	movzbl (%rax,%rdx,8),%ecx
  100ec0:	83 c9 01             	or     $0x1,%ecx
  100ec3:	88 0c d0             	mov    %cl,(%rax,%rdx,8)
  100ec6:	48 8b 45 b0          	mov    -0x50(%rbp),%rax
  100eca:	8b 55 fc             	mov    -0x4(%rbp),%edx
  100ecd:	0f b6 04 d0          	movzbl (%rax,%rdx,8),%eax
  100ed1:	d0 e8                	shr    %al
  100ed3:	83 e0 01             	and    $0x1,%eax
  100ed6:	84 c0                	test   %al,%al
  100ed8:	74 11                	je     100eeb <_ZN16PageTableManager9ClonePML4EP9PageTableS1_+0x1a1>
  100eda:	48 8b 45 f0          	mov    -0x10(%rbp),%rax
  100ede:	8b 55 fc             	mov    -0x4(%rbp),%edx
  100ee1:	0f b6 0c d0          	movzbl (%rax,%rdx,8),%ecx
  100ee5:	83 c9 02             	or     $0x2,%ecx
  100ee8:	88 0c d0             	mov    %cl,(%rax,%rdx,8)
  100eeb:	48 8b 45 b0          	mov    -0x50(%rbp),%rax
  100eef:	8b 55 fc             	mov    -0x4(%rbp),%edx
  100ef2:	0f b6 04 d0          	movzbl (%rax,%rdx,8),%eax
  100ef6:	c0 e8 02             	shr    $0x2,%al
  100ef9:	83 e0 01             	and    $0x1,%eax
  100efc:	84 c0                	test   %al,%al
  100efe:	74 11                	je     100f11 <_ZN16PageTableManager9ClonePML4EP9PageTableS1_+0x1c7>
  100f00:	48 8b 45 f0          	mov    -0x10(%rbp),%rax
  100f04:	8b 55 fc             	mov    -0x4(%rbp),%edx
  100f07:	0f b6 0c d0          	movzbl (%rax,%rdx,8),%ecx
  100f0b:	83 c9 04             	or     $0x4,%ecx
  100f0e:	88 0c d0             	mov    %cl,(%rax,%rdx,8)
  100f11:	48 8b 45 b0          	mov    -0x50(%rbp),%rax
  100f15:	8b 55 fc             	mov    -0x4(%rbp),%edx
  100f18:	0f b6 04 d0          	movzbl (%rax,%rdx,8),%eax
  100f1c:	c0 e8 03             	shr    $0x3,%al
  100f1f:	83 e0 01             	and    $0x1,%eax
  100f22:	84 c0                	test   %al,%al
  100f24:	74 11                	je     100f37 <_ZN16PageTableManager9ClonePML4EP9PageTableS1_+0x1ed>
  100f26:	48 8b 45 f0          	mov    -0x10(%rbp),%rax
  100f2a:	8b 55 fc             	mov    -0x4(%rbp),%edx
  100f2d:	0f b6 0c d0          	movzbl (%rax,%rdx,8),%ecx
  100f31:	83 c9 08             	or     $0x8,%ecx
  100f34:	88 0c d0             	mov    %cl,(%rax,%rdx,8)
  100f37:	48 8b 45 b0          	mov    -0x50(%rbp),%rax
  100f3b:	8b 55 fc             	mov    -0x4(%rbp),%edx
  100f3e:	0f b6 04 d0          	movzbl (%rax,%rdx,8),%eax
  100f42:	c0 e8 05             	shr    $0x5,%al
  100f45:	83 e0 01             	and    $0x1,%eax
  100f48:	84 c0                	test   %al,%al
  100f4a:	74 11                	je     100f5d <_ZN16PageTableManager9ClonePML4EP9PageTableS1_+0x213>
  100f4c:	48 8b 45 f0          	mov    -0x10(%rbp),%rax
  100f50:	8b 55 fc             	mov    -0x4(%rbp),%edx
  100f53:	0f b6 0c d0          	movzbl (%rax,%rdx,8),%ecx
  100f57:	83 c9 20             	or     $0x20,%ecx
  100f5a:	88 0c d0             	mov    %cl,(%rax,%rdx,8)
  100f5d:	48 8b 45 b0          	mov    -0x50(%rbp),%rax
  100f61:	8b 55 fc             	mov    -0x4(%rbp),%edx
  100f64:	0f b6 04 d0          	movzbl (%rax,%rdx,8),%eax
  100f68:	c0 e8 06             	shr    $0x6,%al
  100f6b:	83 e0 01             	and    $0x1,%eax
  100f6e:	84 c0                	test   %al,%al
  100f70:	74 11                	je     100f83 <_ZN16PageTableManager9ClonePML4EP9PageTableS1_+0x239>
  100f72:	48 8b 45 f0          	mov    -0x10(%rbp),%rax
  100f76:	8b 55 fc             	mov    -0x4(%rbp),%edx
  100f79:	0f b6 0c d0          	movzbl (%rax,%rdx,8),%ecx
  100f7d:	83 c9 40             	or     $0x40,%ecx
  100f80:	88 0c d0             	mov    %cl,(%rax,%rdx,8)
  100f83:	48 8b 45 b0          	mov    -0x50(%rbp),%rax
  100f87:	8b 55 fc             	mov    -0x4(%rbp),%edx
  100f8a:	0f b6 04 d0          	movzbl (%rax,%rdx,8),%eax
  100f8e:	c0 e8 07             	shr    $0x7,%al
  100f91:	84 c0                	test   %al,%al
  100f93:	74 11                	je     100fa6 <_ZN16PageTableManager9ClonePML4EP9PageTableS1_+0x25c>
  100f95:	48 8b 45 f0          	mov    -0x10(%rbp),%rax
  100f99:	8b 55 fc             	mov    -0x4(%rbp),%edx
  100f9c:	0f b6 0c d0          	movzbl (%rax,%rdx,8),%ecx
  100fa0:	83 c9 80             	or     $0xffffff80,%ecx
  100fa3:	88 0c d0             	mov    %cl,(%rax,%rdx,8)
  100fa6:	48 8b 45 b0          	mov    -0x50(%rbp),%rax
  100faa:	8b 55 fc             	mov    -0x4(%rbp),%edx
  100fad:	0f b6 44 d0 01       	movzbl 0x1(%rax,%rdx,8),%eax
  100fb2:	83 e0 01             	and    $0x1,%eax
  100fb5:	84 c0                	test   %al,%al
  100fb7:	74 13                	je     100fcc <_ZN16PageTableManager9ClonePML4EP9PageTableS1_+0x282>
  100fb9:	48 8b 45 f0          	mov    -0x10(%rbp),%rax
  100fbd:	8b 55 fc             	mov    -0x4(%rbp),%edx
  100fc0:	0f b6 4c d0 01       	movzbl 0x1(%rax,%rdx,8),%ecx
  100fc5:	83 c9 01             	or     $0x1,%ecx
  100fc8:	88 4c d0 01          	mov    %cl,0x1(%rax,%rdx,8)
  100fcc:	48 8b 45 b0          	mov    -0x50(%rbp),%rax
  100fd0:	8b 55 fc             	mov    -0x4(%rbp),%edx
  100fd3:	0f b6 44 d0 07       	movzbl 0x7(%rax,%rdx,8),%eax
  100fd8:	c0 e8 07             	shr    $0x7,%al
  100fdb:	84 c0                	test   %al,%al
  100fdd:	74 16                	je     100ff5 <_ZN16PageTableManager9ClonePML4EP9PageTableS1_+0x2ab>
  100fdf:	48 8b 45 f0          	mov    -0x10(%rbp),%rax
  100fe3:	8b 55 fc             	mov    -0x4(%rbp),%edx
  100fe6:	0f b6 4c d0 07       	movzbl 0x7(%rax,%rdx,8),%ecx
  100feb:	83 c9 80             	or     $0xffffff80,%ecx
  100fee:	88 4c d0 07          	mov    %cl,0x7(%rax,%rdx,8)
  100ff2:	eb 01                	jmp    100ff5 <_ZN16PageTableManager9ClonePML4EP9PageTableS1_+0x2ab>
  100ff4:	90                   	nop
  100ff5:	83 45 fc 01          	addl   $0x1,-0x4(%rbp)
  100ff9:	e9 92 fd ff ff       	jmpq   100d90 <_ZN16PageTableManager9ClonePML4EP9PageTableS1_+0x46>
  100ffe:	48 8b 45 f0          	mov    -0x10(%rbp),%rax
  101002:	c9                   	leaveq 
  101003:	c3                   	retq   

0000000000101004 <_ZN18PageFrameAllocator13ReadMemoryMapEP9MemoryMap>:
  101004:	f3 0f 1e fa          	endbr64 
  101008:	55                   	push   %rbp
  101009:	48 89 e5             	mov    %rsp,%rbp
  10100c:	48 83 ec 60          	sub    $0x60,%rsp
  101010:	48 89 7d a8          	mov    %rdi,-0x58(%rbp)
  101014:	48 89 75 a0          	mov    %rsi,-0x60(%rbp)
  101018:	48 c7 45 f8 00 00 00 	movq   $0x0,-0x8(%rbp)
  10101f:	00 
  101020:	48 c7 45 f0 00 00 00 	movq   $0x0,-0x10(%rbp)
  101027:	00 
  101028:	48 c7 45 e8 00 00 00 	movq   $0x0,-0x18(%rbp)
  10102f:	00 
  101030:	48 8b 45 a0          	mov    -0x60(%rbp),%rax
  101034:	48 89 c7             	mov    %rax,%rdi
  101037:	e8 fc d0 00 00       	callq  10e138 <_ZNK9MemoryMap13GetEntryCountEv>
  10103c:	48 39 45 e8          	cmp    %rax,-0x18(%rbp)
  101040:	0f 92 c0             	setb   %al
  101043:	84 c0                	test   %al,%al
  101045:	74 5a                	je     1010a1 <_ZN18PageFrameAllocator13ReadMemoryMapEP9MemoryMap+0x9d>
  101047:	48 8b 55 e8          	mov    -0x18(%rbp),%rdx
  10104b:	48 8b 45 a0          	mov    -0x60(%rbp),%rax
  10104f:	48 89 d6             	mov    %rdx,%rsi
  101052:	48 89 c7             	mov    %rax,%rdi
  101055:	e8 b6 2a 00 00       	callq  103b10 <_ZN9MemoryMap15IsUsuableMemoryEm>
  10105a:	84 c0                	test   %al,%al
  10105c:	74 3c                	je     10109a <_ZN18PageFrameAllocator13ReadMemoryMapEP9MemoryMap+0x96>
  10105e:	48 8b 55 e8          	mov    -0x18(%rbp),%rdx
  101062:	48 8b 45 a0          	mov    -0x60(%rbp),%rax
  101066:	48 89 d6             	mov    %rdx,%rsi
  101069:	48 89 c7             	mov    %rax,%rdi
  10106c:	e8 e1 d0 00 00       	callq  10e152 <_ZNK9MemoryMap8GetEntryEm>
  101071:	48 89 45 b8          	mov    %rax,-0x48(%rbp)
  101075:	48 8b 45 b8          	mov    -0x48(%rbp),%rax
  101079:	48 8b 40 08          	mov    0x8(%rax),%rax
  10107d:	48 39 45 f0          	cmp    %rax,-0x10(%rbp)
  101081:	73 17                	jae    10109a <_ZN18PageFrameAllocator13ReadMemoryMapEP9MemoryMap+0x96>
  101083:	48 8b 45 b8          	mov    -0x48(%rbp),%rax
  101087:	48 8b 00             	mov    (%rax),%rax
  10108a:	48 89 45 f8          	mov    %rax,-0x8(%rbp)
  10108e:	48 8b 45 b8          	mov    -0x48(%rbp),%rax
  101092:	48 8b 40 08          	mov    0x8(%rax),%rax
  101096:	48 89 45 f0          	mov    %rax,-0x10(%rbp)
  10109a:	48 83 45 e8 01       	addq   $0x1,-0x18(%rbp)
  10109f:	eb 8f                	jmp    101030 <_ZN18PageFrameAllocator13ReadMemoryMapEP9MemoryMap+0x2c>
  1010a1:	48 8b 45 f8          	mov    -0x8(%rbp),%rax
  1010a5:	48 89 45 e0          	mov    %rax,-0x20(%rbp)
  1010a9:	48 8b 05 d8 e3 00 00 	mov    0xe3d8(%rip),%rax        # 10f488 <kernelEnd>
  1010b0:	48 39 45 e0          	cmp    %rax,-0x20(%rbp)
  1010b4:	73 11                	jae    1010c7 <_ZN18PageFrameAllocator13ReadMemoryMapEP9MemoryMap+0xc3>
  1010b6:	48 8b 05 cb e3 00 00 	mov    0xe3cb(%rip),%rax        # 10f488 <kernelEnd>
  1010bd:	48 05 00 10 00 00    	add    $0x1000,%rax
  1010c3:	48 89 45 e0          	mov    %rax,-0x20(%rbp)
  1010c7:	48 8b 45 a0          	mov    -0x60(%rbp),%rax
  1010cb:	48 89 c7             	mov    %rax,%rdi
  1010ce:	e8 77 2b 00 00       	callq  103c4a <_ZN9MemoryMap20GetTotalSystemMemoryEv>
  1010d3:	48 89 45 d0          	mov    %rax,-0x30(%rbp)
  1010d7:	48 8b 45 a8          	mov    -0x58(%rbp),%rax
  1010db:	48 8b 55 d0          	mov    -0x30(%rbp),%rdx
  1010df:	48 89 50 10          	mov    %rdx,0x10(%rax)
  1010e3:	48 8b 45 a8          	mov    -0x58(%rbp),%rax
  1010e7:	48 c7 40 18 00 00 00 	movq   $0x0,0x18(%rax)
  1010ee:	00 
  1010ef:	48 8b 45 a8          	mov    -0x58(%rbp),%rax
  1010f3:	48 c7 40 20 00 00 00 	movq   $0x0,0x20(%rax)
  1010fa:	00 
  1010fb:	48 8b 45 d0          	mov    -0x30(%rbp),%rax
  1010ff:	48 c1 e8 0c          	shr    $0xc,%rax
  101103:	48 89 45 c8          	mov    %rax,-0x38(%rbp)
  101107:	48 8b 45 c8          	mov    -0x38(%rbp),%rax
  10110b:	48 c1 e8 06          	shr    $0x6,%rax
  10110f:	48 89 45 c8          	mov    %rax,-0x38(%rbp)
  101113:	48 83 45 c8 01       	addq   $0x1,-0x38(%rbp)
  101118:	48 8b 45 a8          	mov    -0x58(%rbp),%rax
  10111c:	48 8b 55 e0          	mov    -0x20(%rbp),%rdx
  101120:	48 89 d6             	mov    %rdx,%rsi
  101123:	48 89 c7             	mov    %rax,%rdi
  101126:	e8 e9 cf 00 00       	callq  10e114 <_ZN6Bitmap9SetBufferEPm>
  10112b:	48 8b 45 a8          	mov    -0x58(%rbp),%rax
  10112f:	48 8b 55 c8          	mov    -0x38(%rbp),%rdx
  101133:	48 c1 e2 03          	shl    $0x3,%rdx
  101137:	48 89 d6             	mov    %rdx,%rsi
  10113a:	48 89 c7             	mov    %rax,%rdi
  10113d:	e8 b0 cf 00 00       	callq  10e0f2 <_ZN6Bitmap7SetSizeEm>
  101142:	48 8b 45 c8          	mov    -0x38(%rbp),%rax
  101146:	48 8d 14 c5 00 00 00 	lea    0x0(,%rax,8),%rdx
  10114d:	00 
  10114e:	48 8b 45 a8          	mov    -0x58(%rbp),%rax
  101152:	48 8b 40 08          	mov    0x8(%rax),%rax
  101156:	be 00 00 00 00       	mov    $0x0,%esi
  10115b:	48 89 c7             	mov    %rax,%rdi
  10115e:	e8 08 bd 00 00       	callq  10ce6b <_Z6memsetPvim>
  101163:	48 8b 45 d0          	mov    -0x30(%rbp),%rax
  101167:	48 c1 e8 0c          	shr    $0xc,%rax
  10116b:	48 8d 50 01          	lea    0x1(%rax),%rdx
  10116f:	48 8b 45 a8          	mov    -0x58(%rbp),%rax
  101173:	be 00 00 00 00       	mov    $0x0,%esi
  101178:	48 89 c7             	mov    %rax,%rdi
  10117b:	e8 5a 01 00 00       	callq  1012da <_ZN18PageFrameAllocator12ReservePagesEPvm>
  101180:	48 c7 45 d8 00 00 00 	movq   $0x0,-0x28(%rbp)
  101187:	00 
  101188:	48 8b 45 a0          	mov    -0x60(%rbp),%rax
  10118c:	48 89 c7             	mov    %rax,%rdi
  10118f:	e8 a4 cf 00 00       	callq  10e138 <_ZNK9MemoryMap13GetEntryCountEv>
  101194:	48 39 45 d8          	cmp    %rax,-0x28(%rbp)
  101198:	0f 92 c0             	setb   %al
  10119b:	84 c0                	test   %al,%al
  10119d:	74 5d                	je     1011fc <_ZN18PageFrameAllocator13ReadMemoryMapEP9MemoryMap+0x1f8>
  10119f:	48 8b 55 d8          	mov    -0x28(%rbp),%rdx
  1011a3:	48 8b 45 a0          	mov    -0x60(%rbp),%rax
  1011a7:	48 89 d6             	mov    %rdx,%rsi
  1011aa:	48 89 c7             	mov    %rax,%rdi
  1011ad:	e8 5e 29 00 00       	callq  103b10 <_ZN9MemoryMap15IsUsuableMemoryEm>
  1011b2:	84 c0                	test   %al,%al
  1011b4:	74 3f                	je     1011f5 <_ZN18PageFrameAllocator13ReadMemoryMapEP9MemoryMap+0x1f1>
  1011b6:	48 8b 55 d8          	mov    -0x28(%rbp),%rdx
  1011ba:	48 8b 45 a0          	mov    -0x60(%rbp),%rax
  1011be:	48 89 d6             	mov    %rdx,%rsi
  1011c1:	48 89 c7             	mov    %rax,%rdi
  1011c4:	e8 89 cf 00 00       	callq  10e152 <_ZNK9MemoryMap8GetEntryEm>
  1011c9:	48 89 45 c0          	mov    %rax,-0x40(%rbp)
  1011cd:	48 8b 45 c0          	mov    -0x40(%rbp),%rax
  1011d1:	48 8b 40 08          	mov    0x8(%rax),%rax
  1011d5:	48 c1 e8 0c          	shr    $0xc,%rax
  1011d9:	48 89 c2             	mov    %rax,%rdx
  1011dc:	48 8b 45 c0          	mov    -0x40(%rbp),%rax
  1011e0:	48 8b 00             	mov    (%rax),%rax
  1011e3:	48 89 c1             	mov    %rax,%rcx
  1011e6:	48 8b 45 a8          	mov    -0x58(%rbp),%rax
  1011ea:	48 89 ce             	mov    %rcx,%rsi
  1011ed:	48 89 c7             	mov    %rax,%rdi
  1011f0:	e8 77 01 00 00       	callq  10136c <_ZN18PageFrameAllocator14UnreservePagesEPvm>
  1011f5:	48 83 45 d8 01       	addq   $0x1,-0x28(%rbp)
  1011fa:	eb 8c                	jmp    101188 <_ZN18PageFrameAllocator13ReadMemoryMapEP9MemoryMap+0x184>
  1011fc:	48 8b 45 a8          	mov    -0x58(%rbp),%rax
  101200:	ba 00 01 00 00       	mov    $0x100,%edx
  101205:	be 00 00 00 00       	mov    $0x0,%esi
  10120a:	48 89 c7             	mov    %rax,%rdi
  10120d:	e8 7e 02 00 00       	callq  101490 <_ZN18PageFrameAllocator9LockPagesEPvm>
  101212:	48 8b 15 6f e2 00 00 	mov    0xe26f(%rip),%rdx        # 10f488 <kernelEnd>
  101219:	48 8b 05 60 e2 00 00 	mov    0xe260(%rip),%rax        # 10f480 <kernelStart>
  101220:	48 29 c2             	sub    %rax,%rdx
  101223:	48 89 d0             	mov    %rdx,%rax
  101226:	48 05 00 10 00 00    	add    $0x1000,%rax
  10122c:	48 c1 e8 0c          	shr    $0xc,%rax
  101230:	48 89 c2             	mov    %rax,%rdx
  101233:	48 8b 05 46 e2 00 00 	mov    0xe246(%rip),%rax        # 10f480 <kernelStart>
  10123a:	48 89 c1             	mov    %rax,%rcx
  10123d:	48 8b 45 a8          	mov    -0x58(%rbp),%rax
  101241:	48 89 ce             	mov    %rcx,%rsi
  101244:	48 89 c7             	mov    %rax,%rdi
  101247:	e8 44 02 00 00       	callq  101490 <_ZN18PageFrameAllocator9LockPagesEPvm>
  10124c:	48 8b 45 c8          	mov    -0x38(%rbp),%rax
  101250:	48 c1 e0 03          	shl    $0x3,%rax
  101254:	48 c1 e8 0c          	shr    $0xc,%rax
  101258:	48 8d 50 01          	lea    0x1(%rax),%rdx
  10125c:	48 8b 45 a8          	mov    -0x58(%rbp),%rax
  101260:	48 8b 48 08          	mov    0x8(%rax),%rcx
  101264:	48 8b 45 a8          	mov    -0x58(%rbp),%rax
  101268:	48 89 ce             	mov    %rcx,%rsi
  10126b:	48 89 c7             	mov    %rax,%rdi
  10126e:	e8 67 00 00 00       	callq  1012da <_ZN18PageFrameAllocator12ReservePagesEPvm>
  101273:	90                   	nop
  101274:	c9                   	leaveq 
  101275:	c3                   	retq   

0000000000101276 <_ZN18PageFrameAllocator11RequestPageEv>:
  101276:	f3 0f 1e fa          	endbr64 
  10127a:	55                   	push   %rbp
  10127b:	48 89 e5             	mov    %rsp,%rbp
  10127e:	48 83 ec 20          	sub    $0x20,%rsp
  101282:	48 89 7d e8          	mov    %rdi,-0x18(%rbp)
  101286:	48 8b 45 e8          	mov    -0x18(%rbp),%rax
  10128a:	48 89 c7             	mov    %rax,%rdi
  10128d:	e8 38 b1 00 00       	callq  10c3ca <_ZN6Bitmap5FirstEv>
  101292:	48 89 45 f8          	mov    %rax,-0x8(%rbp)
  101296:	48 83 7d f8 ff       	cmpq   $0xffffffffffffffff,-0x8(%rbp)
  10129b:	75 14                	jne    1012b1 <_ZN18PageFrameAllocator11RequestPageEv+0x3b>
  10129d:	48 8d 3d 5c ed 00 00 	lea    0xed5c(%rip),%rdi        # 110000 <__rodata>
  1012a4:	b8 00 00 00 00       	mov    $0x0,%eax
  1012a9:	e8 7e b7 00 00       	callq  10ca2c <_Z7kprintfPKcz>
  1012ae:	f4                   	hlt    
  1012af:	eb fd                	jmp    1012ae <_ZN18PageFrameAllocator11RequestPageEv+0x38>
  1012b1:	48 8b 45 f8          	mov    -0x8(%rbp),%rax
  1012b5:	48 c1 e0 0c          	shl    $0xc,%rax
  1012b9:	48 89 c1             	mov    %rax,%rcx
  1012bc:	48 8b 45 e8          	mov    -0x18(%rbp),%rax
  1012c0:	ba 01 00 00 00       	mov    $0x1,%edx
  1012c5:	48 89 ce             	mov    %rcx,%rsi
  1012c8:	48 89 c7             	mov    %rax,%rdi
  1012cb:	e8 c0 01 00 00       	callq  101490 <_ZN18PageFrameAllocator9LockPagesEPvm>
  1012d0:	48 8b 45 f8          	mov    -0x8(%rbp),%rax
  1012d4:	48 c1 e0 0c          	shl    $0xc,%rax
  1012d8:	c9                   	leaveq 
  1012d9:	c3                   	retq   

00000000001012da <_ZN18PageFrameAllocator12ReservePagesEPvm>:
  1012da:	f3 0f 1e fa          	endbr64 
  1012de:	55                   	push   %rbp
  1012df:	48 89 e5             	mov    %rsp,%rbp
  1012e2:	48 83 ec 30          	sub    $0x30,%rsp
  1012e6:	48 89 7d e8          	mov    %rdi,-0x18(%rbp)
  1012ea:	48 89 75 e0          	mov    %rsi,-0x20(%rbp)
  1012ee:	48 89 55 d8          	mov    %rdx,-0x28(%rbp)
  1012f2:	c7 45 fc 00 00 00 00 	movl   $0x0,-0x4(%rbp)
  1012f9:	8b 45 fc             	mov    -0x4(%rbp),%eax
  1012fc:	48 39 45 d8          	cmp    %rax,-0x28(%rbp)
  101300:	76 66                	jbe    101368 <_ZN18PageFrameAllocator12ReservePagesEPvm+0x8e>
  101302:	8b 45 fc             	mov    -0x4(%rbp),%eax
  101305:	c1 e0 0c             	shl    $0xc,%eax
  101308:	89 c2                	mov    %eax,%edx
  10130a:	48 8b 45 e0          	mov    -0x20(%rbp),%rax
  10130e:	48 01 d0             	add    %rdx,%rax
  101311:	48 89 45 f0          	mov    %rax,-0x10(%rbp)
  101315:	48 8b 45 e8          	mov    -0x18(%rbp),%rax
  101319:	48 8b 55 f0          	mov    -0x10(%rbp),%rdx
  10131d:	48 89 d1             	mov    %rdx,%rcx
  101320:	48 c1 e9 0c          	shr    $0xc,%rcx
  101324:	ba 01 00 00 00       	mov    $0x1,%edx
  101329:	48 89 ce             	mov    %rcx,%rsi
  10132c:	48 89 c7             	mov    %rax,%rdi
  10132f:	e8 d6 af 00 00       	callq  10c30a <_ZN6Bitmap3SetEmb>
  101334:	48 8b 45 e8          	mov    -0x18(%rbp),%rax
  101338:	48 8b 40 10          	mov    0x10(%rax),%rax
  10133c:	48 8d 90 00 f0 ff ff 	lea    -0x1000(%rax),%rdx
  101343:	48 8b 45 e8          	mov    -0x18(%rbp),%rax
  101347:	48 89 50 10          	mov    %rdx,0x10(%rax)
  10134b:	48 8b 45 e8          	mov    -0x18(%rbp),%rax
  10134f:	48 8b 40 20          	mov    0x20(%rax),%rax
  101353:	48 8d 90 00 10 00 00 	lea    0x1000(%rax),%rdx
  10135a:	48 8b 45 e8          	mov    -0x18(%rbp),%rax
  10135e:	48 89 50 20          	mov    %rdx,0x20(%rax)
  101362:	83 45 fc 01          	addl   $0x1,-0x4(%rbp)
  101366:	eb 91                	jmp    1012f9 <_ZN18PageFrameAllocator12ReservePagesEPvm+0x1f>
  101368:	90                   	nop
  101369:	c9                   	leaveq 
  10136a:	c3                   	retq   
  10136b:	90                   	nop

000000000010136c <_ZN18PageFrameAllocator14UnreservePagesEPvm>:
  10136c:	f3 0f 1e fa          	endbr64 
  101370:	55                   	push   %rbp
  101371:	48 89 e5             	mov    %rsp,%rbp
  101374:	48 83 ec 30          	sub    $0x30,%rsp
  101378:	48 89 7d e8          	mov    %rdi,-0x18(%rbp)
  10137c:	48 89 75 e0          	mov    %rsi,-0x20(%rbp)
  101380:	48 89 55 d8          	mov    %rdx,-0x28(%rbp)
  101384:	c7 45 fc 00 00 00 00 	movl   $0x0,-0x4(%rbp)
  10138b:	8b 45 fc             	mov    -0x4(%rbp),%eax
  10138e:	48 39 45 d8          	cmp    %rax,-0x28(%rbp)
  101392:	76 66                	jbe    1013fa <_ZN18PageFrameAllocator14UnreservePagesEPvm+0x8e>
  101394:	8b 45 fc             	mov    -0x4(%rbp),%eax
  101397:	c1 e0 0c             	shl    $0xc,%eax
  10139a:	89 c2                	mov    %eax,%edx
  10139c:	48 8b 45 e0          	mov    -0x20(%rbp),%rax
  1013a0:	48 01 d0             	add    %rdx,%rax
  1013a3:	48 89 45 f0          	mov    %rax,-0x10(%rbp)
  1013a7:	48 8b 45 e8          	mov    -0x18(%rbp),%rax
  1013ab:	48 8b 55 f0          	mov    -0x10(%rbp),%rdx
  1013af:	48 89 d1             	mov    %rdx,%rcx
  1013b2:	48 c1 e9 0c          	shr    $0xc,%rcx
  1013b6:	ba 00 00 00 00       	mov    $0x0,%edx
  1013bb:	48 89 ce             	mov    %rcx,%rsi
  1013be:	48 89 c7             	mov    %rax,%rdi
  1013c1:	e8 44 af 00 00       	callq  10c30a <_ZN6Bitmap3SetEmb>
  1013c6:	48 8b 45 e8          	mov    -0x18(%rbp),%rax
  1013ca:	48 8b 40 10          	mov    0x10(%rax),%rax
  1013ce:	48 8d 90 00 10 00 00 	lea    0x1000(%rax),%rdx
  1013d5:	48 8b 45 e8          	mov    -0x18(%rbp),%rax
  1013d9:	48 89 50 10          	mov    %rdx,0x10(%rax)
  1013dd:	48 8b 45 e8          	mov    -0x18(%rbp),%rax
  1013e1:	48 8b 40 20          	mov    0x20(%rax),%rax
  1013e5:	48 8d 90 00 f0 ff ff 	lea    -0x1000(%rax),%rdx
  1013ec:	48 8b 45 e8          	mov    -0x18(%rbp),%rax
  1013f0:	48 89 50 20          	mov    %rdx,0x20(%rax)
  1013f4:	83 45 fc 01          	addl   $0x1,-0x4(%rbp)
  1013f8:	eb 91                	jmp    10138b <_ZN18PageFrameAllocator14UnreservePagesEPvm+0x1f>
  1013fa:	90                   	nop
  1013fb:	c9                   	leaveq 
  1013fc:	c3                   	retq   
  1013fd:	90                   	nop

00000000001013fe <_ZN18PageFrameAllocator9FreePagesEPvm>:
  1013fe:	f3 0f 1e fa          	endbr64 
  101402:	55                   	push   %rbp
  101403:	48 89 e5             	mov    %rsp,%rbp
  101406:	48 83 ec 30          	sub    $0x30,%rsp
  10140a:	48 89 7d e8          	mov    %rdi,-0x18(%rbp)
  10140e:	48 89 75 e0          	mov    %rsi,-0x20(%rbp)
  101412:	48 89 55 d8          	mov    %rdx,-0x28(%rbp)
  101416:	c7 45 fc 00 00 00 00 	movl   $0x0,-0x4(%rbp)
  10141d:	8b 45 fc             	mov    -0x4(%rbp),%eax
  101420:	48 39 45 d8          	cmp    %rax,-0x28(%rbp)
  101424:	76 66                	jbe    10148c <_ZN18PageFrameAllocator9FreePagesEPvm+0x8e>
  101426:	8b 45 fc             	mov    -0x4(%rbp),%eax
  101429:	c1 e0 0c             	shl    $0xc,%eax
  10142c:	89 c2                	mov    %eax,%edx
  10142e:	48 8b 45 e0          	mov    -0x20(%rbp),%rax
  101432:	48 01 d0             	add    %rdx,%rax
  101435:	48 89 45 f0          	mov    %rax,-0x10(%rbp)
  101439:	48 8b 45 e8          	mov    -0x18(%rbp),%rax
  10143d:	48 8b 55 f0          	mov    -0x10(%rbp),%rdx
  101441:	48 89 d1             	mov    %rdx,%rcx
  101444:	48 c1 e9 0c          	shr    $0xc,%rcx
  101448:	ba 00 00 00 00       	mov    $0x0,%edx
  10144d:	48 89 ce             	mov    %rcx,%rsi
  101450:	48 89 c7             	mov    %rax,%rdi
  101453:	e8 b2 ae 00 00       	callq  10c30a <_ZN6Bitmap3SetEmb>
  101458:	48 8b 45 e8          	mov    -0x18(%rbp),%rax
  10145c:	48 8b 40 10          	mov    0x10(%rax),%rax
  101460:	48 8d 90 00 10 00 00 	lea    0x1000(%rax),%rdx
  101467:	48 8b 45 e8          	mov    -0x18(%rbp),%rax
  10146b:	48 89 50 10          	mov    %rdx,0x10(%rax)
  10146f:	48 8b 45 e8          	mov    -0x18(%rbp),%rax
  101473:	48 8b 40 18          	mov    0x18(%rax),%rax
  101477:	48 8d 90 00 f0 ff ff 	lea    -0x1000(%rax),%rdx
  10147e:	48 8b 45 e8          	mov    -0x18(%rbp),%rax
  101482:	48 89 50 18          	mov    %rdx,0x18(%rax)
  101486:	83 45 fc 01          	addl   $0x1,-0x4(%rbp)
  10148a:	eb 91                	jmp    10141d <_ZN18PageFrameAllocator9FreePagesEPvm+0x1f>
  10148c:	90                   	nop
  10148d:	c9                   	leaveq 
  10148e:	c3                   	retq   
  10148f:	90                   	nop

0000000000101490 <_ZN18PageFrameAllocator9LockPagesEPvm>:
  101490:	f3 0f 1e fa          	endbr64 
  101494:	55                   	push   %rbp
  101495:	48 89 e5             	mov    %rsp,%rbp
  101498:	48 83 ec 30          	sub    $0x30,%rsp
  10149c:	48 89 7d e8          	mov    %rdi,-0x18(%rbp)
  1014a0:	48 89 75 e0          	mov    %rsi,-0x20(%rbp)
  1014a4:	48 89 55 d8          	mov    %rdx,-0x28(%rbp)
  1014a8:	c7 45 fc 00 00 00 00 	movl   $0x0,-0x4(%rbp)
  1014af:	8b 45 fc             	mov    -0x4(%rbp),%eax
  1014b2:	48 39 45 d8          	cmp    %rax,-0x28(%rbp)
  1014b6:	76 66                	jbe    10151e <_ZN18PageFrameAllocator9LockPagesEPvm+0x8e>
  1014b8:	8b 45 fc             	mov    -0x4(%rbp),%eax
  1014bb:	c1 e0 0c             	shl    $0xc,%eax
  1014be:	89 c2                	mov    %eax,%edx
  1014c0:	48 8b 45 e0          	mov    -0x20(%rbp),%rax
  1014c4:	48 01 d0             	add    %rdx,%rax
  1014c7:	48 89 45 f0          	mov    %rax,-0x10(%rbp)
  1014cb:	48 8b 45 e8          	mov    -0x18(%rbp),%rax
  1014cf:	48 8b 55 f0          	mov    -0x10(%rbp),%rdx
  1014d3:	48 89 d1             	mov    %rdx,%rcx
  1014d6:	48 c1 e9 0c          	shr    $0xc,%rcx
  1014da:	ba 01 00 00 00       	mov    $0x1,%edx
  1014df:	48 89 ce             	mov    %rcx,%rsi
  1014e2:	48 89 c7             	mov    %rax,%rdi
  1014e5:	e8 20 ae 00 00       	callq  10c30a <_ZN6Bitmap3SetEmb>
  1014ea:	48 8b 45 e8          	mov    -0x18(%rbp),%rax
  1014ee:	48 8b 40 10          	mov    0x10(%rax),%rax
  1014f2:	48 8d 90 00 f0 ff ff 	lea    -0x1000(%rax),%rdx
  1014f9:	48 8b 45 e8          	mov    -0x18(%rbp),%rax
  1014fd:	48 89 50 10          	mov    %rdx,0x10(%rax)
  101501:	48 8b 45 e8          	mov    -0x18(%rbp),%rax
  101505:	48 8b 40 18          	mov    0x18(%rax),%rax
  101509:	48 8d 90 00 10 00 00 	lea    0x1000(%rax),%rdx
  101510:	48 8b 45 e8          	mov    -0x18(%rbp),%rax
  101514:	48 89 50 18          	mov    %rdx,0x18(%rax)
  101518:	83 45 fc 01          	addl   $0x1,-0x4(%rbp)
  10151c:	eb 91                	jmp    1014af <_ZN18PageFrameAllocator9LockPagesEPvm+0x1f>
  10151e:	90                   	nop
  10151f:	c9                   	leaveq 
  101520:	c3                   	retq   
  101521:	90                   	nop

0000000000101522 <_ZN18PageFrameAllocator15SharedAllocatorEv>:
  101522:	f3 0f 1e fa          	endbr64 
  101526:	55                   	push   %rbp
  101527:	48 89 e5             	mov    %rsp,%rbp
  10152a:	48 8b 05 cf 3a 01 00 	mov    0x13acf(%rip),%rax        # 115000 <_ZN18PageFrameAllocator11s_AllocatorE>
  101531:	48 85 c0             	test   %rax,%rax
  101534:	75 0e                	jne    101544 <_ZN18PageFrameAllocator15SharedAllocatorEv+0x22>
  101536:	48 8d 05 e3 3a 01 00 	lea    0x13ae3(%rip),%rax        # 115020 <allocator>
  10153d:	48 89 05 bc 3a 01 00 	mov    %rax,0x13abc(%rip)        # 115000 <_ZN18PageFrameAllocator11s_AllocatorE>
  101544:	48 8b 05 b5 3a 01 00 	mov    0x13ab5(%rip),%rax        # 115000 <_ZN18PageFrameAllocator11s_AllocatorE>
  10154b:	5d                   	pop    %rbp
  10154c:	c3                   	retq   

000000000010154d <_Z10InitPagingP9MemoryMap>:
  10154d:	f3 0f 1e fa          	endbr64 
  101551:	55                   	push   %rbp
  101552:	48 89 e5             	mov    %rsp,%rbp
  101555:	48 83 ec 30          	sub    $0x30,%rsp
  101559:	48 89 7d d8          	mov    %rdi,-0x28(%rbp)
  10155d:	e8 c0 ff ff ff       	callq  101522 <_ZN18PageFrameAllocator15SharedAllocatorEv>
  101562:	48 89 c2             	mov    %rax,%rdx
  101565:	48 8b 45 d8          	mov    -0x28(%rbp),%rax
  101569:	48 89 c6             	mov    %rax,%rsi
  10156c:	48 89 d7             	mov    %rdx,%rdi
  10156f:	e8 90 fa ff ff       	callq  101004 <_ZN18PageFrameAllocator13ReadMemoryMapEP9MemoryMap>
  101574:	e8 a9 ff ff ff       	callq  101522 <_ZN18PageFrameAllocator15SharedAllocatorEv>
  101579:	48 89 c7             	mov    %rax,%rdi
  10157c:	e8 f5 fc ff ff       	callq  101276 <_ZN18PageFrameAllocator11RequestPageEv>
  101581:	48 89 45 f0          	mov    %rax,-0x10(%rbp)
  101585:	48 8b 45 f0          	mov    -0x10(%rbp),%rax
  101589:	ba 00 10 00 00       	mov    $0x1000,%edx
  10158e:	be 00 00 00 00       	mov    $0x0,%esi
  101593:	48 89 c7             	mov    %rax,%rdi
  101596:	e8 d0 b8 00 00       	callq  10ce6b <_Z6memsetPvim>
  10159b:	48 8b 55 f0          	mov    -0x10(%rbp),%rdx
  10159f:	48 8d 45 e8          	lea    -0x18(%rbp),%rax
  1015a3:	48 89 d6             	mov    %rdx,%rsi
  1015a6:	48 89 c7             	mov    %rax,%rdi
  1015a9:	e8 08 cb 00 00       	callq  10e0b6 <_ZN16PageTableManagerC1EP9PageTable>
  1015ae:	48 8b 45 e8          	mov    -0x18(%rbp),%rax
  1015b2:	48 89 05 8f 3a 01 00 	mov    %rax,0x13a8f(%rip)        # 115048 <KernelDirectory>
  1015b9:	48 c7 45 f8 00 00 00 	movq   $0x0,-0x8(%rbp)
  1015c0:	00 
  1015c1:	48 8b 45 d8          	mov    -0x28(%rbp),%rax
  1015c5:	48 89 c7             	mov    %rax,%rdi
  1015c8:	e8 7d 26 00 00       	callq  103c4a <_ZN9MemoryMap20GetTotalSystemMemoryEv>
  1015cd:	48 39 45 f8          	cmp    %rax,-0x8(%rbp)
  1015d1:	0f 92 c0             	setb   %al
  1015d4:	84 c0                	test   %al,%al
  1015d6:	74 26                	je     1015fe <_Z10InitPagingP9MemoryMap+0xb1>
  1015d8:	48 8b 55 f8          	mov    -0x8(%rbp),%rdx
  1015dc:	48 8b 45 f8          	mov    -0x8(%rbp),%rax
  1015e0:	b9 03 00 00 00       	mov    $0x3,%ecx
  1015e5:	48 89 c6             	mov    %rax,%rsi
  1015e8:	48 8d 3d 59 3a 01 00 	lea    0x13a59(%rip),%rdi        # 115048 <KernelDirectory>
  1015ef:	e8 e2 ea ff ff       	callq  1000d6 <_ZN16PageTableManager9MapMemoryEmmm>
  1015f4:	48 81 45 f8 00 10 00 	addq   $0x1000,-0x8(%rbp)
  1015fb:	00 
  1015fc:	eb c3                	jmp    1015c1 <_Z10InitPagingP9MemoryMap+0x74>
  1015fe:	48 8d 05 28 00 00 00 	lea    0x28(%rip),%rax        # 10162d <_Z16PageFaultHandlerP9Registers>
  101605:	48 89 c1             	mov    %rax,%rcx
  101608:	ba 8e 00 00 00       	mov    $0x8e,%edx
  10160d:	be 0e 00 00 00       	mov    $0xe,%esi
  101612:	48 8d 3d 47 3b 01 00 	lea    0x13b47(%rip),%rdi        # 115160 <idtr>
  101619:	e8 c2 09 00 00       	callq  101fe0 <_ZN4IDTR7SetGateEhhm>
  10161e:	48 8d 3d 23 3a 01 00 	lea    0x13a23(%rip),%rdi        # 115048 <KernelDirectory>
  101625:	e8 26 ee ff ff       	callq  100450 <_ZN16PageTableManager12SetAsCurrentEv>
  10162a:	90                   	nop
  10162b:	c9                   	leaveq 
  10162c:	c3                   	retq   

000000000010162d <_Z16PageFaultHandlerP9Registers>:
  10162d:	f3 0f 1e fa          	endbr64 
  101631:	55                   	push   %rbp
  101632:	48 89 e5             	mov    %rsp,%rbp
  101635:	53                   	push   %rbx
  101636:	48 83 ec 38          	sub    $0x38,%rsp
  10163a:	48 89 7d c8          	mov    %rdi,-0x38(%rbp)
  10163e:	0f 20 d0             	mov    %cr2,%rax
  101641:	48 89 45 e8          	mov    %rax,-0x18(%rbp)
  101645:	48 8b 45 c8          	mov    -0x38(%rbp),%rax
  101649:	48 8b 80 88 01 00 00 	mov    0x188(%rax),%rax
  101650:	89 45 e4             	mov    %eax,-0x1c(%rbp)
  101653:	8b 45 e4             	mov    -0x1c(%rbp),%eax
  101656:	83 e0 01             	and    $0x1,%eax
  101659:	85 c0                	test   %eax,%eax
  10165b:	0f 94 c0             	sete   %al
  10165e:	0f b6 c0             	movzbl %al,%eax
  101661:	89 45 e0             	mov    %eax,-0x20(%rbp)
  101664:	8b 45 e4             	mov    -0x1c(%rbp),%eax
  101667:	83 e0 02             	and    $0x2,%eax
  10166a:	89 45 dc             	mov    %eax,-0x24(%rbp)
  10166d:	8b 45 e4             	mov    -0x1c(%rbp),%eax
  101670:	83 e0 04             	and    $0x4,%eax
  101673:	89 45 d8             	mov    %eax,-0x28(%rbp)
  101676:	8b 45 e4             	mov    -0x1c(%rbp),%eax
  101679:	83 e0 08             	and    $0x8,%eax
  10167c:	89 45 d4             	mov    %eax,-0x2c(%rbp)
  10167f:	8b 45 e4             	mov    -0x1c(%rbp),%eax
  101682:	83 e0 10             	and    $0x10,%eax
  101685:	89 45 d0             	mov    %eax,-0x30(%rbp)
  101688:	48 8d 3d a9 e9 00 00 	lea    0xe9a9(%rip),%rdi        # 110038 <__rodata+0x38>
  10168f:	b8 00 00 00 00       	mov    $0x0,%eax
  101694:	e8 93 b3 00 00       	callq  10ca2c <_Z7kprintfPKcz>
  101699:	48 8b 45 c8          	mov    -0x38(%rbp),%rax
  10169d:	48 8b 98 90 01 00 00 	mov    0x190(%rax),%rbx
  1016a4:	48 8b 05 a5 39 01 00 	mov    0x139a5(%rip),%rax        # 115050 <CurrentDirectory>
  1016ab:	48 8b 55 e8          	mov    -0x18(%rbp),%rdx
  1016af:	48 89 d6             	mov    %rdx,%rsi
  1016b2:	48 89 c7             	mov    %rax,%rdi
  1016b5:	e8 ce ec ff ff       	callq  100388 <_ZN16PageTableManager15PhysicalAddressEm>
  1016ba:	48 8b 55 e8          	mov    -0x18(%rbp),%rdx
  1016be:	48 01 d0             	add    %rdx,%rax
  1016c1:	25 ff 0f 00 00       	and    $0xfff,%eax
  1016c6:	48 89 c6             	mov    %rax,%rsi
  1016c9:	8b 55 e4             	mov    -0x1c(%rbp),%edx
  1016cc:	48 8b 45 e8          	mov    -0x18(%rbp),%rax
  1016d0:	49 89 d8             	mov    %rbx,%r8
  1016d3:	89 d1                	mov    %edx,%ecx
  1016d5:	48 89 f2             	mov    %rsi,%rdx
  1016d8:	48 89 c6             	mov    %rax,%rsi
  1016db:	48 8d 3d 8e e9 00 00 	lea    0xe98e(%rip),%rdi        # 110070 <__rodata+0x70>
  1016e2:	b8 00 00 00 00       	mov    $0x0,%eax
  1016e7:	e8 40 b3 00 00       	callq  10ca2c <_Z7kprintfPKcz>
  1016ec:	48 8d 3d c1 e9 00 00 	lea    0xe9c1(%rip),%rdi        # 1100b4 <__rodata+0xb4>
  1016f3:	b8 00 00 00 00       	mov    $0x0,%eax
  1016f8:	e8 2f b3 00 00       	callq  10ca2c <_Z7kprintfPKcz>
  1016fd:	83 7d e0 00          	cmpl   $0x0,-0x20(%rbp)
  101701:	7e 09                	jle    10170c <_Z16PageFaultHandlerP9Registers+0xdf>
  101703:	48 8d 05 b2 e9 00 00 	lea    0xe9b2(%rip),%rax        # 1100bc <__rodata+0xbc>
  10170a:	eb 07                	jmp    101713 <_Z16PageFaultHandlerP9Registers+0xe6>
  10170c:	48 8d 05 ae e9 00 00 	lea    0xe9ae(%rip),%rax        # 1100c1 <__rodata+0xc1>
  101713:	48 89 c6             	mov    %rax,%rsi
  101716:	48 8d 3d aa e9 00 00 	lea    0xe9aa(%rip),%rdi        # 1100c7 <__rodata+0xc7>
  10171d:	b8 00 00 00 00       	mov    $0x0,%eax
  101722:	e8 05 b3 00 00       	callq  10ca2c <_Z7kprintfPKcz>
  101727:	83 7d dc 00          	cmpl   $0x0,-0x24(%rbp)
  10172b:	7e 09                	jle    101736 <_Z16PageFaultHandlerP9Registers+0x109>
  10172d:	48 8d 05 88 e9 00 00 	lea    0xe988(%rip),%rax        # 1100bc <__rodata+0xbc>
  101734:	eb 07                	jmp    10173d <_Z16PageFaultHandlerP9Registers+0x110>
  101736:	48 8d 05 84 e9 00 00 	lea    0xe984(%rip),%rax        # 1100c1 <__rodata+0xc1>
  10173d:	48 89 c6             	mov    %rax,%rsi
  101740:	48 8d 3d 8d e9 00 00 	lea    0xe98d(%rip),%rdi        # 1100d4 <__rodata+0xd4>
  101747:	b8 00 00 00 00       	mov    $0x0,%eax
  10174c:	e8 db b2 00 00       	callq  10ca2c <_Z7kprintfPKcz>
  101751:	83 7d d8 00          	cmpl   $0x0,-0x28(%rbp)
  101755:	7e 09                	jle    101760 <_Z16PageFaultHandlerP9Registers+0x133>
  101757:	48 8d 05 5e e9 00 00 	lea    0xe95e(%rip),%rax        # 1100bc <__rodata+0xbc>
  10175e:	eb 07                	jmp    101767 <_Z16PageFaultHandlerP9Registers+0x13a>
  101760:	48 8d 05 5a e9 00 00 	lea    0xe95a(%rip),%rax        # 1100c1 <__rodata+0xc1>
  101767:	48 89 c6             	mov    %rax,%rsi
  10176a:	48 8d 3d 6e e9 00 00 	lea    0xe96e(%rip),%rdi        # 1100df <__rodata+0xdf>
  101771:	b8 00 00 00 00       	mov    $0x0,%eax
  101776:	e8 b1 b2 00 00       	callq  10ca2c <_Z7kprintfPKcz>
  10177b:	83 7d d4 00          	cmpl   $0x0,-0x2c(%rbp)
  10177f:	7e 09                	jle    10178a <_Z16PageFaultHandlerP9Registers+0x15d>
  101781:	48 8d 05 34 e9 00 00 	lea    0xe934(%rip),%rax        # 1100bc <__rodata+0xbc>
  101788:	eb 07                	jmp    101791 <_Z16PageFaultHandlerP9Registers+0x164>
  10178a:	48 8d 05 30 e9 00 00 	lea    0xe930(%rip),%rax        # 1100c1 <__rodata+0xc1>
  101791:	48 89 c6             	mov    %rax,%rsi
  101794:	48 8d 3d 55 e9 00 00 	lea    0xe955(%rip),%rdi        # 1100f0 <__rodata+0xf0>
  10179b:	b8 00 00 00 00       	mov    $0x0,%eax
  1017a0:	e8 87 b2 00 00       	callq  10ca2c <_Z7kprintfPKcz>
  1017a5:	83 7d d4 00          	cmpl   $0x0,-0x2c(%rbp)
  1017a9:	7e 09                	jle    1017b4 <_Z16PageFaultHandlerP9Registers+0x187>
  1017ab:	48 8d 05 0a e9 00 00 	lea    0xe90a(%rip),%rax        # 1100bc <__rodata+0xbc>
  1017b2:	eb 07                	jmp    1017bb <_Z16PageFaultHandlerP9Registers+0x18e>
  1017b4:	48 8d 05 06 e9 00 00 	lea    0xe906(%rip),%rax        # 1100c1 <__rodata+0xc1>
  1017bb:	48 89 c6             	mov    %rax,%rsi
  1017be:	48 8d 3d 39 e9 00 00 	lea    0xe939(%rip),%rdi        # 1100fe <__rodata+0xfe>
  1017c5:	b8 00 00 00 00       	mov    $0x0,%eax
  1017ca:	e8 5d b2 00 00       	callq  10ca2c <_Z7kprintfPKcz>
  1017cf:	48 8d 3d 42 e9 00 00 	lea    0xe942(%rip),%rdi        # 110118 <__rodata+0x118>
  1017d6:	b8 00 00 00 00       	mov    $0x0,%eax
  1017db:	e8 4c b2 00 00       	callq  10ca2c <_Z7kprintfPKcz>
  1017e0:	f4                   	hlt    
  1017e1:	eb fd                	jmp    1017e0 <_Z16PageFaultHandlerP9Registers+0x1b3>

00000000001017e3 <_Z41__static_initialization_and_destruction_0ii>:
  1017e3:	f3 0f 1e fa          	endbr64 
  1017e7:	55                   	push   %rbp
  1017e8:	48 89 e5             	mov    %rsp,%rbp
  1017eb:	48 83 ec 10          	sub    $0x10,%rsp
  1017ef:	89 7d fc             	mov    %edi,-0x4(%rbp)
  1017f2:	89 75 f8             	mov    %esi,-0x8(%rbp)
  1017f5:	83 7d fc 01          	cmpl   $0x1,-0x4(%rbp)
  1017f9:	75 1a                	jne    101815 <_Z41__static_initialization_and_destruction_0ii+0x32>
  1017fb:	81 7d f8 ff ff 00 00 	cmpl   $0xffff,-0x8(%rbp)
  101802:	75 11                	jne    101815 <_Z41__static_initialization_and_destruction_0ii+0x32>
  101804:	be 00 00 00 00       	mov    $0x0,%esi
  101809:	48 8d 3d 38 38 01 00 	lea    0x13838(%rip),%rdi        # 115048 <KernelDirectory>
  101810:	e8 a1 c8 00 00       	callq  10e0b6 <_ZN16PageTableManagerC1EP9PageTable>
  101815:	90                   	nop
  101816:	c9                   	leaveq 
  101817:	c3                   	retq   

0000000000101818 <_GLOBAL__sub_I_KernelDirectory>:
  101818:	f3 0f 1e fa          	endbr64 
  10181c:	55                   	push   %rbp
  10181d:	48 89 e5             	mov    %rsp,%rbp
  101820:	be ff ff 00 00       	mov    $0xffff,%esi
  101825:	bf 01 00 00 00       	mov    $0x1,%edi
  10182a:	e8 b4 ff ff ff       	callq  1017e3 <_Z41__static_initialization_and_destruction_0ii>
  10182f:	5d                   	pop    %rbp
  101830:	c3                   	retq   

0000000000101831 <_Z5__inbt>:
  101831:	f3 0f 1e fa          	endbr64 
  101835:	55                   	push   %rbp
  101836:	48 89 e5             	mov    %rsp,%rbp
  101839:	48 83 ec 18          	sub    $0x18,%rsp
  10183d:	89 f8                	mov    %edi,%eax
  10183f:	66 89 45 ec          	mov    %ax,-0x14(%rbp)
  101843:	0f b7 45 ec          	movzwl -0x14(%rbp),%eax
  101847:	89 c2                	mov    %eax,%edx
  101849:	ec                   	in     (%dx),%al
  10184a:	88 45 ff             	mov    %al,-0x1(%rbp)
  10184d:	0f b6 45 ff          	movzbl -0x1(%rbp),%eax
  101851:	c9                   	leaveq 
  101852:	c3                   	retq   

0000000000101853 <_Z5__inwt>:
  101853:	f3 0f 1e fa          	endbr64 
  101857:	55                   	push   %rbp
  101858:	48 89 e5             	mov    %rsp,%rbp
  10185b:	48 83 ec 18          	sub    $0x18,%rsp
  10185f:	89 f8                	mov    %edi,%eax
  101861:	66 89 45 ec          	mov    %ax,-0x14(%rbp)
  101865:	0f b7 45 ec          	movzwl -0x14(%rbp),%eax
  101869:	89 c2                	mov    %eax,%edx
  10186b:	66 ed                	in     (%dx),%ax
  10186d:	66 89 45 fe          	mov    %ax,-0x2(%rbp)
  101871:	0f b7 45 fe          	movzwl -0x2(%rbp),%eax
  101875:	c9                   	leaveq 
  101876:	c3                   	retq   

0000000000101877 <_Z5__inlj>:
  101877:	f3 0f 1e fa          	endbr64 
  10187b:	55                   	push   %rbp
  10187c:	48 89 e5             	mov    %rsp,%rbp
  10187f:	48 83 ec 18          	sub    $0x18,%rsp
  101883:	89 7d ec             	mov    %edi,-0x14(%rbp)
  101886:	8b 45 ec             	mov    -0x14(%rbp),%eax
  101889:	89 c2                	mov    %eax,%edx
  10188b:	ed                   	in     (%dx),%eax
  10188c:	89 45 fc             	mov    %eax,-0x4(%rbp)
  10188f:	8b 45 fc             	mov    -0x4(%rbp),%eax
  101892:	c9                   	leaveq 
  101893:	c3                   	retq   

0000000000101894 <_Z6__outbth>:
  101894:	f3 0f 1e fa          	endbr64 
  101898:	55                   	push   %rbp
  101899:	48 89 e5             	mov    %rsp,%rbp
  10189c:	48 83 ec 08          	sub    $0x8,%rsp
  1018a0:	89 f8                	mov    %edi,%eax
  1018a2:	89 f2                	mov    %esi,%edx
  1018a4:	66 89 45 fc          	mov    %ax,-0x4(%rbp)
  1018a8:	89 d0                	mov    %edx,%eax
  1018aa:	88 45 f8             	mov    %al,-0x8(%rbp)
  1018ad:	0f b6 45 f8          	movzbl -0x8(%rbp),%eax
  1018b1:	0f b7 55 fc          	movzwl -0x4(%rbp),%edx
  1018b5:	ee                   	out    %al,(%dx)
  1018b6:	90                   	nop
  1018b7:	c9                   	leaveq 
  1018b8:	c3                   	retq   

00000000001018b9 <_Z6__outwtt>:
  1018b9:	f3 0f 1e fa          	endbr64 
  1018bd:	55                   	push   %rbp
  1018be:	48 89 e5             	mov    %rsp,%rbp
  1018c1:	48 83 ec 08          	sub    $0x8,%rsp
  1018c5:	89 fa                	mov    %edi,%edx
  1018c7:	89 f0                	mov    %esi,%eax
  1018c9:	66 89 55 fc          	mov    %dx,-0x4(%rbp)
  1018cd:	66 89 45 f8          	mov    %ax,-0x8(%rbp)
  1018d1:	0f b7 45 f8          	movzwl -0x8(%rbp),%eax
  1018d5:	0f b7 55 fc          	movzwl -0x4(%rbp),%edx
  1018d9:	66 ef                	out    %ax,(%dx)
  1018db:	90                   	nop
  1018dc:	c9                   	leaveq 
  1018dd:	c3                   	retq   

00000000001018de <_Z6__outljj>:
  1018de:	f3 0f 1e fa          	endbr64 
  1018e2:	55                   	push   %rbp
  1018e3:	48 89 e5             	mov    %rsp,%rbp
  1018e6:	48 83 ec 08          	sub    $0x8,%rsp
  1018ea:	89 7d fc             	mov    %edi,-0x4(%rbp)
  1018ed:	89 75 f8             	mov    %esi,-0x8(%rbp)
  1018f0:	8b 55 fc             	mov    -0x4(%rbp),%edx
  1018f3:	8b 45 f8             	mov    -0x8(%rbp),%eax
  1018f6:	ef                   	out    %eax,(%dx)
  1018f7:	90                   	nop
  1018f8:	c9                   	leaveq 
  1018f9:	c3                   	retq   

00000000001018fa <_Z7io_waitv>:
  1018fa:	f3 0f 1e fa          	endbr64 
  1018fe:	55                   	push   %rbp
  1018ff:	48 89 e5             	mov    %rsp,%rbp
  101902:	b8 00 00 00 00       	mov    $0x0,%eax
  101907:	e6 80                	out    %al,$0x80
  101909:	90                   	nop
  10190a:	5d                   	pop    %rbp
  10190b:	c3                   	retq   

000000000010190c <_Z10GetYearRTCv>:
  10190c:	f3 0f 1e fa          	endbr64 
  101910:	55                   	push   %rbp
  101911:	48 89 e5             	mov    %rsp,%rbp
  101914:	be 09 00 00 00       	mov    $0x9,%esi
  101919:	bf 70 00 00 00       	mov    $0x70,%edi
  10191e:	e8 71 ff ff ff       	callq  101894 <_Z6__outbth>
  101923:	bf 71 00 00 00       	mov    $0x71,%edi
  101928:	e8 04 ff ff ff       	callq  101831 <_Z5__inbt>
  10192d:	5d                   	pop    %rbp
  10192e:	c3                   	retq   

000000000010192f <_Z11GetMonthRTCv>:
  10192f:	f3 0f 1e fa          	endbr64 
  101933:	55                   	push   %rbp
  101934:	48 89 e5             	mov    %rsp,%rbp
  101937:	be 08 00 00 00       	mov    $0x8,%esi
  10193c:	bf 70 00 00 00       	mov    $0x70,%edi
  101941:	e8 4e ff ff ff       	callq  101894 <_Z6__outbth>
  101946:	bf 71 00 00 00       	mov    $0x71,%edi
  10194b:	e8 e1 fe ff ff       	callq  101831 <_Z5__inbt>
  101950:	5d                   	pop    %rbp
  101951:	c3                   	retq   

0000000000101952 <_Z9GetDayRTCv>:
  101952:	f3 0f 1e fa          	endbr64 
  101956:	55                   	push   %rbp
  101957:	48 89 e5             	mov    %rsp,%rbp
  10195a:	be 07 00 00 00       	mov    $0x7,%esi
  10195f:	bf 70 00 00 00       	mov    $0x70,%edi
  101964:	e8 2b ff ff ff       	callq  101894 <_Z6__outbth>
  101969:	bf 71 00 00 00       	mov    $0x71,%edi
  10196e:	e8 be fe ff ff       	callq  101831 <_Z5__inbt>
  101973:	5d                   	pop    %rbp
  101974:	c3                   	retq   

0000000000101975 <_Z13GetWeekdayRTCv>:
  101975:	f3 0f 1e fa          	endbr64 
  101979:	55                   	push   %rbp
  10197a:	48 89 e5             	mov    %rsp,%rbp
  10197d:	be 06 00 00 00       	mov    $0x6,%esi
  101982:	bf 70 00 00 00       	mov    $0x70,%edi
  101987:	e8 08 ff ff ff       	callq  101894 <_Z6__outbth>
  10198c:	bf 71 00 00 00       	mov    $0x71,%edi
  101991:	e8 9b fe ff ff       	callq  101831 <_Z5__inbt>
  101996:	5d                   	pop    %rbp
  101997:	c3                   	retq   

0000000000101998 <_Z10GetHourRTCv>:
  101998:	f3 0f 1e fa          	endbr64 
  10199c:	55                   	push   %rbp
  10199d:	48 89 e5             	mov    %rsp,%rbp
  1019a0:	be 04 00 00 00       	mov    $0x4,%esi
  1019a5:	bf 70 00 00 00       	mov    $0x70,%edi
  1019aa:	e8 e5 fe ff ff       	callq  101894 <_Z6__outbth>
  1019af:	bf 71 00 00 00       	mov    $0x71,%edi
  1019b4:	e8 78 fe ff ff       	callq  101831 <_Z5__inbt>
  1019b9:	5d                   	pop    %rbp
  1019ba:	c3                   	retq   

00000000001019bb <_Z12GetMinuteRTCv>:
  1019bb:	f3 0f 1e fa          	endbr64 
  1019bf:	55                   	push   %rbp
  1019c0:	48 89 e5             	mov    %rsp,%rbp
  1019c3:	be 02 00 00 00       	mov    $0x2,%esi
  1019c8:	bf 70 00 00 00       	mov    $0x70,%edi
  1019cd:	e8 c2 fe ff ff       	callq  101894 <_Z6__outbth>
  1019d2:	bf 71 00 00 00       	mov    $0x71,%edi
  1019d7:	e8 55 fe ff ff       	callq  101831 <_Z5__inbt>
  1019dc:	5d                   	pop    %rbp
  1019dd:	c3                   	retq   

00000000001019de <_Z12GetSecondRTCv>:
  1019de:	f3 0f 1e fa          	endbr64 
  1019e2:	55                   	push   %rbp
  1019e3:	48 89 e5             	mov    %rsp,%rbp
  1019e6:	be 00 00 00 00       	mov    $0x0,%esi
  1019eb:	bf 70 00 00 00       	mov    $0x70,%edi
  1019f0:	e8 9f fe ff ff       	callq  101894 <_Z6__outbth>
  1019f5:	bf 71 00 00 00       	mov    $0x71,%edi
  1019fa:	e8 32 fe ff ff       	callq  101831 <_Z5__inbt>
  1019ff:	5d                   	pop    %rbp
  101a00:	c3                   	retq   

0000000000101a01 <_Z7InitRTCP2tm>:
  101a01:	f3 0f 1e fa          	endbr64 
  101a05:	55                   	push   %rbp
  101a06:	48 89 e5             	mov    %rsp,%rbp
  101a09:	48 83 ec 10          	sub    $0x10,%rsp
  101a0d:	48 89 7d f8          	mov    %rdi,-0x8(%rbp)
  101a11:	48 8b 45 f8          	mov    -0x8(%rbp),%rax
  101a15:	48 89 c7             	mov    %rax,%rdi
  101a18:	e8 03 00 00 00       	callq  101a20 <_Z10GetTimeRTCP2tm>
  101a1d:	90                   	nop
  101a1e:	c9                   	leaveq 
  101a1f:	c3                   	retq   

0000000000101a20 <_Z10GetTimeRTCP2tm>:
  101a20:	f3 0f 1e fa          	endbr64 
  101a24:	55                   	push   %rbp
  101a25:	48 89 e5             	mov    %rsp,%rbp
  101a28:	48 83 ec 10          	sub    $0x10,%rsp
  101a2c:	48 89 7d f8          	mov    %rdi,-0x8(%rbp)
  101a30:	e8 d7 fe ff ff       	callq  10190c <_Z10GetYearRTCv>
  101a35:	0f b6 d0             	movzbl %al,%edx
  101a38:	48 8b 45 f8          	mov    -0x8(%rbp),%rax
  101a3c:	89 10                	mov    %edx,(%rax)
  101a3e:	e8 ec fe ff ff       	callq  10192f <_Z11GetMonthRTCv>
  101a43:	0f b6 d0             	movzbl %al,%edx
  101a46:	48 8b 45 f8          	mov    -0x8(%rbp),%rax
  101a4a:	89 50 04             	mov    %edx,0x4(%rax)
  101a4d:	e8 00 ff ff ff       	callq  101952 <_Z9GetDayRTCv>
  101a52:	0f b6 d0             	movzbl %al,%edx
  101a55:	48 8b 45 f8          	mov    -0x8(%rbp),%rax
  101a59:	89 50 08             	mov    %edx,0x8(%rax)
  101a5c:	e8 37 ff ff ff       	callq  101998 <_Z10GetHourRTCv>
  101a61:	0f b6 d0             	movzbl %al,%edx
  101a64:	48 8b 45 f8          	mov    -0x8(%rbp),%rax
  101a68:	89 50 0c             	mov    %edx,0xc(%rax)
  101a6b:	e8 4b ff ff ff       	callq  1019bb <_Z12GetMinuteRTCv>
  101a70:	0f b6 d0             	movzbl %al,%edx
  101a73:	48 8b 45 f8          	mov    -0x8(%rbp),%rax
  101a77:	89 50 10             	mov    %edx,0x10(%rax)
  101a7a:	e8 5f ff ff ff       	callq  1019de <_Z12GetSecondRTCv>
  101a7f:	0f b6 d0             	movzbl %al,%edx
  101a82:	48 8b 45 f8          	mov    -0x8(%rbp),%rax
  101a86:	89 50 14             	mov    %edx,0x14(%rax)
  101a89:	90                   	nop
  101a8a:	c9                   	leaveq 
  101a8b:	c3                   	retq   

0000000000101a8c <_Z9StartTaskm>:
  101a8c:	f3 0f 1e fa          	endbr64 
  101a90:	55                   	push   %rbp
  101a91:	48 89 e5             	mov    %rsp,%rbp
  101a94:	48 83 ec 08          	sub    $0x8,%rsp
  101a98:	48 89 7d f8          	mov    %rdi,-0x8(%rbp)
  101a9c:	0f b6 05 cd 35 01 00 	movzbl 0x135cd(%rip),%eax        # 115070 <_ZL11task_was_on>
  101aa3:	84 c0                	test   %al,%al
  101aa5:	74 0d                	je     101ab4 <_Z9StartTaskm+0x28>
  101aa7:	48 8b 45 f8          	mov    -0x8(%rbp),%rax
  101aab:	48 89 05 b6 35 01 00 	mov    %rax,0x135b6(%rip)        # 115068 <_ZL4task>
  101ab2:	eb 01                	jmp    101ab5 <_Z9StartTaskm+0x29>
  101ab4:	90                   	nop
  101ab5:	c9                   	leaveq 
  101ab6:	c3                   	retq   

0000000000101ab7 <_Z13EnableTaskingv>:
  101ab7:	f3 0f 1e fa          	endbr64 
  101abb:	55                   	push   %rbp
  101abc:	48 89 e5             	mov    %rsp,%rbp
  101abf:	c6 05 aa 35 01 00 01 	movb   $0x1,0x135aa(%rip)        # 115070 <_ZL11task_was_on>
  101ac6:	48 c7 05 97 35 01 00 	movq   $0x1,0x13597(%rip)        # 115068 <_ZL4task>
  101acd:	01 00 00 00 
  101ad1:	90                   	nop
  101ad2:	5d                   	pop    %rbp
  101ad3:	c3                   	retq   

0000000000101ad4 <_ZL14timer_callbackP9Registers>:
  101ad4:	f3 0f 1e fa          	endbr64 
  101ad8:	55                   	push   %rbp
  101ad9:	48 89 e5             	mov    %rsp,%rbp
  101adc:	48 83 ec 10          	sub    $0x10,%rsp
  101ae0:	48 89 7d f8          	mov    %rdi,-0x8(%rbp)
  101ae4:	8b 05 6e 35 01 00    	mov    0x1356e(%rip),%eax        # 115058 <tick>
  101aea:	83 c0 01             	add    $0x1,%eax
  101aed:	89 05 65 35 01 00    	mov    %eax,0x13565(%rip)        # 115058 <tick>
  101af3:	8b 05 63 35 01 00    	mov    0x13563(%rip),%eax        # 11505c <frequency>
  101af9:	89 c0                	mov    %eax,%eax
  101afb:	48 85 c0             	test   %rax,%rax
  101afe:	78 07                	js     101b07 <_ZL14timer_callbackP9Registers+0x33>
  101b00:	f2 48 0f 2a c0       	cvtsi2sd %rax,%xmm0
  101b05:	eb 15                	jmp    101b1c <_ZL14timer_callbackP9Registers+0x48>
  101b07:	48 89 c2             	mov    %rax,%rdx
  101b0a:	48 d1 ea             	shr    %rdx
  101b0d:	83 e0 01             	and    $0x1,%eax
  101b10:	48 09 c2             	or     %rax,%rdx
  101b13:	f2 48 0f 2a c2       	cvtsi2sd %rdx,%xmm0
  101b18:	f2 0f 58 c0          	addsd  %xmm0,%xmm0
  101b1c:	f2 0f 10 0d 2c e6 00 	movsd  0xe62c(%rip),%xmm1        # 110150 <__rodata+0x150>
  101b23:	00 
  101b24:	f2 0f 5e c8          	divsd  %xmm0,%xmm1
  101b28:	f2 0f 10 05 30 35 01 	movsd  0x13530(%rip),%xmm0        # 115060 <timeSinceBoot>
  101b2f:	00 
  101b30:	f2 0f 58 c1          	addsd  %xmm1,%xmm0
  101b34:	f2 0f 11 05 24 35 01 	movsd  %xmm0,0x13524(%rip)        # 115060 <timeSinceBoot>
  101b3b:	00 
  101b3c:	48 8b 05 25 35 01 00 	mov    0x13525(%rip),%rax        # 115068 <_ZL4task>
  101b43:	48 85 c0             	test   %rax,%rax
  101b46:	74 14                	je     101b5c <_ZL14timer_callbackP9Registers+0x88>
  101b48:	be 20 00 00 00       	mov    $0x20,%esi
  101b4d:	bf 20 00 00 00       	mov    $0x20,%edi
  101b52:	e8 3d fd ff ff       	callq  101894 <_Z6__outbth>
  101b57:	e8 64 a4 00 00       	callq  10bfc0 <_Z8Schedulev>
  101b5c:	90                   	nop
  101b5d:	c9                   	leaveq 
  101b5e:	c3                   	retq   

0000000000101b5f <_Z9InitTimerj>:
  101b5f:	f3 0f 1e fa          	endbr64 
  101b63:	55                   	push   %rbp
  101b64:	48 89 e5             	mov    %rsp,%rbp
  101b67:	48 83 ec 20          	sub    $0x20,%rsp
  101b6b:	89 7d ec             	mov    %edi,-0x14(%rbp)
  101b6e:	8b 45 ec             	mov    -0x14(%rbp),%eax
  101b71:	89 05 e5 34 01 00    	mov    %eax,0x134e5(%rip)        # 11505c <frequency>
  101b77:	48 8d 35 56 ff ff ff 	lea    -0xaa(%rip),%rsi        # 101ad4 <_ZL14timer_callbackP9Registers>
  101b7e:	bf 20 00 00 00       	mov    $0x20,%edi
  101b83:	e8 e8 0d 00 00       	callq  102970 <_Z24RegisterInterruptHandlerhPFvP9RegistersE>
  101b88:	b8 dc 34 12 00       	mov    $0x1234dc,%eax
  101b8d:	ba 00 00 00 00       	mov    $0x0,%edx
  101b92:	f7 75 ec             	divl   -0x14(%rbp)
  101b95:	89 45 fc             	mov    %eax,-0x4(%rbp)
  101b98:	8b 45 fc             	mov    -0x4(%rbp),%eax
  101b9b:	88 45 fb             	mov    %al,-0x5(%rbp)
  101b9e:	8b 45 fc             	mov    -0x4(%rbp),%eax
  101ba1:	c1 e8 08             	shr    $0x8,%eax
  101ba4:	88 45 fa             	mov    %al,-0x6(%rbp)
  101ba7:	be 36 00 00 00       	mov    $0x36,%esi
  101bac:	bf 43 00 00 00       	mov    $0x43,%edi
  101bb1:	e8 de fc ff ff       	callq  101894 <_Z6__outbth>
  101bb6:	0f b6 45 fb          	movzbl -0x5(%rbp),%eax
  101bba:	89 c6                	mov    %eax,%esi
  101bbc:	bf 40 00 00 00       	mov    $0x40,%edi
  101bc1:	e8 ce fc ff ff       	callq  101894 <_Z6__outbth>
  101bc6:	0f b6 45 fa          	movzbl -0x6(%rbp),%eax
  101bca:	89 c6                	mov    %eax,%esi
  101bcc:	bf 40 00 00 00       	mov    $0x40,%edi
  101bd1:	e8 be fc ff ff       	callq  101894 <_Z6__outbth>
  101bd6:	90                   	nop
  101bd7:	c9                   	leaveq 
  101bd8:	c3                   	retq   

0000000000101bd9 <_Z8SleepForj>:
  101bd9:	f3 0f 1e fa          	endbr64 
  101bdd:	55                   	push   %rbp
  101bde:	48 89 e5             	mov    %rsp,%rbp
  101be1:	48 83 ec 10          	sub    $0x10,%rsp
  101be5:	89 7d fc             	mov    %edi,-0x4(%rbp)
  101be8:	8b 45 fc             	mov    -0x4(%rbp),%eax
  101beb:	48 85 c0             	test   %rax,%rax
  101bee:	78 07                	js     101bf7 <_Z8SleepForj+0x1e>
  101bf0:	f2 48 0f 2a c0       	cvtsi2sd %rax,%xmm0
  101bf5:	eb 15                	jmp    101c0c <_Z8SleepForj+0x33>
  101bf7:	48 89 c2             	mov    %rax,%rdx
  101bfa:	48 d1 ea             	shr    %rdx
  101bfd:	83 e0 01             	and    $0x1,%eax
  101c00:	48 09 c2             	or     %rax,%rdx
  101c03:	f2 48 0f 2a c2       	cvtsi2sd %rdx,%xmm0
  101c08:	f2 0f 58 c0          	addsd  %xmm0,%xmm0
  101c0c:	f2 0f 10 0d 44 e5 00 	movsd  0xe544(%rip),%xmm1        # 110158 <__rodata+0x158>
  101c13:	00 
  101c14:	f2 0f 5e c1          	divsd  %xmm1,%xmm0
  101c18:	e8 03 00 00 00       	callq  101c20 <_Z15SleepForSecondsd>
  101c1d:	90                   	nop
  101c1e:	c9                   	leaveq 
  101c1f:	c3                   	retq   

0000000000101c20 <_Z15SleepForSecondsd>:
  101c20:	f3 0f 1e fa          	endbr64 
  101c24:	55                   	push   %rbp
  101c25:	48 89 e5             	mov    %rsp,%rbp
  101c28:	48 83 ec 18          	sub    $0x18,%rsp
  101c2c:	f2 0f 11 45 e8       	movsd  %xmm0,-0x18(%rbp)
  101c31:	f2 0f 10 05 27 34 01 	movsd  0x13427(%rip),%xmm0        # 115060 <timeSinceBoot>
  101c38:	00 
  101c39:	f2 0f 10 4d e8       	movsd  -0x18(%rbp),%xmm1
  101c3e:	f2 0f 58 c1          	addsd  %xmm1,%xmm0
  101c42:	f2 0f 11 45 f8       	movsd  %xmm0,-0x8(%rbp)
  101c47:	f2 0f 10 0d 11 34 01 	movsd  0x13411(%rip),%xmm1        # 115060 <timeSinceBoot>
  101c4e:	00 
  101c4f:	f2 0f 10 45 f8       	movsd  -0x8(%rbp),%xmm0
  101c54:	66 0f 2f c1          	comisd %xmm1,%xmm0
  101c58:	77 02                	ja     101c5c <_Z15SleepForSecondsd+0x3c>
  101c5a:	eb 03                	jmp    101c5f <_Z15SleepForSecondsd+0x3f>
  101c5c:	f4                   	hlt    
  101c5d:	eb e8                	jmp    101c47 <_Z15SleepForSecondsd+0x27>
  101c5f:	c9                   	leaveq 
  101c60:	c3                   	retq   
  101c61:	90                   	nop

0000000000101c62 <_ZN4GDTR7SetGateEhmjhh>:
  101c62:	f3 0f 1e fa          	endbr64 
  101c66:	55                   	push   %rbp
  101c67:	48 89 e5             	mov    %rsp,%rbp
  101c6a:	48 83 ec 20          	sub    $0x20,%rsp
  101c6e:	48 89 7d f8          	mov    %rdi,-0x8(%rbp)
  101c72:	89 f0                	mov    %esi,%eax
  101c74:	48 89 55 e8          	mov    %rdx,-0x18(%rbp)
  101c78:	89 4d f0             	mov    %ecx,-0x10(%rbp)
  101c7b:	44 89 c1             	mov    %r8d,%ecx
  101c7e:	44 89 ca             	mov    %r9d,%edx
  101c81:	88 45 f4             	mov    %al,-0xc(%rbp)
  101c84:	89 c8                	mov    %ecx,%eax
  101c86:	88 45 e4             	mov    %al,-0x1c(%rbp)
  101c89:	89 d0                	mov    %edx,%eax
  101c8b:	88 45 e0             	mov    %al,-0x20(%rbp)
  101c8e:	48 8b 45 f8          	mov    -0x8(%rbp),%rax
  101c92:	48 8b 40 02          	mov    0x2(%rax),%rax
  101c96:	0f b6 55 f4          	movzbl -0xc(%rbp),%edx
  101c9a:	48 c1 e2 03          	shl    $0x3,%rdx
  101c9e:	48 01 d0             	add    %rdx,%rax
  101ca1:	48 8b 55 e8          	mov    -0x18(%rbp),%rdx
  101ca5:	66 89 50 02          	mov    %dx,0x2(%rax)
  101ca9:	48 8b 45 e8          	mov    -0x18(%rbp),%rax
  101cad:	48 c1 e8 10          	shr    $0x10,%rax
  101cb1:	48 89 c1             	mov    %rax,%rcx
  101cb4:	48 8b 45 f8          	mov    -0x8(%rbp),%rax
  101cb8:	48 8b 40 02          	mov    0x2(%rax),%rax
  101cbc:	0f b6 55 f4          	movzbl -0xc(%rbp),%edx
  101cc0:	48 c1 e2 03          	shl    $0x3,%rdx
  101cc4:	48 01 d0             	add    %rdx,%rax
  101cc7:	89 ca                	mov    %ecx,%edx
  101cc9:	88 50 04             	mov    %dl,0x4(%rax)
  101ccc:	48 8b 45 e8          	mov    -0x18(%rbp),%rax
  101cd0:	48 c1 e8 18          	shr    $0x18,%rax
  101cd4:	48 89 c1             	mov    %rax,%rcx
  101cd7:	48 8b 45 f8          	mov    -0x8(%rbp),%rax
  101cdb:	48 8b 40 02          	mov    0x2(%rax),%rax
  101cdf:	0f b6 55 f4          	movzbl -0xc(%rbp),%edx
  101ce3:	48 c1 e2 03          	shl    $0x3,%rdx
  101ce7:	48 01 d0             	add    %rdx,%rax
  101cea:	89 ca                	mov    %ecx,%edx
  101cec:	88 50 07             	mov    %dl,0x7(%rax)
  101cef:	48 8b 45 f8          	mov    -0x8(%rbp),%rax
  101cf3:	48 8b 40 02          	mov    0x2(%rax),%rax
  101cf7:	0f b6 55 f4          	movzbl -0xc(%rbp),%edx
  101cfb:	48 c1 e2 03          	shl    $0x3,%rdx
  101cff:	48 01 d0             	add    %rdx,%rax
  101d02:	8b 55 f0             	mov    -0x10(%rbp),%edx
  101d05:	66 89 10             	mov    %dx,(%rax)
  101d08:	8b 45 f0             	mov    -0x10(%rbp),%eax
  101d0b:	c1 e8 10             	shr    $0x10,%eax
  101d0e:	89 c1                	mov    %eax,%ecx
  101d10:	48 8b 45 f8          	mov    -0x8(%rbp),%rax
  101d14:	48 8b 40 02          	mov    0x2(%rax),%rax
  101d18:	0f b6 55 f4          	movzbl -0xc(%rbp),%edx
  101d1c:	48 c1 e2 03          	shl    $0x3,%rdx
  101d20:	48 01 d0             	add    %rdx,%rax
  101d23:	83 e1 0f             	and    $0xf,%ecx
  101d26:	89 ca                	mov    %ecx,%edx
  101d28:	88 50 06             	mov    %dl,0x6(%rax)
  101d2b:	48 8b 45 f8          	mov    -0x8(%rbp),%rax
  101d2f:	48 8b 40 02          	mov    0x2(%rax),%rax
  101d33:	0f b6 55 f4          	movzbl -0xc(%rbp),%edx
  101d37:	48 c1 e2 03          	shl    $0x3,%rdx
  101d3b:	48 01 d0             	add    %rdx,%rax
  101d3e:	0f b6 48 06          	movzbl 0x6(%rax),%ecx
  101d42:	0f b6 45 e0          	movzbl -0x20(%rbp),%eax
  101d46:	83 e0 f0             	and    $0xfffffff0,%eax
  101d49:	89 c6                	mov    %eax,%esi
  101d4b:	48 8b 45 f8          	mov    -0x8(%rbp),%rax
  101d4f:	48 8b 40 02          	mov    0x2(%rax),%rax
  101d53:	0f b6 55 f4          	movzbl -0xc(%rbp),%edx
  101d57:	48 c1 e2 03          	shl    $0x3,%rdx
  101d5b:	48 01 d0             	add    %rdx,%rax
  101d5e:	09 f1                	or     %esi,%ecx
  101d60:	89 ca                	mov    %ecx,%edx
  101d62:	88 50 06             	mov    %dl,0x6(%rax)
  101d65:	48 8b 45 f8          	mov    -0x8(%rbp),%rax
  101d69:	48 8b 40 02          	mov    0x2(%rax),%rax
  101d6d:	0f b6 55 f4          	movzbl -0xc(%rbp),%edx
  101d71:	48 c1 e2 03          	shl    $0x3,%rdx
  101d75:	48 01 c2             	add    %rax,%rdx
  101d78:	0f b6 45 e4          	movzbl -0x1c(%rbp),%eax
  101d7c:	88 42 05             	mov    %al,0x5(%rdx)
  101d7f:	90                   	nop
  101d80:	c9                   	leaveq 
  101d81:	c3                   	retq   

0000000000101d82 <_ZN4GDTR5FlushEv>:
  101d82:	f3 0f 1e fa          	endbr64 
  101d86:	55                   	push   %rbp
  101d87:	48 89 e5             	mov    %rsp,%rbp
  101d8a:	48 83 ec 10          	sub    $0x10,%rsp
  101d8e:	48 89 7d f8          	mov    %rdi,-0x8(%rbp)
  101d92:	48 8b 45 f8          	mov    -0x8(%rbp),%rax
  101d96:	48 89 c7             	mov    %rax,%rdi
  101d99:	e8 42 bc 00 00       	callq  10d9e0 <__gdt_flush>
  101d9e:	bf 40 00 00 00       	mov    $0x40,%edi
  101da3:	e8 53 bc 00 00       	callq  10d9fb <__tss_flush>
  101da8:	90                   	nop
  101da9:	c9                   	leaveq 
  101daa:	c3                   	retq   

0000000000101dab <_Z13InitialiseGDTv>:
  101dab:	f3 0f 1e fa          	endbr64 
  101daf:	55                   	push   %rbp
  101db0:	48 89 e5             	mov    %rsp,%rbp
  101db3:	48 83 ec 20          	sub    $0x20,%rsp
  101db7:	48 8d 05 c2 32 01 00 	lea    0x132c2(%rip),%rax        # 115080 <_ZL5gates>
  101dbe:	48 89 45 f0          	mov    %rax,-0x10(%rbp)
  101dc2:	66 c7 45 ee 4f 00    	movw   $0x4f,-0x12(%rbp)
  101dc8:	bf 00 10 00 00       	mov    $0x1000,%edi
  101dcd:	e8 b0 b2 00 00       	callq  10d082 <_Z7kmallocm>
  101dd2:	48 89 45 f8          	mov    %rax,-0x8(%rbp)
  101dd6:	48 8b 45 f8          	mov    -0x8(%rbp),%rax
  101dda:	89 05 24 33 01 00    	mov    %eax,0x13324(%rip)        # 115104 <_ZL3tss+0x24>
  101de0:	48 8b 45 f8          	mov    -0x8(%rbp),%rax
  101de4:	48 c1 e8 20          	shr    $0x20,%rax
  101de8:	89 05 1a 33 01 00    	mov    %eax,0x1331a(%rip)        # 115108 <_ZL3tss+0x28>
  101dee:	48 8b 45 f8          	mov    -0x8(%rbp),%rax
  101df2:	89 05 ec 32 01 00    	mov    %eax,0x132ec(%rip)        # 1150e4 <_ZL3tss+0x4>
  101df8:	48 8b 45 f8          	mov    -0x8(%rbp),%rax
  101dfc:	48 c1 e8 20          	shr    $0x20,%rax
  101e00:	89 05 e2 32 01 00    	mov    %eax,0x132e2(%rip)        # 1150e8 <_ZL3tss+0x8>
  101e06:	48 8d 45 ee          	lea    -0x12(%rbp),%rax
  101e0a:	41 b9 00 00 00 00    	mov    $0x0,%r9d
  101e10:	41 b8 00 00 00 00    	mov    $0x0,%r8d
  101e16:	b9 00 00 00 00       	mov    $0x0,%ecx
  101e1b:	ba 00 00 00 00       	mov    $0x0,%edx
  101e20:	be 00 00 00 00       	mov    $0x0,%esi
  101e25:	48 89 c7             	mov    %rax,%rdi
  101e28:	e8 35 fe ff ff       	callq  101c62 <_ZN4GDTR7SetGateEhmjhh>
  101e2d:	48 8d 45 ee          	lea    -0x12(%rbp),%rax
  101e31:	41 b9 a0 00 00 00    	mov    $0xa0,%r9d
  101e37:	41 b8 9a 00 00 00    	mov    $0x9a,%r8d
  101e3d:	b9 00 00 00 00       	mov    $0x0,%ecx
  101e42:	ba 00 00 00 00       	mov    $0x0,%edx
  101e47:	be 01 00 00 00       	mov    $0x1,%esi
  101e4c:	48 89 c7             	mov    %rax,%rdi
  101e4f:	e8 0e fe ff ff       	callq  101c62 <_ZN4GDTR7SetGateEhmjhh>
  101e54:	48 8d 45 ee          	lea    -0x12(%rbp),%rax
  101e58:	41 b9 a0 00 00 00    	mov    $0xa0,%r9d
  101e5e:	41 b8 92 00 00 00    	mov    $0x92,%r8d
  101e64:	b9 00 00 00 00       	mov    $0x0,%ecx
  101e69:	ba 00 00 00 00       	mov    $0x0,%edx
  101e6e:	be 02 00 00 00       	mov    $0x2,%esi
  101e73:	48 89 c7             	mov    %rax,%rdi
  101e76:	e8 e7 fd ff ff       	callq  101c62 <_ZN4GDTR7SetGateEhmjhh>
  101e7b:	48 8d 45 ee          	lea    -0x12(%rbp),%rax
  101e7f:	41 b9 00 00 00 00    	mov    $0x0,%r9d
  101e85:	41 b8 00 00 00 00    	mov    $0x0,%r8d
  101e8b:	b9 00 00 00 00       	mov    $0x0,%ecx
  101e90:	ba 00 00 00 00       	mov    $0x0,%edx
  101e95:	be 03 00 00 00       	mov    $0x3,%esi
  101e9a:	48 89 c7             	mov    %rax,%rdi
  101e9d:	e8 c0 fd ff ff       	callq  101c62 <_ZN4GDTR7SetGateEhmjhh>
  101ea2:	48 8d 45 ee          	lea    -0x12(%rbp),%rax
  101ea6:	41 b9 a0 00 00 00    	mov    $0xa0,%r9d
  101eac:	41 b8 f2 00 00 00    	mov    $0xf2,%r8d
  101eb2:	b9 00 00 00 00       	mov    $0x0,%ecx
  101eb7:	ba 00 00 00 00       	mov    $0x0,%edx
  101ebc:	be 04 00 00 00       	mov    $0x4,%esi
  101ec1:	48 89 c7             	mov    %rax,%rdi
  101ec4:	e8 99 fd ff ff       	callq  101c62 <_ZN4GDTR7SetGateEhmjhh>
  101ec9:	48 8d 45 ee          	lea    -0x12(%rbp),%rax
  101ecd:	41 b9 a0 00 00 00    	mov    $0xa0,%r9d
  101ed3:	41 b8 fa 00 00 00    	mov    $0xfa,%r8d
  101ed9:	b9 00 00 00 00       	mov    $0x0,%ecx
  101ede:	ba 00 00 00 00       	mov    $0x0,%edx
  101ee3:	be 05 00 00 00       	mov    $0x5,%esi
  101ee8:	48 89 c7             	mov    %rax,%rdi
  101eeb:	e8 72 fd ff ff       	callq  101c62 <_ZN4GDTR7SetGateEhmjhh>
  101ef0:	48 8d 45 ee          	lea    -0x12(%rbp),%rax
  101ef4:	41 b9 a0 00 00 00    	mov    $0xa0,%r9d
  101efa:	41 b8 92 00 00 00    	mov    $0x92,%r8d
  101f00:	b9 00 00 00 00       	mov    $0x0,%ecx
  101f05:	ba 00 00 00 00       	mov    $0x0,%edx
  101f0a:	be 06 00 00 00       	mov    $0x6,%esi
  101f0f:	48 89 c7             	mov    %rax,%rdi
  101f12:	e8 4b fd ff ff       	callq  101c62 <_ZN4GDTR7SetGateEhmjhh>
  101f17:	48 8d 45 ee          	lea    -0x12(%rbp),%rax
  101f1b:	41 b9 a0 00 00 00    	mov    $0xa0,%r9d
  101f21:	41 b8 9a 00 00 00    	mov    $0x9a,%r8d
  101f27:	b9 00 00 00 00       	mov    $0x0,%ecx
  101f2c:	ba 00 00 00 00       	mov    $0x0,%edx
  101f31:	be 07 00 00 00       	mov    $0x7,%esi
  101f36:	48 89 c7             	mov    %rax,%rdi
  101f39:	e8 24 fd ff ff       	callq  101c62 <_ZN4GDTR7SetGateEhmjhh>
  101f3e:	48 8d 15 9b 31 01 00 	lea    0x1319b(%rip),%rdx        # 1150e0 <_ZL3tss>
  101f45:	48 8d 45 ee          	lea    -0x12(%rbp),%rax
  101f49:	41 b9 40 00 00 00    	mov    $0x40,%r9d
  101f4f:	41 b8 89 00 00 00    	mov    $0x89,%r8d
  101f55:	b9 68 00 00 00       	mov    $0x68,%ecx
  101f5a:	be 08 00 00 00       	mov    $0x8,%esi
  101f5f:	48 89 c7             	mov    %rax,%rdi
  101f62:	e8 fb fc ff ff       	callq  101c62 <_ZN4GDTR7SetGateEhmjhh>
  101f67:	48 8d 45 ee          	lea    -0x12(%rbp),%rax
  101f6b:	48 89 c7             	mov    %rax,%rdi
  101f6e:	e8 0f fe ff ff       	callq  101d82 <_ZN4GDTR5FlushEv>
  101f73:	90                   	nop
  101f74:	c9                   	leaveq 
  101f75:	c3                   	retq   

0000000000101f76 <_ZL23DefaultExceptionHandlerP9Registers>:
  101f76:	f3 0f 1e fa          	endbr64 
  101f7a:	55                   	push   %rbp
  101f7b:	48 89 e5             	mov    %rsp,%rbp
  101f7e:	48 83 ec 10          	sub    $0x10,%rsp
  101f82:	48 89 7d f8          	mov    %rdi,-0x8(%rbp)
  101f86:	48 8b 45 f8          	mov    -0x8(%rbp),%rax
  101f8a:	48 8b 90 88 01 00 00 	mov    0x188(%rax),%rdx
  101f91:	48 8b 45 f8          	mov    -0x8(%rbp),%rax
  101f95:	48 8b 80 80 01 00 00 	mov    0x180(%rax),%rax
  101f9c:	48 89 c6             	mov    %rax,%rsi
  101f9f:	48 8d 3d ba e1 00 00 	lea    0xe1ba(%rip),%rdi        # 110160 <__rodata+0x160>
  101fa6:	b8 00 00 00 00       	mov    $0x0,%eax
  101fab:	e8 7c aa 00 00       	callq  10ca2c <_Z7kprintfPKcz>
  101fb0:	48 8b 45 f8          	mov    -0x8(%rbp),%rax
  101fb4:	48 8b 90 a8 01 00 00 	mov    0x1a8(%rax),%rdx
  101fbb:	48 8b 45 f8          	mov    -0x8(%rbp),%rax
  101fbf:	48 8b 80 90 01 00 00 	mov    0x190(%rax),%rax
  101fc6:	48 89 c6             	mov    %rax,%rsi
  101fc9:	48 8d 3d d3 e1 00 00 	lea    0xe1d3(%rip),%rdi        # 1101a3 <__rodata+0x1a3>
  101fd0:	b8 00 00 00 00       	mov    $0x0,%eax
  101fd5:	e8 52 aa 00 00       	callq  10ca2c <_Z7kprintfPKcz>
  101fda:	fa                   	cli    
  101fdb:	f4                   	hlt    
  101fdc:	90                   	nop
  101fdd:	c9                   	leaveq 
  101fde:	c3                   	retq   
  101fdf:	90                   	nop

0000000000101fe0 <_ZN4IDTR7SetGateEhhm>:
  101fe0:	f3 0f 1e fa          	endbr64 
  101fe4:	55                   	push   %rbp
  101fe5:	48 89 e5             	mov    %rsp,%rbp
  101fe8:	48 83 ec 18          	sub    $0x18,%rsp
  101fec:	48 89 7d f8          	mov    %rdi,-0x8(%rbp)
  101ff0:	89 d0                	mov    %edx,%eax
  101ff2:	48 89 4d e8          	mov    %rcx,-0x18(%rbp)
  101ff6:	89 f2                	mov    %esi,%edx
  101ff8:	88 55 f4             	mov    %dl,-0xc(%rbp)
  101ffb:	88 45 f0             	mov    %al,-0x10(%rbp)
  101ffe:	48 8b 45 f8          	mov    -0x8(%rbp),%rax
  102002:	48 8b 40 02          	mov    0x2(%rax),%rax
  102006:	0f b6 55 f4          	movzbl -0xc(%rbp),%edx
  10200a:	48 c1 e2 04          	shl    $0x4,%rdx
  10200e:	48 01 d0             	add    %rdx,%rax
  102011:	48 8b 55 e8          	mov    -0x18(%rbp),%rdx
  102015:	66 89 10             	mov    %dx,(%rax)
  102018:	48 8b 45 e8          	mov    -0x18(%rbp),%rax
  10201c:	48 c1 e8 10          	shr    $0x10,%rax
  102020:	48 89 c1             	mov    %rax,%rcx
  102023:	48 8b 45 f8          	mov    -0x8(%rbp),%rax
  102027:	48 8b 40 02          	mov    0x2(%rax),%rax
  10202b:	0f b6 55 f4          	movzbl -0xc(%rbp),%edx
  10202f:	48 c1 e2 04          	shl    $0x4,%rdx
  102033:	48 01 d0             	add    %rdx,%rax
  102036:	89 ca                	mov    %ecx,%edx
  102038:	66 89 50 06          	mov    %dx,0x6(%rax)
  10203c:	48 8b 45 e8          	mov    -0x18(%rbp),%rax
  102040:	48 c1 e8 20          	shr    $0x20,%rax
  102044:	48 89 c1             	mov    %rax,%rcx
  102047:	48 8b 45 f8          	mov    -0x8(%rbp),%rax
  10204b:	48 8b 40 02          	mov    0x2(%rax),%rax
  10204f:	0f b6 55 f4          	movzbl -0xc(%rbp),%edx
  102053:	48 c1 e2 04          	shl    $0x4,%rdx
  102057:	48 01 d0             	add    %rdx,%rax
  10205a:	89 ca                	mov    %ecx,%edx
  10205c:	89 50 08             	mov    %edx,0x8(%rax)
  10205f:	48 8b 45 f8          	mov    -0x8(%rbp),%rax
  102063:	48 8b 40 02          	mov    0x2(%rax),%rax
  102067:	0f b6 55 f4          	movzbl -0xc(%rbp),%edx
  10206b:	48 c1 e2 04          	shl    $0x4,%rdx
  10206f:	48 01 d0             	add    %rdx,%rax
  102072:	66 c7 40 02 08 00    	movw   $0x8,0x2(%rax)
  102078:	48 8b 45 f8          	mov    -0x8(%rbp),%rax
  10207c:	48 8b 40 02          	mov    0x2(%rax),%rax
  102080:	0f b6 55 f4          	movzbl -0xc(%rbp),%edx
  102084:	48 c1 e2 04          	shl    $0x4,%rdx
  102088:	48 01 c2             	add    %rax,%rdx
  10208b:	0f b6 45 f0          	movzbl -0x10(%rbp),%eax
  10208f:	88 42 05             	mov    %al,0x5(%rdx)
  102092:	90                   	nop
  102093:	c9                   	leaveq 
  102094:	c3                   	retq   
  102095:	90                   	nop

0000000000102096 <_ZN4IDTR5FlushEv>:
  102096:	f3 0f 1e fa          	endbr64 
  10209a:	55                   	push   %rbp
  10209b:	48 89 e5             	mov    %rsp,%rbp
  10209e:	48 83 ec 10          	sub    $0x10,%rsp
  1020a2:	48 89 7d f8          	mov    %rdi,-0x8(%rbp)
  1020a6:	48 8b 45 f8          	mov    -0x8(%rbp),%rax
  1020aa:	48 89 c7             	mov    %rax,%rdi
  1020ad:	e8 4e b9 00 00       	callq  10da00 <__set_idt>
  1020b2:	90                   	nop
  1020b3:	c9                   	leaveq 
  1020b4:	c3                   	retq   

00000000001020b5 <_Z13InitialiseIDTv>:
  1020b5:	f3 0f 1e fa          	endbr64 
  1020b9:	55                   	push   %rbp
  1020ba:	48 89 e5             	mov    %rsp,%rbp
  1020bd:	48 83 ec 10          	sub    $0x10,%rsp
  1020c1:	66 c7 05 96 30 01 00 	movw   $0xfff,0x13096(%rip)        # 115160 <idtr>
  1020c8:	ff 0f 
  1020ca:	48 8d 05 af 30 01 00 	lea    0x130af(%rip),%rax        # 115180 <_ZL5gates>
  1020d1:	48 89 05 8a 30 01 00 	mov    %rax,0x1308a(%rip)        # 115162 <idtr+0x2>
  1020d8:	48 c7 c0 b3 dc 10 00 	mov    $0x10dcb3,%rax
  1020df:	48 89 c1             	mov    %rax,%rcx
  1020e2:	ba 8e 00 00 00       	mov    $0x8e,%edx
  1020e7:	be 00 00 00 00       	mov    $0x0,%esi
  1020ec:	48 8d 3d 6d 30 01 00 	lea    0x1306d(%rip),%rdi        # 115160 <idtr>
  1020f3:	e8 e8 fe ff ff       	callq  101fe0 <_ZN4IDTR7SetGateEhhm>
  1020f8:	48 c7 c0 bc dc 10 00 	mov    $0x10dcbc,%rax
  1020ff:	48 89 c1             	mov    %rax,%rcx
  102102:	ba 8e 00 00 00       	mov    $0x8e,%edx
  102107:	be 01 00 00 00       	mov    $0x1,%esi
  10210c:	48 8d 3d 4d 30 01 00 	lea    0x1304d(%rip),%rdi        # 115160 <idtr>
  102113:	e8 c8 fe ff ff       	callq  101fe0 <_ZN4IDTR7SetGateEhhm>
  102118:	48 c7 c0 c5 dc 10 00 	mov    $0x10dcc5,%rax
  10211f:	48 89 c1             	mov    %rax,%rcx
  102122:	ba 8e 00 00 00       	mov    $0x8e,%edx
  102127:	be 02 00 00 00       	mov    $0x2,%esi
  10212c:	48 8d 3d 2d 30 01 00 	lea    0x1302d(%rip),%rdi        # 115160 <idtr>
  102133:	e8 a8 fe ff ff       	callq  101fe0 <_ZN4IDTR7SetGateEhhm>
  102138:	48 c7 c0 ce dc 10 00 	mov    $0x10dcce,%rax
  10213f:	48 89 c1             	mov    %rax,%rcx
  102142:	ba 8e 00 00 00       	mov    $0x8e,%edx
  102147:	be 03 00 00 00       	mov    $0x3,%esi
  10214c:	48 8d 3d 0d 30 01 00 	lea    0x1300d(%rip),%rdi        # 115160 <idtr>
  102153:	e8 88 fe ff ff       	callq  101fe0 <_ZN4IDTR7SetGateEhhm>
  102158:	48 c7 c0 d7 dc 10 00 	mov    $0x10dcd7,%rax
  10215f:	48 89 c1             	mov    %rax,%rcx
  102162:	ba 8e 00 00 00       	mov    $0x8e,%edx
  102167:	be 04 00 00 00       	mov    $0x4,%esi
  10216c:	48 8d 3d ed 2f 01 00 	lea    0x12fed(%rip),%rdi        # 115160 <idtr>
  102173:	e8 68 fe ff ff       	callq  101fe0 <_ZN4IDTR7SetGateEhhm>
  102178:	48 c7 c0 e0 dc 10 00 	mov    $0x10dce0,%rax
  10217f:	48 89 c1             	mov    %rax,%rcx
  102182:	ba 8e 00 00 00       	mov    $0x8e,%edx
  102187:	be 05 00 00 00       	mov    $0x5,%esi
  10218c:	48 8d 3d cd 2f 01 00 	lea    0x12fcd(%rip),%rdi        # 115160 <idtr>
  102193:	e8 48 fe ff ff       	callq  101fe0 <_ZN4IDTR7SetGateEhhm>
  102198:	48 c7 c0 e9 dc 10 00 	mov    $0x10dce9,%rax
  10219f:	48 89 c1             	mov    %rax,%rcx
  1021a2:	ba 8e 00 00 00       	mov    $0x8e,%edx
  1021a7:	be 06 00 00 00       	mov    $0x6,%esi
  1021ac:	48 8d 3d ad 2f 01 00 	lea    0x12fad(%rip),%rdi        # 115160 <idtr>
  1021b3:	e8 28 fe ff ff       	callq  101fe0 <_ZN4IDTR7SetGateEhhm>
  1021b8:	48 c7 c0 f2 dc 10 00 	mov    $0x10dcf2,%rax
  1021bf:	48 89 c1             	mov    %rax,%rcx
  1021c2:	ba 8e 00 00 00       	mov    $0x8e,%edx
  1021c7:	be 07 00 00 00       	mov    $0x7,%esi
  1021cc:	48 8d 3d 8d 2f 01 00 	lea    0x12f8d(%rip),%rdi        # 115160 <idtr>
  1021d3:	e8 08 fe ff ff       	callq  101fe0 <_ZN4IDTR7SetGateEhhm>
  1021d8:	48 c7 c0 fb dc 10 00 	mov    $0x10dcfb,%rax
  1021df:	48 89 c1             	mov    %rax,%rcx
  1021e2:	ba 8e 00 00 00       	mov    $0x8e,%edx
  1021e7:	be 08 00 00 00       	mov    $0x8,%esi
  1021ec:	48 8d 3d 6d 2f 01 00 	lea    0x12f6d(%rip),%rdi        # 115160 <idtr>
  1021f3:	e8 e8 fd ff ff       	callq  101fe0 <_ZN4IDTR7SetGateEhhm>
  1021f8:	48 c7 c0 02 dd 10 00 	mov    $0x10dd02,%rax
  1021ff:	48 89 c1             	mov    %rax,%rcx
  102202:	ba 8e 00 00 00       	mov    $0x8e,%edx
  102207:	be 09 00 00 00       	mov    $0x9,%esi
  10220c:	48 8d 3d 4d 2f 01 00 	lea    0x12f4d(%rip),%rdi        # 115160 <idtr>
  102213:	e8 c8 fd ff ff       	callq  101fe0 <_ZN4IDTR7SetGateEhhm>
  102218:	48 c7 c0 0b dd 10 00 	mov    $0x10dd0b,%rax
  10221f:	48 89 c1             	mov    %rax,%rcx
  102222:	ba 8e 00 00 00       	mov    $0x8e,%edx
  102227:	be 0a 00 00 00       	mov    $0xa,%esi
  10222c:	48 8d 3d 2d 2f 01 00 	lea    0x12f2d(%rip),%rdi        # 115160 <idtr>
  102233:	e8 a8 fd ff ff       	callq  101fe0 <_ZN4IDTR7SetGateEhhm>
  102238:	48 c7 c0 12 dd 10 00 	mov    $0x10dd12,%rax
  10223f:	48 89 c1             	mov    %rax,%rcx
  102242:	ba 8e 00 00 00       	mov    $0x8e,%edx
  102247:	be 0b 00 00 00       	mov    $0xb,%esi
  10224c:	48 8d 3d 0d 2f 01 00 	lea    0x12f0d(%rip),%rdi        # 115160 <idtr>
  102253:	e8 88 fd ff ff       	callq  101fe0 <_ZN4IDTR7SetGateEhhm>
  102258:	48 c7 c0 19 dd 10 00 	mov    $0x10dd19,%rax
  10225f:	48 89 c1             	mov    %rax,%rcx
  102262:	ba 8e 00 00 00       	mov    $0x8e,%edx
  102267:	be 0c 00 00 00       	mov    $0xc,%esi
  10226c:	48 8d 3d ed 2e 01 00 	lea    0x12eed(%rip),%rdi        # 115160 <idtr>
  102273:	e8 68 fd ff ff       	callq  101fe0 <_ZN4IDTR7SetGateEhhm>
  102278:	48 c7 c0 20 dd 10 00 	mov    $0x10dd20,%rax
  10227f:	48 89 c1             	mov    %rax,%rcx
  102282:	ba 8e 00 00 00       	mov    $0x8e,%edx
  102287:	be 0d 00 00 00       	mov    $0xd,%esi
  10228c:	48 8d 3d cd 2e 01 00 	lea    0x12ecd(%rip),%rdi        # 115160 <idtr>
  102293:	e8 48 fd ff ff       	callq  101fe0 <_ZN4IDTR7SetGateEhhm>
  102298:	48 c7 c0 27 dd 10 00 	mov    $0x10dd27,%rax
  10229f:	48 89 c1             	mov    %rax,%rcx
  1022a2:	ba 8e 00 00 00       	mov    $0x8e,%edx
  1022a7:	be 0e 00 00 00       	mov    $0xe,%esi
  1022ac:	48 8d 3d ad 2e 01 00 	lea    0x12ead(%rip),%rdi        # 115160 <idtr>
  1022b3:	e8 28 fd ff ff       	callq  101fe0 <_ZN4IDTR7SetGateEhhm>
  1022b8:	48 c7 c0 2e dd 10 00 	mov    $0x10dd2e,%rax
  1022bf:	48 89 c1             	mov    %rax,%rcx
  1022c2:	ba 8e 00 00 00       	mov    $0x8e,%edx
  1022c7:	be 0f 00 00 00       	mov    $0xf,%esi
  1022cc:	48 8d 3d 8d 2e 01 00 	lea    0x12e8d(%rip),%rdi        # 115160 <idtr>
  1022d3:	e8 08 fd ff ff       	callq  101fe0 <_ZN4IDTR7SetGateEhhm>
  1022d8:	48 c7 c0 35 dd 10 00 	mov    $0x10dd35,%rax
  1022df:	48 89 c1             	mov    %rax,%rcx
  1022e2:	ba 8e 00 00 00       	mov    $0x8e,%edx
  1022e7:	be 10 00 00 00       	mov    $0x10,%esi
  1022ec:	48 8d 3d 6d 2e 01 00 	lea    0x12e6d(%rip),%rdi        # 115160 <idtr>
  1022f3:	e8 e8 fc ff ff       	callq  101fe0 <_ZN4IDTR7SetGateEhhm>
  1022f8:	48 c7 c0 3c dd 10 00 	mov    $0x10dd3c,%rax
  1022ff:	48 89 c1             	mov    %rax,%rcx
  102302:	ba 8e 00 00 00       	mov    $0x8e,%edx
  102307:	be 11 00 00 00       	mov    $0x11,%esi
  10230c:	48 8d 3d 4d 2e 01 00 	lea    0x12e4d(%rip),%rdi        # 115160 <idtr>
  102313:	e8 c8 fc ff ff       	callq  101fe0 <_ZN4IDTR7SetGateEhhm>
  102318:	48 c7 c0 43 dd 10 00 	mov    $0x10dd43,%rax
  10231f:	48 89 c1             	mov    %rax,%rcx
  102322:	ba 8e 00 00 00       	mov    $0x8e,%edx
  102327:	be 12 00 00 00       	mov    $0x12,%esi
  10232c:	48 8d 3d 2d 2e 01 00 	lea    0x12e2d(%rip),%rdi        # 115160 <idtr>
  102333:	e8 a8 fc ff ff       	callq  101fe0 <_ZN4IDTR7SetGateEhhm>
  102338:	48 c7 c0 4a dd 10 00 	mov    $0x10dd4a,%rax
  10233f:	48 89 c1             	mov    %rax,%rcx
  102342:	ba 8e 00 00 00       	mov    $0x8e,%edx
  102347:	be 13 00 00 00       	mov    $0x13,%esi
  10234c:	48 8d 3d 0d 2e 01 00 	lea    0x12e0d(%rip),%rdi        # 115160 <idtr>
  102353:	e8 88 fc ff ff       	callq  101fe0 <_ZN4IDTR7SetGateEhhm>
  102358:	48 c7 c0 51 dd 10 00 	mov    $0x10dd51,%rax
  10235f:	48 89 c1             	mov    %rax,%rcx
  102362:	ba 8e 00 00 00       	mov    $0x8e,%edx
  102367:	be 14 00 00 00       	mov    $0x14,%esi
  10236c:	48 8d 3d ed 2d 01 00 	lea    0x12ded(%rip),%rdi        # 115160 <idtr>
  102373:	e8 68 fc ff ff       	callq  101fe0 <_ZN4IDTR7SetGateEhhm>
  102378:	48 c7 c0 58 dd 10 00 	mov    $0x10dd58,%rax
  10237f:	48 89 c1             	mov    %rax,%rcx
  102382:	ba 8e 00 00 00       	mov    $0x8e,%edx
  102387:	be 15 00 00 00       	mov    $0x15,%esi
  10238c:	48 8d 3d cd 2d 01 00 	lea    0x12dcd(%rip),%rdi        # 115160 <idtr>
  102393:	e8 48 fc ff ff       	callq  101fe0 <_ZN4IDTR7SetGateEhhm>
  102398:	48 c7 c0 5f dd 10 00 	mov    $0x10dd5f,%rax
  10239f:	48 89 c1             	mov    %rax,%rcx
  1023a2:	ba 8e 00 00 00       	mov    $0x8e,%edx
  1023a7:	be 16 00 00 00       	mov    $0x16,%esi
  1023ac:	48 8d 3d ad 2d 01 00 	lea    0x12dad(%rip),%rdi        # 115160 <idtr>
  1023b3:	e8 28 fc ff ff       	callq  101fe0 <_ZN4IDTR7SetGateEhhm>
  1023b8:	48 c7 c0 66 dd 10 00 	mov    $0x10dd66,%rax
  1023bf:	48 89 c1             	mov    %rax,%rcx
  1023c2:	ba 8e 00 00 00       	mov    $0x8e,%edx
  1023c7:	be 17 00 00 00       	mov    $0x17,%esi
  1023cc:	48 8d 3d 8d 2d 01 00 	lea    0x12d8d(%rip),%rdi        # 115160 <idtr>
  1023d3:	e8 08 fc ff ff       	callq  101fe0 <_ZN4IDTR7SetGateEhhm>
  1023d8:	48 c7 c0 6d dd 10 00 	mov    $0x10dd6d,%rax
  1023df:	48 89 c1             	mov    %rax,%rcx
  1023e2:	ba 8e 00 00 00       	mov    $0x8e,%edx
  1023e7:	be 18 00 00 00       	mov    $0x18,%esi
  1023ec:	48 8d 3d 6d 2d 01 00 	lea    0x12d6d(%rip),%rdi        # 115160 <idtr>
  1023f3:	e8 e8 fb ff ff       	callq  101fe0 <_ZN4IDTR7SetGateEhhm>
  1023f8:	48 c7 c0 74 dd 10 00 	mov    $0x10dd74,%rax
  1023ff:	48 89 c1             	mov    %rax,%rcx
  102402:	ba 8e 00 00 00       	mov    $0x8e,%edx
  102407:	be 19 00 00 00       	mov    $0x19,%esi
  10240c:	48 8d 3d 4d 2d 01 00 	lea    0x12d4d(%rip),%rdi        # 115160 <idtr>
  102413:	e8 c8 fb ff ff       	callq  101fe0 <_ZN4IDTR7SetGateEhhm>
  102418:	48 c7 c0 7b dd 10 00 	mov    $0x10dd7b,%rax
  10241f:	48 89 c1             	mov    %rax,%rcx
  102422:	ba 8e 00 00 00       	mov    $0x8e,%edx
  102427:	be 1a 00 00 00       	mov    $0x1a,%esi
  10242c:	48 8d 3d 2d 2d 01 00 	lea    0x12d2d(%rip),%rdi        # 115160 <idtr>
  102433:	e8 a8 fb ff ff       	callq  101fe0 <_ZN4IDTR7SetGateEhhm>
  102438:	48 c7 c0 82 dd 10 00 	mov    $0x10dd82,%rax
  10243f:	48 89 c1             	mov    %rax,%rcx
  102442:	ba 8e 00 00 00       	mov    $0x8e,%edx
  102447:	be 1b 00 00 00       	mov    $0x1b,%esi
  10244c:	48 8d 3d 0d 2d 01 00 	lea    0x12d0d(%rip),%rdi        # 115160 <idtr>
  102453:	e8 88 fb ff ff       	callq  101fe0 <_ZN4IDTR7SetGateEhhm>
  102458:	48 c7 c0 89 dd 10 00 	mov    $0x10dd89,%rax
  10245f:	48 89 c1             	mov    %rax,%rcx
  102462:	ba 8e 00 00 00       	mov    $0x8e,%edx
  102467:	be 1c 00 00 00       	mov    $0x1c,%esi
  10246c:	48 8d 3d ed 2c 01 00 	lea    0x12ced(%rip),%rdi        # 115160 <idtr>
  102473:	e8 68 fb ff ff       	callq  101fe0 <_ZN4IDTR7SetGateEhhm>
  102478:	48 c7 c0 90 dd 10 00 	mov    $0x10dd90,%rax
  10247f:	48 89 c1             	mov    %rax,%rcx
  102482:	ba 8e 00 00 00       	mov    $0x8e,%edx
  102487:	be 1d 00 00 00       	mov    $0x1d,%esi
  10248c:	48 8d 3d cd 2c 01 00 	lea    0x12ccd(%rip),%rdi        # 115160 <idtr>
  102493:	e8 48 fb ff ff       	callq  101fe0 <_ZN4IDTR7SetGateEhhm>
  102498:	48 c7 c0 97 dd 10 00 	mov    $0x10dd97,%rax
  10249f:	48 89 c1             	mov    %rax,%rcx
  1024a2:	ba 8e 00 00 00       	mov    $0x8e,%edx
  1024a7:	be 1e 00 00 00       	mov    $0x1e,%esi
  1024ac:	48 8d 3d ad 2c 01 00 	lea    0x12cad(%rip),%rdi        # 115160 <idtr>
  1024b3:	e8 28 fb ff ff       	callq  101fe0 <_ZN4IDTR7SetGateEhhm>
  1024b8:	48 c7 c0 9e dd 10 00 	mov    $0x10dd9e,%rax
  1024bf:	48 89 c1             	mov    %rax,%rcx
  1024c2:	ba 8e 00 00 00       	mov    $0x8e,%edx
  1024c7:	be 1f 00 00 00       	mov    $0x1f,%esi
  1024cc:	48 8d 3d 8d 2c 01 00 	lea    0x12c8d(%rip),%rdi        # 115160 <idtr>
  1024d3:	e8 08 fb ff ff       	callq  101fe0 <_ZN4IDTR7SetGateEhhm>
  1024d8:	48 c7 c0 a5 dd 10 00 	mov    $0x10dda5,%rax
  1024df:	48 89 c1             	mov    %rax,%rcx
  1024e2:	ba 8e 00 00 00       	mov    $0x8e,%edx
  1024e7:	be 20 00 00 00       	mov    $0x20,%esi
  1024ec:	48 8d 3d 6d 2c 01 00 	lea    0x12c6d(%rip),%rdi        # 115160 <idtr>
  1024f3:	e8 e8 fa ff ff       	callq  101fe0 <_ZN4IDTR7SetGateEhhm>
  1024f8:	48 c7 c0 ae dd 10 00 	mov    $0x10ddae,%rax
  1024ff:	48 89 c1             	mov    %rax,%rcx
  102502:	ba 8e 00 00 00       	mov    $0x8e,%edx
  102507:	be 21 00 00 00       	mov    $0x21,%esi
  10250c:	48 8d 3d 4d 2c 01 00 	lea    0x12c4d(%rip),%rdi        # 115160 <idtr>
  102513:	e8 c8 fa ff ff       	callq  101fe0 <_ZN4IDTR7SetGateEhhm>
  102518:	48 c7 c0 b7 dd 10 00 	mov    $0x10ddb7,%rax
  10251f:	48 89 c1             	mov    %rax,%rcx
  102522:	ba 8e 00 00 00       	mov    $0x8e,%edx
  102527:	be 22 00 00 00       	mov    $0x22,%esi
  10252c:	48 8d 3d 2d 2c 01 00 	lea    0x12c2d(%rip),%rdi        # 115160 <idtr>
  102533:	e8 a8 fa ff ff       	callq  101fe0 <_ZN4IDTR7SetGateEhhm>
  102538:	48 c7 c0 c0 dd 10 00 	mov    $0x10ddc0,%rax
  10253f:	48 89 c1             	mov    %rax,%rcx
  102542:	ba 8e 00 00 00       	mov    $0x8e,%edx
  102547:	be 23 00 00 00       	mov    $0x23,%esi
  10254c:	48 8d 3d 0d 2c 01 00 	lea    0x12c0d(%rip),%rdi        # 115160 <idtr>
  102553:	e8 88 fa ff ff       	callq  101fe0 <_ZN4IDTR7SetGateEhhm>
  102558:	48 c7 c0 c9 dd 10 00 	mov    $0x10ddc9,%rax
  10255f:	48 89 c1             	mov    %rax,%rcx
  102562:	ba 8e 00 00 00       	mov    $0x8e,%edx
  102567:	be 24 00 00 00       	mov    $0x24,%esi
  10256c:	48 8d 3d ed 2b 01 00 	lea    0x12bed(%rip),%rdi        # 115160 <idtr>
  102573:	e8 68 fa ff ff       	callq  101fe0 <_ZN4IDTR7SetGateEhhm>
  102578:	48 c7 c0 d2 dd 10 00 	mov    $0x10ddd2,%rax
  10257f:	48 89 c1             	mov    %rax,%rcx
  102582:	ba 8e 00 00 00       	mov    $0x8e,%edx
  102587:	be 25 00 00 00       	mov    $0x25,%esi
  10258c:	48 8d 3d cd 2b 01 00 	lea    0x12bcd(%rip),%rdi        # 115160 <idtr>
  102593:	e8 48 fa ff ff       	callq  101fe0 <_ZN4IDTR7SetGateEhhm>
  102598:	48 c7 c0 db dd 10 00 	mov    $0x10dddb,%rax
  10259f:	48 89 c1             	mov    %rax,%rcx
  1025a2:	ba 8e 00 00 00       	mov    $0x8e,%edx
  1025a7:	be 26 00 00 00       	mov    $0x26,%esi
  1025ac:	48 8d 3d ad 2b 01 00 	lea    0x12bad(%rip),%rdi        # 115160 <idtr>
  1025b3:	e8 28 fa ff ff       	callq  101fe0 <_ZN4IDTR7SetGateEhhm>
  1025b8:	48 c7 c0 e4 dd 10 00 	mov    $0x10dde4,%rax
  1025bf:	48 89 c1             	mov    %rax,%rcx
  1025c2:	ba 8e 00 00 00       	mov    $0x8e,%edx
  1025c7:	be 27 00 00 00       	mov    $0x27,%esi
  1025cc:	48 8d 3d 8d 2b 01 00 	lea    0x12b8d(%rip),%rdi        # 115160 <idtr>
  1025d3:	e8 08 fa ff ff       	callq  101fe0 <_ZN4IDTR7SetGateEhhm>
  1025d8:	48 c7 c0 ed dd 10 00 	mov    $0x10dded,%rax
  1025df:	48 89 c1             	mov    %rax,%rcx
  1025e2:	ba 8e 00 00 00       	mov    $0x8e,%edx
  1025e7:	be 28 00 00 00       	mov    $0x28,%esi
  1025ec:	48 8d 3d 6d 2b 01 00 	lea    0x12b6d(%rip),%rdi        # 115160 <idtr>
  1025f3:	e8 e8 f9 ff ff       	callq  101fe0 <_ZN4IDTR7SetGateEhhm>
  1025f8:	48 c7 c0 f6 dd 10 00 	mov    $0x10ddf6,%rax
  1025ff:	48 89 c1             	mov    %rax,%rcx
  102602:	ba 8e 00 00 00       	mov    $0x8e,%edx
  102607:	be 29 00 00 00       	mov    $0x29,%esi
  10260c:	48 8d 3d 4d 2b 01 00 	lea    0x12b4d(%rip),%rdi        # 115160 <idtr>
  102613:	e8 c8 f9 ff ff       	callq  101fe0 <_ZN4IDTR7SetGateEhhm>
  102618:	48 c7 c0 ff dd 10 00 	mov    $0x10ddff,%rax
  10261f:	48 89 c1             	mov    %rax,%rcx
  102622:	ba 8e 00 00 00       	mov    $0x8e,%edx
  102627:	be 2a 00 00 00       	mov    $0x2a,%esi
  10262c:	48 8d 3d 2d 2b 01 00 	lea    0x12b2d(%rip),%rdi        # 115160 <idtr>
  102633:	e8 a8 f9 ff ff       	callq  101fe0 <_ZN4IDTR7SetGateEhhm>
  102638:	48 c7 c0 08 de 10 00 	mov    $0x10de08,%rax
  10263f:	48 89 c1             	mov    %rax,%rcx
  102642:	ba 8e 00 00 00       	mov    $0x8e,%edx
  102647:	be 2b 00 00 00       	mov    $0x2b,%esi
  10264c:	48 8d 3d 0d 2b 01 00 	lea    0x12b0d(%rip),%rdi        # 115160 <idtr>
  102653:	e8 88 f9 ff ff       	callq  101fe0 <_ZN4IDTR7SetGateEhhm>
  102658:	48 c7 c0 11 de 10 00 	mov    $0x10de11,%rax
  10265f:	48 89 c1             	mov    %rax,%rcx
  102662:	ba 8e 00 00 00       	mov    $0x8e,%edx
  102667:	be 2c 00 00 00       	mov    $0x2c,%esi
  10266c:	48 8d 3d ed 2a 01 00 	lea    0x12aed(%rip),%rdi        # 115160 <idtr>
  102673:	e8 68 f9 ff ff       	callq  101fe0 <_ZN4IDTR7SetGateEhhm>
  102678:	48 c7 c0 1a de 10 00 	mov    $0x10de1a,%rax
  10267f:	48 89 c1             	mov    %rax,%rcx
  102682:	ba 8e 00 00 00       	mov    $0x8e,%edx
  102687:	be 2d 00 00 00       	mov    $0x2d,%esi
  10268c:	48 8d 3d cd 2a 01 00 	lea    0x12acd(%rip),%rdi        # 115160 <idtr>
  102693:	e8 48 f9 ff ff       	callq  101fe0 <_ZN4IDTR7SetGateEhhm>
  102698:	48 c7 c0 23 de 10 00 	mov    $0x10de23,%rax
  10269f:	48 89 c1             	mov    %rax,%rcx
  1026a2:	ba 8e 00 00 00       	mov    $0x8e,%edx
  1026a7:	be 2e 00 00 00       	mov    $0x2e,%esi
  1026ac:	48 8d 3d ad 2a 01 00 	lea    0x12aad(%rip),%rdi        # 115160 <idtr>
  1026b3:	e8 28 f9 ff ff       	callq  101fe0 <_ZN4IDTR7SetGateEhhm>
  1026b8:	48 c7 c0 2c de 10 00 	mov    $0x10de2c,%rax
  1026bf:	48 89 c1             	mov    %rax,%rcx
  1026c2:	ba 8e 00 00 00       	mov    $0x8e,%edx
  1026c7:	be 2f 00 00 00       	mov    $0x2f,%esi
  1026cc:	48 8d 3d 8d 2a 01 00 	lea    0x12a8d(%rip),%rdi        # 115160 <idtr>
  1026d3:	e8 08 f9 ff ff       	callq  101fe0 <_ZN4IDTR7SetGateEhhm>
  1026d8:	c6 45 ff 00          	movb   $0x0,-0x1(%rbp)
  1026dc:	80 7d ff 1f          	cmpb   $0x1f,-0x1(%rbp)
  1026e0:	77 1e                	ja     102700 <_Z13InitialiseIDTv+0x64b>
  1026e2:	0f b6 45 ff          	movzbl -0x1(%rbp),%eax
  1026e6:	48 8d 35 89 f8 ff ff 	lea    -0x777(%rip),%rsi        # 101f76 <_ZL23DefaultExceptionHandlerP9Registers>
  1026ed:	89 c7                	mov    %eax,%edi
  1026ef:	e8 7c 02 00 00       	callq  102970 <_Z24RegisterInterruptHandlerhPFvP9RegistersE>
  1026f4:	0f b6 45 ff          	movzbl -0x1(%rbp),%eax
  1026f8:	83 c0 01             	add    $0x1,%eax
  1026fb:	88 45 ff             	mov    %al,-0x1(%rbp)
  1026fe:	eb dc                	jmp    1026dc <_Z13InitialiseIDTv+0x627>
  102700:	48 8d 3d 59 2a 01 00 	lea    0x12a59(%rip),%rdi        # 115160 <idtr>
  102707:	e8 8a f9 ff ff       	callq  102096 <_ZN4IDTR5FlushEv>
  10270c:	bf 21 00 00 00       	mov    $0x21,%edi
  102711:	e8 1b f1 ff ff       	callq  101831 <_Z5__inbt>
  102716:	88 45 fe             	mov    %al,-0x2(%rbp)
  102719:	e8 dc f1 ff ff       	callq  1018fa <_Z7io_waitv>
  10271e:	bf a1 00 00 00       	mov    $0xa1,%edi
  102723:	e8 09 f1 ff ff       	callq  101831 <_Z5__inbt>
  102728:	88 45 fd             	mov    %al,-0x3(%rbp)
  10272b:	e8 ca f1 ff ff       	callq  1018fa <_Z7io_waitv>
  102730:	be 11 00 00 00       	mov    $0x11,%esi
  102735:	bf 20 00 00 00       	mov    $0x20,%edi
  10273a:	e8 55 f1 ff ff       	callq  101894 <_Z6__outbth>
  10273f:	e8 b6 f1 ff ff       	callq  1018fa <_Z7io_waitv>
  102744:	be 11 00 00 00       	mov    $0x11,%esi
  102749:	bf a0 00 00 00       	mov    $0xa0,%edi
  10274e:	e8 41 f1 ff ff       	callq  101894 <_Z6__outbth>
  102753:	e8 a2 f1 ff ff       	callq  1018fa <_Z7io_waitv>
  102758:	be 20 00 00 00       	mov    $0x20,%esi
  10275d:	bf 21 00 00 00       	mov    $0x21,%edi
  102762:	e8 2d f1 ff ff       	callq  101894 <_Z6__outbth>
  102767:	e8 8e f1 ff ff       	callq  1018fa <_Z7io_waitv>
  10276c:	be 28 00 00 00       	mov    $0x28,%esi
  102771:	bf a1 00 00 00       	mov    $0xa1,%edi
  102776:	e8 19 f1 ff ff       	callq  101894 <_Z6__outbth>
  10277b:	e8 7a f1 ff ff       	callq  1018fa <_Z7io_waitv>
  102780:	be 04 00 00 00       	mov    $0x4,%esi
  102785:	bf 21 00 00 00       	mov    $0x21,%edi
  10278a:	e8 05 f1 ff ff       	callq  101894 <_Z6__outbth>
  10278f:	e8 66 f1 ff ff       	callq  1018fa <_Z7io_waitv>
  102794:	be 02 00 00 00       	mov    $0x2,%esi
  102799:	bf a1 00 00 00       	mov    $0xa1,%edi
  10279e:	e8 f1 f0 ff ff       	callq  101894 <_Z6__outbth>
  1027a3:	e8 52 f1 ff ff       	callq  1018fa <_Z7io_waitv>
  1027a8:	be 01 00 00 00       	mov    $0x1,%esi
  1027ad:	bf 21 00 00 00       	mov    $0x21,%edi
  1027b2:	e8 dd f0 ff ff       	callq  101894 <_Z6__outbth>
  1027b7:	e8 3e f1 ff ff       	callq  1018fa <_Z7io_waitv>
  1027bc:	be 01 00 00 00       	mov    $0x1,%esi
  1027c1:	bf a1 00 00 00       	mov    $0xa1,%edi
  1027c6:	e8 c9 f0 ff ff       	callq  101894 <_Z6__outbth>
  1027cb:	e8 2a f1 ff ff       	callq  1018fa <_Z7io_waitv>
  1027d0:	0f b6 45 fe          	movzbl -0x2(%rbp),%eax
  1027d4:	89 c6                	mov    %eax,%esi
  1027d6:	bf 21 00 00 00       	mov    $0x21,%edi
  1027db:	e8 b4 f0 ff ff       	callq  101894 <_Z6__outbth>
  1027e0:	e8 15 f1 ff ff       	callq  1018fa <_Z7io_waitv>
  1027e5:	0f b6 45 fd          	movzbl -0x3(%rbp),%eax
  1027e9:	89 c6                	mov    %eax,%esi
  1027eb:	bf a1 00 00 00       	mov    $0xa1,%edi
  1027f0:	e8 9f f0 ff ff       	callq  101894 <_Z6__outbth>
  1027f5:	90                   	nop
  1027f6:	c9                   	leaveq 
  1027f7:	c3                   	retq   

00000000001027f8 <_Z13InitialiseIRQv>:
  1027f8:	f3 0f 1e fa          	endbr64 
  1027fc:	55                   	push   %rbp
  1027fd:	48 89 e5             	mov    %rsp,%rbp
  102800:	53                   	push   %rbx
  102801:	48 83 ec 08          	sub    $0x8,%rsp
  102805:	bf e8 03 00 00       	mov    $0x3e8,%edi
  10280a:	e8 50 f3 ff ff       	callq  101b5f <_Z9InitTimerj>
  10280f:	e8 59 3c 00 00       	callq  10646d <_Z12InitKeyboardv>
  102814:	e8 d3 2a 00 00       	callq  1052ec <_ZN7Display13SharedDisplayEv>
  102819:	8b 58 2c             	mov    0x2c(%rax),%ebx
  10281c:	e8 cb 2a 00 00       	callq  1052ec <_ZN7Display13SharedDisplayEv>
  102821:	8b 40 28             	mov    0x28(%rax),%eax
  102824:	89 de                	mov    %ebx,%esi
  102826:	89 c7                	mov    %eax,%edi
  102828:	e8 ff 37 00 00       	callq  10602c <_Z15InitialiseMousejj>
  10282d:	be f8 00 00 00       	mov    $0xf8,%esi
  102832:	bf 21 00 00 00       	mov    $0x21,%edi
  102837:	e8 58 f0 ff ff       	callq  101894 <_Z6__outbth>
  10283c:	be ff 00 00 00       	mov    $0xff,%esi
  102841:	bf a1 00 00 00       	mov    $0xa1,%edi
  102846:	e8 49 f0 ff ff       	callq  101894 <_Z6__outbth>
  10284b:	fb                   	sti    
  10284c:	90                   	nop
  10284d:	48 83 c4 08          	add    $0x8,%rsp
  102851:	5b                   	pop    %rbx
  102852:	5d                   	pop    %rbp
  102853:	c3                   	retq   

0000000000102854 <ISRHandler>:
  102854:	f3 0f 1e fa          	endbr64 
  102858:	55                   	push   %rbp
  102859:	48 89 e5             	mov    %rsp,%rbp
  10285c:	48 83 ec 20          	sub    $0x20,%rsp
  102860:	48 89 7d e8          	mov    %rdi,-0x18(%rbp)
  102864:	48 8b 45 e8          	mov    -0x18(%rbp),%rax
  102868:	48 8b 80 80 01 00 00 	mov    0x180(%rax),%rax
  10286f:	48 8d 14 c5 00 00 00 	lea    0x0(,%rax,8),%rdx
  102876:	00 
  102877:	48 8d 05 02 39 01 00 	lea    0x13902(%rip),%rax        # 116180 <_ZL18interrupt_handlers>
  10287e:	48 8b 04 02          	mov    (%rdx,%rax,1),%rax
  102882:	48 85 c0             	test   %rax,%rax
  102885:	74 31                	je     1028b8 <ISRHandler+0x64>
  102887:	48 8b 45 e8          	mov    -0x18(%rbp),%rax
  10288b:	48 8b 80 80 01 00 00 	mov    0x180(%rax),%rax
  102892:	48 8d 14 c5 00 00 00 	lea    0x0(,%rax,8),%rdx
  102899:	00 
  10289a:	48 8d 05 df 38 01 00 	lea    0x138df(%rip),%rax        # 116180 <_ZL18interrupt_handlers>
  1028a1:	48 8b 04 02          	mov    (%rdx,%rax,1),%rax
  1028a5:	48 89 45 f8          	mov    %rax,-0x8(%rbp)
  1028a9:	48 8b 45 e8          	mov    -0x18(%rbp),%rax
  1028ad:	48 8b 55 f8          	mov    -0x8(%rbp),%rdx
  1028b1:	48 89 c7             	mov    %rax,%rdi
  1028b4:	ff d2                	callq  *%rdx
  1028b6:	eb 22                	jmp    1028da <ISRHandler+0x86>
  1028b8:	48 8b 45 e8          	mov    -0x18(%rbp),%rax
  1028bc:	48 8b 80 80 01 00 00 	mov    0x180(%rax),%rax
  1028c3:	48 89 c6             	mov    %rax,%rsi
  1028c6:	48 8d 3d eb d8 00 00 	lea    0xd8eb(%rip),%rdi        # 1101b8 <__rodata+0x1b8>
  1028cd:	b8 00 00 00 00       	mov    $0x0,%eax
  1028d2:	e8 55 a1 00 00       	callq  10ca2c <_Z7kprintfPKcz>
  1028d7:	f4                   	hlt    
  1028d8:	eb fd                	jmp    1028d7 <ISRHandler+0x83>
  1028da:	c9                   	leaveq 
  1028db:	c3                   	retq   

00000000001028dc <IRQHandler>:
  1028dc:	f3 0f 1e fa          	endbr64 
  1028e0:	55                   	push   %rbp
  1028e1:	48 89 e5             	mov    %rsp,%rbp
  1028e4:	48 83 ec 20          	sub    $0x20,%rsp
  1028e8:	48 89 7d e8          	mov    %rdi,-0x18(%rbp)
  1028ec:	48 8b 45 e8          	mov    -0x18(%rbp),%rax
  1028f0:	48 8b 80 80 01 00 00 	mov    0x180(%rax),%rax
  1028f7:	48 8d 14 c5 00 00 00 	lea    0x0(,%rax,8),%rdx
  1028fe:	00 
  1028ff:	48 8d 05 7a 38 01 00 	lea    0x1387a(%rip),%rax        # 116180 <_ZL18interrupt_handlers>
  102906:	48 8b 04 02          	mov    (%rdx,%rax,1),%rax
  10290a:	48 85 c0             	test   %rax,%rax
  10290d:	74 2f                	je     10293e <IRQHandler+0x62>
  10290f:	48 8b 45 e8          	mov    -0x18(%rbp),%rax
  102913:	48 8b 80 80 01 00 00 	mov    0x180(%rax),%rax
  10291a:	48 8d 14 c5 00 00 00 	lea    0x0(,%rax,8),%rdx
  102921:	00 
  102922:	48 8d 05 57 38 01 00 	lea    0x13857(%rip),%rax        # 116180 <_ZL18interrupt_handlers>
  102929:	48 8b 04 02          	mov    (%rdx,%rax,1),%rax
  10292d:	48 89 45 f8          	mov    %rax,-0x8(%rbp)
  102931:	48 8b 45 e8          	mov    -0x18(%rbp),%rax
  102935:	48 8b 55 f8          	mov    -0x8(%rbp),%rdx
  102939:	48 89 c7             	mov    %rax,%rdi
  10293c:	ff d2                	callq  *%rdx
  10293e:	48 8b 45 e8          	mov    -0x18(%rbp),%rax
  102942:	48 8b 80 80 01 00 00 	mov    0x180(%rax),%rax
  102949:	48 83 f8 27          	cmp    $0x27,%rax
  10294d:	76 0f                	jbe    10295e <IRQHandler+0x82>
  10294f:	be 20 00 00 00       	mov    $0x20,%esi
  102954:	bf a0 00 00 00       	mov    $0xa0,%edi
  102959:	e8 36 ef ff ff       	callq  101894 <_Z6__outbth>
  10295e:	be 20 00 00 00       	mov    $0x20,%esi
  102963:	bf 20 00 00 00       	mov    $0x20,%edi
  102968:	e8 27 ef ff ff       	callq  101894 <_Z6__outbth>
  10296d:	90                   	nop
  10296e:	c9                   	leaveq 
  10296f:	c3                   	retq   

0000000000102970 <_Z24RegisterInterruptHandlerhPFvP9RegistersE>:
  102970:	f3 0f 1e fa          	endbr64 
  102974:	55                   	push   %rbp
  102975:	48 89 e5             	mov    %rsp,%rbp
  102978:	48 83 ec 10          	sub    $0x10,%rsp
  10297c:	89 f8                	mov    %edi,%eax
  10297e:	48 89 75 f0          	mov    %rsi,-0x10(%rbp)
  102982:	88 45 fc             	mov    %al,-0x4(%rbp)
  102985:	0f b6 45 fc          	movzbl -0x4(%rbp),%eax
  102989:	48 98                	cltq   
  10298b:	48 8d 0c c5 00 00 00 	lea    0x0(,%rax,8),%rcx
  102992:	00 
  102993:	48 8d 15 e6 37 01 00 	lea    0x137e6(%rip),%rdx        # 116180 <_ZL18interrupt_handlers>
  10299a:	48 8b 45 f0          	mov    -0x10(%rbp),%rax
  10299e:	48 89 04 11          	mov    %rax,(%rcx,%rdx,1)
  1029a2:	90                   	nop
  1029a3:	c9                   	leaveq 
  1029a4:	c3                   	retq   

00000000001029a5 <_Z17get_stack_pointerv>:
  1029a5:	f3 0f 1e fa          	endbr64 
  1029a9:	55                   	push   %rbp
  1029aa:	48 89 e5             	mov    %rsp,%rbp
  1029ad:	48 89 e0             	mov    %rsp,%rax
  1029b0:	90                   	nop
  1029b1:	5d                   	pop    %rbp
  1029b2:	c3                   	retq   

00000000001029b3 <_Z16get_base_pointerv>:
  1029b3:	f3 0f 1e fa          	endbr64 
  1029b7:	55                   	push   %rbp
  1029b8:	48 89 e5             	mov    %rsp,%rbp
  1029bb:	48 89 e8             	mov    %rbp,%rax
  1029be:	90                   	nop
  1029bf:	5d                   	pop    %rbp
  1029c0:	c3                   	retq   

00000000001029c1 <_Z15InitialiseShellv>:
  1029c1:	f3 0f 1e fa          	endbr64 
  1029c5:	55                   	push   %rbp
  1029c6:	48 89 e5             	mov    %rsp,%rbp
  1029c9:	ba ff 00 00 00       	mov    $0xff,%edx
  1029ce:	be 00 00 00 00       	mov    $0x0,%esi
  1029d3:	48 8d 3d a6 3f 01 00 	lea    0x13fa6(%rip),%rdi        # 116980 <working_dir>
  1029da:	e8 8c a4 00 00       	callq  10ce6b <_Z6memsetPvim>
  1029df:	c6 05 9a 3f 01 00 7e 	movb   $0x7e,0x13f9a(%rip)        # 116980 <working_dir>
  1029e6:	90                   	nop
  1029e7:	5d                   	pop    %rbp
  1029e8:	c3                   	retq   

00000000001029e9 <_Z13shell_commandPc>:
  1029e9:	f3 0f 1e fa          	endbr64 
  1029ed:	55                   	push   %rbp
  1029ee:	48 89 e5             	mov    %rsp,%rbp
  1029f1:	48 83 ec 10          	sub    $0x10,%rsp
  1029f5:	48 89 7d f8          	mov    %rdi,-0x8(%rbp)
  1029f9:	8b 05 81 40 01 00    	mov    0x14081(%rip),%eax        # 116a80 <_ZL5state>
  1029ff:	85 c0                	test   %eax,%eax
  102a01:	74 07                	je     102a0a <_Z13shell_commandPc+0x21>
  102a03:	83 f8 01             	cmp    $0x1,%eax
  102a06:	74 10                	je     102a18 <_Z13shell_commandPc+0x2f>
  102a08:	eb 1b                	jmp    102a25 <_Z13shell_commandPc+0x3c>
  102a0a:	48 8b 45 f8          	mov    -0x8(%rbp),%rax
  102a0e:	48 89 c7             	mov    %rax,%rdi
  102a11:	e8 2a 00 00 00       	callq  102a40 <_Z12command_modePc>
  102a16:	eb 0d                	jmp    102a25 <_Z13shell_commandPc+0x3c>
  102a18:	48 8b 45 f8          	mov    -0x8(%rbp),%rax
  102a1c:	48 89 c7             	mov    %rax,%rdi
  102a1f:	e8 17 07 00 00       	callq  10313b <_Z15calculator_modePc>
  102a24:	90                   	nop
  102a25:	48 8d 35 54 3f 01 00 	lea    0x13f54(%rip),%rsi        # 116980 <working_dir>
  102a2c:	48 8d 3d ed d8 00 00 	lea    0xd8ed(%rip),%rdi        # 110320 <__rodata+0x320>
  102a33:	b8 00 00 00 00       	mov    $0x0,%eax
  102a38:	e8 ef 9f 00 00       	callq  10ca2c <_Z7kprintfPKcz>
  102a3d:	90                   	nop
  102a3e:	c9                   	leaveq 
  102a3f:	c3                   	retq   

0000000000102a40 <_Z12command_modePc>:
  102a40:	f3 0f 1e fa          	endbr64 
  102a44:	55                   	push   %rbp
  102a45:	48 89 e5             	mov    %rsp,%rbp
  102a48:	48 81 ec c0 00 00 00 	sub    $0xc0,%rsp
  102a4f:	48 89 bd 48 ff ff ff 	mov    %rdi,-0xb8(%rbp)
  102a56:	48 8b 85 48 ff ff ff 	mov    -0xb8(%rbp),%rax
  102a5d:	48 8d 35 cb d8 00 00 	lea    0xd8cb(%rip),%rsi        # 11032f <__rodata+0x32f>
  102a64:	48 89 c7             	mov    %rax,%rdi
  102a67:	e8 0b 08 00 00       	callq  103277 <_Z13check_commandPcPKc>
  102a6c:	85 c0                	test   %eax,%eax
  102a6e:	0f 95 c0             	setne  %al
  102a71:	84 c0                	test   %al,%al
  102a73:	0f 84 9e 00 00 00    	je     102b17 <_Z12command_modePc+0xd7>
  102a79:	48 8d 3d b8 d8 00 00 	lea    0xd8b8(%rip),%rdi        # 110338 <__rodata+0x338>
  102a80:	b8 00 00 00 00       	mov    $0x0,%eax
  102a85:	e8 a2 9f 00 00       	callq  10ca2c <_Z7kprintfPKcz>
  102a8a:	48 8d 3d e7 d8 00 00 	lea    0xd8e7(%rip),%rdi        # 110378 <__rodata+0x378>
  102a91:	b8 00 00 00 00       	mov    $0x0,%eax
  102a96:	e8 91 9f 00 00       	callq  10ca2c <_Z7kprintfPKcz>
  102a9b:	48 8d 3d f6 d8 00 00 	lea    0xd8f6(%rip),%rdi        # 110398 <__rodata+0x398>
  102aa2:	b8 00 00 00 00       	mov    $0x0,%eax
  102aa7:	e8 80 9f 00 00       	callq  10ca2c <_Z7kprintfPKcz>
  102aac:	48 8d 3d 2d d9 00 00 	lea    0xd92d(%rip),%rdi        # 1103e0 <__rodata+0x3e0>
  102ab3:	b8 00 00 00 00       	mov    $0x0,%eax
  102ab8:	e8 6f 9f 00 00       	callq  10ca2c <_Z7kprintfPKcz>
  102abd:	48 8d 3d 64 d9 00 00 	lea    0xd964(%rip),%rdi        # 110428 <__rodata+0x428>
  102ac4:	b8 00 00 00 00       	mov    $0x0,%eax
  102ac9:	e8 5e 9f 00 00       	callq  10ca2c <_Z7kprintfPKcz>
  102ace:	48 8d 3d 83 d9 00 00 	lea    0xd983(%rip),%rdi        # 110458 <__rodata+0x458>
  102ad5:	b8 00 00 00 00       	mov    $0x0,%eax
  102ada:	e8 4d 9f 00 00       	callq  10ca2c <_Z7kprintfPKcz>
  102adf:	48 8d 3d ba d9 00 00 	lea    0xd9ba(%rip),%rdi        # 1104a0 <__rodata+0x4a0>
  102ae6:	b8 00 00 00 00       	mov    $0x0,%eax
  102aeb:	e8 3c 9f 00 00       	callq  10ca2c <_Z7kprintfPKcz>
  102af0:	48 8d 3d e9 d9 00 00 	lea    0xd9e9(%rip),%rdi        # 1104e0 <__rodata+0x4e0>
  102af7:	b8 00 00 00 00       	mov    $0x0,%eax
  102afc:	e8 2b 9f 00 00       	callq  10ca2c <_Z7kprintfPKcz>
  102b01:	48 8d 3d 1c da 00 00 	lea    0xda1c(%rip),%rdi        # 110524 <__rodata+0x524>
  102b08:	b8 00 00 00 00       	mov    $0x0,%eax
  102b0d:	e8 1a 9f 00 00       	callq  10ca2c <_Z7kprintfPKcz>
  102b12:	e9 21 06 00 00       	jmpq   103138 <_Z12command_modePc+0x6f8>
  102b17:	48 8b 85 48 ff ff ff 	mov    -0xb8(%rbp),%rax
  102b1e:	48 8d 35 1c da 00 00 	lea    0xda1c(%rip),%rsi        # 110541 <__rodata+0x541>
  102b25:	48 89 c7             	mov    %rax,%rdi
  102b28:	e8 4a 07 00 00       	callq  103277 <_Z13check_commandPcPKc>
  102b2d:	85 c0                	test   %eax,%eax
  102b2f:	0f 95 c0             	setne  %al
  102b32:	84 c0                	test   %al,%al
  102b34:	74 45                	je     102b7b <_Z12command_modePc+0x13b>
  102b36:	48 8d 45 88          	lea    -0x78(%rbp),%rax
  102b3a:	48 89 c2             	mov    %rax,%rdx
  102b3d:	be 01 00 00 00       	mov    $0x1,%esi
  102b42:	bf 00 10 00 00       	mov    $0x1000,%edi
  102b47:	e8 a5 a3 00 00       	callq  10cef1 <_Z11kmalloc_intmiPm>
  102b4c:	48 89 45 90          	mov    %rax,-0x70(%rbp)
  102b50:	48 8b 55 88          	mov    -0x78(%rbp),%rdx
  102b54:	48 8b 45 90          	mov    -0x70(%rbp),%rax
  102b58:	48 89 c6             	mov    %rax,%rsi
  102b5b:	48 8d 3d e6 d9 00 00 	lea    0xd9e6(%rip),%rdi        # 110548 <__rodata+0x548>
  102b62:	b8 00 00 00 00       	mov    $0x0,%eax
  102b67:	e8 c0 9e 00 00       	callq  10ca2c <_Z7kprintfPKcz>
  102b6c:	c7 05 0a 3f 01 00 00 	movl   $0x0,0x13f0a(%rip)        # 116a80 <_ZL5state>
  102b73:	00 00 00 
  102b76:	e9 bd 05 00 00       	jmpq   103138 <_Z12command_modePc+0x6f8>
  102b7b:	48 8b 85 48 ff ff ff 	mov    -0xb8(%rbp),%rax
  102b82:	48 8d 35 e0 d9 00 00 	lea    0xd9e0(%rip),%rsi        # 110569 <__rodata+0x569>
  102b89:	48 89 c7             	mov    %rax,%rdi
  102b8c:	e8 e6 06 00 00       	callq  103277 <_Z13check_commandPcPKc>
  102b91:	85 c0                	test   %eax,%eax
  102b93:	0f 95 c0             	setne  %al
  102b96:	84 c0                	test   %al,%al
  102b98:	74 25                	je     102bbf <_Z12command_modePc+0x17f>
  102b9a:	e8 84 28 00 00       	callq  105423 <_Z6clrscrv>
  102b9f:	48 8d 3d ca d9 00 00 	lea    0xd9ca(%rip),%rdi        # 110570 <__rodata+0x570>
  102ba6:	b8 00 00 00 00       	mov    $0x0,%eax
  102bab:	e8 7c 9e 00 00       	callq  10ca2c <_Z7kprintfPKcz>
  102bb0:	c7 05 c6 3e 01 00 00 	movl   $0x0,0x13ec6(%rip)        # 116a80 <_ZL5state>
  102bb7:	00 00 00 
  102bba:	e9 79 05 00 00       	jmpq   103138 <_Z12command_modePc+0x6f8>
  102bbf:	48 8b 85 48 ff ff ff 	mov    -0xb8(%rbp),%rax
  102bc6:	48 8d 35 c4 d9 00 00 	lea    0xd9c4(%rip),%rsi        # 110591 <__rodata+0x591>
  102bcd:	48 89 c7             	mov    %rax,%rdi
  102bd0:	e8 a2 06 00 00       	callq  103277 <_Z13check_commandPcPKc>
  102bd5:	85 c0                	test   %eax,%eax
  102bd7:	0f 95 c0             	setne  %al
  102bda:	84 c0                	test   %al,%al
  102bdc:	74 20                	je     102bfe <_Z12command_modePc+0x1be>
  102bde:	48 8d 3d b3 d9 00 00 	lea    0xd9b3(%rip),%rdi        # 110598 <__rodata+0x598>
  102be5:	b8 00 00 00 00       	mov    $0x0,%eax
  102bea:	e8 3d 9e 00 00       	callq  10ca2c <_Z7kprintfPKcz>
  102bef:	c7 05 87 3e 01 00 01 	movl   $0x1,0x13e87(%rip)        # 116a80 <_ZL5state>
  102bf6:	00 00 00 
  102bf9:	e9 3a 05 00 00       	jmpq   103138 <_Z12command_modePc+0x6f8>
  102bfe:	48 8b 85 48 ff ff ff 	mov    -0xb8(%rbp),%rax
  102c05:	ba 03 00 00 00       	mov    $0x3,%edx
  102c0a:	48 8d 35 c9 d9 00 00 	lea    0xd9c9(%rip),%rsi        # 1105da <__rodata+0x5da>
  102c11:	48 89 c7             	mov    %rax,%rdi
  102c14:	e8 8f 06 00 00       	callq  1032a8 <_Z19check_short_commandPcPKci>
  102c19:	85 c0                	test   %eax,%eax
  102c1b:	0f 95 c0             	setne  %al
  102c1e:	84 c0                	test   %al,%al
  102c20:	0f 84 10 02 00 00    	je     102e36 <_Z12command_modePc+0x3f6>
  102c26:	48 8b 85 48 ff ff ff 	mov    -0xb8(%rbp),%rax
  102c2d:	48 89 c7             	mov    %rax,%rdi
  102c30:	e8 37 9a 00 00       	callq  10c66c <_Z6strlenPc>
  102c35:	48 83 f8 03          	cmp    $0x3,%rax
  102c39:	0f 97 c0             	seta   %al
  102c3c:	84 c0                	test   %al,%al
  102c3e:	0f 84 f4 04 00 00    	je     103138 <_Z12command_modePc+0x6f8>
  102c44:	48 8b 85 48 ff ff ff 	mov    -0xb8(%rbp),%rax
  102c4b:	48 83 c0 03          	add    $0x3,%rax
  102c4f:	48 89 45 b8          	mov    %rax,-0x48(%rbp)
  102c53:	48 8d 3d 26 3d 01 00 	lea    0x13d26(%rip),%rdi        # 116980 <working_dir>
  102c5a:	e8 0d 9a 00 00       	callq  10c66c <_Z6strlenPc>
  102c5f:	48 89 45 b0          	mov    %rax,-0x50(%rbp)
  102c63:	48 8b 45 b8          	mov    -0x48(%rbp),%rax
  102c67:	48 8d 35 70 d9 00 00 	lea    0xd970(%rip),%rsi        # 1105de <__rodata+0x5de>
  102c6e:	48 89 c7             	mov    %rax,%rdi
  102c71:	e8 14 9a 00 00       	callq  10c68a <_Z6strcmpPcS_>
  102c76:	85 c0                	test   %eax,%eax
  102c78:	0f 94 c0             	sete   %al
  102c7b:	84 c0                	test   %al,%al
  102c7d:	0f 85 b5 04 00 00    	jne    103138 <_Z12command_modePc+0x6f8>
  102c83:	48 8b 45 b8          	mov    -0x48(%rbp),%rax
  102c87:	48 8d 35 52 d9 00 00 	lea    0xd952(%rip),%rsi        # 1105e0 <__rodata+0x5e0>
  102c8e:	48 89 c7             	mov    %rax,%rdi
  102c91:	e8 f4 99 00 00       	callq  10c68a <_Z6strcmpPcS_>
  102c96:	85 c0                	test   %eax,%eax
  102c98:	0f 94 c0             	sete   %al
  102c9b:	84 c0                	test   %al,%al
  102c9d:	74 74                	je     102d13 <_Z12command_modePc+0x2d3>
  102c9f:	48 8d 35 3d d9 00 00 	lea    0xd93d(%rip),%rsi        # 1105e3 <__rodata+0x5e3>
  102ca6:	48 8d 3d d3 3c 01 00 	lea    0x13cd3(%rip),%rdi        # 116980 <working_dir>
  102cad:	e8 d8 99 00 00       	callq  10c68a <_Z6strcmpPcS_>
  102cb2:	85 c0                	test   %eax,%eax
  102cb4:	0f 94 c0             	sete   %al
  102cb7:	84 c0                	test   %al,%al
  102cb9:	0f 85 79 04 00 00    	jne    103138 <_Z12command_modePc+0x6f8>
  102cbf:	48 c7 45 f8 00 00 00 	movq   $0x0,-0x8(%rbp)
  102cc6:	00 
  102cc7:	48 c7 45 f0 00 00 00 	movq   $0x0,-0x10(%rbp)
  102cce:	00 
  102ccf:	48 8b 45 f0          	mov    -0x10(%rbp),%rax
  102cd3:	48 3b 45 b0          	cmp    -0x50(%rbp),%rax
  102cd7:	73 24                	jae    102cfd <_Z12command_modePc+0x2bd>
  102cd9:	48 8d 15 a0 3c 01 00 	lea    0x13ca0(%rip),%rdx        # 116980 <working_dir>
  102ce0:	48 8b 45 f0          	mov    -0x10(%rbp),%rax
  102ce4:	48 01 d0             	add    %rdx,%rax
  102ce7:	0f b6 00             	movzbl (%rax),%eax
  102cea:	3c 2f                	cmp    $0x2f,%al
  102cec:	75 08                	jne    102cf6 <_Z12command_modePc+0x2b6>
  102cee:	48 8b 45 f0          	mov    -0x10(%rbp),%rax
  102cf2:	48 89 45 f8          	mov    %rax,-0x8(%rbp)
  102cf6:	48 83 45 f0 01       	addq   $0x1,-0x10(%rbp)
  102cfb:	eb d2                	jmp    102ccf <_Z12command_modePc+0x28f>
  102cfd:	48 8d 15 7c 3c 01 00 	lea    0x13c7c(%rip),%rdx        # 116980 <working_dir>
  102d04:	48 8b 45 f8          	mov    -0x8(%rbp),%rax
  102d08:	48 01 d0             	add    %rdx,%rax
  102d0b:	c6 00 00             	movb   $0x0,(%rax)
  102d0e:	e9 25 04 00 00       	jmpq   103138 <_Z12command_modePc+0x6f8>
  102d13:	48 8b 05 26 4a 01 00 	mov    0x14a26(%rip),%rax        # 117740 <filesystems>
  102d1a:	48 89 45 a8          	mov    %rax,-0x58(%rbp)
  102d1e:	48 8b 45 a8          	mov    -0x58(%rbp),%rax
  102d22:	48 8b 00             	mov    (%rax),%rax
  102d25:	48 83 c0 28          	add    $0x28,%rax
  102d29:	48 8b 10             	mov    (%rax),%rdx
  102d2c:	48 8b 45 a8          	mov    -0x58(%rbp),%rax
  102d30:	48 8d 35 49 3c 01 00 	lea    0x13c49(%rip),%rsi        # 116980 <working_dir>
  102d37:	48 89 c7             	mov    %rax,%rdi
  102d3a:	ff d2                	callq  *%rdx
  102d3c:	48 89 45 a0          	mov    %rax,-0x60(%rbp)
  102d40:	48 83 7d a0 00       	cmpq   $0x0,-0x60(%rbp)
  102d45:	0f 84 d5 00 00 00    	je     102e20 <_Z12command_modePc+0x3e0>
  102d4b:	48 c7 45 e8 00 00 00 	movq   $0x0,-0x18(%rbp)
  102d52:	00 
  102d53:	48 8b 45 e8          	mov    -0x18(%rbp),%rax
  102d57:	48 3b 45 a0          	cmp    -0x60(%rbp),%rax
  102d5b:	0f 83 d7 03 00 00    	jae    103138 <_Z12command_modePc+0x6f8>
  102d61:	48 8b 45 a8          	mov    -0x58(%rbp),%rax
  102d65:	48 8b 00             	mov    (%rax),%rax
  102d68:	48 83 c0 30          	add    $0x30,%rax
  102d6c:	48 8b 08             	mov    (%rax),%rcx
  102d6f:	48 8b 55 e8          	mov    -0x18(%rbp),%rdx
  102d73:	48 8b 45 a8          	mov    -0x58(%rbp),%rax
  102d77:	48 8d 35 02 3c 01 00 	lea    0x13c02(%rip),%rsi        # 116980 <working_dir>
  102d7e:	48 89 c7             	mov    %rax,%rdi
  102d81:	ff d1                	callq  *%rcx
  102d83:	48 89 45 98          	mov    %rax,-0x68(%rbp)
  102d87:	48 8b 45 98          	mov    -0x68(%rbp),%rax
  102d8b:	48 8b 00             	mov    (%rax),%rax
  102d8e:	48 83 c0 18          	add    $0x18,%rax
  102d92:	48 8b 10             	mov    (%rax),%rdx
  102d95:	48 8b 45 98          	mov    -0x68(%rbp),%rax
  102d99:	48 89 c7             	mov    %rax,%rdi
  102d9c:	ff d2                	callq  *%rdx
  102d9e:	83 e0 10             	and    $0x10,%eax
  102da1:	83 f8 10             	cmp    $0x10,%eax
  102da4:	0f 95 c0             	setne  %al
  102da7:	84 c0                	test   %al,%al
  102da9:	74 13                	je     102dbe <_Z12command_modePc+0x37e>
  102dab:	48 8d 3d 36 d8 00 00 	lea    0xd836(%rip),%rdi        # 1105e8 <__rodata+0x5e8>
  102db2:	b8 00 00 00 00       	mov    $0x0,%eax
  102db7:	e8 70 9c 00 00       	callq  10ca2c <_Z7kprintfPKcz>
  102dbc:	eb 58                	jmp    102e16 <_Z12command_modePc+0x3d6>
  102dbe:	48 8b 45 98          	mov    -0x68(%rbp),%rax
  102dc2:	48 8b 00             	mov    (%rax),%rax
  102dc5:	48 83 c0 08          	add    $0x8,%rax
  102dc9:	48 8b 10             	mov    (%rax),%rdx
  102dcc:	48 8b 45 98          	mov    -0x68(%rbp),%rax
  102dd0:	48 89 c7             	mov    %rax,%rdi
  102dd3:	ff d2                	callq  *%rdx
  102dd5:	48 89 c2             	mov    %rax,%rdx
  102dd8:	48 8b 45 b8          	mov    -0x48(%rbp),%rax
  102ddc:	48 89 c6             	mov    %rax,%rsi
  102ddf:	48 89 d7             	mov    %rdx,%rdi
  102de2:	e8 a3 98 00 00       	callq  10c68a <_Z6strcmpPcS_>
  102de7:	85 c0                	test   %eax,%eax
  102de9:	0f 94 c0             	sete   %al
  102dec:	84 c0                	test   %al,%al
  102dee:	74 26                	je     102e16 <_Z12command_modePc+0x3d6>
  102df0:	48 8b 45 98          	mov    -0x68(%rbp),%rax
  102df4:	48 8b 00             	mov    (%rax),%rax
  102df7:	48 83 c0 10          	add    $0x10,%rax
  102dfb:	48 8b 10             	mov    (%rax),%rdx
  102dfe:	48 8b 45 98          	mov    -0x68(%rbp),%rax
  102e02:	48 89 c7             	mov    %rax,%rdi
  102e05:	ff d2                	callq  *%rdx
  102e07:	48 89 c6             	mov    %rax,%rsi
  102e0a:	48 8d 3d 6f 3b 01 00 	lea    0x13b6f(%rip),%rdi        # 116980 <working_dir>
  102e11:	e8 0e 99 00 00       	callq  10c724 <_Z6strcpyPcPKc>
  102e16:	48 83 45 e8 01       	addq   $0x1,-0x18(%rbp)
  102e1b:	e9 33 ff ff ff       	jmpq   102d53 <_Z12command_modePc+0x313>
  102e20:	48 8d 3d e2 d7 00 00 	lea    0xd7e2(%rip),%rdi        # 110609 <__rodata+0x609>
  102e27:	b8 00 00 00 00       	mov    $0x0,%eax
  102e2c:	e8 fb 9b 00 00       	callq  10ca2c <_Z7kprintfPKcz>
  102e31:	e9 02 03 00 00       	jmpq   103138 <_Z12command_modePc+0x6f8>
  102e36:	48 8b 85 48 ff ff ff 	mov    -0xb8(%rbp),%rax
  102e3d:	48 8d 35 e1 d7 00 00 	lea    0xd7e1(%rip),%rsi        # 110625 <__rodata+0x625>
  102e44:	48 89 c7             	mov    %rax,%rdi
  102e47:	e8 2b 04 00 00       	callq  103277 <_Z13check_commandPcPKc>
  102e4c:	85 c0                	test   %eax,%eax
  102e4e:	0f 95 c0             	setne  %al
  102e51:	84 c0                	test   %al,%al
  102e53:	74 1d                	je     102e72 <_Z12command_modePc+0x432>
  102e55:	48 8d 35 24 3b 01 00 	lea    0x13b24(%rip),%rsi        # 116980 <working_dir>
  102e5c:	48 8d 3d c5 d7 00 00 	lea    0xd7c5(%rip),%rdi        # 110628 <__rodata+0x628>
  102e63:	b8 00 00 00 00       	mov    $0x0,%eax
  102e68:	e8 bf 9b 00 00       	callq  10ca2c <_Z7kprintfPKcz>
  102e6d:	e9 c6 02 00 00       	jmpq   103138 <_Z12command_modePc+0x6f8>
  102e72:	48 8b 85 48 ff ff ff 	mov    -0xb8(%rbp),%rax
  102e79:	48 8d 35 c7 d7 00 00 	lea    0xd7c7(%rip),%rsi        # 110647 <__rodata+0x647>
  102e80:	48 89 c7             	mov    %rax,%rdi
  102e83:	e8 ef 03 00 00       	callq  103277 <_Z13check_commandPcPKc>
  102e88:	85 c0                	test   %eax,%eax
  102e8a:	0f 95 c0             	setne  %al
  102e8d:	84 c0                	test   %al,%al
  102e8f:	0f 84 0e 01 00 00    	je     102fa3 <_Z12command_modePc+0x563>
  102e95:	48 8b 05 a4 48 01 00 	mov    0x148a4(%rip),%rax        # 117740 <filesystems>
  102e9c:	48 89 45 d0          	mov    %rax,-0x30(%rbp)
  102ea0:	48 8b 45 d0          	mov    -0x30(%rbp),%rax
  102ea4:	48 8b 00             	mov    (%rax),%rax
  102ea7:	48 83 c0 28          	add    $0x28,%rax
  102eab:	48 8b 10             	mov    (%rax),%rdx
  102eae:	48 8b 45 d0          	mov    -0x30(%rbp),%rax
  102eb2:	48 8d 35 c7 3a 01 00 	lea    0x13ac7(%rip),%rsi        # 116980 <working_dir>
  102eb9:	48 89 c7             	mov    %rax,%rdi
  102ebc:	ff d2                	callq  *%rdx
  102ebe:	48 89 45 c8          	mov    %rax,-0x38(%rbp)
  102ec2:	48 c7 45 e0 00 00 00 	movq   $0x0,-0x20(%rbp)
  102ec9:	00 
  102eca:	48 8b 45 e0          	mov    -0x20(%rbp),%rax
  102ece:	48 3b 45 c8          	cmp    -0x38(%rbp),%rax
  102ed2:	0f 83 ab 00 00 00    	jae    102f83 <_Z12command_modePc+0x543>
  102ed8:	48 8b 45 d0          	mov    -0x30(%rbp),%rax
  102edc:	48 8b 00             	mov    (%rax),%rax
  102edf:	48 83 c0 30          	add    $0x30,%rax
  102ee3:	48 8b 08             	mov    (%rax),%rcx
  102ee6:	48 8b 55 e0          	mov    -0x20(%rbp),%rdx
  102eea:	48 8b 45 d0          	mov    -0x30(%rbp),%rax
  102eee:	48 8d 35 8b 3a 01 00 	lea    0x13a8b(%rip),%rsi        # 116980 <working_dir>
  102ef5:	48 89 c7             	mov    %rax,%rdi
  102ef8:	ff d1                	callq  *%rcx
  102efa:	48 89 45 c0          	mov    %rax,-0x40(%rbp)
  102efe:	48 8b 45 c0          	mov    -0x40(%rbp),%rax
  102f02:	48 8b 00             	mov    (%rax),%rax
  102f05:	48 83 c0 18          	add    $0x18,%rax
  102f09:	48 8b 10             	mov    (%rax),%rdx
  102f0c:	48 8b 45 c0          	mov    -0x40(%rbp),%rax
  102f10:	48 89 c7             	mov    %rax,%rdi
  102f13:	ff d2                	callq  *%rdx
  102f15:	83 e0 10             	and    $0x10,%eax
  102f18:	85 c0                	test   %eax,%eax
  102f1a:	0f 95 c0             	setne  %al
  102f1d:	84 c0                	test   %al,%al
  102f1f:	74 2d                	je     102f4e <_Z12command_modePc+0x50e>
  102f21:	48 8b 45 c0          	mov    -0x40(%rbp),%rax
  102f25:	48 8b 00             	mov    (%rax),%rax
  102f28:	48 83 c0 08          	add    $0x8,%rax
  102f2c:	48 8b 10             	mov    (%rax),%rdx
  102f2f:	48 8b 45 c0          	mov    -0x40(%rbp),%rax
  102f33:	48 89 c7             	mov    %rax,%rdi
  102f36:	ff d2                	callq  *%rdx
  102f38:	48 89 c6             	mov    %rax,%rsi
  102f3b:	48 8d 3d 08 d7 00 00 	lea    0xd708(%rip),%rdi        # 11064a <__rodata+0x64a>
  102f42:	b8 00 00 00 00       	mov    $0x0,%eax
  102f47:	e8 e0 9a 00 00       	callq  10ca2c <_Z7kprintfPKcz>
  102f4c:	eb 2b                	jmp    102f79 <_Z12command_modePc+0x539>
  102f4e:	48 8b 45 c0          	mov    -0x40(%rbp),%rax
  102f52:	48 8b 00             	mov    (%rax),%rax
  102f55:	48 83 c0 08          	add    $0x8,%rax
  102f59:	48 8b 10             	mov    (%rax),%rdx
  102f5c:	48 8b 45 c0          	mov    -0x40(%rbp),%rax
  102f60:	48 89 c7             	mov    %rax,%rdi
  102f63:	ff d2                	callq  *%rdx
  102f65:	48 89 c6             	mov    %rax,%rsi
  102f68:	48 8d 3d e0 d6 00 00 	lea    0xd6e0(%rip),%rdi        # 11064f <__rodata+0x64f>
  102f6f:	b8 00 00 00 00       	mov    $0x0,%eax
  102f74:	e8 b3 9a 00 00       	callq  10ca2c <_Z7kprintfPKcz>
  102f79:	48 83 45 e0 01       	addq   $0x1,-0x20(%rbp)
  102f7e:	e9 47 ff ff ff       	jmpq   102eca <_Z12command_modePc+0x48a>
  102f83:	48 8d 3d c9 d6 00 00 	lea    0xd6c9(%rip),%rdi        # 110653 <__rodata+0x653>
  102f8a:	b8 00 00 00 00       	mov    $0x0,%eax
  102f8f:	e8 98 9a 00 00       	callq  10ca2c <_Z7kprintfPKcz>
  102f94:	c7 05 e2 3a 01 00 00 	movl   $0x0,0x13ae2(%rip)        # 116a80 <_ZL5state>
  102f9b:	00 00 00 
  102f9e:	e9 95 01 00 00       	jmpq   103138 <_Z12command_modePc+0x6f8>
  102fa3:	48 8b 85 48 ff ff ff 	mov    -0xb8(%rbp),%rax
  102faa:	ba 05 00 00 00       	mov    $0x5,%edx
  102faf:	48 8d 35 9f d6 00 00 	lea    0xd69f(%rip),%rsi        # 110655 <__rodata+0x655>
  102fb6:	48 89 c7             	mov    %rax,%rdi
  102fb9:	e8 ea 02 00 00       	callq  1032a8 <_Z19check_short_commandPcPKci>
  102fbe:	85 c0                	test   %eax,%eax
  102fc0:	0f 95 c0             	setne  %al
  102fc3:	84 c0                	test   %al,%al
  102fc5:	0f 84 48 01 00 00    	je     103113 <_Z12command_modePc+0x6d3>
  102fcb:	48 8b 85 48 ff ff ff 	mov    -0xb8(%rbp),%rax
  102fd2:	48 83 c0 06          	add    $0x6,%rax
  102fd6:	48 89 45 d8          	mov    %rax,-0x28(%rbp)
  102fda:	48 8b 45 d8          	mov    -0x28(%rbp),%rax
  102fde:	ba 04 00 00 00       	mov    $0x4,%edx
  102fe3:	48 8d 35 71 d6 00 00 	lea    0xd671(%rip),%rsi        # 11065b <__rodata+0x65b>
  102fea:	48 89 c7             	mov    %rax,%rdi
  102fed:	e8 b6 02 00 00       	callq  1032a8 <_Z19check_short_commandPcPKci>
  102ff2:	85 c0                	test   %eax,%eax
  102ff4:	0f 95 c0             	setne  %al
  102ff7:	84 c0                	test   %al,%al
  102ff9:	74 33                	je     10302e <_Z12command_modePc+0x5ee>
  102ffb:	48 8d 85 70 ff ff ff 	lea    -0x90(%rbp),%rax
  103002:	48 89 c7             	mov    %rax,%rdi
  103005:	e8 16 ea ff ff       	callq  101a20 <_Z10GetTimeRTCP2tm>
  10300a:	8b 4d 84             	mov    -0x7c(%rbp),%ecx
  10300d:	8b 55 80             	mov    -0x80(%rbp),%edx
  103010:	8b 85 7c ff ff ff    	mov    -0x84(%rbp),%eax
  103016:	89 c6                	mov    %eax,%esi
  103018:	48 8d 3d 41 d6 00 00 	lea    0xd641(%rip),%rdi        # 110660 <__rodata+0x660>
  10301f:	b8 00 00 00 00       	mov    $0x0,%eax
  103024:	e8 03 9a 00 00       	callq  10ca2c <_Z7kprintfPKcz>
  103029:	e9 00 01 00 00       	jmpq   10312e <_Z12command_modePc+0x6ee>
  10302e:	48 8b 45 d8          	mov    -0x28(%rbp),%rax
  103032:	ba 04 00 00 00       	mov    $0x4,%edx
  103037:	48 8d 35 32 d6 00 00 	lea    0xd632(%rip),%rsi        # 110670 <__rodata+0x670>
  10303e:	48 89 c7             	mov    %rax,%rdi
  103041:	e8 62 02 00 00       	callq  1032a8 <_Z19check_short_commandPcPKci>
  103046:	85 c0                	test   %eax,%eax
  103048:	0f 95 c0             	setne  %al
  10304b:	84 c0                	test   %al,%al
  10304d:	74 39                	je     103088 <_Z12command_modePc+0x648>
  10304f:	48 8d 85 50 ff ff ff 	lea    -0xb0(%rbp),%rax
  103056:	48 89 c7             	mov    %rax,%rdi
  103059:	e8 c2 e9 ff ff       	callq  101a20 <_Z10GetTimeRTCP2tm>
  10305e:	8b 8d 58 ff ff ff    	mov    -0xa8(%rbp),%ecx
  103064:	8b 95 54 ff ff ff    	mov    -0xac(%rbp),%edx
  10306a:	8b 85 50 ff ff ff    	mov    -0xb0(%rbp),%eax
  103070:	89 c6                	mov    %eax,%esi
  103072:	48 8d 3d fc d5 00 00 	lea    0xd5fc(%rip),%rdi        # 110675 <__rodata+0x675>
  103079:	b8 00 00 00 00       	mov    $0x0,%eax
  10307e:	e8 a9 99 00 00       	callq  10ca2c <_Z7kprintfPKcz>
  103083:	e9 a6 00 00 00       	jmpq   10312e <_Z12command_modePc+0x6ee>
  103088:	48 8b 45 d8          	mov    -0x28(%rbp),%rax
  10308c:	ba 04 00 00 00       	mov    $0x4,%edx
  103091:	48 8d 35 ef d5 00 00 	lea    0xd5ef(%rip),%rsi        # 110687 <__rodata+0x687>
  103098:	48 89 c7             	mov    %rax,%rdi
  10309b:	e8 08 02 00 00       	callq  1032a8 <_Z19check_short_commandPcPKci>
  1030a0:	85 c0                	test   %eax,%eax
  1030a2:	0f 95 c0             	setne  %al
  1030a5:	84 c0                	test   %al,%al
  1030a7:	74 1b                	je     1030c4 <_Z12command_modePc+0x684>
  1030a9:	8b 05 a9 1f 01 00    	mov    0x11fa9(%rip),%eax        # 115058 <tick>
  1030af:	89 c6                	mov    %eax,%esi
  1030b1:	48 8d 3d d8 d5 00 00 	lea    0xd5d8(%rip),%rdi        # 110690 <__rodata+0x690>
  1030b8:	b8 00 00 00 00       	mov    $0x0,%eax
  1030bd:	e8 6a 99 00 00       	callq  10ca2c <_Z7kprintfPKcz>
  1030c2:	eb 6a                	jmp    10312e <_Z12command_modePc+0x6ee>
  1030c4:	48 8b 45 d8          	mov    -0x28(%rbp),%rax
  1030c8:	ba 05 00 00 00       	mov    $0x5,%edx
  1030cd:	48 8d 35 dc d5 00 00 	lea    0xd5dc(%rip),%rsi        # 1106b0 <__rodata+0x6b0>
  1030d4:	48 89 c7             	mov    %rax,%rdi
  1030d7:	e8 cc 01 00 00       	callq  1032a8 <_Z19check_short_commandPcPKci>
  1030dc:	85 c0                	test   %eax,%eax
  1030de:	0f 95 c0             	setne  %al
  1030e1:	84 c0                	test   %al,%al
  1030e3:	74 1b                	je     103100 <_Z12command_modePc+0x6c0>
  1030e5:	e8 bb f8 ff ff       	callq  1029a5 <_Z17get_stack_pointerv>
  1030ea:	48 89 c6             	mov    %rax,%rsi
  1030ed:	48 8d 3d c2 d5 00 00 	lea    0xd5c2(%rip),%rdi        # 1106b6 <__rodata+0x6b6>
  1030f4:	b8 00 00 00 00       	mov    $0x0,%eax
  1030f9:	e8 2e 99 00 00       	callq  10ca2c <_Z7kprintfPKcz>
  1030fe:	eb 2e                	jmp    10312e <_Z12command_modePc+0x6ee>
  103100:	48 8b 45 d8          	mov    -0x28(%rbp),%rax
  103104:	48 89 c7             	mov    %rax,%rdi
  103107:	b8 00 00 00 00       	mov    $0x0,%eax
  10310c:	e8 1b 99 00 00       	callq  10ca2c <_Z7kprintfPKcz>
  103111:	eb 1b                	jmp    10312e <_Z12command_modePc+0x6ee>
  103113:	48 8b 85 48 ff ff ff 	mov    -0xb8(%rbp),%rax
  10311a:	48 89 c6             	mov    %rax,%rsi
  10311d:	48 8d 3d a8 d5 00 00 	lea    0xd5a8(%rip),%rdi        # 1106cc <__rodata+0x6cc>
  103124:	b8 00 00 00 00       	mov    $0x0,%eax
  103129:	e8 fe 98 00 00       	callq  10ca2c <_Z7kprintfPKcz>
  10312e:	c7 05 48 39 01 00 00 	movl   $0x0,0x13948(%rip)        # 116a80 <_ZL5state>
  103135:	00 00 00 
  103138:	90                   	nop
  103139:	c9                   	leaveq 
  10313a:	c3                   	retq   

000000000010313b <_Z15calculator_modePc>:
  10313b:	f3 0f 1e fa          	endbr64 
  10313f:	55                   	push   %rbp
  103140:	48 89 e5             	mov    %rsp,%rbp
  103143:	48 83 ec 10          	sub    $0x10,%rsp
  103147:	48 89 7d f8          	mov    %rdi,-0x8(%rbp)
  10314b:	48 8b 45 f8          	mov    -0x8(%rbp),%rax
  10314f:	48 8d 35 84 d5 00 00 	lea    0xd584(%rip),%rsi        # 1106da <__rodata+0x6da>
  103156:	48 89 c7             	mov    %rax,%rdi
  103159:	e8 19 01 00 00       	callq  103277 <_Z13check_commandPcPKc>
  10315e:	85 c0                	test   %eax,%eax
  103160:	0f 95 c0             	setne  %al
  103163:	84 c0                	test   %al,%al
  103165:	74 20                	je     103187 <_Z15calculator_modePc+0x4c>
  103167:	48 8d 3d 71 d5 00 00 	lea    0xd571(%rip),%rdi        # 1106df <__rodata+0x6df>
  10316e:	b8 00 00 00 00       	mov    $0x0,%eax
  103173:	e8 b4 98 00 00       	callq  10ca2c <_Z7kprintfPKcz>
  103178:	c7 05 fe 38 01 00 00 	movl   $0x0,0x138fe(%rip)        # 116a80 <_ZL5state>
  10317f:	00 00 00 
  103182:	e9 ee 00 00 00       	jmpq   103275 <_Z15calculator_modePc+0x13a>
  103187:	48 8b 45 f8          	mov    -0x8(%rbp),%rax
  10318b:	ba 03 00 00 00       	mov    $0x3,%edx
  103190:	48 8d 35 62 d5 00 00 	lea    0xd562(%rip),%rsi        # 1106f9 <__rodata+0x6f9>
  103197:	48 89 c7             	mov    %rax,%rdi
  10319a:	e8 09 01 00 00       	callq  1032a8 <_Z19check_short_commandPcPKci>
  10319f:	85 c0                	test   %eax,%eax
  1031a1:	0f 95 c0             	setne  %al
  1031a4:	84 c0                	test   %al,%al
  1031a6:	74 16                	je     1031be <_Z15calculator_modePc+0x83>
  1031a8:	48 8d 3d 51 d5 00 00 	lea    0xd551(%rip),%rdi        # 110700 <__rodata+0x700>
  1031af:	b8 00 00 00 00       	mov    $0x0,%eax
  1031b4:	e8 73 98 00 00       	callq  10ca2c <_Z7kprintfPKcz>
  1031b9:	e9 ad 00 00 00       	jmpq   10326b <_Z15calculator_modePc+0x130>
  1031be:	48 8b 45 f8          	mov    -0x8(%rbp),%rax
  1031c2:	ba 03 00 00 00       	mov    $0x3,%edx
  1031c7:	48 8d 35 63 d5 00 00 	lea    0xd563(%rip),%rsi        # 110731 <__rodata+0x731>
  1031ce:	48 89 c7             	mov    %rax,%rdi
  1031d1:	e8 d2 00 00 00       	callq  1032a8 <_Z19check_short_commandPcPKci>
  1031d6:	85 c0                	test   %eax,%eax
  1031d8:	0f 95 c0             	setne  %al
  1031db:	84 c0                	test   %al,%al
  1031dd:	74 13                	je     1031f2 <_Z15calculator_modePc+0xb7>
  1031df:	48 8d 3d 52 d5 00 00 	lea    0xd552(%rip),%rdi        # 110738 <__rodata+0x738>
  1031e6:	b8 00 00 00 00       	mov    $0x0,%eax
  1031eb:	e8 3c 98 00 00       	callq  10ca2c <_Z7kprintfPKcz>
  1031f0:	eb 79                	jmp    10326b <_Z15calculator_modePc+0x130>
  1031f2:	48 8b 45 f8          	mov    -0x8(%rbp),%rax
  1031f6:	ba 03 00 00 00       	mov    $0x3,%edx
  1031fb:	48 8d 35 67 d5 00 00 	lea    0xd567(%rip),%rsi        # 110769 <__rodata+0x769>
  103202:	48 89 c7             	mov    %rax,%rdi
  103205:	e8 9e 00 00 00       	callq  1032a8 <_Z19check_short_commandPcPKci>
  10320a:	85 c0                	test   %eax,%eax
  10320c:	0f 95 c0             	setne  %al
  10320f:	84 c0                	test   %al,%al
  103211:	74 13                	je     103226 <_Z15calculator_modePc+0xeb>
  103213:	48 8d 3d 56 d5 00 00 	lea    0xd556(%rip),%rdi        # 110770 <__rodata+0x770>
  10321a:	b8 00 00 00 00       	mov    $0x0,%eax
  10321f:	e8 08 98 00 00       	callq  10ca2c <_Z7kprintfPKcz>
  103224:	eb 45                	jmp    10326b <_Z15calculator_modePc+0x130>
  103226:	48 8b 45 f8          	mov    -0x8(%rbp),%rax
  10322a:	ba 05 00 00 00       	mov    $0x5,%edx
  10322f:	48 8d 35 6b d5 00 00 	lea    0xd56b(%rip),%rsi        # 1107a1 <__rodata+0x7a1>
  103236:	48 89 c7             	mov    %rax,%rdi
  103239:	e8 6a 00 00 00       	callq  1032a8 <_Z19check_short_commandPcPKci>
  10323e:	85 c0                	test   %eax,%eax
  103240:	0f 95 c0             	setne  %al
  103243:	84 c0                	test   %al,%al
  103245:	74 13                	je     10325a <_Z15calculator_modePc+0x11f>
  103247:	48 8d 3d 5a d5 00 00 	lea    0xd55a(%rip),%rdi        # 1107a8 <__rodata+0x7a8>
  10324e:	b8 00 00 00 00       	mov    $0x0,%eax
  103253:	e8 d4 97 00 00       	callq  10ca2c <_Z7kprintfPKcz>
  103258:	eb 11                	jmp    10326b <_Z15calculator_modePc+0x130>
  10325a:	48 8d 3d 7f d5 00 00 	lea    0xd57f(%rip),%rdi        # 1107e0 <__rodata+0x7e0>
  103261:	b8 00 00 00 00       	mov    $0x0,%eax
  103266:	e8 c1 97 00 00       	callq  10ca2c <_Z7kprintfPKcz>
  10326b:	c7 05 0b 38 01 00 01 	movl   $0x1,0x1380b(%rip)        # 116a80 <_ZL5state>
  103272:	00 00 00 
  103275:	c9                   	leaveq 
  103276:	c3                   	retq   

0000000000103277 <_Z13check_commandPcPKc>:
  103277:	f3 0f 1e fa          	endbr64 
  10327b:	55                   	push   %rbp
  10327c:	48 89 e5             	mov    %rsp,%rbp
  10327f:	48 83 ec 10          	sub    $0x10,%rsp
  103283:	48 89 7d f8          	mov    %rdi,-0x8(%rbp)
  103287:	48 89 75 f0          	mov    %rsi,-0x10(%rbp)
  10328b:	48 8b 55 f0          	mov    -0x10(%rbp),%rdx
  10328f:	48 8b 45 f8          	mov    -0x8(%rbp),%rax
  103293:	48 89 d6             	mov    %rdx,%rsi
  103296:	48 89 c7             	mov    %rax,%rdi
  103299:	e8 ec 93 00 00       	callq  10c68a <_Z6strcmpPcS_>
  10329e:	85 c0                	test   %eax,%eax
  1032a0:	0f 94 c0             	sete   %al
  1032a3:	0f b6 c0             	movzbl %al,%eax
  1032a6:	c9                   	leaveq 
  1032a7:	c3                   	retq   

00000000001032a8 <_Z19check_short_commandPcPKci>:
  1032a8:	f3 0f 1e fa          	endbr64 
  1032ac:	55                   	push   %rbp
  1032ad:	48 89 e5             	mov    %rsp,%rbp
  1032b0:	48 83 ec 28          	sub    $0x28,%rsp
  1032b4:	48 89 7d e8          	mov    %rdi,-0x18(%rbp)
  1032b8:	48 89 75 e0          	mov    %rsi,-0x20(%rbp)
  1032bc:	89 55 dc             	mov    %edx,-0x24(%rbp)
  1032bf:	c7 45 fc 00 00 00 00 	movl   $0x0,-0x4(%rbp)
  1032c6:	8b 45 fc             	mov    -0x4(%rbp),%eax
  1032c9:	48 63 d0             	movslq %eax,%rdx
  1032cc:	48 8b 45 e8          	mov    -0x18(%rbp),%rax
  1032d0:	48 01 d0             	add    %rdx,%rax
  1032d3:	0f b6 10             	movzbl (%rax),%edx
  1032d6:	8b 45 fc             	mov    -0x4(%rbp),%eax
  1032d9:	48 63 c8             	movslq %eax,%rcx
  1032dc:	48 8b 45 e0          	mov    -0x20(%rbp),%rax
  1032e0:	48 01 c8             	add    %rcx,%rax
  1032e3:	0f b6 00             	movzbl (%rax),%eax
  1032e6:	38 c2                	cmp    %al,%dl
  1032e8:	75 0e                	jne    1032f8 <_Z19check_short_commandPcPKci+0x50>
  1032ea:	8b 45 fc             	mov    -0x4(%rbp),%eax
  1032ed:	3b 45 dc             	cmp    -0x24(%rbp),%eax
  1032f0:	7d 06                	jge    1032f8 <_Z19check_short_commandPcPKci+0x50>
  1032f2:	83 45 fc 01          	addl   $0x1,-0x4(%rbp)
  1032f6:	eb ce                	jmp    1032c6 <_Z19check_short_commandPcPKci+0x1e>
  1032f8:	8b 45 fc             	mov    -0x4(%rbp),%eax
  1032fb:	3b 45 dc             	cmp    -0x24(%rbp),%eax
  1032fe:	75 07                	jne    103307 <_Z19check_short_commandPcPKci+0x5f>
  103300:	b8 01 00 00 00       	mov    $0x1,%eax
  103305:	eb 05                	jmp    10330c <_Z19check_short_commandPcPKci+0x64>
  103307:	b8 00 00 00 00       	mov    $0x0,%eax
  10330c:	c9                   	leaveq 
  10330d:	c3                   	retq   

000000000010330e <kernel_main>:
  10330e:	f3 0f 1e fa          	endbr64 
  103312:	55                   	push   %rbp
  103313:	48 89 e5             	mov    %rsp,%rbp
  103316:	48 83 ec 10          	sub    $0x10,%rsp
  10331a:	48 89 7d f8          	mov    %rdi,-0x8(%rbp)
  10331e:	48 8b 45 f8          	mov    -0x8(%rbp),%rax
  103322:	48 89 05 67 37 01 00 	mov    %rax,0x13767(%rip)        # 116a90 <kInfo>
  103329:	48 89 e0             	mov    %rsp,%rax
  10332c:	48 89 05 55 37 01 00 	mov    %rax,0x13755(%rip)        # 116a88 <initial_rsp>
  103333:	48 8b 45 f8          	mov    -0x8(%rbp),%rax
  103337:	48 89 c7             	mov    %rax,%rdi
  10333a:	e8 78 a4 00 00       	callq  10d7b7 <_Z17InitialiseDisplayP10KernelInfo>
  10333f:	48 8b 45 f8          	mov    -0x8(%rbp),%rax
  103343:	48 89 c7             	mov    %rax,%rdi
  103346:	e8 ac a5 00 00       	callq  10d8f7 <_Z16InitialiseKernelP10KernelInfo>
  10334b:	f4                   	hlt    
  10334c:	eb fd                	jmp    10334b <kernel_main+0x3d>

000000000010334e <_Z11kernel_taskv>:
  10334e:	f3 0f 1e fa          	endbr64 
  103352:	55                   	push   %rbp
  103353:	48 89 e5             	mov    %rsp,%rbp
  103356:	48 8d 3d b3 d4 00 00 	lea    0xd4b3(%rip),%rdi        # 110810 <__rodata+0x810>
  10335d:	b8 00 00 00 00       	mov    $0x0,%eax
  103362:	e8 c5 96 00 00       	callq  10ca2c <_Z7kprintfPKcz>
  103367:	48 8d 3d c0 d4 00 00 	lea    0xd4c0(%rip),%rdi        # 11082e <__rodata+0x82e>
  10336e:	b8 00 00 00 00       	mov    $0x0,%eax
  103373:	e8 b4 96 00 00       	callq  10ca2c <_Z7kprintfPKcz>
  103378:	bf e8 03 00 00       	mov    $0x3e8,%edi
  10337d:	e8 57 e8 ff ff       	callq  101bd9 <_Z8SleepForj>
  103382:	48 8d 3d bc d4 00 00 	lea    0xd4bc(%rip),%rdi        # 110845 <__rodata+0x845>
  103389:	b8 00 00 00 00       	mov    $0x0,%eax
  10338e:	e8 99 96 00 00       	callq  10ca2c <_Z7kprintfPKcz>
  103393:	f4                   	hlt    
  103394:	eb fd                	jmp    103393 <_Z11kernel_taskv+0x45>

0000000000103396 <_Z10user_inputPc>:
  103396:	f3 0f 1e fa          	endbr64 
  10339a:	55                   	push   %rbp
  10339b:	48 89 e5             	mov    %rsp,%rbp
  10339e:	48 83 ec 30          	sub    $0x30,%rsp
  1033a2:	48 89 7d d8          	mov    %rdi,-0x28(%rbp)
  1033a6:	48 8b 45 d8          	mov    -0x28(%rbp),%rax
  1033aa:	48 8d 35 a3 d4 00 00 	lea    0xd4a3(%rip),%rsi        # 110854 <__rodata+0x854>
  1033b1:	48 89 c7             	mov    %rax,%rdi
  1033b4:	e8 d1 92 00 00       	callq  10c68a <_Z6strcmpPcS_>
  1033b9:	85 c0                	test   %eax,%eax
  1033bb:	0f 94 c0             	sete   %al
  1033be:	84 c0                	test   %al,%al
  1033c0:	74 48                	je     10340a <_Z10user_inputPc+0x74>
  1033c2:	48 8d 3d 94 d4 00 00 	lea    0xd494(%rip),%rdi        # 11085d <__rodata+0x85d>
  1033c9:	b8 00 00 00 00       	mov    $0x0,%eax
  1033ce:	e8 59 96 00 00       	callq  10ca2c <_Z7kprintfPKcz>
  1033d3:	48 8b 05 b6 36 01 00 	mov    0x136b6(%rip),%rax        # 116a90 <kInfo>
  1033da:	48 8b 40 30          	mov    0x30(%rax),%rax
  1033de:	48 89 45 f0          	mov    %rax,-0x10(%rbp)
  1033e2:	48 8b 45 f0          	mov    -0x10(%rbp),%rax
  1033e6:	48 8d 35 88 d4 00 00 	lea    0xd488(%rip),%rsi        # 110875 <__rodata+0x875>
  1033ed:	48 89 c7             	mov    %rax,%rdi
  1033f0:	e8 a9 15 00 00       	callq  10499e <_ZN4ACPI4RSDP14GetSystemTableEPKc>
  1033f5:	48 89 45 e8          	mov    %rax,-0x18(%rbp)
  1033f9:	48 8b 45 e8          	mov    -0x18(%rbp),%rax
  1033fd:	48 89 c7             	mov    %rax,%rdi
  103400:	e8 f9 18 00 00       	callq  104cfe <_ZN4ACPI4FADT8ShutdownEv>
  103405:	e9 cf 00 00 00       	jmpq   1034d9 <_Z10user_inputPc+0x143>
  10340a:	48 8b 45 d8          	mov    -0x28(%rbp),%rax
  10340e:	48 8d 35 65 d4 00 00 	lea    0xd465(%rip),%rsi        # 11087a <__rodata+0x87a>
  103415:	48 89 c7             	mov    %rax,%rdi
  103418:	e8 6d 92 00 00       	callq  10c68a <_Z6strcmpPcS_>
  10341d:	85 c0                	test   %eax,%eax
  10341f:	0f 94 c0             	sete   %al
  103422:	84 c0                	test   %al,%al
  103424:	0f 84 a3 00 00 00    	je     1034cd <_Z10user_inputPc+0x137>
  10342a:	48 8d 3d 51 d4 00 00 	lea    0xd451(%rip),%rdi        # 110882 <__rodata+0x882>
  103431:	b8 00 00 00 00       	mov    $0x0,%eax
  103436:	e8 f1 95 00 00       	callq  10ca2c <_Z7kprintfPKcz>
  10343b:	48 8b 45 d8          	mov    -0x28(%rbp),%rax
  10343f:	ba ff 00 00 00       	mov    $0xff,%edx
  103444:	be 00 00 00 00       	mov    $0x0,%esi
  103449:	48 89 c7             	mov    %rax,%rdi
  10344c:	e8 1a 9a 00 00       	callq  10ce6b <_Z6memsetPvim>
  103451:	bf 64 00 00 00       	mov    $0x64,%edi
  103456:	e8 d6 e3 ff ff       	callq  101831 <_Z5__inbt>
  10345b:	0f b6 c0             	movzbl %al,%eax
  10345e:	89 45 fc             	mov    %eax,-0x4(%rbp)
  103461:	8b 45 fc             	mov    -0x4(%rbp),%eax
  103464:	83 e0 01             	and    $0x1,%eax
  103467:	85 c0                	test   %eax,%eax
  103469:	74 0b                	je     103476 <_Z10user_inputPc+0xe0>
  10346b:	bf 60 00 00 00       	mov    $0x60,%edi
  103470:	e8 bc e3 ff ff       	callq  101831 <_Z5__inbt>
  103475:	90                   	nop
  103476:	8b 45 fc             	mov    -0x4(%rbp),%eax
  103479:	83 e0 02             	and    $0x2,%eax
  10347c:	85 c0                	test   %eax,%eax
  10347e:	74 02                	je     103482 <_Z10user_inputPc+0xec>
  103480:	eb cf                	jmp    103451 <_Z10user_inputPc+0xbb>
  103482:	be 8f 00 00 00       	mov    $0x8f,%esi
  103487:	bf 70 00 00 00       	mov    $0x70,%edi
  10348c:	e8 03 e4 ff ff       	callq  101894 <_Z6__outbth>
  103491:	be 00 00 00 00       	mov    $0x0,%esi
  103496:	bf 71 00 00 00       	mov    $0x71,%edi
  10349b:	e8 f4 e3 ff ff       	callq  101894 <_Z6__outbth>
  1034a0:	be 00 00 00 00       	mov    $0x0,%esi
  1034a5:	bf 70 00 00 00       	mov    $0x70,%edi
  1034aa:	e8 e5 e3 ff ff       	callq  101894 <_Z6__outbth>
  1034af:	bf 92 00 00 00       	mov    $0x92,%edi
  1034b4:	e8 78 e3 ff ff       	callq  101831 <_Z5__inbt>
  1034b9:	83 c8 01             	or     $0x1,%eax
  1034bc:	0f b6 c0             	movzbl %al,%eax
  1034bf:	89 c6                	mov    %eax,%esi
  1034c1:	bf 92 00 00 00       	mov    $0x92,%edi
  1034c6:	e8 c9 e3 ff ff       	callq  101894 <_Z6__outbth>
  1034cb:	eb 0c                	jmp    1034d9 <_Z10user_inputPc+0x143>
  1034cd:	48 8b 45 d8          	mov    -0x28(%rbp),%rax
  1034d1:	48 89 c7             	mov    %rax,%rdi
  1034d4:	e8 10 f5 ff ff       	callq  1029e9 <_Z13shell_commandPc>
  1034d9:	90                   	nop
  1034da:	c9                   	leaveq 
  1034db:	c3                   	retq   

00000000001034dc <__cxa_pure_virtual>:
  1034dc:	f3 0f 1e fa          	endbr64 
  1034e0:	55                   	push   %rbp
  1034e1:	48 89 e5             	mov    %rsp,%rbp
  1034e4:	48 8d 3d b5 d3 00 00 	lea    0xd3b5(%rip),%rdi        # 1108a0 <__rodata+0x8a0>
  1034eb:	b8 00 00 00 00       	mov    $0x0,%eax
  1034f0:	e8 37 95 00 00       	callq  10ca2c <_Z7kprintfPKcz>
  1034f5:	90                   	nop
  1034f6:	5d                   	pop    %rbp
  1034f7:	c3                   	retq   

00000000001034f8 <__stack_chk_fail>:
  1034f8:	f3 0f 1e fa          	endbr64 
  1034fc:	55                   	push   %rbp
  1034fd:	48 89 e5             	mov    %rsp,%rbp
  103500:	48 8d 3d c1 d3 00 00 	lea    0xd3c1(%rip),%rdi        # 1108c8 <__rodata+0x8c8>
  103507:	b8 00 00 00 00       	mov    $0x0,%eax
  10350c:	e8 1b 95 00 00       	callq  10ca2c <_Z7kprintfPKcz>
  103511:	90                   	nop
  103512:	5d                   	pop    %rbp
  103513:	c3                   	retq   

0000000000103514 <_Z14InitialiseHeapPvm>:
  103514:	f3 0f 1e fa          	endbr64 
  103518:	55                   	push   %rbp
  103519:	48 89 e5             	mov    %rsp,%rbp
  10351c:	48 83 ec 30          	sub    $0x30,%rsp
  103520:	48 89 7d d8          	mov    %rdi,-0x28(%rbp)
  103524:	48 89 75 d0          	mov    %rsi,-0x30(%rbp)
  103528:	48 8b 45 d8          	mov    -0x28(%rbp),%rax
  10352c:	48 89 45 f8          	mov    %rax,-0x8(%rbp)
  103530:	48 c7 45 f0 00 00 00 	movq   $0x0,-0x10(%rbp)
  103537:	00 
  103538:	48 8b 45 f0          	mov    -0x10(%rbp),%rax
  10353c:	48 3b 45 d0          	cmp    -0x30(%rbp),%rax
  103540:	73 53                	jae    103595 <_Z14InitialiseHeapPvm+0x81>
  103542:	e8 db df ff ff       	callq  101522 <_ZN18PageFrameAllocator15SharedAllocatorEv>
  103547:	48 89 c7             	mov    %rax,%rdi
  10354a:	e8 27 dd ff ff       	callq  101276 <_ZN18PageFrameAllocator11RequestPageEv>
  10354f:	48 89 c2             	mov    %rax,%rdx
  103552:	48 8b 45 f8          	mov    -0x8(%rbp),%rax
  103556:	b9 03 00 00 00       	mov    $0x3,%ecx
  10355b:	48 89 c6             	mov    %rax,%rsi
  10355e:	48 8d 3d e3 1a 01 00 	lea    0x11ae3(%rip),%rdi        # 115048 <KernelDirectory>
  103565:	e8 6c cb ff ff       	callq  1000d6 <_ZN16PageTableManager9MapMemoryEmmm>
  10356a:	48 8b 45 f8          	mov    -0x8(%rbp),%rax
  10356e:	ba 00 10 00 00       	mov    $0x1000,%edx
  103573:	be 00 00 00 00       	mov    $0x0,%esi
  103578:	48 89 c7             	mov    %rax,%rdi
  10357b:	e8 eb 98 00 00       	callq  10ce6b <_Z6memsetPvim>
  103580:	48 8b 45 f8          	mov    -0x8(%rbp),%rax
  103584:	48 05 00 10 00 00    	add    $0x1000,%rax
  10358a:	48 89 45 f8          	mov    %rax,-0x8(%rbp)
  10358e:	48 83 45 f0 01       	addq   $0x1,-0x10(%rbp)
  103593:	eb a3                	jmp    103538 <_Z14InitialiseHeapPvm+0x24>
  103595:	48 8b 45 d0          	mov    -0x30(%rbp),%rax
  103599:	48 c1 e0 0c          	shl    $0xc,%rax
  10359d:	48 89 45 e8          	mov    %rax,-0x18(%rbp)
  1035a1:	48 8b 45 d8          	mov    -0x28(%rbp),%rax
  1035a5:	48 89 05 f4 34 01 00 	mov    %rax,0x134f4(%rip)        # 116aa0 <heapStart>
  1035ac:	48 8b 55 d8          	mov    -0x28(%rbp),%rdx
  1035b0:	48 8b 45 e8          	mov    -0x18(%rbp),%rax
  1035b4:	48 01 d0             	add    %rdx,%rax
  1035b7:	48 89 05 ea 34 01 00 	mov    %rax,0x134ea(%rip)        # 116aa8 <heapEnd>
  1035be:	48 8b 45 d8          	mov    -0x28(%rbp),%rax
  1035c2:	48 89 45 e0          	mov    %rax,-0x20(%rbp)
  1035c6:	48 8b 45 e8          	mov    -0x18(%rbp),%rax
  1035ca:	48 8d 50 e0          	lea    -0x20(%rax),%rdx
  1035ce:	48 8b 45 e0          	mov    -0x20(%rbp),%rax
  1035d2:	48 89 10             	mov    %rdx,(%rax)
  1035d5:	48 8b 45 e0          	mov    -0x20(%rbp),%rax
  1035d9:	48 c7 40 08 00 00 00 	movq   $0x0,0x8(%rax)
  1035e0:	00 
  1035e1:	48 8b 45 e0          	mov    -0x20(%rbp),%rax
  1035e5:	48 c7 40 10 00 00 00 	movq   $0x0,0x10(%rax)
  1035ec:	00 
  1035ed:	48 8b 45 e0          	mov    -0x20(%rbp),%rax
  1035f1:	c6 40 18 01          	movb   $0x1,0x18(%rax)
  1035f5:	48 8b 45 e0          	mov    -0x20(%rbp),%rax
  1035f9:	48 89 05 b0 34 01 00 	mov    %rax,0x134b0(%rip)        # 116ab0 <LastHdr>
  103600:	c6 05 51 44 01 00 01 	movb   $0x1,0x14451(%rip)        # 117a58 <heap_init>
  103607:	90                   	nop
  103608:	c9                   	leaveq 
  103609:	c3                   	retq   

000000000010360a <_Z5allocm>:
  10360a:	f3 0f 1e fa          	endbr64 
  10360e:	55                   	push   %rbp
  10360f:	48 89 e5             	mov    %rsp,%rbp
  103612:	48 83 ec 20          	sub    $0x20,%rsp
  103616:	48 89 7d e8          	mov    %rdi,-0x18(%rbp)
  10361a:	48 8b 45 e8          	mov    -0x18(%rbp),%rax
  10361e:	83 e0 0f             	and    $0xf,%eax
  103621:	48 85 c0             	test   %rax,%rax
  103624:	74 0a                	je     103630 <_Z5allocm+0x26>
  103626:	48 83 65 e8 f0       	andq   $0xfffffffffffffff0,-0x18(%rbp)
  10362b:	48 83 45 e8 10       	addq   $0x10,-0x18(%rbp)
  103630:	48 83 7d e8 00       	cmpq   $0x0,-0x18(%rbp)
  103635:	75 0a                	jne    103641 <_Z5allocm+0x37>
  103637:	b8 00 00 00 00       	mov    $0x0,%eax
  10363c:	e9 b0 00 00 00       	jmpq   1036f1 <_Z5allocm+0xe7>
  103641:	48 8b 05 58 34 01 00 	mov    0x13458(%rip),%rax        # 116aa0 <heapStart>
  103648:	48 89 45 f8          	mov    %rax,-0x8(%rbp)
  10364c:	48 8b 45 f8          	mov    -0x8(%rbp),%rax
  103650:	48 89 c6             	mov    %rax,%rsi
  103653:	48 8d 3d ee 19 01 00 	lea    0x119ee(%rip),%rdi        # 115048 <KernelDirectory>
  10365a:	e8 29 cd ff ff       	callq  100388 <_ZN16PageTableManager15PhysicalAddressEm>
  10365f:	48 8b 45 f8          	mov    -0x8(%rbp),%rax
  103663:	0f b6 40 18          	movzbl 0x18(%rax),%eax
  103667:	84 c0                	test   %al,%al
  103669:	74 51                	je     1036bc <_Z5allocm+0xb2>
  10366b:	48 8b 45 f8          	mov    -0x8(%rbp),%rax
  10366f:	48 8b 00             	mov    (%rax),%rax
  103672:	48 39 45 e8          	cmp    %rax,-0x18(%rbp)
  103676:	73 25                	jae    10369d <_Z5allocm+0x93>
  103678:	48 8b 55 e8          	mov    -0x18(%rbp),%rdx
  10367c:	48 8b 45 f8          	mov    -0x8(%rbp),%rax
  103680:	48 89 d6             	mov    %rdx,%rsi
  103683:	48 89 c7             	mov    %rax,%rdi
  103686:	e8 ad 02 00 00       	callq  103938 <_ZN17HeapSegmentHeader5SplitEm>
  10368b:	48 8b 45 f8          	mov    -0x8(%rbp),%rax
  10368f:	c6 40 18 00          	movb   $0x0,0x18(%rax)
  103693:	48 8b 45 f8          	mov    -0x8(%rbp),%rax
  103697:	48 83 c0 20          	add    $0x20,%rax
  10369b:	eb 54                	jmp    1036f1 <_Z5allocm+0xe7>
  10369d:	48 8b 45 f8          	mov    -0x8(%rbp),%rax
  1036a1:	48 8b 00             	mov    (%rax),%rax
  1036a4:	48 39 45 e8          	cmp    %rax,-0x18(%rbp)
  1036a8:	75 12                	jne    1036bc <_Z5allocm+0xb2>
  1036aa:	48 8b 45 f8          	mov    -0x8(%rbp),%rax
  1036ae:	c6 40 18 00          	movb   $0x0,0x18(%rax)
  1036b2:	48 8b 45 f8          	mov    -0x8(%rbp),%rax
  1036b6:	48 83 c0 20          	add    $0x20,%rax
  1036ba:	eb 35                	jmp    1036f1 <_Z5allocm+0xe7>
  1036bc:	48 8b 45 f8          	mov    -0x8(%rbp),%rax
  1036c0:	48 8b 40 08          	mov    0x8(%rax),%rax
  1036c4:	48 85 c0             	test   %rax,%rax
  1036c7:	74 0e                	je     1036d7 <_Z5allocm+0xcd>
  1036c9:	48 8b 45 f8          	mov    -0x8(%rbp),%rax
  1036cd:	48 8b 40 08          	mov    0x8(%rax),%rax
  1036d1:	48 89 45 f8          	mov    %rax,-0x8(%rbp)
  1036d5:	eb 88                	jmp    10365f <_Z5allocm+0x55>
  1036d7:	90                   	nop
  1036d8:	48 8b 45 e8          	mov    -0x18(%rbp),%rax
  1036dc:	48 89 c7             	mov    %rax,%rdi
  1036df:	e8 4e 00 00 00       	callq  103732 <_Z10ExpandHeapm>
  1036e4:	48 8b 45 e8          	mov    -0x18(%rbp),%rax
  1036e8:	48 89 c7             	mov    %rax,%rdi
  1036eb:	e8 1a ff ff ff       	callq  10360a <_Z5allocm>
  1036f0:	90                   	nop
  1036f1:	c9                   	leaveq 
  1036f2:	c3                   	retq   

00000000001036f3 <_Z4freePv>:
  1036f3:	f3 0f 1e fa          	endbr64 
  1036f7:	55                   	push   %rbp
  1036f8:	48 89 e5             	mov    %rsp,%rbp
  1036fb:	48 83 ec 20          	sub    $0x20,%rsp
  1036ff:	48 89 7d e8          	mov    %rdi,-0x18(%rbp)
  103703:	48 8b 45 e8          	mov    -0x18(%rbp),%rax
  103707:	48 83 e8 20          	sub    $0x20,%rax
  10370b:	48 89 45 f8          	mov    %rax,-0x8(%rbp)
  10370f:	48 8b 45 f8          	mov    -0x8(%rbp),%rax
  103713:	c6 40 18 01          	movb   $0x1,0x18(%rax)
  103717:	48 8b 45 f8          	mov    -0x8(%rbp),%rax
  10371b:	48 89 c7             	mov    %rax,%rdi
  10371e:	e8 21 01 00 00       	callq  103844 <_ZN17HeapSegmentHeader14CombineForwardEv>
  103723:	48 8b 45 f8          	mov    -0x8(%rbp),%rax
  103727:	48 89 c7             	mov    %rax,%rdi
  10372a:	e8 c9 01 00 00       	callq  1038f8 <_ZN17HeapSegmentHeader15CombineBackwardEv>
  10372f:	90                   	nop
  103730:	c9                   	leaveq 
  103731:	c3                   	retq   

0000000000103732 <_Z10ExpandHeapm>:
  103732:	f3 0f 1e fa          	endbr64 
  103736:	55                   	push   %rbp
  103737:	48 89 e5             	mov    %rsp,%rbp
  10373a:	48 83 ec 30          	sub    $0x30,%rsp
  10373e:	48 89 7d d8          	mov    %rdi,-0x28(%rbp)
  103742:	48 8b 45 d8          	mov    -0x28(%rbp),%rax
  103746:	25 ff 0f 00 00       	and    $0xfff,%eax
  10374b:	48 85 c0             	test   %rax,%rax
  10374e:	74 10                	je     103760 <_Z10ExpandHeapm+0x2e>
  103750:	48 81 65 d8 00 f0 ff 	andq   $0xfffffffffffff000,-0x28(%rbp)
  103757:	ff 
  103758:	48 81 45 d8 00 10 00 	addq   $0x1000,-0x28(%rbp)
  10375f:	00 
  103760:	48 8b 45 d8          	mov    -0x28(%rbp),%rax
  103764:	48 c1 e8 0c          	shr    $0xc,%rax
  103768:	48 89 45 f0          	mov    %rax,-0x10(%rbp)
  10376c:	48 8b 05 35 33 01 00 	mov    0x13335(%rip),%rax        # 116aa8 <heapEnd>
  103773:	48 89 45 e8          	mov    %rax,-0x18(%rbp)
  103777:	48 c7 45 f8 00 00 00 	movq   $0x0,-0x8(%rbp)
  10377e:	00 
  10377f:	48 8b 45 f8          	mov    -0x8(%rbp),%rax
  103783:	48 3b 45 f0          	cmp    -0x10(%rbp),%rax
  103787:	73 5f                	jae    1037e8 <_Z10ExpandHeapm+0xb6>
  103789:	e8 94 dd ff ff       	callq  101522 <_ZN18PageFrameAllocator15SharedAllocatorEv>
  10378e:	48 89 c7             	mov    %rax,%rdi
  103791:	e8 e0 da ff ff       	callq  101276 <_ZN18PageFrameAllocator11RequestPageEv>
  103796:	48 89 c2             	mov    %rax,%rdx
  103799:	48 8b 05 08 33 01 00 	mov    0x13308(%rip),%rax        # 116aa8 <heapEnd>
  1037a0:	b9 03 00 00 00       	mov    $0x3,%ecx
  1037a5:	48 89 c6             	mov    %rax,%rsi
  1037a8:	48 8d 3d 99 18 01 00 	lea    0x11899(%rip),%rdi        # 115048 <KernelDirectory>
  1037af:	e8 22 c9 ff ff       	callq  1000d6 <_ZN16PageTableManager9MapMemoryEmmm>
  1037b4:	48 8b 05 ed 32 01 00 	mov    0x132ed(%rip),%rax        # 116aa8 <heapEnd>
  1037bb:	ba 00 10 00 00       	mov    $0x1000,%edx
  1037c0:	be 00 00 00 00       	mov    $0x0,%esi
  1037c5:	48 89 c7             	mov    %rax,%rdi
  1037c8:	e8 9e 96 00 00       	callq  10ce6b <_Z6memsetPvim>
  1037cd:	48 8b 05 d4 32 01 00 	mov    0x132d4(%rip),%rax        # 116aa8 <heapEnd>
  1037d4:	48 05 00 10 00 00    	add    $0x1000,%rax
  1037da:	48 89 05 c7 32 01 00 	mov    %rax,0x132c7(%rip)        # 116aa8 <heapEnd>
  1037e1:	48 83 45 f8 01       	addq   $0x1,-0x8(%rbp)
  1037e6:	eb 97                	jmp    10377f <_Z10ExpandHeapm+0x4d>
  1037e8:	48 8b 45 e8          	mov    -0x18(%rbp),%rax
  1037ec:	c6 40 18 01          	movb   $0x1,0x18(%rax)
  1037f0:	48 8b 15 b9 32 01 00 	mov    0x132b9(%rip),%rdx        # 116ab0 <LastHdr>
  1037f7:	48 8b 45 e8          	mov    -0x18(%rbp),%rax
  1037fb:	48 89 50 10          	mov    %rdx,0x10(%rax)
  1037ff:	48 8b 05 aa 32 01 00 	mov    0x132aa(%rip),%rax        # 116ab0 <LastHdr>
  103806:	48 8b 55 e8          	mov    -0x18(%rbp),%rdx
  10380a:	48 89 50 08          	mov    %rdx,0x8(%rax)
  10380e:	48 8b 45 e8          	mov    -0x18(%rbp),%rax
  103812:	48 89 05 97 32 01 00 	mov    %rax,0x13297(%rip)        # 116ab0 <LastHdr>
  103819:	48 8b 45 e8          	mov    -0x18(%rbp),%rax
  10381d:	48 c7 40 08 00 00 00 	movq   $0x0,0x8(%rax)
  103824:	00 
  103825:	48 8b 45 d8          	mov    -0x28(%rbp),%rax
  103829:	48 8d 50 e0          	lea    -0x20(%rax),%rdx
  10382d:	48 8b 45 e8          	mov    -0x18(%rbp),%rax
  103831:	48 89 10             	mov    %rdx,(%rax)
  103834:	48 8b 45 e8          	mov    -0x18(%rbp),%rax
  103838:	48 89 c7             	mov    %rax,%rdi
  10383b:	e8 b8 00 00 00       	callq  1038f8 <_ZN17HeapSegmentHeader15CombineBackwardEv>
  103840:	90                   	nop
  103841:	c9                   	leaveq 
  103842:	c3                   	retq   
  103843:	90                   	nop

0000000000103844 <_ZN17HeapSegmentHeader14CombineForwardEv>:
  103844:	f3 0f 1e fa          	endbr64 
  103848:	55                   	push   %rbp
  103849:	48 89 e5             	mov    %rsp,%rbp
  10384c:	48 83 ec 08          	sub    $0x8,%rsp
  103850:	48 89 7d f8          	mov    %rdi,-0x8(%rbp)
  103854:	48 8b 45 f8          	mov    -0x8(%rbp),%rax
  103858:	48 8b 40 08          	mov    0x8(%rax),%rax
  10385c:	48 85 c0             	test   %rax,%rax
  10385f:	0f 84 8d 00 00 00    	je     1038f2 <_ZN17HeapSegmentHeader14CombineForwardEv+0xae>
  103865:	48 8b 45 f8          	mov    -0x8(%rbp),%rax
  103869:	48 8b 40 08          	mov    0x8(%rax),%rax
  10386d:	0f b6 40 18          	movzbl 0x18(%rax),%eax
  103871:	83 f0 01             	xor    $0x1,%eax
  103874:	84 c0                	test   %al,%al
  103876:	75 7d                	jne    1038f5 <_ZN17HeapSegmentHeader14CombineForwardEv+0xb1>
  103878:	48 8b 45 f8          	mov    -0x8(%rbp),%rax
  10387c:	48 8b 50 08          	mov    0x8(%rax),%rdx
  103880:	48 8b 05 29 32 01 00 	mov    0x13229(%rip),%rax        # 116ab0 <LastHdr>
  103887:	48 39 c2             	cmp    %rax,%rdx
  10388a:	75 0b                	jne    103897 <_ZN17HeapSegmentHeader14CombineForwardEv+0x53>
  10388c:	48 8b 45 f8          	mov    -0x8(%rbp),%rax
  103890:	48 89 05 19 32 01 00 	mov    %rax,0x13219(%rip)        # 116ab0 <LastHdr>
  103897:	48 8b 45 f8          	mov    -0x8(%rbp),%rax
  10389b:	48 8b 40 08          	mov    0x8(%rax),%rax
  10389f:	48 8b 40 08          	mov    0x8(%rax),%rax
  1038a3:	48 85 c0             	test   %rax,%rax
  1038a6:	74 14                	je     1038bc <_ZN17HeapSegmentHeader14CombineForwardEv+0x78>
  1038a8:	48 8b 45 f8          	mov    -0x8(%rbp),%rax
  1038ac:	48 8b 40 08          	mov    0x8(%rax),%rax
  1038b0:	48 8b 40 08          	mov    0x8(%rax),%rax
  1038b4:	48 8b 55 f8          	mov    -0x8(%rbp),%rdx
  1038b8:	48 89 50 10          	mov    %rdx,0x10(%rax)
  1038bc:	48 8b 45 f8          	mov    -0x8(%rbp),%rax
  1038c0:	48 8b 10             	mov    (%rax),%rdx
  1038c3:	48 8b 45 f8          	mov    -0x8(%rbp),%rax
  1038c7:	48 8b 40 08          	mov    0x8(%rax),%rax
  1038cb:	48 8b 00             	mov    (%rax),%rax
  1038ce:	48 01 d0             	add    %rdx,%rax
  1038d1:	48 8d 50 20          	lea    0x20(%rax),%rdx
  1038d5:	48 8b 45 f8          	mov    -0x8(%rbp),%rax
  1038d9:	48 89 10             	mov    %rdx,(%rax)
  1038dc:	48 8b 45 f8          	mov    -0x8(%rbp),%rax
  1038e0:	48 8b 40 08          	mov    0x8(%rax),%rax
  1038e4:	48 8b 50 08          	mov    0x8(%rax),%rdx
  1038e8:	48 8b 45 f8          	mov    -0x8(%rbp),%rax
  1038ec:	48 89 50 08          	mov    %rdx,0x8(%rax)
  1038f0:	eb 04                	jmp    1038f6 <_ZN17HeapSegmentHeader14CombineForwardEv+0xb2>
  1038f2:	90                   	nop
  1038f3:	eb 01                	jmp    1038f6 <_ZN17HeapSegmentHeader14CombineForwardEv+0xb2>
  1038f5:	90                   	nop
  1038f6:	c9                   	leaveq 
  1038f7:	c3                   	retq   

00000000001038f8 <_ZN17HeapSegmentHeader15CombineBackwardEv>:
  1038f8:	f3 0f 1e fa          	endbr64 
  1038fc:	55                   	push   %rbp
  1038fd:	48 89 e5             	mov    %rsp,%rbp
  103900:	48 83 ec 08          	sub    $0x8,%rsp
  103904:	48 89 7d f8          	mov    %rdi,-0x8(%rbp)
  103908:	48 8b 45 f8          	mov    -0x8(%rbp),%rax
  10390c:	48 8b 40 10          	mov    0x10(%rax),%rax
  103910:	48 85 c0             	test   %rax,%rax
  103913:	74 20                	je     103935 <_ZN17HeapSegmentHeader15CombineBackwardEv+0x3d>
  103915:	48 8b 45 f8          	mov    -0x8(%rbp),%rax
  103919:	48 8b 40 10          	mov    0x10(%rax),%rax
  10391d:	0f b6 40 18          	movzbl 0x18(%rax),%eax
  103921:	84 c0                	test   %al,%al
  103923:	74 10                	je     103935 <_ZN17HeapSegmentHeader15CombineBackwardEv+0x3d>
  103925:	48 8b 45 f8          	mov    -0x8(%rbp),%rax
  103929:	48 8b 40 10          	mov    0x10(%rax),%rax
  10392d:	48 89 c7             	mov    %rax,%rdi
  103930:	e8 0f ff ff ff       	callq  103844 <_ZN17HeapSegmentHeader14CombineForwardEv>
  103935:	90                   	nop
  103936:	c9                   	leaveq 
  103937:	c3                   	retq   

0000000000103938 <_ZN17HeapSegmentHeader5SplitEm>:
  103938:	f3 0f 1e fa          	endbr64 
  10393c:	55                   	push   %rbp
  10393d:	48 89 e5             	mov    %rsp,%rbp
  103940:	48 83 ec 30          	sub    $0x30,%rsp
  103944:	48 89 7d d8          	mov    %rdi,-0x28(%rbp)
  103948:	48 89 75 d0          	mov    %rsi,-0x30(%rbp)
  10394c:	48 83 7d d0 0f       	cmpq   $0xf,-0x30(%rbp)
  103951:	77 0a                	ja     10395d <_ZN17HeapSegmentHeader5SplitEm+0x25>
  103953:	b8 00 00 00 00       	mov    $0x0,%eax
  103958:	e9 f0 00 00 00       	jmpq   103a4d <_ZN17HeapSegmentHeader5SplitEm+0x115>
  10395d:	48 8b 45 d8          	mov    -0x28(%rbp),%rax
  103961:	48 8b 00             	mov    (%rax),%rax
  103964:	48 2b 45 d0          	sub    -0x30(%rbp),%rax
  103968:	48 83 e8 20          	sub    $0x20,%rax
  10396c:	48 89 45 f8          	mov    %rax,-0x8(%rbp)
  103970:	48 83 7d f8 0f       	cmpq   $0xf,-0x8(%rbp)
  103975:	7f 0a                	jg     103981 <_ZN17HeapSegmentHeader5SplitEm+0x49>
  103977:	b8 00 00 00 00       	mov    $0x0,%eax
  10397c:	e9 cc 00 00 00       	jmpq   103a4d <_ZN17HeapSegmentHeader5SplitEm+0x115>
  103981:	48 8b 55 d8          	mov    -0x28(%rbp),%rdx
  103985:	48 8b 45 d0          	mov    -0x30(%rbp),%rax
  103989:	48 01 d0             	add    %rdx,%rax
  10398c:	48 83 c0 20          	add    $0x20,%rax
  103990:	48 89 45 f0          	mov    %rax,-0x10(%rbp)
  103994:	48 8b 45 f0          	mov    -0x10(%rbp),%rax
  103998:	48 89 c6             	mov    %rax,%rsi
  10399b:	48 8d 3d a6 16 01 00 	lea    0x116a6(%rip),%rdi        # 115048 <KernelDirectory>
  1039a2:	e8 e1 c9 ff ff       	callq  100388 <_ZN16PageTableManager15PhysicalAddressEm>
  1039a7:	48 89 45 e8          	mov    %rax,-0x18(%rbp)
  1039ab:	48 8b 55 e8          	mov    -0x18(%rbp),%rdx
  1039af:	48 8b 45 f0          	mov    -0x10(%rbp),%rax
  1039b3:	48 89 c6             	mov    %rax,%rsi
  1039b6:	48 8d 3d 20 cf 00 00 	lea    0xcf20(%rip),%rdi        # 1108dd <__rodata+0x8dd>
  1039bd:	b8 00 00 00 00       	mov    $0x0,%eax
  1039c2:	e8 65 90 00 00       	callq  10ca2c <_Z7kprintfPKcz>
  1039c7:	48 8b 45 d8          	mov    -0x28(%rbp),%rax
  1039cb:	48 8b 40 08          	mov    0x8(%rax),%rax
  1039cf:	48 85 c0             	test   %rax,%rax
  1039d2:	74 10                	je     1039e4 <_ZN17HeapSegmentHeader5SplitEm+0xac>
  1039d4:	48 8b 45 d8          	mov    -0x28(%rbp),%rax
  1039d8:	48 8b 40 08          	mov    0x8(%rax),%rax
  1039dc:	48 8b 55 f0          	mov    -0x10(%rbp),%rdx
  1039e0:	48 89 50 10          	mov    %rdx,0x10(%rax)
  1039e4:	48 8b 45 d8          	mov    -0x28(%rbp),%rax
  1039e8:	48 8b 50 08          	mov    0x8(%rax),%rdx
  1039ec:	48 8b 45 f0          	mov    -0x10(%rbp),%rax
  1039f0:	48 89 50 08          	mov    %rdx,0x8(%rax)
  1039f4:	48 8b 45 d8          	mov    -0x28(%rbp),%rax
  1039f8:	48 8b 55 f0          	mov    -0x10(%rbp),%rdx
  1039fc:	48 89 50 08          	mov    %rdx,0x8(%rax)
  103a00:	48 8b 45 f0          	mov    -0x10(%rbp),%rax
  103a04:	48 8b 55 d8          	mov    -0x28(%rbp),%rdx
  103a08:	48 89 50 10          	mov    %rdx,0x10(%rax)
  103a0c:	48 8b 55 f8          	mov    -0x8(%rbp),%rdx
  103a10:	48 8b 45 f0          	mov    -0x10(%rbp),%rax
  103a14:	48 89 10             	mov    %rdx,(%rax)
  103a17:	48 8b 45 d8          	mov    -0x28(%rbp),%rax
  103a1b:	0f b6 50 18          	movzbl 0x18(%rax),%edx
  103a1f:	48 8b 45 f0          	mov    -0x10(%rbp),%rax
  103a23:	88 50 18             	mov    %dl,0x18(%rax)
  103a26:	48 8b 45 d8          	mov    -0x28(%rbp),%rax
  103a2a:	48 8b 55 d0          	mov    -0x30(%rbp),%rdx
  103a2e:	48 89 10             	mov    %rdx,(%rax)
  103a31:	48 8b 05 78 30 01 00 	mov    0x13078(%rip),%rax        # 116ab0 <LastHdr>
  103a38:	48 39 45 d8          	cmp    %rax,-0x28(%rbp)
  103a3c:	75 0b                	jne    103a49 <_ZN17HeapSegmentHeader5SplitEm+0x111>
  103a3e:	48 8b 45 f0          	mov    -0x10(%rbp),%rax
  103a42:	48 89 05 67 30 01 00 	mov    %rax,0x13067(%rip)        # 116ab0 <LastHdr>
  103a49:	48 8b 45 f0          	mov    -0x10(%rbp),%rax
  103a4d:	c9                   	leaveq 
  103a4e:	c3                   	retq   

0000000000103a4f <_Znwm>:
  103a4f:	f3 0f 1e fa          	endbr64 
  103a53:	55                   	push   %rbp
  103a54:	48 89 e5             	mov    %rsp,%rbp
  103a57:	48 83 ec 10          	sub    $0x10,%rsp
  103a5b:	48 89 7d f8          	mov    %rdi,-0x8(%rbp)
  103a5f:	48 8b 45 f8          	mov    -0x8(%rbp),%rax
  103a63:	48 89 c7             	mov    %rax,%rdi
  103a66:	e8 17 96 00 00       	callq  10d082 <_Z7kmallocm>
  103a6b:	c9                   	leaveq 
  103a6c:	c3                   	retq   

0000000000103a6d <_Znam>:
  103a6d:	f3 0f 1e fa          	endbr64 
  103a71:	55                   	push   %rbp
  103a72:	48 89 e5             	mov    %rsp,%rbp
  103a75:	48 83 ec 10          	sub    $0x10,%rsp
  103a79:	48 89 7d f8          	mov    %rdi,-0x8(%rbp)
  103a7d:	48 8b 45 f8          	mov    -0x8(%rbp),%rax
  103a81:	48 89 c7             	mov    %rax,%rdi
  103a84:	e8 f9 95 00 00       	callq  10d082 <_Z7kmallocm>
  103a89:	c9                   	leaveq 
  103a8a:	c3                   	retq   

0000000000103a8b <_ZdlPv>:
  103a8b:	f3 0f 1e fa          	endbr64 
  103a8f:	55                   	push   %rbp
  103a90:	48 89 e5             	mov    %rsp,%rbp
  103a93:	48 83 ec 10          	sub    $0x10,%rsp
  103a97:	48 89 7d f8          	mov    %rdi,-0x8(%rbp)
  103a9b:	48 8b 45 f8          	mov    -0x8(%rbp),%rax
  103a9f:	48 89 c7             	mov    %rax,%rdi
  103aa2:	e8 33 95 00 00       	callq  10cfda <_Z5kfreePv>
  103aa7:	90                   	nop
  103aa8:	c9                   	leaveq 
  103aa9:	c3                   	retq   

0000000000103aaa <_ZdaPv>:
  103aaa:	f3 0f 1e fa          	endbr64 
  103aae:	55                   	push   %rbp
  103aaf:	48 89 e5             	mov    %rsp,%rbp
  103ab2:	48 83 ec 10          	sub    $0x10,%rsp
  103ab6:	48 89 7d f8          	mov    %rdi,-0x8(%rbp)
  103aba:	48 8b 45 f8          	mov    -0x8(%rbp),%rax
  103abe:	48 89 c7             	mov    %rax,%rdi
  103ac1:	e8 14 95 00 00       	callq  10cfda <_Z5kfreePv>
  103ac6:	90                   	nop
  103ac7:	c9                   	leaveq 
  103ac8:	c3                   	retq   

0000000000103ac9 <_ZdlPvm>:
  103ac9:	f3 0f 1e fa          	endbr64 
  103acd:	55                   	push   %rbp
  103ace:	48 89 e5             	mov    %rsp,%rbp
  103ad1:	48 83 ec 10          	sub    $0x10,%rsp
  103ad5:	48 89 7d f8          	mov    %rdi,-0x8(%rbp)
  103ad9:	48 89 75 f0          	mov    %rsi,-0x10(%rbp)
  103add:	48 8b 45 f8          	mov    -0x8(%rbp),%rax
  103ae1:	48 89 c7             	mov    %rax,%rdi
  103ae4:	e8 f1 94 00 00       	callq  10cfda <_Z5kfreePv>
  103ae9:	90                   	nop
  103aea:	c9                   	leaveq 
  103aeb:	c3                   	retq   

0000000000103aec <_ZdaPvm>:
  103aec:	f3 0f 1e fa          	endbr64 
  103af0:	55                   	push   %rbp
  103af1:	48 89 e5             	mov    %rsp,%rbp
  103af4:	48 83 ec 10          	sub    $0x10,%rsp
  103af8:	48 89 7d f8          	mov    %rdi,-0x8(%rbp)
  103afc:	48 89 75 f0          	mov    %rsi,-0x10(%rbp)
  103b00:	48 8b 45 f8          	mov    -0x8(%rbp),%rax
  103b04:	48 89 c7             	mov    %rax,%rdi
  103b07:	e8 ce 94 00 00       	callq  10cfda <_Z5kfreePv>
  103b0c:	90                   	nop
  103b0d:	c9                   	leaveq 
  103b0e:	c3                   	retq   
  103b0f:	90                   	nop

0000000000103b10 <_ZN9MemoryMap15IsUsuableMemoryEm>:
  103b10:	f3 0f 1e fa          	endbr64 
  103b14:	55                   	push   %rbp
  103b15:	48 89 e5             	mov    %rsp,%rbp
  103b18:	48 83 ec 10          	sub    $0x10,%rsp
  103b1c:	48 89 7d f8          	mov    %rdi,-0x8(%rbp)
  103b20:	48 89 75 f0          	mov    %rsi,-0x10(%rbp)
  103b24:	48 8b 45 f8          	mov    -0x8(%rbp),%rax
  103b28:	48 8b 40 08          	mov    0x8(%rax),%rax
  103b2c:	48 39 45 f0          	cmp    %rax,-0x10(%rbp)
  103b30:	72 07                	jb     103b39 <_ZN9MemoryMap15IsUsuableMemoryEm+0x29>
  103b32:	b8 00 00 00 00       	mov    $0x0,%eax
  103b37:	eb 5f                	jmp    103b98 <_ZN9MemoryMap15IsUsuableMemoryEm+0x88>
  103b39:	8b 05 21 30 01 00    	mov    0x13021(%rip),%eax        # 116b60 <_ZL17usuableMemoryType>
  103b3f:	85 c0                	test   %eax,%eax
  103b41:	75 21                	jne    103b64 <_ZN9MemoryMap15IsUsuableMemoryEm+0x54>
  103b43:	0f b6 05 16 3f 01 00 	movzbl 0x13f16(%rip),%eax        # 117a60 <fromUEFI>
  103b4a:	84 c0                	test   %al,%al
  103b4c:	74 0c                	je     103b5a <_ZN9MemoryMap15IsUsuableMemoryEm+0x4a>
  103b4e:	c7 05 08 30 01 00 07 	movl   $0x7,0x13008(%rip)        # 116b60 <_ZL17usuableMemoryType>
  103b55:	00 00 00 
  103b58:	eb 0a                	jmp    103b64 <_ZN9MemoryMap15IsUsuableMemoryEm+0x54>
  103b5a:	c7 05 fc 2f 01 00 01 	movl   $0x1,0x12ffc(%rip)        # 116b60 <_ZL17usuableMemoryType>
  103b61:	00 00 00 
  103b64:	48 8b 45 f8          	mov    -0x8(%rbp),%rax
  103b68:	48 8b 08             	mov    (%rax),%rcx
  103b6b:	48 8b 55 f0          	mov    -0x10(%rbp),%rdx
  103b6f:	48 89 d0             	mov    %rdx,%rax
  103b72:	48 01 c0             	add    %rax,%rax
  103b75:	48 01 d0             	add    %rdx,%rax
  103b78:	48 c1 e0 03          	shl    $0x3,%rax
  103b7c:	48 01 c8             	add    %rcx,%rax
  103b7f:	8b 50 10             	mov    0x10(%rax),%edx
  103b82:	8b 05 d8 2f 01 00    	mov    0x12fd8(%rip),%eax        # 116b60 <_ZL17usuableMemoryType>
  103b88:	39 c2                	cmp    %eax,%edx
  103b8a:	75 07                	jne    103b93 <_ZN9MemoryMap15IsUsuableMemoryEm+0x83>
  103b8c:	b8 01 00 00 00       	mov    $0x1,%eax
  103b91:	eb 05                	jmp    103b98 <_ZN9MemoryMap15IsUsuableMemoryEm+0x88>
  103b93:	b8 00 00 00 00       	mov    $0x0,%eax
  103b98:	c9                   	leaveq 
  103b99:	c3                   	retq   

0000000000103b9a <_ZN9MemoryMap16GetUsuableMemoryEv>:
  103b9a:	f3 0f 1e fa          	endbr64 
  103b9e:	55                   	push   %rbp
  103b9f:	48 89 e5             	mov    %rsp,%rbp
  103ba2:	48 83 ec 18          	sub    $0x18,%rsp
  103ba6:	48 89 7d e8          	mov    %rdi,-0x18(%rbp)
  103baa:	0f b6 05 b3 2f 01 00 	movzbl 0x12fb3(%rip),%eax        # 116b64 <_ZL16usuableMemoryGot>
  103bb1:	84 c0                	test   %al,%al
  103bb3:	74 0c                	je     103bc1 <_ZN9MemoryMap16GetUsuableMemoryEv+0x27>
  103bb5:	48 8d 05 04 2f 01 00 	lea    0x12f04(%rip),%rax        # 116ac0 <_ZL13usuableMemory>
  103bbc:	e9 87 00 00 00       	jmpq   103c48 <_ZN9MemoryMap16GetUsuableMemoryEv+0xae>
  103bc1:	48 c7 45 f8 00 00 00 	movq   $0x0,-0x8(%rbp)
  103bc8:	00 
  103bc9:	48 c7 45 f0 00 00 00 	movq   $0x0,-0x10(%rbp)
  103bd0:	00 
  103bd1:	48 8b 45 e8          	mov    -0x18(%rbp),%rax
  103bd5:	48 8b 40 08          	mov    0x8(%rax),%rax
  103bd9:	48 39 45 f0          	cmp    %rax,-0x10(%rbp)
  103bdd:	73 5b                	jae    103c3a <_ZN9MemoryMap16GetUsuableMemoryEv+0xa0>
  103bdf:	48 8b 55 f0          	mov    -0x10(%rbp),%rdx
  103be3:	48 8b 45 e8          	mov    -0x18(%rbp),%rax
  103be7:	48 89 d6             	mov    %rdx,%rsi
  103bea:	48 89 c7             	mov    %rax,%rdi
  103bed:	e8 1e ff ff ff       	callq  103b10 <_ZN9MemoryMap15IsUsuableMemoryEm>
  103bf2:	84 c0                	test   %al,%al
  103bf4:	74 3d                	je     103c33 <_ZN9MemoryMap16GetUsuableMemoryEv+0x99>
  103bf6:	48 8b 45 e8          	mov    -0x18(%rbp),%rax
  103bfa:	48 8b 08             	mov    (%rax),%rcx
  103bfd:	48 8b 55 f0          	mov    -0x10(%rbp),%rdx
  103c01:	48 89 d0             	mov    %rdx,%rax
  103c04:	48 01 c0             	add    %rax,%rax
  103c07:	48 01 d0             	add    %rdx,%rax
  103c0a:	48 c1 e0 03          	shl    $0x3,%rax
  103c0e:	48 89 c6             	mov    %rax,%rsi
  103c11:	48 8b 45 f8          	mov    -0x8(%rbp),%rax
  103c15:	48 8d 50 01          	lea    0x1(%rax),%rdx
  103c19:	48 89 55 f8          	mov    %rdx,-0x8(%rbp)
  103c1d:	48 01 f1             	add    %rsi,%rcx
  103c20:	48 8d 14 c5 00 00 00 	lea    0x0(,%rax,8),%rdx
  103c27:	00 
  103c28:	48 8d 05 91 2e 01 00 	lea    0x12e91(%rip),%rax        # 116ac0 <_ZL13usuableMemory>
  103c2f:	48 89 0c 02          	mov    %rcx,(%rdx,%rax,1)
  103c33:	48 83 45 f0 01       	addq   $0x1,-0x10(%rbp)
  103c38:	eb 97                	jmp    103bd1 <_ZN9MemoryMap16GetUsuableMemoryEv+0x37>
  103c3a:	c6 05 23 2f 01 00 01 	movb   $0x1,0x12f23(%rip)        # 116b64 <_ZL16usuableMemoryGot>
  103c41:	48 8d 05 78 2e 01 00 	lea    0x12e78(%rip),%rax        # 116ac0 <_ZL13usuableMemory>
  103c48:	c9                   	leaveq 
  103c49:	c3                   	retq   

0000000000103c4a <_ZN9MemoryMap20GetTotalSystemMemoryEv>:
  103c4a:	f3 0f 1e fa          	endbr64 
  103c4e:	55                   	push   %rbp
  103c4f:	48 89 e5             	mov    %rsp,%rbp
  103c52:	48 83 ec 28          	sub    $0x28,%rsp
  103c56:	48 89 7d d8          	mov    %rdi,-0x28(%rbp)
  103c5a:	48 c7 45 f8 00 00 00 	movq   $0x0,-0x8(%rbp)
  103c61:	00 
  103c62:	48 c7 45 f0 00 00 00 	movq   $0x0,-0x10(%rbp)
  103c69:	00 
  103c6a:	48 8b 45 d8          	mov    -0x28(%rbp),%rax
  103c6e:	48 8b 40 08          	mov    0x8(%rax),%rax
  103c72:	48 39 45 f0          	cmp    %rax,-0x10(%rbp)
  103c76:	73 32                	jae    103caa <_ZN9MemoryMap20GetTotalSystemMemoryEv+0x60>
  103c78:	48 8b 45 d8          	mov    -0x28(%rbp),%rax
  103c7c:	48 8b 08             	mov    (%rax),%rcx
  103c7f:	48 8b 55 f0          	mov    -0x10(%rbp),%rdx
  103c83:	48 89 d0             	mov    %rdx,%rax
  103c86:	48 01 c0             	add    %rax,%rax
  103c89:	48 01 d0             	add    %rdx,%rax
  103c8c:	48 c1 e0 03          	shl    $0x3,%rax
  103c90:	48 01 c8             	add    %rcx,%rax
  103c93:	48 89 45 e8          	mov    %rax,-0x18(%rbp)
  103c97:	48 8b 45 e8          	mov    -0x18(%rbp),%rax
  103c9b:	48 8b 40 08          	mov    0x8(%rax),%rax
  103c9f:	48 01 45 f8          	add    %rax,-0x8(%rbp)
  103ca3:	48 83 45 f0 01       	addq   $0x1,-0x10(%rbp)
  103ca8:	eb c0                	jmp    103c6a <_ZN9MemoryMap20GetTotalSystemMemoryEv+0x20>
  103caa:	48 8b 45 f8          	mov    -0x8(%rbp),%rax
  103cae:	c9                   	leaveq 
  103caf:	c3                   	retq   

0000000000103cb0 <_ZN9MemoryMap22GetUsuableSystemMemoryEv>:
  103cb0:	f3 0f 1e fa          	endbr64 
  103cb4:	55                   	push   %rbp
  103cb5:	48 89 e5             	mov    %rsp,%rbp
  103cb8:	48 83 ec 28          	sub    $0x28,%rsp
  103cbc:	48 89 7d d8          	mov    %rdi,-0x28(%rbp)
  103cc0:	48 c7 45 f8 00 00 00 	movq   $0x0,-0x8(%rbp)
  103cc7:	00 
  103cc8:	48 c7 45 f0 00 00 00 	movq   $0x0,-0x10(%rbp)
  103ccf:	00 
  103cd0:	48 8b 45 d8          	mov    -0x28(%rbp),%rax
  103cd4:	48 8b 40 08          	mov    0x8(%rax),%rax
  103cd8:	48 39 45 f0          	cmp    %rax,-0x10(%rbp)
  103cdc:	73 49                	jae    103d27 <_ZN9MemoryMap22GetUsuableSystemMemoryEv+0x77>
  103cde:	48 8b 55 f0          	mov    -0x10(%rbp),%rdx
  103ce2:	48 8b 45 d8          	mov    -0x28(%rbp),%rax
  103ce6:	48 89 d6             	mov    %rdx,%rsi
  103ce9:	48 89 c7             	mov    %rax,%rdi
  103cec:	e8 1f fe ff ff       	callq  103b10 <_ZN9MemoryMap15IsUsuableMemoryEm>
  103cf1:	84 c0                	test   %al,%al
  103cf3:	74 2b                	je     103d20 <_ZN9MemoryMap22GetUsuableSystemMemoryEv+0x70>
  103cf5:	48 8b 45 d8          	mov    -0x28(%rbp),%rax
  103cf9:	48 8b 08             	mov    (%rax),%rcx
  103cfc:	48 8b 55 f0          	mov    -0x10(%rbp),%rdx
  103d00:	48 89 d0             	mov    %rdx,%rax
  103d03:	48 01 c0             	add    %rax,%rax
  103d06:	48 01 d0             	add    %rdx,%rax
  103d09:	48 c1 e0 03          	shl    $0x3,%rax
  103d0d:	48 01 c8             	add    %rcx,%rax
  103d10:	48 89 45 e8          	mov    %rax,-0x18(%rbp)
  103d14:	48 8b 45 e8          	mov    -0x18(%rbp),%rax
  103d18:	48 8b 40 08          	mov    0x8(%rax),%rax
  103d1c:	48 01 45 f8          	add    %rax,-0x8(%rbp)
  103d20:	48 83 45 f0 01       	addq   $0x1,-0x10(%rbp)
  103d25:	eb a9                	jmp    103cd0 <_ZN9MemoryMap22GetUsuableSystemMemoryEv+0x20>
  103d27:	48 8b 45 f8          	mov    -0x8(%rbp),%rax
  103d2b:	c9                   	leaveq 
  103d2c:	c3                   	retq   
  103d2d:	90                   	nop

0000000000103d2e <_ZN4ACPI4MADT11DetectCoresEv>:
  103d2e:	f3 0f 1e fa          	endbr64 
  103d32:	55                   	push   %rbp
  103d33:	48 89 e5             	mov    %rsp,%rbp
  103d36:	48 83 ec 50          	sub    $0x50,%rsp
  103d3a:	48 89 7d b8          	mov    %rdi,-0x48(%rbp)
  103d3e:	48 8b 45 b8          	mov    -0x48(%rbp),%rax
  103d42:	8b 40 24             	mov    0x24(%rax),%eax
  103d45:	89 c0                	mov    %eax,%eax
  103d47:	48 89 05 3a 2f 01 00 	mov    %rax,0x12f3a(%rip)        # 116c88 <_ZN4ACPIL9lapic_ptrE>
  103d4e:	48 8b 45 b8          	mov    -0x48(%rbp),%rax
  103d52:	48 83 c0 2c          	add    $0x2c,%rax
  103d56:	48 89 45 e8          	mov    %rax,-0x18(%rbp)
  103d5a:	48 8b 45 b8          	mov    -0x48(%rbp),%rax
  103d5e:	48 89 c2             	mov    %rax,%rdx
  103d61:	48 8b 45 b8          	mov    -0x48(%rbp),%rax
  103d65:	8b 40 04             	mov    0x4(%rax),%eax
  103d68:	89 c0                	mov    %eax,%eax
  103d6a:	48 01 d0             	add    %rdx,%rax
  103d6d:	48 89 45 e0          	mov    %rax,-0x20(%rbp)
  103d71:	48 8b 45 e8          	mov    -0x18(%rbp),%rax
  103d75:	48 89 45 f8          	mov    %rax,-0x8(%rbp)
  103d79:	48 8b 45 f8          	mov    -0x8(%rbp),%rax
  103d7d:	48 39 45 e0          	cmp    %rax,-0x20(%rbp)
  103d81:	0f 86 b1 00 00 00    	jbe    103e38 <_ZN4ACPI4MADT11DetectCoresEv+0x10a>
  103d87:	48 8b 45 f8          	mov    -0x8(%rbp),%rax
  103d8b:	0f b6 00             	movzbl (%rax),%eax
  103d8e:	0f b6 c0             	movzbl %al,%eax
  103d91:	83 f8 05             	cmp    $0x5,%eax
  103d94:	74 6a                	je     103e00 <_ZN4ACPI4MADT11DetectCoresEv+0xd2>
  103d96:	83 f8 05             	cmp    $0x5,%eax
  103d99:	7f 7e                	jg     103e19 <_ZN4ACPI4MADT11DetectCoresEv+0xeb>
  103d9b:	85 c0                	test   %eax,%eax
  103d9d:	74 07                	je     103da6 <_ZN4ACPI4MADT11DetectCoresEv+0x78>
  103d9f:	83 f8 01             	cmp    $0x1,%eax
  103da2:	74 42                	je     103de6 <_ZN4ACPI4MADT11DetectCoresEv+0xb8>
  103da4:	eb 73                	jmp    103e19 <_ZN4ACPI4MADT11DetectCoresEv+0xeb>
  103da6:	48 8b 45 f8          	mov    -0x8(%rbp),%rax
  103daa:	48 89 45 c8          	mov    %rax,-0x38(%rbp)
  103dae:	48 8b 45 c8          	mov    -0x38(%rbp),%rax
  103db2:	8b 40 04             	mov    0x4(%rax),%eax
  103db5:	83 e0 01             	and    $0x1,%eax
  103db8:	85 c0                	test   %eax,%eax
  103dba:	74 60                	je     103e1c <_ZN4ACPI4MADT11DetectCoresEv+0xee>
  103dbc:	0f b6 05 bd 2e 01 00 	movzbl 0x12ebd(%rip),%eax        # 116c80 <_ZN4ACPIL5coresE>
  103dc3:	8d 50 01             	lea    0x1(%rax),%edx
  103dc6:	88 15 b4 2e 01 00    	mov    %dl,0x12eb4(%rip)        # 116c80 <_ZN4ACPIL5coresE>
  103dcc:	0f b6 c8             	movzbl %al,%ecx
  103dcf:	48 8b 45 c8          	mov    -0x38(%rbp),%rax
  103dd3:	0f b6 50 03          	movzbl 0x3(%rax),%edx
  103dd7:	48 63 c1             	movslq %ecx,%rax
  103dda:	48 8d 0d 9f 2d 01 00 	lea    0x12d9f(%rip),%rcx        # 116b80 <_ZN4ACPIL9lapic_idsE>
  103de1:	88 14 08             	mov    %dl,(%rax,%rcx,1)
  103de4:	eb 36                	jmp    103e1c <_ZN4ACPI4MADT11DetectCoresEv+0xee>
  103de6:	48 8b 45 f8          	mov    -0x8(%rbp),%rax
  103dea:	48 89 45 d0          	mov    %rax,-0x30(%rbp)
  103dee:	48 8b 45 d0          	mov    -0x30(%rbp),%rax
  103df2:	8b 40 04             	mov    0x4(%rax),%eax
  103df5:	89 c0                	mov    %eax,%eax
  103df7:	48 89 05 92 2e 01 00 	mov    %rax,0x12e92(%rip)        # 116c90 <_ZN4ACPIL10ioapic_ptrE>
  103dfe:	eb 1d                	jmp    103e1d <_ZN4ACPI4MADT11DetectCoresEv+0xef>
  103e00:	48 8b 45 f8          	mov    -0x8(%rbp),%rax
  103e04:	48 89 45 d8          	mov    %rax,-0x28(%rbp)
  103e08:	48 8b 45 d8          	mov    -0x28(%rbp),%rax
  103e0c:	48 8b 40 04          	mov    0x4(%rax),%rax
  103e10:	48 89 05 71 2e 01 00 	mov    %rax,0x12e71(%rip)        # 116c88 <_ZN4ACPIL9lapic_ptrE>
  103e17:	eb 04                	jmp    103e1d <_ZN4ACPI4MADT11DetectCoresEv+0xef>
  103e19:	90                   	nop
  103e1a:	eb 01                	jmp    103e1d <_ZN4ACPI4MADT11DetectCoresEv+0xef>
  103e1c:	90                   	nop
  103e1d:	48 8b 45 f8          	mov    -0x8(%rbp),%rax
  103e21:	0f b6 40 01          	movzbl 0x1(%rax),%eax
  103e25:	0f b6 d0             	movzbl %al,%edx
  103e28:	48 8b 45 f8          	mov    -0x8(%rbp),%rax
  103e2c:	48 01 d0             	add    %rdx,%rax
  103e2f:	48 89 45 f8          	mov    %rax,-0x8(%rbp)
  103e33:	e9 41 ff ff ff       	jmpq   103d79 <_ZN4ACPI4MADT11DetectCoresEv+0x4b>
  103e38:	0f b6 05 41 2e 01 00 	movzbl 0x12e41(%rip),%eax        # 116c80 <_ZN4ACPIL5coresE>
  103e3f:	0f b6 c0             	movzbl %al,%eax
  103e42:	89 c6                	mov    %eax,%esi
  103e44:	48 8d 3d a7 ca 00 00 	lea    0xcaa7(%rip),%rdi        # 1108f2 <__rodata+0x8f2>
  103e4b:	b8 00 00 00 00       	mov    $0x0,%eax
  103e50:	e8 d7 8b 00 00       	callq  10ca2c <_Z7kprintfPKcz>
  103e55:	48 8b 05 2c 2e 01 00 	mov    0x12e2c(%rip),%rax        # 116c88 <_ZN4ACPIL9lapic_ptrE>
  103e5c:	48 89 c6             	mov    %rax,%rsi
  103e5f:	48 8d 3d 9c ca 00 00 	lea    0xca9c(%rip),%rdi        # 110902 <__rodata+0x902>
  103e66:	b8 00 00 00 00       	mov    $0x0,%eax
  103e6b:	e8 bc 8b 00 00       	callq  10ca2c <_Z7kprintfPKcz>
  103e70:	48 8b 05 19 2e 01 00 	mov    0x12e19(%rip),%rax        # 116c90 <_ZN4ACPIL10ioapic_ptrE>
  103e77:	48 89 c6             	mov    %rax,%rsi
  103e7a:	48 8d 3d 9b ca 00 00 	lea    0xca9b(%rip),%rdi        # 11091c <__rodata+0x91c>
  103e81:	b8 00 00 00 00       	mov    $0x0,%eax
  103e86:	e8 a1 8b 00 00       	callq  10ca2c <_Z7kprintfPKcz>
  103e8b:	48 8d 3d a2 ca 00 00 	lea    0xcaa2(%rip),%rdi        # 110934 <__rodata+0x934>
  103e92:	b8 00 00 00 00       	mov    $0x0,%eax
  103e97:	e8 90 8b 00 00       	callq  10ca2c <_Z7kprintfPKcz>
  103e9c:	48 c7 45 f0 00 00 00 	movq   $0x0,-0x10(%rbp)
  103ea3:	00 
  103ea4:	0f b6 05 d5 2d 01 00 	movzbl 0x12dd5(%rip),%eax        # 116c80 <_ZN4ACPIL5coresE>
  103eab:	0f b6 c0             	movzbl %al,%eax
  103eae:	48 39 45 f0          	cmp    %rax,-0x10(%rbp)
  103eb2:	73 2e                	jae    103ee2 <_ZN4ACPI4MADT11DetectCoresEv+0x1b4>
  103eb4:	48 8d 15 c5 2c 01 00 	lea    0x12cc5(%rip),%rdx        # 116b80 <_ZN4ACPIL9lapic_idsE>
  103ebb:	48 8b 45 f0          	mov    -0x10(%rbp),%rax
  103ebf:	48 01 d0             	add    %rdx,%rax
  103ec2:	0f b6 00             	movzbl (%rax),%eax
  103ec5:	0f b6 c0             	movzbl %al,%eax
  103ec8:	89 c6                	mov    %eax,%esi
  103eca:	48 8d 3d 73 ca 00 00 	lea    0xca73(%rip),%rdi        # 110944 <__rodata+0x944>
  103ed1:	b8 00 00 00 00       	mov    $0x0,%eax
  103ed6:	e8 51 8b 00 00       	callq  10ca2c <_Z7kprintfPKcz>
  103edb:	48 83 45 f0 01       	addq   $0x1,-0x10(%rbp)
  103ee0:	eb c2                	jmp    103ea4 <_ZN4ACPI4MADT11DetectCoresEv+0x176>
  103ee2:	48 8d 3d 5f ca 00 00 	lea    0xca5f(%rip),%rdi        # 110948 <__rodata+0x948>
  103ee9:	b8 00 00 00 00       	mov    $0x0,%eax
  103eee:	e8 39 8b 00 00       	callq  10ca2c <_Z7kprintfPKcz>
  103ef3:	90                   	nop
  103ef4:	c9                   	leaveq 
  103ef5:	c3                   	retq   

0000000000103ef6 <_ZN3PCI17EnumerateFunctionEmm>:
  103ef6:	f3 0f 1e fa          	endbr64 
  103efa:	55                   	push   %rbp
  103efb:	48 89 e5             	mov    %rsp,%rbp
  103efe:	53                   	push   %rbx
  103eff:	48 83 ec 58          	sub    $0x58,%rsp
  103f03:	48 89 7d a8          	mov    %rdi,-0x58(%rbp)
  103f07:	48 89 75 a0          	mov    %rsi,-0x60(%rbp)
  103f0b:	48 8b 45 a0          	mov    -0x60(%rbp),%rax
  103f0f:	48 c1 e0 0c          	shl    $0xc,%rax
  103f13:	48 89 45 e0          	mov    %rax,-0x20(%rbp)
  103f17:	48 8b 55 a8          	mov    -0x58(%rbp),%rdx
  103f1b:	48 8b 45 e0          	mov    -0x20(%rbp),%rax
  103f1f:	48 01 d0             	add    %rdx,%rax
  103f22:	48 89 45 d8          	mov    %rax,-0x28(%rbp)
  103f26:	48 8b 55 d8          	mov    -0x28(%rbp),%rdx
  103f2a:	48 8b 45 d8          	mov    -0x28(%rbp),%rax
  103f2e:	b9 03 00 00 00       	mov    $0x3,%ecx
  103f33:	48 89 c6             	mov    %rax,%rsi
  103f36:	48 8d 3d 0b 11 01 00 	lea    0x1110b(%rip),%rdi        # 115048 <KernelDirectory>
  103f3d:	e8 94 c1 ff ff       	callq  1000d6 <_ZN16PageTableManager9MapMemoryEmmm>
  103f42:	48 8b 45 d8          	mov    -0x28(%rbp),%rax
  103f46:	48 89 45 d0          	mov    %rax,-0x30(%rbp)
  103f4a:	48 8b 45 d0          	mov    -0x30(%rbp),%rax
  103f4e:	0f b7 40 02          	movzwl 0x2(%rax),%eax
  103f52:	66 85 c0             	test   %ax,%ax
  103f55:	0f 84 d2 00 00 00    	je     10402d <_ZN3PCI17EnumerateFunctionEmm+0x137>
  103f5b:	48 8b 45 d0          	mov    -0x30(%rbp),%rax
  103f5f:	0f b7 40 02          	movzwl 0x2(%rax),%eax
  103f63:	66 83 f8 ff          	cmp    $0xffff,%ax
  103f67:	0f 84 c3 00 00 00    	je     104030 <_ZN3PCI17EnumerateFunctionEmm+0x13a>
  103f6d:	48 8b 45 d0          	mov    -0x30(%rbp),%rax
  103f71:	0f b6 40 0b          	movzbl 0xb(%rax),%eax
  103f75:	0f b6 c0             	movzbl %al,%eax
  103f78:	83 f8 01             	cmp    $0x1,%eax
  103f7b:	0f 85 b0 00 00 00    	jne    104031 <_ZN3PCI17EnumerateFunctionEmm+0x13b>
  103f81:	48 8b 45 d0          	mov    -0x30(%rbp),%rax
  103f85:	0f b6 40 0a          	movzbl 0xa(%rax),%eax
  103f89:	0f b6 c0             	movzbl %al,%eax
  103f8c:	83 f8 06             	cmp    $0x6,%eax
  103f8f:	0f 85 9c 00 00 00    	jne    104031 <_ZN3PCI17EnumerateFunctionEmm+0x13b>
  103f95:	48 8b 45 d0          	mov    -0x30(%rbp),%rax
  103f99:	0f b6 40 09          	movzbl 0x9(%rax),%eax
  103f9d:	0f b6 c0             	movzbl %al,%eax
  103fa0:	83 f8 01             	cmp    $0x1,%eax
  103fa3:	0f 85 88 00 00 00    	jne    104031 <_ZN3PCI17EnumerateFunctionEmm+0x13b>
  103fa9:	bf 18 01 00 00       	mov    $0x118,%edi
  103fae:	e8 9c fa ff ff       	callq  103a4f <_Znwm>
  103fb3:	48 89 c3             	mov    %rax,%rbx
  103fb6:	48 8b 45 d0          	mov    -0x30(%rbp),%rax
  103fba:	48 89 c6             	mov    %rax,%rsi
  103fbd:	48 89 df             	mov    %rbx,%rdi
  103fc0:	e8 0f 2e 00 00       	callq  106dd4 <_ZN4AHCI10AHCIDriverC1EPN3PCI15PCIDeviceHeaderE>
  103fc5:	48 89 5d c8          	mov    %rbx,-0x38(%rbp)
  103fc9:	48 8d 45 b0          	lea    -0x50(%rbp),%rax
  103fcd:	48 8b 55 c8          	mov    -0x38(%rbp),%rdx
  103fd1:	48 89 d6             	mov    %rdx,%rsi
  103fd4:	48 89 c7             	mov    %rax,%rdi
  103fd7:	e8 48 25 00 00       	callq  106524 <_ZN4AHCI10AHCIDriver12PreparePortsEv>
  103fdc:	c7 45 ec 00 00 00 00 	movl   $0x0,-0x14(%rbp)
  103fe3:	8b 5d ec             	mov    -0x14(%rbp),%ebx
  103fe6:	48 8d 45 b0          	lea    -0x50(%rbp),%rax
  103fea:	48 89 c7             	mov    %rax,%rdi
  103fed:	e8 c2 a1 00 00       	callq  10e1b4 <_ZNK6vectorIPN4AHCI10AHCIDeviceEE4sizeEv>
  103ff2:	48 39 c3             	cmp    %rax,%rbx
  103ff5:	0f 92 c0             	setb   %al
  103ff8:	84 c0                	test   %al,%al
  103ffa:	74 23                	je     10401f <_ZN3PCI17EnumerateFunctionEmm+0x129>
  103ffc:	8b 55 ec             	mov    -0x14(%rbp),%edx
  103fff:	48 8d 45 b0          	lea    -0x50(%rbp),%rax
  104003:	48 89 d6             	mov    %rdx,%rsi
  104006:	48 89 c7             	mov    %rax,%rdi
  104009:	e8 c0 a1 00 00       	callq  10e1ce <_ZN6vectorIPN4AHCI10AHCIDeviceEEixEm>
  10400e:	48 8b 00             	mov    (%rax),%rax
  104011:	48 89 c7             	mov    %rax,%rdi
  104014:	e8 0f 2f 00 00       	callq  106f28 <_Z14RegisterDeviceP6Device>
  104019:	83 45 ec 01          	addl   $0x1,-0x14(%rbp)
  10401d:	eb c4                	jmp    103fe3 <_ZN3PCI17EnumerateFunctionEmm+0xed>
  10401f:	48 8d 45 b0          	lea    -0x50(%rbp),%rax
  104023:	48 89 c7             	mov    %rax,%rdi
  104026:	e8 59 a1 00 00       	callq  10e184 <_ZN6vectorIPN4AHCI10AHCIDeviceEED1Ev>
  10402b:	eb 04                	jmp    104031 <_ZN3PCI17EnumerateFunctionEmm+0x13b>
  10402d:	90                   	nop
  10402e:	eb 01                	jmp    104031 <_ZN3PCI17EnumerateFunctionEmm+0x13b>
  104030:	90                   	nop
  104031:	48 83 c4 58          	add    $0x58,%rsp
  104035:	5b                   	pop    %rbx
  104036:	5d                   	pop    %rbp
  104037:	c3                   	retq   

0000000000104038 <_ZN3PCI15EnumerateDeviceEmm>:
  104038:	f3 0f 1e fa          	endbr64 
  10403c:	55                   	push   %rbp
  10403d:	48 89 e5             	mov    %rsp,%rbp
  104040:	48 83 ec 30          	sub    $0x30,%rsp
  104044:	48 89 7d d8          	mov    %rdi,-0x28(%rbp)
  104048:	48 89 75 d0          	mov    %rsi,-0x30(%rbp)
  10404c:	48 8b 45 d0          	mov    -0x30(%rbp),%rax
  104050:	48 c1 e0 0f          	shl    $0xf,%rax
  104054:	48 89 45 f0          	mov    %rax,-0x10(%rbp)
  104058:	48 8b 55 d8          	mov    -0x28(%rbp),%rdx
  10405c:	48 8b 45 f0          	mov    -0x10(%rbp),%rax
  104060:	48 01 d0             	add    %rdx,%rax
  104063:	48 89 45 e8          	mov    %rax,-0x18(%rbp)
  104067:	48 8b 55 e8          	mov    -0x18(%rbp),%rdx
  10406b:	48 8b 45 e8          	mov    -0x18(%rbp),%rax
  10406f:	b9 03 00 00 00       	mov    $0x3,%ecx
  104074:	48 89 c6             	mov    %rax,%rsi
  104077:	48 8d 3d ca 0f 01 00 	lea    0x10fca(%rip),%rdi        # 115048 <KernelDirectory>
  10407e:	e8 53 c0 ff ff       	callq  1000d6 <_ZN16PageTableManager9MapMemoryEmmm>
  104083:	48 8b 45 e8          	mov    -0x18(%rbp),%rax
  104087:	48 89 45 e0          	mov    %rax,-0x20(%rbp)
  10408b:	48 8b 45 e0          	mov    -0x20(%rbp),%rax
  10408f:	0f b7 40 02          	movzwl 0x2(%rax),%eax
  104093:	66 85 c0             	test   %ax,%ax
  104096:	74 37                	je     1040cf <_ZN3PCI15EnumerateDeviceEmm+0x97>
  104098:	48 8b 45 e0          	mov    -0x20(%rbp),%rax
  10409c:	0f b7 40 02          	movzwl 0x2(%rax),%eax
  1040a0:	66 83 f8 ff          	cmp    $0xffff,%ax
  1040a4:	74 2c                	je     1040d2 <_ZN3PCI15EnumerateDeviceEmm+0x9a>
  1040a6:	48 c7 45 f8 00 00 00 	movq   $0x0,-0x8(%rbp)
  1040ad:	00 
  1040ae:	48 83 7d f8 07       	cmpq   $0x7,-0x8(%rbp)
  1040b3:	77 1e                	ja     1040d3 <_ZN3PCI15EnumerateDeviceEmm+0x9b>
  1040b5:	48 8b 55 f8          	mov    -0x8(%rbp),%rdx
  1040b9:	48 8b 45 e8          	mov    -0x18(%rbp),%rax
  1040bd:	48 89 d6             	mov    %rdx,%rsi
  1040c0:	48 89 c7             	mov    %rax,%rdi
  1040c3:	e8 2e fe ff ff       	callq  103ef6 <_ZN3PCI17EnumerateFunctionEmm>
  1040c8:	48 83 45 f8 01       	addq   $0x1,-0x8(%rbp)
  1040cd:	eb df                	jmp    1040ae <_ZN3PCI15EnumerateDeviceEmm+0x76>
  1040cf:	90                   	nop
  1040d0:	eb 01                	jmp    1040d3 <_ZN3PCI15EnumerateDeviceEmm+0x9b>
  1040d2:	90                   	nop
  1040d3:	c9                   	leaveq 
  1040d4:	c3                   	retq   

00000000001040d5 <_ZN3PCI12EnumerateBusEmm>:
  1040d5:	f3 0f 1e fa          	endbr64 
  1040d9:	55                   	push   %rbp
  1040da:	48 89 e5             	mov    %rsp,%rbp
  1040dd:	48 83 ec 30          	sub    $0x30,%rsp
  1040e1:	48 89 7d d8          	mov    %rdi,-0x28(%rbp)
  1040e5:	48 89 75 d0          	mov    %rsi,-0x30(%rbp)
  1040e9:	48 8b 45 d0          	mov    -0x30(%rbp),%rax
  1040ed:	48 c1 e0 14          	shl    $0x14,%rax
  1040f1:	48 89 45 f0          	mov    %rax,-0x10(%rbp)
  1040f5:	48 8b 55 d8          	mov    -0x28(%rbp),%rdx
  1040f9:	48 8b 45 f0          	mov    -0x10(%rbp),%rax
  1040fd:	48 01 d0             	add    %rdx,%rax
  104100:	48 89 45 e8          	mov    %rax,-0x18(%rbp)
  104104:	48 8b 55 e8          	mov    -0x18(%rbp),%rdx
  104108:	48 8b 45 e8          	mov    -0x18(%rbp),%rax
  10410c:	b9 03 00 00 00       	mov    $0x3,%ecx
  104111:	48 89 c6             	mov    %rax,%rsi
  104114:	48 8d 3d 2d 0f 01 00 	lea    0x10f2d(%rip),%rdi        # 115048 <KernelDirectory>
  10411b:	e8 b6 bf ff ff       	callq  1000d6 <_ZN16PageTableManager9MapMemoryEmmm>
  104120:	48 8b 45 e8          	mov    -0x18(%rbp),%rax
  104124:	48 89 45 e0          	mov    %rax,-0x20(%rbp)
  104128:	48 8b 45 e0          	mov    -0x20(%rbp),%rax
  10412c:	0f b7 40 02          	movzwl 0x2(%rax),%eax
  104130:	66 85 c0             	test   %ax,%ax
  104133:	74 37                	je     10416c <_ZN3PCI12EnumerateBusEmm+0x97>
  104135:	48 8b 45 e0          	mov    -0x20(%rbp),%rax
  104139:	0f b7 40 02          	movzwl 0x2(%rax),%eax
  10413d:	66 83 f8 ff          	cmp    $0xffff,%ax
  104141:	74 2c                	je     10416f <_ZN3PCI12EnumerateBusEmm+0x9a>
  104143:	48 c7 45 f8 00 00 00 	movq   $0x0,-0x8(%rbp)
  10414a:	00 
  10414b:	48 83 7d f8 1f       	cmpq   $0x1f,-0x8(%rbp)
  104150:	77 1e                	ja     104170 <_ZN3PCI12EnumerateBusEmm+0x9b>
  104152:	48 8b 55 f8          	mov    -0x8(%rbp),%rdx
  104156:	48 8b 45 e8          	mov    -0x18(%rbp),%rax
  10415a:	48 89 d6             	mov    %rdx,%rsi
  10415d:	48 89 c7             	mov    %rax,%rdi
  104160:	e8 d3 fe ff ff       	callq  104038 <_ZN3PCI15EnumerateDeviceEmm>
  104165:	48 83 45 f8 01       	addq   $0x1,-0x8(%rbp)
  10416a:	eb df                	jmp    10414b <_ZN3PCI12EnumerateBusEmm+0x76>
  10416c:	90                   	nop
  10416d:	eb 01                	jmp    104170 <_ZN3PCI12EnumerateBusEmm+0x9b>
  10416f:	90                   	nop
  104170:	c9                   	leaveq 
  104171:	c3                   	retq   

0000000000104172 <_ZN3PCI12EnumeratePCIEPN4ACPI10MCFGHeaderE>:
  104172:	f3 0f 1e fa          	endbr64 
  104176:	55                   	push   %rbp
  104177:	48 89 e5             	mov    %rsp,%rbp
  10417a:	48 83 ec 30          	sub    $0x30,%rsp
  10417e:	48 89 7d d8          	mov    %rdi,-0x28(%rbp)
  104182:	48 8b 45 d8          	mov    -0x28(%rbp),%rax
  104186:	8b 40 04             	mov    0x4(%rax),%eax
  104189:	89 c0                	mov    %eax,%eax
  10418b:	48 83 e8 2c          	sub    $0x2c,%rax
  10418f:	48 c1 e8 04          	shr    $0x4,%rax
  104193:	48 89 45 e8          	mov    %rax,-0x18(%rbp)
  104197:	48 c7 45 f8 00 00 00 	movq   $0x0,-0x8(%rbp)
  10419e:	00 
  10419f:	48 8b 45 f8          	mov    -0x8(%rbp),%rax
  1041a3:	48 3b 45 e8          	cmp    -0x18(%rbp),%rax
  1041a7:	73 5e                	jae    104207 <_ZN3PCI12EnumeratePCIEPN4ACPI10MCFGHeaderE+0x95>
  1041a9:	48 8b 45 f8          	mov    -0x8(%rbp),%rax
  1041ad:	48 c1 e0 04          	shl    $0x4,%rax
  1041b1:	48 89 c2             	mov    %rax,%rdx
  1041b4:	48 8b 45 d8          	mov    -0x28(%rbp),%rax
  1041b8:	48 01 d0             	add    %rdx,%rax
  1041bb:	48 83 c0 2c          	add    $0x2c,%rax
  1041bf:	48 89 45 e0          	mov    %rax,-0x20(%rbp)
  1041c3:	48 8b 45 e0          	mov    -0x20(%rbp),%rax
  1041c7:	0f b6 40 0a          	movzbl 0xa(%rax),%eax
  1041cb:	0f b6 c0             	movzbl %al,%eax
  1041ce:	48 89 45 f0          	mov    %rax,-0x10(%rbp)
  1041d2:	48 8b 45 e0          	mov    -0x20(%rbp),%rax
  1041d6:	0f b6 40 0b          	movzbl 0xb(%rax),%eax
  1041da:	0f b6 c0             	movzbl %al,%eax
  1041dd:	48 39 45 f0          	cmp    %rax,-0x10(%rbp)
  1041e1:	73 1d                	jae    104200 <_ZN3PCI12EnumeratePCIEPN4ACPI10MCFGHeaderE+0x8e>
  1041e3:	48 8b 45 e0          	mov    -0x20(%rbp),%rax
  1041e7:	48 8b 00             	mov    (%rax),%rax
  1041ea:	48 8b 55 f0          	mov    -0x10(%rbp),%rdx
  1041ee:	48 89 d6             	mov    %rdx,%rsi
  1041f1:	48 89 c7             	mov    %rax,%rdi
  1041f4:	e8 dc fe ff ff       	callq  1040d5 <_ZN3PCI12EnumerateBusEmm>
  1041f9:	48 83 45 f0 01       	addq   $0x1,-0x10(%rbp)
  1041fe:	eb d2                	jmp    1041d2 <_ZN3PCI12EnumeratePCIEPN4ACPI10MCFGHeaderE+0x60>
  104200:	48 83 45 f8 01       	addq   $0x1,-0x8(%rbp)
  104205:	eb 98                	jmp    10419f <_ZN3PCI12EnumeratePCIEPN4ACPI10MCFGHeaderE+0x2d>
  104207:	90                   	nop
  104208:	c9                   	leaveq 
  104209:	c3                   	retq   

000000000010420a <_ZN3PCI13GetVendorNameEt>:
  10420a:	f3 0f 1e fa          	endbr64 
  10420e:	55                   	push   %rbp
  10420f:	48 89 e5             	mov    %rsp,%rbp
  104212:	48 83 ec 20          	sub    $0x20,%rsp
  104216:	89 f8                	mov    %edi,%eax
  104218:	66 89 45 ec          	mov    %ax,-0x14(%rbp)
  10421c:	0f b7 45 ec          	movzwl -0x14(%rbp),%eax
  104220:	3d 86 80 00 00       	cmp    $0x8086,%eax
  104225:	74 17                	je     10423e <_ZN3PCI13GetVendorNameEt+0x34>
  104227:	3d 86 80 00 00       	cmp    $0x8086,%eax
  10422c:	7f 2b                	jg     104259 <_ZN3PCI13GetVendorNameEt+0x4f>
  10422e:	3d 22 10 00 00       	cmp    $0x1022,%eax
  104233:	74 12                	je     104247 <_ZN3PCI13GetVendorNameEt+0x3d>
  104235:	3d de 10 00 00       	cmp    $0x10de,%eax
  10423a:	74 14                	je     104250 <_ZN3PCI13GetVendorNameEt+0x46>
  10423c:	eb 1b                	jmp    104259 <_ZN3PCI13GetVendorNameEt+0x4f>
  10423e:	48 8d 05 ce c8 00 00 	lea    0xc8ce(%rip),%rax        # 110b13 <__rodata+0xb13>
  104245:	eb 39                	jmp    104280 <_ZN3PCI13GetVendorNameEt+0x76>
  104247:	48 8d 05 d0 c8 00 00 	lea    0xc8d0(%rip),%rax        # 110b1e <__rodata+0xb1e>
  10424e:	eb 30                	jmp    104280 <_ZN3PCI13GetVendorNameEt+0x76>
  104250:	48 8d 05 cb c8 00 00 	lea    0xc8cb(%rip),%rax        # 110b22 <__rodata+0xb22>
  104257:	eb 27                	jmp    104280 <_ZN3PCI13GetVendorNameEt+0x76>
  104259:	bf 04 00 00 00       	mov    $0x4,%edi
  10425e:	e8 0a f8 ff ff       	callq  103a6d <_Znam>
  104263:	48 89 45 f8          	mov    %rax,-0x8(%rbp)
  104267:	0f b7 55 ec          	movzwl -0x14(%rbp),%edx
  10426b:	48 8b 45 f8          	mov    -0x8(%rbp),%rax
  10426f:	be 78 00 00 00       	mov    $0x78,%esi
  104274:	48 89 c7             	mov    %rax,%rdi
  104277:	e8 04 82 00 00       	callq  10c480 <_Z4itoaPhjm>
  10427c:	48 8b 45 f8          	mov    -0x8(%rbp),%rax
  104280:	c9                   	leaveq 
  104281:	c3                   	retq   

0000000000104282 <_ZN3PCI13GetDeviceNameEtt>:
  104282:	f3 0f 1e fa          	endbr64 
  104286:	55                   	push   %rbp
  104287:	48 89 e5             	mov    %rsp,%rbp
  10428a:	48 83 ec 20          	sub    $0x20,%rsp
  10428e:	89 fa                	mov    %edi,%edx
  104290:	89 f0                	mov    %esi,%eax
  104292:	66 89 55 ec          	mov    %dx,-0x14(%rbp)
  104296:	66 89 45 e8          	mov    %ax,-0x18(%rbp)
  10429a:	0f b7 45 ec          	movzwl -0x14(%rbp),%eax
  10429e:	3d de 10 00 00       	cmp    $0x10de,%eax
  1042a3:	74 5b                	je     104300 <_ZN3PCI13GetDeviceNameEtt+0x7e>
  1042a5:	3d 86 80 00 00       	cmp    $0x8086,%eax
  1042aa:	75 7d                	jne    104329 <_ZN3PCI13GetDeviceNameEtt+0xa7>
  1042ac:	0f b7 45 e8          	movzwl -0x18(%rbp),%eax
  1042b0:	3d c0 29 00 00       	cmp    $0x29c0,%eax
  1042b5:	74 25                	je     1042dc <_ZN3PCI13GetDeviceNameEtt+0x5a>
  1042b7:	3d c0 29 00 00       	cmp    $0x29c0,%eax
  1042bc:	7f 42                	jg     104300 <_ZN3PCI13GetDeviceNameEtt+0x7e>
  1042be:	3d 30 29 00 00       	cmp    $0x2930,%eax
  1042c3:	74 32                	je     1042f7 <_ZN3PCI13GetDeviceNameEtt+0x75>
  1042c5:	3d 30 29 00 00       	cmp    $0x2930,%eax
  1042ca:	7f 34                	jg     104300 <_ZN3PCI13GetDeviceNameEtt+0x7e>
  1042cc:	3d 18 29 00 00       	cmp    $0x2918,%eax
  1042d1:	74 12                	je     1042e5 <_ZN3PCI13GetDeviceNameEtt+0x63>
  1042d3:	3d 22 29 00 00       	cmp    $0x2922,%eax
  1042d8:	74 14                	je     1042ee <_ZN3PCI13GetDeviceNameEtt+0x6c>
  1042da:	eb 24                	jmp    104300 <_ZN3PCI13GetDeviceNameEtt+0x7e>
  1042dc:	48 8d 05 52 c8 00 00 	lea    0xc852(%rip),%rax        # 110b35 <__rodata+0xb35>
  1042e3:	eb 6b                	jmp    104350 <_ZN3PCI13GetDeviceNameEtt+0xce>
  1042e5:	48 8d 05 61 c8 00 00 	lea    0xc861(%rip),%rax        # 110b4d <__rodata+0xb4d>
  1042ec:	eb 62                	jmp    104350 <_ZN3PCI13GetDeviceNameEtt+0xce>
  1042ee:	48 8d 05 73 c8 00 00 	lea    0xc873(%rip),%rax        # 110b68 <__rodata+0xb68>
  1042f5:	eb 59                	jmp    104350 <_ZN3PCI13GetDeviceNameEtt+0xce>
  1042f7:	48 8d 05 8d c8 00 00 	lea    0xc88d(%rip),%rax        # 110b8b <__rodata+0xb8b>
  1042fe:	eb 50                	jmp    104350 <_ZN3PCI13GetDeviceNameEtt+0xce>
  104300:	0f b7 45 e8          	movzwl -0x18(%rbp),%eax
  104304:	3d c7 1e 00 00       	cmp    $0x1ec7,%eax
  104309:	74 15                	je     104320 <_ZN3PCI13GetDeviceNameEtt+0x9e>
  10430b:	3d c7 1e 00 00       	cmp    $0x1ec7,%eax
  104310:	7f 17                	jg     104329 <_ZN3PCI13GetDeviceNameEtt+0xa7>
  104312:	3d 84 1e 00 00       	cmp    $0x1e84,%eax
  104317:	74 07                	je     104320 <_ZN3PCI13GetDeviceNameEtt+0x9e>
  104319:	3d c2 1e 00 00       	cmp    $0x1ec2,%eax
  10431e:	75 09                	jne    104329 <_ZN3PCI13GetDeviceNameEtt+0xa7>
  104320:	48 8d 05 75 c8 00 00 	lea    0xc875(%rip),%rax        # 110b9c <__rodata+0xb9c>
  104327:	eb 27                	jmp    104350 <_ZN3PCI13GetDeviceNameEtt+0xce>
  104329:	bf 04 00 00 00       	mov    $0x4,%edi
  10432e:	e8 3a f7 ff ff       	callq  103a6d <_Znam>
  104333:	48 89 45 f8          	mov    %rax,-0x8(%rbp)
  104337:	0f b7 55 e8          	movzwl -0x18(%rbp),%edx
  10433b:	48 8b 45 f8          	mov    -0x8(%rbp),%rax
  10433f:	be 78 00 00 00       	mov    $0x78,%esi
  104344:	48 89 c7             	mov    %rax,%rdi
  104347:	e8 34 81 00 00       	callq  10c480 <_Z4itoaPhjm>
  10434c:	48 8b 45 f8          	mov    -0x8(%rbp),%rax
  104350:	c9                   	leaveq 
  104351:	c3                   	retq   

0000000000104352 <_ZN3PCI33MassStorageControllerSubclassNameEh>:
  104352:	f3 0f 1e fa          	endbr64 
  104356:	55                   	push   %rbp
  104357:	48 89 e5             	mov    %rsp,%rbp
  10435a:	48 83 ec 20          	sub    $0x20,%rsp
  10435e:	89 f8                	mov    %edi,%eax
  104360:	88 45 ec             	mov    %al,-0x14(%rbp)
  104363:	0f b6 45 ec          	movzbl -0x14(%rbp),%eax
  104367:	83 f8 08             	cmp    $0x8,%eax
  10436a:	7f 34                	jg     1043a0 <_ZN3PCI33MassStorageControllerSubclassNameEh+0x4e>
  10436c:	85 c0                	test   %eax,%eax
  10436e:	0f 88 8f 00 00 00    	js     104403 <_ZN3PCI33MassStorageControllerSubclassNameEh+0xb1>
  104374:	83 f8 08             	cmp    $0x8,%eax
  104377:	0f 87 86 00 00 00    	ja     104403 <_ZN3PCI33MassStorageControllerSubclassNameEh+0xb1>
  10437d:	89 c0                	mov    %eax,%eax
  10437f:	48 8d 14 85 00 00 00 	lea    0x0(,%rax,4),%rdx
  104386:	00 
  104387:	48 8d 05 da c8 00 00 	lea    0xc8da(%rip),%rax        # 110c68 <__rodata+0xc68>
  10438e:	8b 04 02             	mov    (%rdx,%rax,1),%eax
  104391:	48 98                	cltq   
  104393:	48 8d 15 ce c8 00 00 	lea    0xc8ce(%rip),%rdx        # 110c68 <__rodata+0xc68>
  10439a:	48 01 d0             	add    %rdx,%rax
  10439d:	3e ff e0             	notrack jmpq *%rax
  1043a0:	3d 80 00 00 00       	cmp    $0x80,%eax
  1043a5:	74 53                	je     1043fa <_ZN3PCI33MassStorageControllerSubclassNameEh+0xa8>
  1043a7:	eb 5a                	jmp    104403 <_ZN3PCI33MassStorageControllerSubclassNameEh+0xb1>
  1043a9:	48 8d 05 03 c8 00 00 	lea    0xc803(%rip),%rax        # 110bb3 <__rodata+0xbb3>
  1043b0:	eb 78                	jmp    10442a <_ZN3PCI33MassStorageControllerSubclassNameEh+0xd8>
  1043b2:	48 8d 05 0e c8 00 00 	lea    0xc80e(%rip),%rax        # 110bc7 <__rodata+0xbc7>
  1043b9:	eb 6f                	jmp    10442a <_ZN3PCI33MassStorageControllerSubclassNameEh+0xd8>
  1043bb:	48 8d 05 14 c8 00 00 	lea    0xc814(%rip),%rax        # 110bd6 <__rodata+0xbd6>
  1043c2:	eb 66                	jmp    10442a <_ZN3PCI33MassStorageControllerSubclassNameEh+0xd8>
  1043c4:	48 8d 05 22 c8 00 00 	lea    0xc822(%rip),%rax        # 110bed <__rodata+0xbed>
  1043cb:	eb 5d                	jmp    10442a <_ZN3PCI33MassStorageControllerSubclassNameEh+0xd8>
  1043cd:	48 8d 05 2c c8 00 00 	lea    0xc82c(%rip),%rax        # 110c00 <__rodata+0xc00>
  1043d4:	eb 54                	jmp    10442a <_ZN3PCI33MassStorageControllerSubclassNameEh+0xd8>
  1043d6:	48 8d 05 33 c8 00 00 	lea    0xc833(%rip),%rax        # 110c10 <__rodata+0xc10>
  1043dd:	eb 4b                	jmp    10442a <_ZN3PCI33MassStorageControllerSubclassNameEh+0xd8>
  1043df:	48 8d 05 39 c8 00 00 	lea    0xc839(%rip),%rax        # 110c1f <__rodata+0xc1f>
  1043e6:	eb 42                	jmp    10442a <_ZN3PCI33MassStorageControllerSubclassNameEh+0xd8>
  1043e8:	48 8d 05 3b c8 00 00 	lea    0xc83b(%rip),%rax        # 110c2a <__rodata+0xc2a>
  1043ef:	eb 39                	jmp    10442a <_ZN3PCI33MassStorageControllerSubclassNameEh+0xd8>
  1043f1:	48 8d 05 48 c8 00 00 	lea    0xc848(%rip),%rax        # 110c40 <__rodata+0xc40>
  1043f8:	eb 30                	jmp    10442a <_ZN3PCI33MassStorageControllerSubclassNameEh+0xd8>
  1043fa:	48 8d 05 5e c8 00 00 	lea    0xc85e(%rip),%rax        # 110c5f <__rodata+0xc5f>
  104401:	eb 27                	jmp    10442a <_ZN3PCI33MassStorageControllerSubclassNameEh+0xd8>
  104403:	bf 04 00 00 00       	mov    $0x4,%edi
  104408:	e8 60 f6 ff ff       	callq  103a6d <_Znam>
  10440d:	48 89 45 f8          	mov    %rax,-0x8(%rbp)
  104411:	0f b6 55 ec          	movzbl -0x14(%rbp),%edx
  104415:	48 8b 45 f8          	mov    -0x8(%rbp),%rax
  104419:	be 78 00 00 00       	mov    $0x78,%esi
  10441e:	48 89 c7             	mov    %rax,%rdi
  104421:	e8 5a 80 00 00       	callq  10c480 <_Z4itoaPhjm>
  104426:	48 8b 45 f8          	mov    -0x8(%rbp),%rax
  10442a:	c9                   	leaveq 
  10442b:	c3                   	retq   

000000000010442c <_ZN3PCI31SerialBusControllerSubclassNameEh>:
  10442c:	f3 0f 1e fa          	endbr64 
  104430:	55                   	push   %rbp
  104431:	48 89 e5             	mov    %rsp,%rbp
  104434:	48 83 ec 20          	sub    $0x20,%rsp
  104438:	89 f8                	mov    %edi,%eax
  10443a:	88 45 ec             	mov    %al,-0x14(%rbp)
  10443d:	0f b6 45 ec          	movzbl -0x14(%rbp),%eax
  104441:	83 f8 09             	cmp    $0x9,%eax
  104444:	7f 34                	jg     10447a <_ZN3PCI31SerialBusControllerSubclassNameEh+0x4e>
  104446:	85 c0                	test   %eax,%eax
  104448:	0f 88 9b 00 00 00    	js     1044e9 <_ZN3PCI31SerialBusControllerSubclassNameEh+0xbd>
  10444e:	83 f8 09             	cmp    $0x9,%eax
  104451:	0f 87 92 00 00 00    	ja     1044e9 <_ZN3PCI31SerialBusControllerSubclassNameEh+0xbd>
  104457:	89 c0                	mov    %eax,%eax
  104459:	48 8d 14 85 00 00 00 	lea    0x0(,%rax,4),%rdx
  104460:	00 
  104461:	48 8d 05 d4 c8 00 00 	lea    0xc8d4(%rip),%rax        # 110d3c <__rodata+0xd3c>
  104468:	8b 04 02             	mov    (%rdx,%rax,1),%eax
  10446b:	48 98                	cltq   
  10446d:	48 8d 15 c8 c8 00 00 	lea    0xc8c8(%rip),%rdx        # 110d3c <__rodata+0xd3c>
  104474:	48 01 d0             	add    %rdx,%rax
  104477:	3e ff e0             	notrack jmpq *%rax
  10447a:	3d 80 00 00 00       	cmp    $0x80,%eax
  10447f:	74 5f                	je     1044e0 <_ZN3PCI31SerialBusControllerSubclassNameEh+0xb4>
  104481:	eb 66                	jmp    1044e9 <_ZN3PCI31SerialBusControllerSubclassNameEh+0xbd>
  104483:	48 8d 05 06 c8 00 00 	lea    0xc806(%rip),%rax        # 110c90 <__rodata+0xc90>
  10448a:	e9 81 00 00 00       	jmpq   104510 <_ZN3PCI31SerialBusControllerSubclassNameEh+0xe4>
  10448f:	48 8d 05 1a c8 00 00 	lea    0xc81a(%rip),%rax        # 110cb0 <__rodata+0xcb0>
  104496:	eb 78                	jmp    104510 <_ZN3PCI31SerialBusControllerSubclassNameEh+0xe4>
  104498:	48 8d 05 1c c8 00 00 	lea    0xc81c(%rip),%rax        # 110cbb <__rodata+0xcbb>
  10449f:	eb 6f                	jmp    104510 <_ZN3PCI31SerialBusControllerSubclassNameEh+0xe4>
  1044a1:	48 8d 05 17 c8 00 00 	lea    0xc817(%rip),%rax        # 110cbf <__rodata+0xcbf>
  1044a8:	eb 66                	jmp    104510 <_ZN3PCI31SerialBusControllerSubclassNameEh+0xe4>
  1044aa:	48 8d 05 1d c8 00 00 	lea    0xc81d(%rip),%rax        # 110cce <__rodata+0xcce>
  1044b1:	eb 5d                	jmp    104510 <_ZN3PCI31SerialBusControllerSubclassNameEh+0xe4>
  1044b3:	48 8d 05 22 c8 00 00 	lea    0xc822(%rip),%rax        # 110cdc <__rodata+0xcdc>
  1044ba:	eb 54                	jmp    104510 <_ZN3PCI31SerialBusControllerSubclassNameEh+0xe4>
  1044bc:	48 8d 05 1f c8 00 00 	lea    0xc81f(%rip),%rax        # 110ce2 <__rodata+0xce2>
  1044c3:	eb 4b                	jmp    104510 <_ZN3PCI31SerialBusControllerSubclassNameEh+0xe4>
  1044c5:	48 8d 05 21 c8 00 00 	lea    0xc821(%rip),%rax        # 110ced <__rodata+0xced>
  1044cc:	eb 42                	jmp    104510 <_ZN3PCI31SerialBusControllerSubclassNameEh+0xe4>
  1044ce:	48 8d 05 27 c8 00 00 	lea    0xc827(%rip),%rax        # 110cfc <__rodata+0xcfc>
  1044d5:	eb 39                	jmp    104510 <_ZN3PCI31SerialBusControllerSubclassNameEh+0xe4>
  1044d7:	48 8d 05 3b c8 00 00 	lea    0xc83b(%rip),%rax        # 110d19 <__rodata+0xd19>
  1044de:	eb 30                	jmp    104510 <_ZN3PCI31SerialBusControllerSubclassNameEh+0xe4>
  1044e0:	48 8d 05 39 c8 00 00 	lea    0xc839(%rip),%rax        # 110d20 <__rodata+0xd20>
  1044e7:	eb 27                	jmp    104510 <_ZN3PCI31SerialBusControllerSubclassNameEh+0xe4>
  1044e9:	bf 04 00 00 00       	mov    $0x4,%edi
  1044ee:	e8 7a f5 ff ff       	callq  103a6d <_Znam>
  1044f3:	48 89 45 f8          	mov    %rax,-0x8(%rbp)
  1044f7:	0f b6 55 ec          	movzbl -0x14(%rbp),%edx
  1044fb:	48 8b 45 f8          	mov    -0x8(%rbp),%rax
  1044ff:	be 78 00 00 00       	mov    $0x78,%esi
  104504:	48 89 c7             	mov    %rax,%rdi
  104507:	e8 74 7f 00 00       	callq  10c480 <_Z4itoaPhjm>
  10450c:	48 8b 45 f8          	mov    -0x8(%rbp),%rax
  104510:	c9                   	leaveq 
  104511:	c3                   	retq   

0000000000104512 <_ZN3PCI24BridgeDeviceSubclassNameEh>:
  104512:	f3 0f 1e fa          	endbr64 
  104516:	55                   	push   %rbp
  104517:	48 89 e5             	mov    %rsp,%rbp
  10451a:	48 83 ec 20          	sub    $0x20,%rsp
  10451e:	89 f8                	mov    %edi,%eax
  104520:	88 45 ec             	mov    %al,-0x14(%rbp)
  104523:	0f b6 45 ec          	movzbl -0x14(%rbp),%eax
  104527:	83 f8 0a             	cmp    $0xa,%eax
  10452a:	7f 34                	jg     104560 <_ZN3PCI24BridgeDeviceSubclassNameEh+0x4e>
  10452c:	85 c0                	test   %eax,%eax
  10452e:	0f 88 a7 00 00 00    	js     1045db <_ZN3PCI24BridgeDeviceSubclassNameEh+0xc9>
  104534:	83 f8 0a             	cmp    $0xa,%eax
  104537:	0f 87 9e 00 00 00    	ja     1045db <_ZN3PCI24BridgeDeviceSubclassNameEh+0xc9>
  10453d:	89 c0                	mov    %eax,%eax
  10453f:	48 8d 14 85 00 00 00 	lea    0x0(,%rax,4),%rdx
  104546:	00 
  104547:	48 8d 05 ae c8 00 00 	lea    0xc8ae(%rip),%rax        # 110dfc <__rodata+0xdfc>
  10454e:	8b 04 02             	mov    (%rdx,%rax,1),%eax
  104551:	48 98                	cltq   
  104553:	48 8d 15 a2 c8 00 00 	lea    0xc8a2(%rip),%rdx        # 110dfc <__rodata+0xdfc>
  10455a:	48 01 d0             	add    %rdx,%rax
  10455d:	3e ff e0             	notrack jmpq *%rax
  104560:	3d 80 00 00 00       	cmp    $0x80,%eax
  104565:	74 6b                	je     1045d2 <_ZN3PCI24BridgeDeviceSubclassNameEh+0xc0>
  104567:	eb 72                	jmp    1045db <_ZN3PCI24BridgeDeviceSubclassNameEh+0xc9>
  104569:	48 8d 05 f4 c7 00 00 	lea    0xc7f4(%rip),%rax        # 110d64 <__rodata+0xd64>
  104570:	e9 8d 00 00 00       	jmpq   104602 <_ZN3PCI24BridgeDeviceSubclassNameEh+0xf0>
  104575:	48 8d 05 f4 c7 00 00 	lea    0xc7f4(%rip),%rax        # 110d70 <__rodata+0xd70>
  10457c:	e9 81 00 00 00       	jmpq   104602 <_ZN3PCI24BridgeDeviceSubclassNameEh+0xf0>
  104581:	48 8d 05 f3 c7 00 00 	lea    0xc7f3(%rip),%rax        # 110d7b <__rodata+0xd7b>
  104588:	eb 78                	jmp    104602 <_ZN3PCI24BridgeDeviceSubclassNameEh+0xf0>
  10458a:	48 8d 05 f6 c7 00 00 	lea    0xc7f6(%rip),%rax        # 110d87 <__rodata+0xd87>
  104591:	eb 6f                	jmp    104602 <_ZN3PCI24BridgeDeviceSubclassNameEh+0xf0>
  104593:	48 8d 05 f8 c7 00 00 	lea    0xc7f8(%rip),%rax        # 110d92 <__rodata+0xd92>
  10459a:	eb 66                	jmp    104602 <_ZN3PCI24BridgeDeviceSubclassNameEh+0xf0>
  10459c:	48 8d 05 01 c8 00 00 	lea    0xc801(%rip),%rax        # 110da4 <__rodata+0xda4>
  1045a3:	eb 5d                	jmp    104602 <_ZN3PCI24BridgeDeviceSubclassNameEh+0xf0>
  1045a5:	48 8d 05 06 c8 00 00 	lea    0xc806(%rip),%rax        # 110db2 <__rodata+0xdb2>
  1045ac:	eb 54                	jmp    104602 <_ZN3PCI24BridgeDeviceSubclassNameEh+0xf0>
  1045ae:	48 8d 05 0a c8 00 00 	lea    0xc80a(%rip),%rax        # 110dbf <__rodata+0xdbf>
  1045b5:	eb 4b                	jmp    104602 <_ZN3PCI24BridgeDeviceSubclassNameEh+0xf0>
  1045b7:	48 8d 05 10 c8 00 00 	lea    0xc810(%rip),%rax        # 110dce <__rodata+0xdce>
  1045be:	eb 42                	jmp    104602 <_ZN3PCI24BridgeDeviceSubclassNameEh+0xf0>
  1045c0:	48 8d 05 cb c7 00 00 	lea    0xc7cb(%rip),%rax        # 110d92 <__rodata+0xd92>
  1045c7:	eb 39                	jmp    104602 <_ZN3PCI24BridgeDeviceSubclassNameEh+0xf0>
  1045c9:	48 8d 05 0d c8 00 00 	lea    0xc80d(%rip),%rax        # 110ddd <__rodata+0xddd>
  1045d0:	eb 30                	jmp    104602 <_ZN3PCI24BridgeDeviceSubclassNameEh+0xf0>
  1045d2:	48 8d 05 86 c6 00 00 	lea    0xc686(%rip),%rax        # 110c5f <__rodata+0xc5f>
  1045d9:	eb 27                	jmp    104602 <_ZN3PCI24BridgeDeviceSubclassNameEh+0xf0>
  1045db:	bf 04 00 00 00       	mov    $0x4,%edi
  1045e0:	e8 88 f4 ff ff       	callq  103a6d <_Znam>
  1045e5:	48 89 45 f8          	mov    %rax,-0x8(%rbp)
  1045e9:	0f b6 55 ec          	movzbl -0x14(%rbp),%edx
  1045ed:	48 8b 45 f8          	mov    -0x8(%rbp),%rax
  1045f1:	be 78 00 00 00       	mov    $0x78,%esi
  1045f6:	48 89 c7             	mov    %rax,%rdi
  1045f9:	e8 82 7e 00 00       	callq  10c480 <_Z4itoaPhjm>
  1045fe:	48 8b 45 f8          	mov    -0x8(%rbp),%rax
  104602:	c9                   	leaveq 
  104603:	c3                   	retq   

0000000000104604 <_ZN3PCI15GetSubclassNameEhh>:
  104604:	f3 0f 1e fa          	endbr64 
  104608:	55                   	push   %rbp
  104609:	48 89 e5             	mov    %rsp,%rbp
  10460c:	48 83 ec 20          	sub    $0x20,%rsp
  104610:	89 fa                	mov    %edi,%edx
  104612:	89 f0                	mov    %esi,%eax
  104614:	88 55 ec             	mov    %dl,-0x14(%rbp)
  104617:	88 45 e8             	mov    %al,-0x18(%rbp)
  10461a:	0f b6 45 ec          	movzbl -0x14(%rbp),%eax
  10461e:	83 f8 0c             	cmp    $0xc,%eax
  104621:	74 46                	je     104669 <_ZN3PCI15GetSubclassNameEhh+0x65>
  104623:	83 f8 0c             	cmp    $0xc,%eax
  104626:	7f 4e                	jg     104676 <_ZN3PCI15GetSubclassNameEhh+0x72>
  104628:	83 f8 06             	cmp    $0x6,%eax
  10462b:	74 2f                	je     10465c <_ZN3PCI15GetSubclassNameEhh+0x58>
  10462d:	83 f8 06             	cmp    $0x6,%eax
  104630:	7f 44                	jg     104676 <_ZN3PCI15GetSubclassNameEhh+0x72>
  104632:	83 f8 01             	cmp    $0x1,%eax
  104635:	74 07                	je     10463e <_ZN3PCI15GetSubclassNameEhh+0x3a>
  104637:	83 f8 03             	cmp    $0x3,%eax
  10463a:	74 0f                	je     10464b <_ZN3PCI15GetSubclassNameEhh+0x47>
  10463c:	eb 38                	jmp    104676 <_ZN3PCI15GetSubclassNameEhh+0x72>
  10463e:	0f b6 45 e8          	movzbl -0x18(%rbp),%eax
  104642:	89 c7                	mov    %eax,%edi
  104644:	e8 09 fd ff ff       	callq  104352 <_ZN3PCI33MassStorageControllerSubclassNameEh>
  104649:	eb 52                	jmp    10469d <_ZN3PCI15GetSubclassNameEhh+0x99>
  10464b:	0f b6 45 e8          	movzbl -0x18(%rbp),%eax
  10464f:	85 c0                	test   %eax,%eax
  104651:	75 09                	jne    10465c <_ZN3PCI15GetSubclassNameEhh+0x58>
  104653:	48 8d 05 ce c7 00 00 	lea    0xc7ce(%rip),%rax        # 110e28 <__rodata+0xe28>
  10465a:	eb 41                	jmp    10469d <_ZN3PCI15GetSubclassNameEhh+0x99>
  10465c:	0f b6 45 e8          	movzbl -0x18(%rbp),%eax
  104660:	89 c7                	mov    %eax,%edi
  104662:	e8 ab fe ff ff       	callq  104512 <_ZN3PCI24BridgeDeviceSubclassNameEh>
  104667:	eb 34                	jmp    10469d <_ZN3PCI15GetSubclassNameEhh+0x99>
  104669:	0f b6 45 e8          	movzbl -0x18(%rbp),%eax
  10466d:	89 c7                	mov    %eax,%edi
  10466f:	e8 b8 fd ff ff       	callq  10442c <_ZN3PCI31SerialBusControllerSubclassNameEh>
  104674:	eb 27                	jmp    10469d <_ZN3PCI15GetSubclassNameEhh+0x99>
  104676:	bf 04 00 00 00       	mov    $0x4,%edi
  10467b:	e8 ed f3 ff ff       	callq  103a6d <_Znam>
  104680:	48 89 45 f8          	mov    %rax,-0x8(%rbp)
  104684:	0f b6 55 e8          	movzbl -0x18(%rbp),%edx
  104688:	48 8b 45 f8          	mov    -0x8(%rbp),%rax
  10468c:	be 78 00 00 00       	mov    $0x78,%esi
  104691:	48 89 c7             	mov    %rax,%rdi
  104694:	e8 e7 7d 00 00       	callq  10c480 <_Z4itoaPhjm>
  104699:	48 8b 45 f8          	mov    -0x8(%rbp),%rax
  10469d:	c9                   	leaveq 
  10469e:	c3                   	retq   

000000000010469f <_ZN3PCI13GetProgIFNameEhhh>:
  10469f:	f3 0f 1e fa          	endbr64 
  1046a3:	55                   	push   %rbp
  1046a4:	48 89 e5             	mov    %rsp,%rbp
  1046a7:	48 83 ec 20          	sub    $0x20,%rsp
  1046ab:	89 f1                	mov    %esi,%ecx
  1046ad:	89 d0                	mov    %edx,%eax
  1046af:	89 fa                	mov    %edi,%edx
  1046b1:	88 55 ec             	mov    %dl,-0x14(%rbp)
  1046b4:	89 ca                	mov    %ecx,%edx
  1046b6:	88 55 e8             	mov    %dl,-0x18(%rbp)
  1046b9:	88 45 e4             	mov    %al,-0x1c(%rbp)
  1046bc:	0f b6 45 ec          	movzbl -0x14(%rbp),%eax
  1046c0:	83 f8 0c             	cmp    $0xc,%eax
  1046c3:	0f 84 8d 00 00 00    	je     104756 <_ZN3PCI13GetProgIFNameEhhh+0xb7>
  1046c9:	83 f8 0c             	cmp    $0xc,%eax
  1046cc:	0f 8f 02 01 00 00    	jg     1047d4 <_ZN3PCI13GetProgIFNameEhhh+0x135>
  1046d2:	83 f8 01             	cmp    $0x1,%eax
  1046d5:	74 0a                	je     1046e1 <_ZN3PCI13GetProgIFNameEhhh+0x42>
  1046d7:	83 f8 03             	cmp    $0x3,%eax
  1046da:	74 4b                	je     104727 <_ZN3PCI13GetProgIFNameEhhh+0x88>
  1046dc:	e9 f3 00 00 00       	jmpq   1047d4 <_ZN3PCI13GetProgIFNameEhhh+0x135>
  1046e1:	0f b6 45 e8          	movzbl -0x18(%rbp),%eax
  1046e5:	83 f8 06             	cmp    $0x6,%eax
  1046e8:	75 3d                	jne    104727 <_ZN3PCI13GetProgIFNameEhhh+0x88>
  1046ea:	0f b6 45 e4          	movzbl -0x1c(%rbp),%eax
  1046ee:	83 f8 02             	cmp    $0x2,%eax
  1046f1:	74 28                	je     10471b <_ZN3PCI13GetProgIFNameEhhh+0x7c>
  1046f3:	83 f8 02             	cmp    $0x2,%eax
  1046f6:	7f 2f                	jg     104727 <_ZN3PCI13GetProgIFNameEhhh+0x88>
  1046f8:	85 c0                	test   %eax,%eax
  1046fa:	74 07                	je     104703 <_ZN3PCI13GetProgIFNameEhhh+0x64>
  1046fc:	83 f8 01             	cmp    $0x1,%eax
  1046ff:	74 0e                	je     10470f <_ZN3PCI13GetProgIFNameEhhh+0x70>
  104701:	eb 24                	jmp    104727 <_ZN3PCI13GetProgIFNameEhhh+0x88>
  104703:	48 8d 05 38 c7 00 00 	lea    0xc738(%rip),%rax        # 110e42 <__rodata+0xe42>
  10470a:	e9 ec 00 00 00       	jmpq   1047fb <_ZN3PCI13GetProgIFNameEhhh+0x15c>
  10470f:	48 8d 05 46 c7 00 00 	lea    0xc746(%rip),%rax        # 110e5c <__rodata+0xe5c>
  104716:	e9 e0 00 00 00       	jmpq   1047fb <_ZN3PCI13GetProgIFNameEhhh+0x15c>
  10471b:	48 8d 05 43 c7 00 00 	lea    0xc743(%rip),%rax        # 110e65 <__rodata+0xe65>
  104722:	e9 d4 00 00 00       	jmpq   1047fb <_ZN3PCI13GetProgIFNameEhhh+0x15c>
  104727:	0f b6 45 e8          	movzbl -0x18(%rbp),%eax
  10472b:	85 c0                	test   %eax,%eax
  10472d:	75 27                	jne    104756 <_ZN3PCI13GetProgIFNameEhhh+0xb7>
  10472f:	0f b6 45 e4          	movzbl -0x1c(%rbp),%eax
  104733:	85 c0                	test   %eax,%eax
  104735:	74 07                	je     10473e <_ZN3PCI13GetProgIFNameEhhh+0x9f>
  104737:	83 f8 01             	cmp    $0x1,%eax
  10473a:	74 0e                	je     10474a <_ZN3PCI13GetProgIFNameEhhh+0xab>
  10473c:	eb 18                	jmp    104756 <_ZN3PCI13GetProgIFNameEhhh+0xb7>
  10473e:	48 8d 05 33 c7 00 00 	lea    0xc733(%rip),%rax        # 110e78 <__rodata+0xe78>
  104745:	e9 b1 00 00 00       	jmpq   1047fb <_ZN3PCI13GetProgIFNameEhhh+0x15c>
  10474a:	48 8d 05 36 c7 00 00 	lea    0xc736(%rip),%rax        # 110e87 <__rodata+0xe87>
  104751:	e9 a5 00 00 00       	jmpq   1047fb <_ZN3PCI13GetProgIFNameEhhh+0x15c>
  104756:	0f b6 45 e8          	movzbl -0x18(%rbp),%eax
  10475a:	83 f8 03             	cmp    $0x3,%eax
  10475d:	75 75                	jne    1047d4 <_ZN3PCI13GetProgIFNameEhhh+0x135>
  10475f:	0f b6 45 e4          	movzbl -0x1c(%rbp),%eax
  104763:	3d fe 00 00 00       	cmp    $0xfe,%eax
  104768:	74 61                	je     1047cb <_ZN3PCI13GetProgIFNameEhhh+0x12c>
  10476a:	3d fe 00 00 00       	cmp    $0xfe,%eax
  10476f:	7f 63                	jg     1047d4 <_ZN3PCI13GetProgIFNameEhhh+0x135>
  104771:	3d 80 00 00 00       	cmp    $0x80,%eax
  104776:	74 4a                	je     1047c2 <_ZN3PCI13GetProgIFNameEhhh+0x123>
  104778:	3d 80 00 00 00       	cmp    $0x80,%eax
  10477d:	7f 55                	jg     1047d4 <_ZN3PCI13GetProgIFNameEhhh+0x135>
  10477f:	83 f8 30             	cmp    $0x30,%eax
  104782:	74 35                	je     1047b9 <_ZN3PCI13GetProgIFNameEhhh+0x11a>
  104784:	83 f8 30             	cmp    $0x30,%eax
  104787:	7f 4b                	jg     1047d4 <_ZN3PCI13GetProgIFNameEhhh+0x135>
  104789:	83 f8 20             	cmp    $0x20,%eax
  10478c:	74 22                	je     1047b0 <_ZN3PCI13GetProgIFNameEhhh+0x111>
  10478e:	83 f8 20             	cmp    $0x20,%eax
  104791:	7f 41                	jg     1047d4 <_ZN3PCI13GetProgIFNameEhhh+0x135>
  104793:	85 c0                	test   %eax,%eax
  104795:	74 07                	je     10479e <_ZN3PCI13GetProgIFNameEhhh+0xff>
  104797:	83 f8 10             	cmp    $0x10,%eax
  10479a:	74 0b                	je     1047a7 <_ZN3PCI13GetProgIFNameEhhh+0x108>
  10479c:	eb 36                	jmp    1047d4 <_ZN3PCI13GetProgIFNameEhhh+0x135>
  10479e:	48 8d 05 fd c6 00 00 	lea    0xc6fd(%rip),%rax        # 110ea2 <__rodata+0xea2>
  1047a5:	eb 54                	jmp    1047fb <_ZN3PCI13GetProgIFNameEhhh+0x15c>
  1047a7:	48 8d 05 04 c7 00 00 	lea    0xc704(%rip),%rax        # 110eb2 <__rodata+0xeb2>
  1047ae:	eb 4b                	jmp    1047fb <_ZN3PCI13GetProgIFNameEhhh+0x15c>
  1047b0:	48 8d 05 0b c7 00 00 	lea    0xc70b(%rip),%rax        # 110ec2 <__rodata+0xec2>
  1047b7:	eb 42                	jmp    1047fb <_ZN3PCI13GetProgIFNameEhhh+0x15c>
  1047b9:	48 8d 05 19 c7 00 00 	lea    0xc719(%rip),%rax        # 110ed9 <__rodata+0xed9>
  1047c0:	eb 39                	jmp    1047fb <_ZN3PCI13GetProgIFNameEhhh+0x15c>
  1047c2:	48 8d 05 27 c7 00 00 	lea    0xc727(%rip),%rax        # 110ef0 <__rodata+0xef0>
  1047c9:	eb 30                	jmp    1047fb <_ZN3PCI13GetProgIFNameEhhh+0x15c>
  1047cb:	48 8d 05 2e c7 00 00 	lea    0xc72e(%rip),%rax        # 110f00 <__rodata+0xf00>
  1047d2:	eb 27                	jmp    1047fb <_ZN3PCI13GetProgIFNameEhhh+0x15c>
  1047d4:	bf 04 00 00 00       	mov    $0x4,%edi
  1047d9:	e8 8f f2 ff ff       	callq  103a6d <_Znam>
  1047de:	48 89 45 f8          	mov    %rax,-0x8(%rbp)
  1047e2:	0f b6 55 e4          	movzbl -0x1c(%rbp),%edx
  1047e6:	48 8b 45 f8          	mov    -0x8(%rbp),%rax
  1047ea:	be 78 00 00 00       	mov    $0x78,%esi
  1047ef:	48 89 c7             	mov    %rax,%rdi
  1047f2:	e8 89 7c 00 00       	callq  10c480 <_Z4itoaPhjm>
  1047f7:	48 8b 45 f8          	mov    -0x8(%rbp),%rax
  1047fb:	c9                   	leaveq 
  1047fc:	c3                   	retq   
  1047fd:	90                   	nop

00000000001047fe <_ZN4ACPI4RSDP18GetRootSystemTableEv>:
  1047fe:	f3 0f 1e fa          	endbr64 
  104802:	55                   	push   %rbp
  104803:	48 89 e5             	mov    %rsp,%rbp
  104806:	48 83 ec 18          	sub    $0x18,%rsp
  10480a:	48 89 7d e8          	mov    %rdi,-0x18(%rbp)
  10480e:	48 8b 45 e8          	mov    -0x18(%rbp),%rax
  104812:	0f b6 40 0f          	movzbl 0xf(%rax),%eax
  104816:	84 c0                	test   %al,%al
  104818:	74 0e                	je     104828 <_ZN4ACPI4RSDP18GetRootSystemTableEv+0x2a>
  10481a:	48 8b 45 e8          	mov    -0x18(%rbp),%rax
  10481e:	48 8b 40 18          	mov    0x18(%rax),%rax
  104822:	48 89 45 f8          	mov    %rax,-0x8(%rbp)
  104826:	eb 0d                	jmp    104835 <_ZN4ACPI4RSDP18GetRootSystemTableEv+0x37>
  104828:	48 8b 45 e8          	mov    -0x18(%rbp),%rax
  10482c:	8b 40 10             	mov    0x10(%rax),%eax
  10482f:	89 c0                	mov    %eax,%eax
  104831:	48 89 45 f8          	mov    %rax,-0x8(%rbp)
  104835:	48 8b 45 f8          	mov    -0x8(%rbp),%rax
  104839:	c9                   	leaveq 
  10483a:	c3                   	retq   
  10483b:	90                   	nop

000000000010483c <_ZN4ACPI4RSDP8is_validEv>:
  10483c:	f3 0f 1e fa          	endbr64 
  104840:	55                   	push   %rbp
  104841:	48 89 e5             	mov    %rsp,%rbp
  104844:	48 83 ec 28          	sub    $0x28,%rsp
  104848:	48 89 7d d8          	mov    %rdi,-0x28(%rbp)
  10484c:	48 8b 45 d8          	mov    -0x28(%rbp),%rax
  104850:	48 89 45 e0          	mov    %rax,-0x20(%rbp)
  104854:	48 8b 45 d8          	mov    -0x28(%rbp),%rax
  104858:	0f b6 40 0f          	movzbl 0xf(%rax),%eax
  10485c:	84 c0                	test   %al,%al
  10485e:	74 0a                	je     10486a <_ZN4ACPI4RSDP8is_validEv+0x2e>
  104860:	48 c7 45 f8 24 00 00 	movq   $0x24,-0x8(%rbp)
  104867:	00 
  104868:	eb 08                	jmp    104872 <_ZN4ACPI4RSDP8is_validEv+0x36>
  10486a:	48 c7 45 f8 14 00 00 	movq   $0x14,-0x8(%rbp)
  104871:	00 
  104872:	c6 45 f7 00          	movb   $0x0,-0x9(%rbp)
  104876:	48 c7 45 e8 00 00 00 	movq   $0x0,-0x18(%rbp)
  10487d:	00 
  10487e:	48 8b 45 e8          	mov    -0x18(%rbp),%rax
  104882:	48 3b 45 f8          	cmp    -0x8(%rbp),%rax
  104886:	73 18                	jae    1048a0 <_ZN4ACPI4RSDP8is_validEv+0x64>
  104888:	48 8b 55 e0          	mov    -0x20(%rbp),%rdx
  10488c:	48 8b 45 e8          	mov    -0x18(%rbp),%rax
  104890:	48 01 d0             	add    %rdx,%rax
  104893:	0f b6 00             	movzbl (%rax),%eax
  104896:	00 45 f7             	add    %al,-0x9(%rbp)
  104899:	48 83 45 e8 01       	addq   $0x1,-0x18(%rbp)
  10489e:	eb de                	jmp    10487e <_ZN4ACPI4RSDP8is_validEv+0x42>
  1048a0:	80 7d f7 00          	cmpb   $0x0,-0x9(%rbp)
  1048a4:	0f 94 c0             	sete   %al
  1048a7:	c9                   	leaveq 
  1048a8:	c3                   	retq   
  1048a9:	90                   	nop

00000000001048aa <_ZN4ACPI4RSDP13GetTableCountEv>:
  1048aa:	f3 0f 1e fa          	endbr64 
  1048ae:	55                   	push   %rbp
  1048af:	48 89 e5             	mov    %rsp,%rbp
  1048b2:	48 83 ec 18          	sub    $0x18,%rsp
  1048b6:	48 89 7d e8          	mov    %rdi,-0x18(%rbp)
  1048ba:	48 8b 45 e8          	mov    -0x18(%rbp),%rax
  1048be:	48 89 c7             	mov    %rax,%rdi
  1048c1:	e8 38 ff ff ff       	callq  1047fe <_ZN4ACPI4RSDP18GetRootSystemTableEv>
  1048c6:	48 89 45 f0          	mov    %rax,-0x10(%rbp)
  1048ca:	48 c7 45 f8 04 00 00 	movq   $0x4,-0x8(%rbp)
  1048d1:	00 
  1048d2:	48 8b 45 e8          	mov    -0x18(%rbp),%rax
  1048d6:	0f b6 40 0f          	movzbl 0xf(%rax),%eax
  1048da:	84 c0                	test   %al,%al
  1048dc:	74 08                	je     1048e6 <_ZN4ACPI4RSDP13GetTableCountEv+0x3c>
  1048de:	48 c7 45 f8 08 00 00 	movq   $0x8,-0x8(%rbp)
  1048e5:	00 
  1048e6:	48 8b 45 f0          	mov    -0x10(%rbp),%rax
  1048ea:	8b 40 04             	mov    0x4(%rax),%eax
  1048ed:	89 c0                	mov    %eax,%eax
  1048ef:	48 83 e8 24          	sub    $0x24,%rax
  1048f3:	ba 00 00 00 00       	mov    $0x0,%edx
  1048f8:	48 f7 75 f8          	divq   -0x8(%rbp)
  1048fc:	c9                   	leaveq 
  1048fd:	c3                   	retq   

00000000001048fe <_ZN4ACPI4RSDP3GetEm>:
  1048fe:	f3 0f 1e fa          	endbr64 
  104902:	55                   	push   %rbp
  104903:	48 89 e5             	mov    %rsp,%rbp
  104906:	48 83 ec 40          	sub    $0x40,%rsp
  10490a:	48 89 7d c8          	mov    %rdi,-0x38(%rbp)
  10490e:	48 89 75 c0          	mov    %rsi,-0x40(%rbp)
  104912:	48 8b 45 c8          	mov    -0x38(%rbp),%rax
  104916:	48 89 c7             	mov    %rax,%rdi
  104919:	e8 8c ff ff ff       	callq  1048aa <_ZN4ACPI4RSDP13GetTableCountEv>
  10491e:	48 89 45 f8          	mov    %rax,-0x8(%rbp)
  104922:	48 8b 45 f8          	mov    -0x8(%rbp),%rax
  104926:	48 3b 45 c0          	cmp    -0x40(%rbp),%rax
  10492a:	77 07                	ja     104933 <_ZN4ACPI4RSDP3GetEm+0x35>
  10492c:	b8 00 00 00 00       	mov    $0x0,%eax
  104931:	eb 68                	jmp    10499b <_ZN4ACPI4RSDP3GetEm+0x9d>
  104933:	48 8b 45 c8          	mov    -0x38(%rbp),%rax
  104937:	48 89 c7             	mov    %rax,%rdi
  10493a:	e8 bf fe ff ff       	callq  1047fe <_ZN4ACPI4RSDP18GetRootSystemTableEv>
  10493f:	48 89 45 f0          	mov    %rax,-0x10(%rbp)
  104943:	48 8b 45 f0          	mov    -0x10(%rbp),%rax
  104947:	48 89 45 e8          	mov    %rax,-0x18(%rbp)
  10494b:	48 83 45 e8 24       	addq   $0x24,-0x18(%rbp)
  104950:	48 8b 45 c8          	mov    -0x38(%rbp),%rax
  104954:	0f b6 40 0f          	movzbl 0xf(%rax),%eax
  104958:	84 c0                	test   %al,%al
  10495a:	74 20                	je     10497c <_ZN4ACPI4RSDP3GetEm+0x7e>
  10495c:	48 8b 45 e8          	mov    -0x18(%rbp),%rax
  104960:	48 89 45 d8          	mov    %rax,-0x28(%rbp)
  104964:	48 8b 45 c0          	mov    -0x40(%rbp),%rax
  104968:	48 8d 14 c5 00 00 00 	lea    0x0(,%rax,8),%rdx
  10496f:	00 
  104970:	48 8b 45 d8          	mov    -0x28(%rbp),%rax
  104974:	48 01 d0             	add    %rdx,%rax
  104977:	48 8b 00             	mov    (%rax),%rax
  10497a:	eb 1f                	jmp    10499b <_ZN4ACPI4RSDP3GetEm+0x9d>
  10497c:	48 8b 45 e8          	mov    -0x18(%rbp),%rax
  104980:	48 89 45 e0          	mov    %rax,-0x20(%rbp)
  104984:	48 8b 45 c0          	mov    -0x40(%rbp),%rax
  104988:	48 8d 14 85 00 00 00 	lea    0x0(,%rax,4),%rdx
  10498f:	00 
  104990:	48 8b 45 e0          	mov    -0x20(%rbp),%rax
  104994:	48 01 d0             	add    %rdx,%rax
  104997:	8b 00                	mov    (%rax),%eax
  104999:	89 c0                	mov    %eax,%eax
  10499b:	c9                   	leaveq 
  10499c:	c3                   	retq   
  10499d:	90                   	nop

000000000010499e <_ZN4ACPI4RSDP14GetSystemTableEPKc>:
  10499e:	f3 0f 1e fa          	endbr64 
  1049a2:	55                   	push   %rbp
  1049a3:	48 89 e5             	mov    %rsp,%rbp
  1049a6:	48 83 ec 50          	sub    $0x50,%rsp
  1049aa:	48 89 7d b8          	mov    %rdi,-0x48(%rbp)
  1049ae:	48 89 75 b0          	mov    %rsi,-0x50(%rbp)
  1049b2:	48 8b 45 b8          	mov    -0x48(%rbp),%rax
  1049b6:	48 89 c7             	mov    %rax,%rdi
  1049b9:	e8 40 fe ff ff       	callq  1047fe <_ZN4ACPI4RSDP18GetRootSystemTableEv>
  1049be:	48 89 45 e0          	mov    %rax,-0x20(%rbp)
  1049c2:	48 8b 45 b8          	mov    -0x48(%rbp),%rax
  1049c6:	48 89 c7             	mov    %rax,%rdi
  1049c9:	e8 dc fe ff ff       	callq  1048aa <_ZN4ACPI4RSDP13GetTableCountEv>
  1049ce:	48 89 45 d8          	mov    %rax,-0x28(%rbp)
  1049d2:	48 c7 45 f8 00 00 00 	movq   $0x0,-0x8(%rbp)
  1049d9:	00 
  1049da:	48 8b 45 f8          	mov    -0x8(%rbp),%rax
  1049de:	48 3b 45 d8          	cmp    -0x28(%rbp),%rax
  1049e2:	0f 83 b3 00 00 00    	jae    104a9b <_ZN4ACPI4RSDP14GetSystemTableEPKc+0xfd>
  1049e8:	48 8b 45 e0          	mov    -0x20(%rbp),%rax
  1049ec:	48 89 45 d0          	mov    %rax,-0x30(%rbp)
  1049f0:	48 83 45 d0 24       	addq   $0x24,-0x30(%rbp)
  1049f5:	48 c7 45 f0 00 00 00 	movq   $0x0,-0x10(%rbp)
  1049fc:	00 
  1049fd:	48 8b 45 b8          	mov    -0x48(%rbp),%rax
  104a01:	0f b6 40 0f          	movzbl 0xf(%rax),%eax
  104a05:	84 c0                	test   %al,%al
  104a07:	74 24                	je     104a2d <_ZN4ACPI4RSDP14GetSystemTableEPKc+0x8f>
  104a09:	48 8b 45 d0          	mov    -0x30(%rbp),%rax
  104a0d:	48 89 45 c0          	mov    %rax,-0x40(%rbp)
  104a11:	48 8b 45 f8          	mov    -0x8(%rbp),%rax
  104a15:	48 8d 14 c5 00 00 00 	lea    0x0(,%rax,8),%rdx
  104a1c:	00 
  104a1d:	48 8b 45 c0          	mov    -0x40(%rbp),%rax
  104a21:	48 01 d0             	add    %rdx,%rax
  104a24:	48 8b 00             	mov    (%rax),%rax
  104a27:	48 89 45 f0          	mov    %rax,-0x10(%rbp)
  104a2b:	eb 23                	jmp    104a50 <_ZN4ACPI4RSDP14GetSystemTableEPKc+0xb2>
  104a2d:	48 8b 45 d0          	mov    -0x30(%rbp),%rax
  104a31:	48 89 45 c8          	mov    %rax,-0x38(%rbp)
  104a35:	48 8b 45 f8          	mov    -0x8(%rbp),%rax
  104a39:	48 8d 14 85 00 00 00 	lea    0x0(,%rax,4),%rdx
  104a40:	00 
  104a41:	48 8b 45 c8          	mov    -0x38(%rbp),%rax
  104a45:	48 01 d0             	add    %rdx,%rax
  104a48:	8b 00                	mov    (%rax),%eax
  104a4a:	89 c0                	mov    %eax,%eax
  104a4c:	48 89 45 f0          	mov    %rax,-0x10(%rbp)
  104a50:	c7 45 ec 00 00 00 00 	movl   $0x0,-0x14(%rbp)
  104a57:	83 7d ec 03          	cmpl   $0x3,-0x14(%rbp)
  104a5b:	7f 34                	jg     104a91 <_ZN4ACPI4RSDP14GetSystemTableEPKc+0xf3>
  104a5d:	48 8b 55 f0          	mov    -0x10(%rbp),%rdx
  104a61:	8b 45 ec             	mov    -0x14(%rbp),%eax
  104a64:	48 98                	cltq   
  104a66:	0f b6 14 02          	movzbl (%rdx,%rax,1),%edx
  104a6a:	8b 45 ec             	mov    -0x14(%rbp),%eax
  104a6d:	48 63 c8             	movslq %eax,%rcx
  104a70:	48 8b 45 b0          	mov    -0x50(%rbp),%rax
  104a74:	48 01 c8             	add    %rcx,%rax
  104a77:	0f b6 00             	movzbl (%rax),%eax
  104a7a:	38 c2                	cmp    %al,%dl
  104a7c:	75 12                	jne    104a90 <_ZN4ACPI4RSDP14GetSystemTableEPKc+0xf2>
  104a7e:	83 7d ec 03          	cmpl   $0x3,-0x14(%rbp)
  104a82:	75 06                	jne    104a8a <_ZN4ACPI4RSDP14GetSystemTableEPKc+0xec>
  104a84:	48 8b 45 f0          	mov    -0x10(%rbp),%rax
  104a88:	eb 16                	jmp    104aa0 <_ZN4ACPI4RSDP14GetSystemTableEPKc+0x102>
  104a8a:	83 45 ec 01          	addl   $0x1,-0x14(%rbp)
  104a8e:	eb c7                	jmp    104a57 <_ZN4ACPI4RSDP14GetSystemTableEPKc+0xb9>
  104a90:	90                   	nop
  104a91:	48 83 45 f8 01       	addq   $0x1,-0x8(%rbp)
  104a96:	e9 3f ff ff ff       	jmpq   1049da <_ZN4ACPI4RSDP14GetSystemTableEPKc+0x3c>
  104a9b:	b8 00 00 00 00       	mov    $0x0,%eax
  104aa0:	c9                   	leaveq 
  104aa1:	c3                   	retq   

0000000000104aa2 <_ZN4ACPI4FADT8is_validEv>:
  104aa2:	f3 0f 1e fa          	endbr64 
  104aa6:	55                   	push   %rbp
  104aa7:	48 89 e5             	mov    %rsp,%rbp
  104aaa:	48 83 ec 28          	sub    $0x28,%rsp
  104aae:	48 89 7d d8          	mov    %rdi,-0x28(%rbp)
  104ab2:	48 8b 45 d8          	mov    -0x28(%rbp),%rax
  104ab6:	48 89 45 e8          	mov    %rax,-0x18(%rbp)
  104aba:	48 c7 45 e0 f4 00 00 	movq   $0xf4,-0x20(%rbp)
  104ac1:	00 
  104ac2:	c6 45 ff 00          	movb   $0x0,-0x1(%rbp)
  104ac6:	48 c7 45 f0 00 00 00 	movq   $0x0,-0x10(%rbp)
  104acd:	00 
  104ace:	48 8b 45 f0          	mov    -0x10(%rbp),%rax
  104ad2:	48 3b 45 e0          	cmp    -0x20(%rbp),%rax
  104ad6:	73 18                	jae    104af0 <_ZN4ACPI4FADT8is_validEv+0x4e>
  104ad8:	48 8b 55 e8          	mov    -0x18(%rbp),%rdx
  104adc:	48 8b 45 f0          	mov    -0x10(%rbp),%rax
  104ae0:	48 01 d0             	add    %rdx,%rax
  104ae3:	0f b6 00             	movzbl (%rax),%eax
  104ae6:	00 45 ff             	add    %al,-0x1(%rbp)
  104ae9:	48 83 45 f0 01       	addq   $0x1,-0x10(%rbp)
  104aee:	eb de                	jmp    104ace <_ZN4ACPI4FADT8is_validEv+0x2c>
  104af0:	80 7d ff 00          	cmpb   $0x0,-0x1(%rbp)
  104af4:	0f 94 c0             	sete   %al
  104af7:	c9                   	leaveq 
  104af8:	c3                   	retq   
  104af9:	90                   	nop

0000000000104afa <_ZN4ACPI4FADT7GetDSDTEv>:
  104afa:	f3 0f 1e fa          	endbr64 
  104afe:	55                   	push   %rbp
  104aff:	48 89 e5             	mov    %rsp,%rbp
  104b02:	48 83 ec 08          	sub    $0x8,%rsp
  104b06:	48 89 7d f8          	mov    %rdi,-0x8(%rbp)
  104b0a:	48 8b 45 f8          	mov    -0x8(%rbp),%rax
  104b0e:	8b 40 28             	mov    0x28(%rax),%eax
  104b11:	85 c0                	test   %eax,%eax
  104b13:	74 0b                	je     104b20 <_ZN4ACPI4FADT7GetDSDTEv+0x26>
  104b15:	48 8b 45 f8          	mov    -0x8(%rbp),%rax
  104b19:	8b 40 28             	mov    0x28(%rax),%eax
  104b1c:	89 c0                	mov    %eax,%eax
  104b1e:	eb 0b                	jmp    104b2b <_ZN4ACPI4FADT7GetDSDTEv+0x31>
  104b20:	48 8b 45 f8          	mov    -0x8(%rbp),%rax
  104b24:	48 8b 80 8c 00 00 00 	mov    0x8c(%rax),%rax
  104b2b:	c9                   	leaveq 
  104b2c:	c3                   	retq   
  104b2d:	90                   	nop

0000000000104b2e <_ZN4ACPI4FADT10ACPIEnableEv>:
  104b2e:	f3 0f 1e fa          	endbr64 
  104b32:	55                   	push   %rbp
  104b33:	48 89 e5             	mov    %rsp,%rbp
  104b36:	48 83 ec 20          	sub    $0x20,%rsp
  104b3a:	48 89 7d e8          	mov    %rdi,-0x18(%rbp)
  104b3e:	48 8b 45 e8          	mov    -0x18(%rbp),%rax
  104b42:	48 89 c7             	mov    %rax,%rdi
  104b45:	e8 b0 ff ff ff       	callq  104afa <_ZN4ACPI4FADT7GetDSDTEv>
  104b4a:	48 89 45 f0          	mov    %rax,-0x10(%rbp)
  104b4e:	48 8b 45 f0          	mov    -0x10(%rbp),%rax
  104b52:	48 89 c7             	mov    %rax,%rdi
  104b55:	e8 30 02 00 00       	callq  104d8a <_ZN4ACPI4DSDT13Get_S5_ObjectEv>
  104b5a:	48 8b 45 e8          	mov    -0x18(%rbp),%rax
  104b5e:	8b 40 30             	mov    0x30(%rax),%eax
  104b61:	89 c0                	mov    %eax,%eax
  104b63:	48 89 05 2e 21 01 00 	mov    %rax,0x1212e(%rip)        # 116c98 <_ZN4ACPI7SMI_CMDE>
  104b6a:	48 8b 45 e8          	mov    -0x18(%rbp),%rax
  104b6e:	0f b6 40 34          	movzbl 0x34(%rax),%eax
  104b72:	88 05 28 21 01 00    	mov    %al,0x12128(%rip)        # 116ca0 <_ZN4ACPI11ACPI_ENABLEE>
  104b78:	48 8b 45 e8          	mov    -0x18(%rbp),%rax
  104b7c:	0f b6 40 35          	movzbl 0x35(%rax),%eax
  104b80:	88 05 1b 21 01 00    	mov    %al,0x1211b(%rip)        # 116ca1 <_ZN4ACPI12ACPI_DISABLEE>
  104b86:	48 8b 45 e8          	mov    -0x18(%rbp),%rax
  104b8a:	8b 40 40             	mov    0x40(%rax),%eax
  104b8d:	89 c0                	mov    %eax,%eax
  104b8f:	48 89 05 12 21 01 00 	mov    %rax,0x12112(%rip)        # 116ca8 <_ZN4ACPI8PM1a_CNTE>
  104b96:	48 8b 45 e8          	mov    -0x18(%rbp),%rax
  104b9a:	8b 40 44             	mov    0x44(%rax),%eax
  104b9d:	89 c0                	mov    %eax,%eax
  104b9f:	48 89 05 0a 21 01 00 	mov    %rax,0x1210a(%rip)        # 116cb0 <_ZN4ACPI8PM1b_CNTE>
  104ba6:	48 8b 45 e8          	mov    -0x18(%rbp),%rax
  104baa:	0f b6 40 59          	movzbl 0x59(%rax),%eax
  104bae:	88 05 04 21 01 00    	mov    %al,0x12104(%rip)        # 116cb8 <_ZN4ACPI11PM1_CNT_LENE>
  104bb4:	66 c7 05 fd 20 01 00 	movw   $0x2000,0x120fd(%rip)        # 116cba <_ZN4ACPI6SLP_ENE>
  104bbb:	00 20 
  104bbd:	66 c7 05 f6 20 01 00 	movw   $0x1,0x120f6(%rip)        # 116cbc <_ZN4ACPI6SCI_ENE>
  104bc4:	01 00 
  104bc6:	48 8b 05 db 20 01 00 	mov    0x120db(%rip),%rax        # 116ca8 <_ZN4ACPI8PM1a_CNTE>
  104bcd:	0f b7 c0             	movzwl %ax,%eax
  104bd0:	89 c7                	mov    %eax,%edi
  104bd2:	e8 7c cc ff ff       	callq  101853 <_Z5__inwt>
  104bd7:	0f b7 15 de 20 01 00 	movzwl 0x120de(%rip),%edx        # 116cbc <_ZN4ACPI6SCI_ENE>
  104bde:	21 d0                	and    %edx,%eax
  104be0:	66 85 c0             	test   %ax,%ax
  104be3:	0f 94 c0             	sete   %al
  104be6:	84 c0                	test   %al,%al
  104be8:	0f 84 0d 01 00 00    	je     104cfb <_ZN4ACPI4FADT10ACPIEnableEv+0x1cd>
  104bee:	48 8b 05 a3 20 01 00 	mov    0x120a3(%rip),%rax        # 116c98 <_ZN4ACPI7SMI_CMDE>
  104bf5:	48 85 c0             	test   %rax,%rax
  104bf8:	0f 84 ec 00 00 00    	je     104cea <_ZN4ACPI4FADT10ACPIEnableEv+0x1bc>
  104bfe:	0f b6 05 9b 20 01 00 	movzbl 0x1209b(%rip),%eax        # 116ca0 <_ZN4ACPI11ACPI_ENABLEE>
  104c05:	84 c0                	test   %al,%al
  104c07:	0f 84 dd 00 00 00    	je     104cea <_ZN4ACPI4FADT10ACPIEnableEv+0x1bc>
  104c0d:	0f b6 05 8c 20 01 00 	movzbl 0x1208c(%rip),%eax        # 116ca0 <_ZN4ACPI11ACPI_ENABLEE>
  104c14:	0f b6 d0             	movzbl %al,%edx
  104c17:	48 8b 05 7a 20 01 00 	mov    0x1207a(%rip),%rax        # 116c98 <_ZN4ACPI7SMI_CMDE>
  104c1e:	0f b6 c0             	movzbl %al,%eax
  104c21:	89 d6                	mov    %edx,%esi
  104c23:	89 c7                	mov    %eax,%edi
  104c25:	e8 6a cc ff ff       	callq  101894 <_Z6__outbth>
  104c2a:	c7 45 fc 00 00 00 00 	movl   $0x0,-0x4(%rbp)
  104c31:	81 7d fc 2b 01 00 00 	cmpl   $0x12b,-0x4(%rbp)
  104c38:	7f 36                	jg     104c70 <_ZN4ACPI4FADT10ACPIEnableEv+0x142>
  104c3a:	48 8b 05 67 20 01 00 	mov    0x12067(%rip),%rax        # 116ca8 <_ZN4ACPI8PM1a_CNTE>
  104c41:	0f b7 c0             	movzwl %ax,%eax
  104c44:	89 c7                	mov    %eax,%edi
  104c46:	e8 08 cc ff ff       	callq  101853 <_Z5__inwt>
  104c4b:	0f b7 15 6a 20 01 00 	movzwl 0x1206a(%rip),%edx        # 116cbc <_ZN4ACPI6SCI_ENE>
  104c52:	21 d0                	and    %edx,%eax
  104c54:	66 83 f8 01          	cmp    $0x1,%ax
  104c58:	0f 94 c0             	sete   %al
  104c5b:	84 c0                	test   %al,%al
  104c5d:	75 10                	jne    104c6f <_ZN4ACPI4FADT10ACPIEnableEv+0x141>
  104c5f:	bf 0a 00 00 00       	mov    $0xa,%edi
  104c64:	e8 70 cf ff ff       	callq  101bd9 <_Z8SleepForj>
  104c69:	83 45 fc 01          	addl   $0x1,-0x4(%rbp)
  104c6d:	eb c2                	jmp    104c31 <_ZN4ACPI4FADT10ACPIEnableEv+0x103>
  104c6f:	90                   	nop
  104c70:	48 8b 05 39 20 01 00 	mov    0x12039(%rip),%rax        # 116cb0 <_ZN4ACPI8PM1b_CNTE>
  104c77:	48 85 c0             	test   %rax,%rax
  104c7a:	74 3f                	je     104cbb <_ZN4ACPI4FADT10ACPIEnableEv+0x18d>
  104c7c:	81 7d fc 2b 01 00 00 	cmpl   $0x12b,-0x4(%rbp)
  104c83:	7f 36                	jg     104cbb <_ZN4ACPI4FADT10ACPIEnableEv+0x18d>
  104c85:	48 8b 05 24 20 01 00 	mov    0x12024(%rip),%rax        # 116cb0 <_ZN4ACPI8PM1b_CNTE>
  104c8c:	0f b7 c0             	movzwl %ax,%eax
  104c8f:	89 c7                	mov    %eax,%edi
  104c91:	e8 bd cb ff ff       	callq  101853 <_Z5__inwt>
  104c96:	0f b7 15 1f 20 01 00 	movzwl 0x1201f(%rip),%edx        # 116cbc <_ZN4ACPI6SCI_ENE>
  104c9d:	21 d0                	and    %edx,%eax
  104c9f:	66 83 f8 01          	cmp    $0x1,%ax
  104ca3:	0f 94 c0             	sete   %al
  104ca6:	84 c0                	test   %al,%al
  104ca8:	75 10                	jne    104cba <_ZN4ACPI4FADT10ACPIEnableEv+0x18c>
  104caa:	bf 0a 00 00 00       	mov    $0xa,%edi
  104caf:	e8 25 cf ff ff       	callq  101bd9 <_Z8SleepForj>
  104cb4:	83 45 fc 01          	addl   $0x1,-0x4(%rbp)
  104cb8:	eb c2                	jmp    104c7c <_ZN4ACPI4FADT10ACPIEnableEv+0x14e>
  104cba:	90                   	nop
  104cbb:	81 7d fc 2b 01 00 00 	cmpl   $0x12b,-0x4(%rbp)
  104cc2:	7f 13                	jg     104cd7 <_ZN4ACPI4FADT10ACPIEnableEv+0x1a9>
  104cc4:	48 8d 3d 58 c2 00 00 	lea    0xc258(%rip),%rdi        # 110f23 <__rodata+0xf23>
  104ccb:	b8 00 00 00 00       	mov    $0x0,%eax
  104cd0:	e8 57 7d 00 00       	callq  10ca2c <_Z7kprintfPKcz>
  104cd5:	eb 24                	jmp    104cfb <_ZN4ACPI4FADT10ACPIEnableEv+0x1cd>
  104cd7:	48 8d 3d 53 c2 00 00 	lea    0xc253(%rip),%rdi        # 110f31 <__rodata+0xf31>
  104cde:	b8 00 00 00 00       	mov    $0x0,%eax
  104ce3:	e8 44 7d 00 00       	callq  10ca2c <_Z7kprintfPKcz>
  104ce8:	eb 11                	jmp    104cfb <_ZN4ACPI4FADT10ACPIEnableEv+0x1cd>
  104cea:	48 8d 3d 56 c2 00 00 	lea    0xc256(%rip),%rdi        # 110f47 <__rodata+0xf47>
  104cf1:	b8 00 00 00 00       	mov    $0x0,%eax
  104cf6:	e8 31 7d 00 00       	callq  10ca2c <_Z7kprintfPKcz>
  104cfb:	c9                   	leaveq 
  104cfc:	c3                   	retq   
  104cfd:	90                   	nop

0000000000104cfe <_ZN4ACPI4FADT8ShutdownEv>:
  104cfe:	f3 0f 1e fa          	endbr64 
  104d02:	55                   	push   %rbp
  104d03:	48 89 e5             	mov    %rsp,%rbp
  104d06:	48 83 ec 10          	sub    $0x10,%rsp
  104d0a:	48 89 7d f8          	mov    %rdi,-0x8(%rbp)
  104d0e:	0f b7 05 a7 1f 01 00 	movzwl 0x11fa7(%rip),%eax        # 116cbc <_ZN4ACPI6SCI_ENE>
  104d15:	66 83 f8 01          	cmp    $0x1,%ax
  104d19:	75 6b                	jne    104d86 <_ZN4ACPI4FADT8ShutdownEv+0x88>
  104d1b:	0f b7 15 9c 1f 01 00 	movzwl 0x11f9c(%rip),%edx        # 116cbe <_ZN4ACPI8SLP_TYPaE>
  104d22:	0f b7 05 91 1f 01 00 	movzwl 0x11f91(%rip),%eax        # 116cba <_ZN4ACPI6SLP_ENE>
  104d29:	09 d0                	or     %edx,%eax
  104d2b:	0f b7 d0             	movzwl %ax,%edx
  104d2e:	48 8b 05 73 1f 01 00 	mov    0x11f73(%rip),%rax        # 116ca8 <_ZN4ACPI8PM1a_CNTE>
  104d35:	0f b7 c0             	movzwl %ax,%eax
  104d38:	89 d6                	mov    %edx,%esi
  104d3a:	89 c7                	mov    %eax,%edi
  104d3c:	e8 78 cb ff ff       	callq  1018b9 <_Z6__outwtt>
  104d41:	48 8b 05 68 1f 01 00 	mov    0x11f68(%rip),%rax        # 116cb0 <_ZN4ACPI8PM1b_CNTE>
  104d48:	48 85 c0             	test   %rax,%rax
  104d4b:	74 26                	je     104d73 <_ZN4ACPI4FADT8ShutdownEv+0x75>
  104d4d:	0f b7 15 6c 1f 01 00 	movzwl 0x11f6c(%rip),%edx        # 116cc0 <_ZN4ACPI8SLP_TYPbE>
  104d54:	0f b7 05 5f 1f 01 00 	movzwl 0x11f5f(%rip),%eax        # 116cba <_ZN4ACPI6SLP_ENE>
  104d5b:	09 d0                	or     %edx,%eax
  104d5d:	0f b7 d0             	movzwl %ax,%edx
  104d60:	48 8b 05 49 1f 01 00 	mov    0x11f49(%rip),%rax        # 116cb0 <_ZN4ACPI8PM1b_CNTE>
  104d67:	0f b7 c0             	movzwl %ax,%eax
  104d6a:	89 d6                	mov    %edx,%esi
  104d6c:	89 c7                	mov    %eax,%edi
  104d6e:	e8 46 cb ff ff       	callq  1018b9 <_Z6__outwtt>
  104d73:	48 8d 3d ea c1 00 00 	lea    0xc1ea(%rip),%rdi        # 110f64 <__rodata+0xf64>
  104d7a:	b8 00 00 00 00       	mov    $0x0,%eax
  104d7f:	e8 a8 7c 00 00       	callq  10ca2c <_Z7kprintfPKcz>
  104d84:	eb 01                	jmp    104d87 <_ZN4ACPI4FADT8ShutdownEv+0x89>
  104d86:	90                   	nop
  104d87:	c9                   	leaveq 
  104d88:	c3                   	retq   
  104d89:	90                   	nop

0000000000104d8a <_ZN4ACPI4DSDT13Get_S5_ObjectEv>:
  104d8a:	f3 0f 1e fa          	endbr64 
  104d8e:	55                   	push   %rbp
  104d8f:	48 89 e5             	mov    %rsp,%rbp
  104d92:	48 83 ec 20          	sub    $0x20,%rsp
  104d96:	48 89 7d e8          	mov    %rdi,-0x18(%rbp)
  104d9a:	0f b7 05 1d 1f 01 00 	movzwl 0x11f1d(%rip),%eax        # 116cbe <_ZN4ACPI8SLP_TYPaE>
  104da1:	66 85 c0             	test   %ax,%ax
  104da4:	74 10                	je     104db6 <_ZN4ACPI4DSDT13Get_S5_ObjectEv+0x2c>
  104da6:	0f b7 05 13 1f 01 00 	movzwl 0x11f13(%rip),%eax        # 116cc0 <_ZN4ACPI8SLP_TYPbE>
  104dad:	66 85 c0             	test   %ax,%ax
  104db0:	0f 85 0a 01 00 00    	jne    104ec0 <_ZN4ACPI4DSDT13Get_S5_ObjectEv+0x136>
  104db6:	48 8b 45 e8          	mov    -0x18(%rbp),%rax
  104dba:	8b 40 04             	mov    0x4(%rax),%eax
  104dbd:	83 e8 24             	sub    $0x24,%eax
  104dc0:	89 45 fc             	mov    %eax,-0x4(%rbp)
  104dc3:	48 8b 45 e8          	mov    -0x18(%rbp),%rax
  104dc7:	48 83 c0 24          	add    $0x24,%rax
  104dcb:	48 89 45 f0          	mov    %rax,-0x10(%rbp)
  104dcf:	8b 45 fc             	mov    -0x4(%rbp),%eax
  104dd2:	8d 50 ff             	lea    -0x1(%rax),%edx
  104dd5:	89 55 fc             	mov    %edx,-0x4(%rbp)
  104dd8:	85 c0                	test   %eax,%eax
  104dda:	0f 95 c0             	setne  %al
  104ddd:	84 c0                	test   %al,%al
  104ddf:	74 29                	je     104e0a <_ZN4ACPI4DSDT13Get_S5_ObjectEv+0x80>
  104de1:	48 8b 45 f0          	mov    -0x10(%rbp),%rax
  104de5:	ba 04 00 00 00       	mov    $0x4,%edx
  104dea:	48 8d 35 8a c1 00 00 	lea    0xc18a(%rip),%rsi        # 110f7b <__rodata+0xf7b>
  104df1:	48 89 c7             	mov    %rax,%rdi
  104df4:	e8 b1 80 00 00       	callq  10ceaa <_Z6memcmpPvS_m>
  104df9:	85 c0                	test   %eax,%eax
  104dfb:	0f 94 c0             	sete   %al
  104dfe:	84 c0                	test   %al,%al
  104e00:	75 07                	jne    104e09 <_ZN4ACPI4DSDT13Get_S5_ObjectEv+0x7f>
  104e02:	48 83 45 f0 01       	addq   $0x1,-0x10(%rbp)
  104e07:	eb c6                	jmp    104dcf <_ZN4ACPI4DSDT13Get_S5_ObjectEv+0x45>
  104e09:	90                   	nop
  104e0a:	83 7d fc 00          	cmpl   $0x0,-0x4(%rbp)
  104e0e:	0f 84 ad 00 00 00    	je     104ec1 <_ZN4ACPI4DSDT13Get_S5_ObjectEv+0x137>
  104e14:	48 8b 45 f0          	mov    -0x10(%rbp),%rax
  104e18:	48 83 e8 01          	sub    $0x1,%rax
  104e1c:	0f b6 00             	movzbl (%rax),%eax
  104e1f:	3c 08                	cmp    $0x8,%al
  104e21:	74 22                	je     104e45 <_ZN4ACPI4DSDT13Get_S5_ObjectEv+0xbb>
  104e23:	48 8b 45 f0          	mov    -0x10(%rbp),%rax
  104e27:	48 83 e8 02          	sub    $0x2,%rax
  104e2b:	0f b6 00             	movzbl (%rax),%eax
  104e2e:	3c 08                	cmp    $0x8,%al
  104e30:	0f 85 8b 00 00 00    	jne    104ec1 <_ZN4ACPI4DSDT13Get_S5_ObjectEv+0x137>
  104e36:	48 8b 45 f0          	mov    -0x10(%rbp),%rax
  104e3a:	48 83 e8 01          	sub    $0x1,%rax
  104e3e:	0f b6 00             	movzbl (%rax),%eax
  104e41:	3c 5c                	cmp    $0x5c,%al
  104e43:	75 7c                	jne    104ec1 <_ZN4ACPI4DSDT13Get_S5_ObjectEv+0x137>
  104e45:	48 8b 45 f0          	mov    -0x10(%rbp),%rax
  104e49:	48 83 c0 04          	add    $0x4,%rax
  104e4d:	0f b6 00             	movzbl (%rax),%eax
  104e50:	3c 12                	cmp    $0x12,%al
  104e52:	75 6d                	jne    104ec1 <_ZN4ACPI4DSDT13Get_S5_ObjectEv+0x137>
  104e54:	48 83 45 f0 05       	addq   $0x5,-0x10(%rbp)
  104e59:	48 8b 45 f0          	mov    -0x10(%rbp),%rax
  104e5d:	0f b6 00             	movzbl (%rax),%eax
  104e60:	0f be c0             	movsbl %al,%eax
  104e63:	c1 f8 06             	sar    $0x6,%eax
  104e66:	48 98                	cltq   
  104e68:	83 e0 03             	and    $0x3,%eax
  104e6b:	48 83 c0 02          	add    $0x2,%rax
  104e6f:	48 01 45 f0          	add    %rax,-0x10(%rbp)
  104e73:	48 8b 45 f0          	mov    -0x10(%rbp),%rax
  104e77:	0f b6 00             	movzbl (%rax),%eax
  104e7a:	3c 0a                	cmp    $0xa,%al
  104e7c:	75 05                	jne    104e83 <_ZN4ACPI4DSDT13Get_S5_ObjectEv+0xf9>
  104e7e:	48 83 45 f0 01       	addq   $0x1,-0x10(%rbp)
  104e83:	48 8b 45 f0          	mov    -0x10(%rbp),%rax
  104e87:	0f b6 00             	movzbl (%rax),%eax
  104e8a:	66 98                	cbtw   
  104e8c:	c1 e0 0a             	shl    $0xa,%eax
  104e8f:	66 89 05 28 1e 01 00 	mov    %ax,0x11e28(%rip)        # 116cbe <_ZN4ACPI8SLP_TYPaE>
  104e96:	48 83 45 f0 01       	addq   $0x1,-0x10(%rbp)
  104e9b:	48 8b 45 f0          	mov    -0x10(%rbp),%rax
  104e9f:	0f b6 00             	movzbl (%rax),%eax
  104ea2:	3c 0a                	cmp    $0xa,%al
  104ea4:	75 05                	jne    104eab <_ZN4ACPI4DSDT13Get_S5_ObjectEv+0x121>
  104ea6:	48 83 45 f0 01       	addq   $0x1,-0x10(%rbp)
  104eab:	48 8b 45 f0          	mov    -0x10(%rbp),%rax
  104eaf:	0f b6 00             	movzbl (%rax),%eax
  104eb2:	66 98                	cbtw   
  104eb4:	c1 e0 0a             	shl    $0xa,%eax
  104eb7:	66 89 05 02 1e 01 00 	mov    %ax,0x11e02(%rip)        # 116cc0 <_ZN4ACPI8SLP_TYPbE>
  104ebe:	eb 01                	jmp    104ec1 <_ZN4ACPI4DSDT13Get_S5_ObjectEv+0x137>
  104ec0:	90                   	nop
  104ec1:	c9                   	leaveq 
  104ec2:	c3                   	retq   
  104ec3:	90                   	nop

0000000000104ec4 <_ZN11Framebuffer8PutPixelEjjj>:
  104ec4:	f3 0f 1e fa          	endbr64 
  104ec8:	55                   	push   %rbp
  104ec9:	48 89 e5             	mov    %rsp,%rbp
  104ecc:	48 83 ec 18          	sub    $0x18,%rsp
  104ed0:	48 89 7d f8          	mov    %rdi,-0x8(%rbp)
  104ed4:	89 75 f4             	mov    %esi,-0xc(%rbp)
  104ed7:	89 55 f0             	mov    %edx,-0x10(%rbp)
  104eda:	89 4d ec             	mov    %ecx,-0x14(%rbp)
  104edd:	48 8b 45 f8          	mov    -0x8(%rbp),%rax
  104ee1:	48 8b 10             	mov    (%rax),%rdx
  104ee4:	48 8b 45 f8          	mov    -0x8(%rbp),%rax
  104ee8:	8b 40 08             	mov    0x8(%rax),%eax
  104eeb:	0f af 45 f0          	imul   -0x10(%rbp),%eax
  104eef:	89 c1                	mov    %eax,%ecx
  104ef1:	8b 45 f4             	mov    -0xc(%rbp),%eax
  104ef4:	01 c8                	add    %ecx,%eax
  104ef6:	89 c0                	mov    %eax,%eax
  104ef8:	48 c1 e0 02          	shl    $0x2,%rax
  104efc:	48 01 c2             	add    %rax,%rdx
  104eff:	8b 45 ec             	mov    -0x14(%rbp),%eax
  104f02:	89 02                	mov    %eax,(%rdx)
  104f04:	90                   	nop
  104f05:	c9                   	leaveq 
  104f06:	c3                   	retq   
  104f07:	90                   	nop

0000000000104f08 <_ZN11Framebuffer8GetPixelEjj>:
  104f08:	f3 0f 1e fa          	endbr64 
  104f0c:	55                   	push   %rbp
  104f0d:	48 89 e5             	mov    %rsp,%rbp
  104f10:	48 83 ec 10          	sub    $0x10,%rsp
  104f14:	48 89 7d f8          	mov    %rdi,-0x8(%rbp)
  104f18:	89 75 f4             	mov    %esi,-0xc(%rbp)
  104f1b:	89 55 f0             	mov    %edx,-0x10(%rbp)
  104f1e:	48 8b 45 f8          	mov    -0x8(%rbp),%rax
  104f22:	48 8b 10             	mov    (%rax),%rdx
  104f25:	48 8b 45 f8          	mov    -0x8(%rbp),%rax
  104f29:	8b 40 08             	mov    0x8(%rax),%eax
  104f2c:	0f af 45 f0          	imul   -0x10(%rbp),%eax
  104f30:	89 c1                	mov    %eax,%ecx
  104f32:	8b 45 f4             	mov    -0xc(%rbp),%eax
  104f35:	01 c8                	add    %ecx,%eax
  104f37:	89 c0                	mov    %eax,%eax
  104f39:	48 c1 e0 02          	shl    $0x2,%rax
  104f3d:	48 01 d0             	add    %rdx,%rax
  104f40:	8b 00                	mov    (%rax),%eax
  104f42:	c9                   	leaveq 
  104f43:	c3                   	retq   

0000000000104f44 <_ZN11Framebuffer8DrawRectEjjjjj>:
  104f44:	f3 0f 1e fa          	endbr64 
  104f48:	55                   	push   %rbp
  104f49:	48 89 e5             	mov    %rsp,%rbp
  104f4c:	48 83 ec 30          	sub    $0x30,%rsp
  104f50:	48 89 7d e8          	mov    %rdi,-0x18(%rbp)
  104f54:	89 75 e4             	mov    %esi,-0x1c(%rbp)
  104f57:	89 55 e0             	mov    %edx,-0x20(%rbp)
  104f5a:	89 4d dc             	mov    %ecx,-0x24(%rbp)
  104f5d:	44 89 45 d8          	mov    %r8d,-0x28(%rbp)
  104f61:	44 89 4d d4          	mov    %r9d,-0x2c(%rbp)
  104f65:	8b 55 e4             	mov    -0x1c(%rbp),%edx
  104f68:	8b 45 dc             	mov    -0x24(%rbp),%eax
  104f6b:	01 d0                	add    %edx,%eax
  104f6d:	89 45 f4             	mov    %eax,-0xc(%rbp)
  104f70:	8b 55 e0             	mov    -0x20(%rbp),%edx
  104f73:	8b 45 d8             	mov    -0x28(%rbp),%eax
  104f76:	01 d0                	add    %edx,%eax
  104f78:	89 45 f0             	mov    %eax,-0x10(%rbp)
  104f7b:	c7 45 fc 00 00 00 00 	movl   $0x0,-0x4(%rbp)
  104f82:	8b 45 fc             	mov    -0x4(%rbp),%eax
  104f85:	3b 45 f0             	cmp    -0x10(%rbp),%eax
  104f88:	73 30                	jae    104fba <_ZN11Framebuffer8DrawRectEjjjjj+0x76>
  104f8a:	c7 45 f8 00 00 00 00 	movl   $0x0,-0x8(%rbp)
  104f91:	8b 45 f8             	mov    -0x8(%rbp),%eax
  104f94:	3b 45 f4             	cmp    -0xc(%rbp),%eax
  104f97:	73 1b                	jae    104fb4 <_ZN11Framebuffer8DrawRectEjjjjj+0x70>
  104f99:	8b 4d d4             	mov    -0x2c(%rbp),%ecx
  104f9c:	8b 55 fc             	mov    -0x4(%rbp),%edx
  104f9f:	8b 75 f8             	mov    -0x8(%rbp),%esi
  104fa2:	48 8b 45 e8          	mov    -0x18(%rbp),%rax
  104fa6:	48 89 c7             	mov    %rax,%rdi
  104fa9:	e8 16 ff ff ff       	callq  104ec4 <_ZN11Framebuffer8PutPixelEjjj>
  104fae:	83 45 f8 01          	addl   $0x1,-0x8(%rbp)
  104fb2:	eb dd                	jmp    104f91 <_ZN11Framebuffer8DrawRectEjjjjj+0x4d>
  104fb4:	83 45 fc 01          	addl   $0x1,-0x4(%rbp)
  104fb8:	eb c8                	jmp    104f82 <_ZN11Framebuffer8DrawRectEjjjjj+0x3e>
  104fba:	90                   	nop
  104fbb:	c9                   	leaveq 
  104fbc:	c3                   	retq   
  104fbd:	90                   	nop

0000000000104fbe <_ZN11Framebuffer15DrawMouseCursorEPhjjj>:
  104fbe:	f3 0f 1e fa          	endbr64 
  104fc2:	55                   	push   %rbp
  104fc3:	48 89 e5             	mov    %rsp,%rbp
  104fc6:	53                   	push   %rbx
  104fc7:	48 83 ec 40          	sub    $0x40,%rsp
  104fcb:	48 89 7d d0          	mov    %rdi,-0x30(%rbp)
  104fcf:	48 89 75 c8          	mov    %rsi,-0x38(%rbp)
  104fd3:	89 55 c4             	mov    %edx,-0x3c(%rbp)
  104fd6:	89 4d c0             	mov    %ecx,-0x40(%rbp)
  104fd9:	44 89 45 bc          	mov    %r8d,-0x44(%rbp)
  104fdd:	c7 45 f4 10 00 00 00 	movl   $0x10,-0xc(%rbp)
  104fe4:	c7 45 f0 10 00 00 00 	movl   $0x10,-0x10(%rbp)
  104feb:	48 8b 45 d0          	mov    -0x30(%rbp),%rax
  104fef:	8b 40 08             	mov    0x8(%rax),%eax
  104ff2:	2b 45 c4             	sub    -0x3c(%rbp),%eax
  104ff5:	89 45 e4             	mov    %eax,-0x1c(%rbp)
  104ff8:	48 8b 45 d0          	mov    -0x30(%rbp),%rax
  104ffc:	8b 40 0c             	mov    0xc(%rax),%eax
  104fff:	2b 45 c0             	sub    -0x40(%rbp),%eax
  105002:	89 45 e0             	mov    %eax,-0x20(%rbp)
  105005:	83 7d e4 0f          	cmpl   $0xf,-0x1c(%rbp)
  105009:	7f 06                	jg     105011 <_ZN11Framebuffer15DrawMouseCursorEPhjjj+0x53>
  10500b:	8b 45 e4             	mov    -0x1c(%rbp),%eax
  10500e:	89 45 f4             	mov    %eax,-0xc(%rbp)
  105011:	83 7d e0 0f          	cmpl   $0xf,-0x20(%rbp)
  105015:	7f 06                	jg     10501d <_ZN11Framebuffer15DrawMouseCursorEPhjjj+0x5f>
  105017:	8b 45 e0             	mov    -0x20(%rbp),%eax
  10501a:	89 45 f0             	mov    %eax,-0x10(%rbp)
  10501d:	c7 45 ec 00 00 00 00 	movl   $0x0,-0x14(%rbp)
  105024:	8b 45 ec             	mov    -0x14(%rbp),%eax
  105027:	3b 45 f0             	cmp    -0x10(%rbp),%eax
  10502a:	0f 8d 23 01 00 00    	jge    105153 <_ZN11Framebuffer15DrawMouseCursorEPhjjj+0x195>
  105030:	c7 45 e8 00 00 00 00 	movl   $0x0,-0x18(%rbp)
  105037:	8b 45 e8             	mov    -0x18(%rbp),%eax
  10503a:	3b 45 f4             	cmp    -0xc(%rbp),%eax
  10503d:	0f 8d 07 01 00 00    	jge    10514a <_ZN11Framebuffer15DrawMouseCursorEPhjjj+0x18c>
  105043:	8b 45 ec             	mov    -0x14(%rbp),%eax
  105046:	c1 e0 04             	shl    $0x4,%eax
  105049:	89 c2                	mov    %eax,%edx
  10504b:	8b 45 e8             	mov    -0x18(%rbp),%eax
  10504e:	01 d0                	add    %edx,%eax
  105050:	89 45 dc             	mov    %eax,-0x24(%rbp)
  105053:	8b 45 dc             	mov    -0x24(%rbp),%eax
  105056:	8d 50 07             	lea    0x7(%rax),%edx
  105059:	85 c0                	test   %eax,%eax
  10505b:	0f 48 c2             	cmovs  %edx,%eax
  10505e:	c1 f8 03             	sar    $0x3,%eax
  105061:	89 45 d8             	mov    %eax,-0x28(%rbp)
  105064:	8b 45 d8             	mov    -0x28(%rbp),%eax
  105067:	48 63 d0             	movslq %eax,%rdx
  10506a:	48 8b 45 c8          	mov    -0x38(%rbp),%rax
  10506e:	48 01 d0             	add    %rdx,%rax
  105071:	0f b6 00             	movzbl (%rax),%eax
  105074:	0f b6 f0             	movzbl %al,%esi
  105077:	8b 45 e8             	mov    -0x18(%rbp),%eax
  10507a:	99                   	cltd   
  10507b:	c1 ea 1d             	shr    $0x1d,%edx
  10507e:	01 d0                	add    %edx,%eax
  105080:	83 e0 07             	and    $0x7,%eax
  105083:	29 d0                	sub    %edx,%eax
  105085:	ba 80 00 00 00       	mov    $0x80,%edx
  10508a:	89 c1                	mov    %eax,%ecx
  10508c:	d3 fa                	sar    %cl,%edx
  10508e:	89 d0                	mov    %edx,%eax
  105090:	21 f0                	and    %esi,%eax
  105092:	85 c0                	test   %eax,%eax
  105094:	0f 84 a7 00 00 00    	je     105141 <_ZN11Framebuffer15DrawMouseCursorEPhjjj+0x183>
  10509a:	8b 55 ec             	mov    -0x14(%rbp),%edx
  10509d:	8b 45 c0             	mov    -0x40(%rbp),%eax
  1050a0:	01 c2                	add    %eax,%edx
  1050a2:	8b 4d e8             	mov    -0x18(%rbp),%ecx
  1050a5:	8b 45 c4             	mov    -0x3c(%rbp),%eax
  1050a8:	01 c1                	add    %eax,%ecx
  1050aa:	8b 45 ec             	mov    -0x14(%rbp),%eax
  1050ad:	c1 e0 04             	shl    $0x4,%eax
  1050b0:	89 c6                	mov    %eax,%esi
  1050b2:	8b 45 e8             	mov    -0x18(%rbp),%eax
  1050b5:	8d 1c 06             	lea    (%rsi,%rax,1),%ebx
  1050b8:	48 8b 45 d0          	mov    -0x30(%rbp),%rax
  1050bc:	89 ce                	mov    %ecx,%esi
  1050be:	48 89 c7             	mov    %rax,%rdi
  1050c1:	e8 42 fe ff ff       	callq  104f08 <_ZN11Framebuffer8GetPixelEjj>
  1050c6:	48 63 d3             	movslq %ebx,%rdx
  1050c9:	48 8d 0c 95 00 00 00 	lea    0x0(,%rdx,4),%rcx
  1050d0:	00 
  1050d1:	48 8d 15 28 1c 01 00 	lea    0x11c28(%rip),%rdx        # 116d00 <MouseCursorBuffer>
  1050d8:	89 04 11             	mov    %eax,(%rcx,%rdx,1)
  1050db:	8b 55 ec             	mov    -0x14(%rbp),%edx
  1050de:	8b 45 c0             	mov    -0x40(%rbp),%eax
  1050e1:	8d 3c 02             	lea    (%rdx,%rax,1),%edi
  1050e4:	8b 55 e8             	mov    -0x18(%rbp),%edx
  1050e7:	8b 45 c4             	mov    -0x3c(%rbp),%eax
  1050ea:	8d 34 02             	lea    (%rdx,%rax,1),%esi
  1050ed:	8b 55 bc             	mov    -0x44(%rbp),%edx
  1050f0:	48 8b 45 d0          	mov    -0x30(%rbp),%rax
  1050f4:	89 d1                	mov    %edx,%ecx
  1050f6:	89 fa                	mov    %edi,%edx
  1050f8:	48 89 c7             	mov    %rax,%rdi
  1050fb:	e8 c4 fd ff ff       	callq  104ec4 <_ZN11Framebuffer8PutPixelEjjj>
  105100:	8b 55 ec             	mov    -0x14(%rbp),%edx
  105103:	8b 45 c0             	mov    -0x40(%rbp),%eax
  105106:	01 c2                	add    %eax,%edx
  105108:	8b 4d e8             	mov    -0x18(%rbp),%ecx
  10510b:	8b 45 c4             	mov    -0x3c(%rbp),%eax
  10510e:	01 c1                	add    %eax,%ecx
  105110:	8b 45 ec             	mov    -0x14(%rbp),%eax
  105113:	c1 e0 04             	shl    $0x4,%eax
  105116:	89 c6                	mov    %eax,%esi
  105118:	8b 45 e8             	mov    -0x18(%rbp),%eax
  10511b:	8d 1c 06             	lea    (%rsi,%rax,1),%ebx
  10511e:	48 8b 45 d0          	mov    -0x30(%rbp),%rax
  105122:	89 ce                	mov    %ecx,%esi
  105124:	48 89 c7             	mov    %rax,%rdi
  105127:	e8 dc fd ff ff       	callq  104f08 <_ZN11Framebuffer8GetPixelEjj>
  10512c:	48 63 d3             	movslq %ebx,%rdx
  10512f:	48 8d 0c 95 00 00 00 	lea    0x0(,%rdx,4),%rcx
  105136:	00 
  105137:	48 8d 15 c2 1f 01 00 	lea    0x11fc2(%rip),%rdx        # 117100 <MouseCursorBufferAfter>
  10513e:	89 04 11             	mov    %eax,(%rcx,%rdx,1)
  105141:	83 45 e8 01          	addl   $0x1,-0x18(%rbp)
  105145:	e9 ed fe ff ff       	jmpq   105037 <_ZN11Framebuffer15DrawMouseCursorEPhjjj+0x79>
  10514a:	83 45 ec 01          	addl   $0x1,-0x14(%rbp)
  10514e:	e9 d1 fe ff ff       	jmpq   105024 <_ZN11Framebuffer15DrawMouseCursorEPhjjj+0x66>
  105153:	c6 05 86 1b 01 00 01 	movb   $0x1,0x11b86(%rip)        # 116ce0 <MouseDrawn>
  10515a:	90                   	nop
  10515b:	48 83 c4 40          	add    $0x40,%rsp
  10515f:	5b                   	pop    %rbx
  105160:	5d                   	pop    %rbp
  105161:	c3                   	retq   

0000000000105162 <_ZN11Framebuffer16ClearMouseCursorEPhjj>:
  105162:	f3 0f 1e fa          	endbr64 
  105166:	55                   	push   %rbp
  105167:	48 89 e5             	mov    %rsp,%rbp
  10516a:	48 83 ec 38          	sub    $0x38,%rsp
  10516e:	48 89 7d d8          	mov    %rdi,-0x28(%rbp)
  105172:	48 89 75 d0          	mov    %rsi,-0x30(%rbp)
  105176:	89 55 cc             	mov    %edx,-0x34(%rbp)
  105179:	89 4d c8             	mov    %ecx,-0x38(%rbp)
  10517c:	0f b6 05 5d 1b 01 00 	movzbl 0x11b5d(%rip),%eax        # 116ce0 <MouseDrawn>
  105183:	83 f0 01             	xor    $0x1,%eax
  105186:	84 c0                	test   %al,%al
  105188:	0f 85 5b 01 00 00    	jne    1052e9 <_ZN11Framebuffer16ClearMouseCursorEPhjj+0x187>
  10518e:	c7 45 fc 10 00 00 00 	movl   $0x10,-0x4(%rbp)
  105195:	c7 45 f8 10 00 00 00 	movl   $0x10,-0x8(%rbp)
  10519c:	48 8b 45 d8          	mov    -0x28(%rbp),%rax
  1051a0:	8b 40 08             	mov    0x8(%rax),%eax
  1051a3:	2b 45 cc             	sub    -0x34(%rbp),%eax
  1051a6:	89 45 ec             	mov    %eax,-0x14(%rbp)
  1051a9:	48 8b 45 d8          	mov    -0x28(%rbp),%rax
  1051ad:	8b 40 0c             	mov    0xc(%rax),%eax
  1051b0:	2b 45 c8             	sub    -0x38(%rbp),%eax
  1051b3:	89 45 e8             	mov    %eax,-0x18(%rbp)
  1051b6:	83 7d ec 0f          	cmpl   $0xf,-0x14(%rbp)
  1051ba:	7f 06                	jg     1051c2 <_ZN11Framebuffer16ClearMouseCursorEPhjj+0x60>
  1051bc:	8b 45 ec             	mov    -0x14(%rbp),%eax
  1051bf:	89 45 fc             	mov    %eax,-0x4(%rbp)
  1051c2:	83 7d e8 0f          	cmpl   $0xf,-0x18(%rbp)
  1051c6:	7f 06                	jg     1051ce <_ZN11Framebuffer16ClearMouseCursorEPhjj+0x6c>
  1051c8:	8b 45 e8             	mov    -0x18(%rbp),%eax
  1051cb:	89 45 f8             	mov    %eax,-0x8(%rbp)
  1051ce:	c7 45 f4 00 00 00 00 	movl   $0x0,-0xc(%rbp)
  1051d5:	8b 45 f4             	mov    -0xc(%rbp),%eax
  1051d8:	3b 45 f8             	cmp    -0x8(%rbp),%eax
  1051db:	0f 8d 09 01 00 00    	jge    1052ea <_ZN11Framebuffer16ClearMouseCursorEPhjj+0x188>
  1051e1:	c7 45 f0 00 00 00 00 	movl   $0x0,-0x10(%rbp)
  1051e8:	8b 45 f0             	mov    -0x10(%rbp),%eax
  1051eb:	3b 45 fc             	cmp    -0x4(%rbp),%eax
  1051ee:	0f 8d ec 00 00 00    	jge    1052e0 <_ZN11Framebuffer16ClearMouseCursorEPhjj+0x17e>
  1051f4:	8b 45 f4             	mov    -0xc(%rbp),%eax
  1051f7:	c1 e0 04             	shl    $0x4,%eax
  1051fa:	89 c2                	mov    %eax,%edx
  1051fc:	8b 45 f0             	mov    -0x10(%rbp),%eax
  1051ff:	01 d0                	add    %edx,%eax
  105201:	89 45 e4             	mov    %eax,-0x1c(%rbp)
  105204:	8b 45 e4             	mov    -0x1c(%rbp),%eax
  105207:	8d 50 07             	lea    0x7(%rax),%edx
  10520a:	85 c0                	test   %eax,%eax
  10520c:	0f 48 c2             	cmovs  %edx,%eax
  10520f:	c1 f8 03             	sar    $0x3,%eax
  105212:	89 45 e0             	mov    %eax,-0x20(%rbp)
  105215:	8b 45 e0             	mov    -0x20(%rbp),%eax
  105218:	48 63 d0             	movslq %eax,%rdx
  10521b:	48 8b 45 d0          	mov    -0x30(%rbp),%rax
  10521f:	48 01 d0             	add    %rdx,%rax
  105222:	0f b6 00             	movzbl (%rax),%eax
  105225:	0f b6 f0             	movzbl %al,%esi
  105228:	8b 45 f0             	mov    -0x10(%rbp),%eax
  10522b:	99                   	cltd   
  10522c:	c1 ea 1d             	shr    $0x1d,%edx
  10522f:	01 d0                	add    %edx,%eax
  105231:	83 e0 07             	and    $0x7,%eax
  105234:	29 d0                	sub    %edx,%eax
  105236:	ba 80 00 00 00       	mov    $0x80,%edx
  10523b:	89 c1                	mov    %eax,%ecx
  10523d:	d3 fa                	sar    %cl,%edx
  10523f:	89 d0                	mov    %edx,%eax
  105241:	21 f0                	and    %esi,%eax
  105243:	85 c0                	test   %eax,%eax
  105245:	0f 84 8c 00 00 00    	je     1052d7 <_ZN11Framebuffer16ClearMouseCursorEPhjj+0x175>
  10524b:	8b 55 f4             	mov    -0xc(%rbp),%edx
  10524e:	8b 45 c8             	mov    -0x38(%rbp),%eax
  105251:	01 c2                	add    %eax,%edx
  105253:	8b 4d f0             	mov    -0x10(%rbp),%ecx
  105256:	8b 45 cc             	mov    -0x34(%rbp),%eax
  105259:	01 c1                	add    %eax,%ecx
  10525b:	48 8b 45 d8          	mov    -0x28(%rbp),%rax
  10525f:	89 ce                	mov    %ecx,%esi
  105261:	48 89 c7             	mov    %rax,%rdi
  105264:	e8 9f fc ff ff       	callq  104f08 <_ZN11Framebuffer8GetPixelEjj>
  105269:	8b 55 f4             	mov    -0xc(%rbp),%edx
  10526c:	89 d1                	mov    %edx,%ecx
  10526e:	c1 e1 04             	shl    $0x4,%ecx
  105271:	8b 55 f0             	mov    -0x10(%rbp),%edx
  105274:	01 ca                	add    %ecx,%edx
  105276:	48 63 d2             	movslq %edx,%rdx
  105279:	48 8d 0c 95 00 00 00 	lea    0x0(,%rdx,4),%rcx
  105280:	00 
  105281:	48 8d 15 78 1e 01 00 	lea    0x11e78(%rip),%rdx        # 117100 <MouseCursorBufferAfter>
  105288:	8b 14 11             	mov    (%rcx,%rdx,1),%edx
  10528b:	39 d0                	cmp    %edx,%eax
  10528d:	0f 94 c0             	sete   %al
  105290:	84 c0                	test   %al,%al
  105292:	74 43                	je     1052d7 <_ZN11Framebuffer16ClearMouseCursorEPhjj+0x175>
  105294:	8b 45 f4             	mov    -0xc(%rbp),%eax
  105297:	c1 e0 04             	shl    $0x4,%eax
  10529a:	89 c2                	mov    %eax,%edx
  10529c:	8b 45 f0             	mov    -0x10(%rbp),%eax
  10529f:	01 d0                	add    %edx,%eax
  1052a1:	48 98                	cltq   
  1052a3:	48 8d 14 85 00 00 00 	lea    0x0(,%rax,4),%rdx
  1052aa:	00 
  1052ab:	48 8d 05 4e 1a 01 00 	lea    0x11a4e(%rip),%rax        # 116d00 <MouseCursorBuffer>
  1052b2:	8b 14 02             	mov    (%rdx,%rax,1),%edx
  1052b5:	8b 4d f4             	mov    -0xc(%rbp),%ecx
  1052b8:	8b 45 c8             	mov    -0x38(%rbp),%eax
  1052bb:	8d 3c 01             	lea    (%rcx,%rax,1),%edi
  1052be:	8b 4d f0             	mov    -0x10(%rbp),%ecx
  1052c1:	8b 45 cc             	mov    -0x34(%rbp),%eax
  1052c4:	8d 34 01             	lea    (%rcx,%rax,1),%esi
  1052c7:	48 8b 45 d8          	mov    -0x28(%rbp),%rax
  1052cb:	89 d1                	mov    %edx,%ecx
  1052cd:	89 fa                	mov    %edi,%edx
  1052cf:	48 89 c7             	mov    %rax,%rdi
  1052d2:	e8 ed fb ff ff       	callq  104ec4 <_ZN11Framebuffer8PutPixelEjjj>
  1052d7:	83 45 f0 01          	addl   $0x1,-0x10(%rbp)
  1052db:	e9 08 ff ff ff       	jmpq   1051e8 <_ZN11Framebuffer16ClearMouseCursorEPhjj+0x86>
  1052e0:	83 45 f4 01          	addl   $0x1,-0xc(%rbp)
  1052e4:	e9 ec fe ff ff       	jmpq   1051d5 <_ZN11Framebuffer16ClearMouseCursorEPhjj+0x73>
  1052e9:	90                   	nop
  1052ea:	c9                   	leaveq 
  1052eb:	c3                   	retq   

00000000001052ec <_ZN7Display13SharedDisplayEv>:
  1052ec:	f3 0f 1e fa          	endbr64 
  1052f0:	55                   	push   %rbp
  1052f1:	48 89 e5             	mov    %rsp,%rbp
  1052f4:	48 8b 05 05 22 01 00 	mov    0x12205(%rip),%rax        # 117500 <_ZN7Display9s_DisplayE>
  1052fb:	48 85 c0             	test   %rax,%rax
  1052fe:	75 0e                	jne    10530e <_ZN7Display13SharedDisplayEv+0x22>
  105300:	48 8d 05 19 22 01 00 	lea    0x12219(%rip),%rax        # 117520 <display>
  105307:	48 89 05 f2 21 01 00 	mov    %rax,0x121f2(%rip)        # 117500 <_ZN7Display9s_DisplayE>
  10530e:	48 8b 05 eb 21 01 00 	mov    0x121eb(%rip),%rax        # 117500 <_ZN7Display9s_DisplayE>
  105315:	5d                   	pop    %rbp
  105316:	c3                   	retq   

0000000000105317 <_Z17InitialiseDisplay11FramebufferP9psf1_font>:
  105317:	f3 0f 1e fa          	endbr64 
  10531b:	55                   	push   %rbp
  10531c:	48 89 e5             	mov    %rsp,%rbp
  10531f:	48 83 ec 30          	sub    $0x30,%rsp
  105323:	48 89 7d d8          	mov    %rdi,-0x28(%rbp)
  105327:	48 8b 45 10          	mov    0x10(%rbp),%rax
  10532b:	48 89 45 f0          	mov    %rax,-0x10(%rbp)
  10532f:	8b 55 18             	mov    0x18(%rbp),%edx
  105332:	8b 45 1c             	mov    0x1c(%rbp),%eax
  105335:	0f af c2             	imul   %edx,%eax
  105338:	c1 e0 02             	shl    $0x2,%eax
  10533b:	89 c0                	mov    %eax,%eax
  10533d:	48 89 45 e8          	mov    %rax,-0x18(%rbp)
  105341:	48 8b 45 f0          	mov    -0x10(%rbp),%rax
  105345:	48 89 45 f8          	mov    %rax,-0x8(%rbp)
  105349:	48 8b 55 f0          	mov    -0x10(%rbp),%rdx
  10534d:	48 8b 45 e8          	mov    -0x18(%rbp),%rax
  105351:	48 01 d0             	add    %rdx,%rax
  105354:	48 05 00 10 00 00    	add    $0x1000,%rax
  10535a:	48 39 45 f8          	cmp    %rax,-0x8(%rbp)
  10535e:	73 26                	jae    105386 <_Z17InitialiseDisplay11FramebufferP9psf1_font+0x6f>
  105360:	48 8b 55 f8          	mov    -0x8(%rbp),%rdx
  105364:	48 8b 45 f8          	mov    -0x8(%rbp),%rax
  105368:	b9 13 00 00 00       	mov    $0x13,%ecx
  10536d:	48 89 c6             	mov    %rax,%rsi
  105370:	48 8d 3d d1 fc 00 00 	lea    0xfcd1(%rip),%rdi        # 115048 <KernelDirectory>
  105377:	e8 5a ad ff ff       	callq  1000d6 <_ZN16PageTableManager9MapMemoryEmmm>
  10537c:	48 81 45 f8 00 10 00 	addq   $0x1000,-0x8(%rbp)
  105383:	00 
  105384:	eb c3                	jmp    105349 <_Z17InitialiseDisplay11FramebufferP9psf1_font+0x32>
  105386:	48 8b 45 10          	mov    0x10(%rbp),%rax
  10538a:	48 8b 55 18          	mov    0x18(%rbp),%rdx
  10538e:	48 89 05 ab 21 01 00 	mov    %rax,0x121ab(%rip)        # 117540 <display+0x20>
  105395:	48 89 15 ac 21 01 00 	mov    %rdx,0x121ac(%rip)        # 117548 <display+0x28>
  10539c:	48 8b 45 20          	mov    0x20(%rbp),%rax
  1053a0:	48 89 05 a9 21 01 00 	mov    %rax,0x121a9(%rip)        # 117550 <display+0x30>
  1053a7:	c7 05 73 21 01 00 ff 	movl   $0xff00ffff,0x12173(%rip)        # 117524 <display+0x4>
  1053ae:	ff 00 ff 
  1053b1:	c7 05 65 21 01 00 50 	movl   $0xff505050,0x12165(%rip)        # 117520 <display>
  1053b8:	50 50 ff 
  1053bb:	c7 05 63 21 01 00 00 	movl   $0x0,0x12163(%rip)        # 117528 <display+0x8>
  1053c2:	00 00 00 
  1053c5:	c7 05 5d 21 01 00 00 	movl   $0x0,0x1215d(%rip)        # 11752c <display+0xc>
  1053cc:	00 00 00 
  1053cf:	c7 05 5f 21 01 00 08 	movl   $0x8,0x1215f(%rip)        # 117538 <display+0x18>
  1053d6:	00 00 00 
  1053d9:	c7 05 59 21 01 00 10 	movl   $0x10,0x12159(%rip)        # 11753c <display+0x1c>
  1053e0:	00 00 00 
  1053e3:	8b 05 5f 21 01 00    	mov    0x1215f(%rip),%eax        # 117548 <display+0x28>
  1053e9:	8b 0d 49 21 01 00    	mov    0x12149(%rip),%ecx        # 117538 <display+0x18>
  1053ef:	ba 00 00 00 00       	mov    $0x0,%edx
  1053f4:	f7 f1                	div    %ecx
  1053f6:	89 05 34 21 01 00    	mov    %eax,0x12134(%rip)        # 117530 <display+0x10>
  1053fc:	8b 05 4a 21 01 00    	mov    0x1214a(%rip),%eax        # 11754c <display+0x2c>
  105402:	8b 35 34 21 01 00    	mov    0x12134(%rip),%esi        # 11753c <display+0x1c>
  105408:	ba 00 00 00 00       	mov    $0x0,%edx
  10540d:	f7 f6                	div    %esi
  10540f:	89 05 1f 21 01 00    	mov    %eax,0x1211f(%rip)        # 117534 <display+0x14>
  105415:	48 8b 45 d8          	mov    -0x28(%rbp),%rax
  105419:	48 89 05 50 21 01 00 	mov    %rax,0x12150(%rip)        # 117570 <display+0x50>
  105420:	90                   	nop
  105421:	c9                   	leaveq 
  105422:	c3                   	retq   

0000000000105423 <_Z6clrscrv>:
  105423:	f3 0f 1e fa          	endbr64 
  105427:	55                   	push   %rbp
  105428:	48 89 e5             	mov    %rsp,%rbp
  10542b:	48 8d 3d ee 20 01 00 	lea    0x120ee(%rip),%rdi        # 117520 <display>
  105432:	e8 2f 00 00 00       	callq  105466 <_ZN7Display5clearEv>
  105437:	c7 05 e7 20 01 00 00 	movl   $0x0,0x120e7(%rip)        # 117528 <display+0x8>
  10543e:	00 00 00 
  105441:	c7 05 e1 20 01 00 00 	movl   $0x0,0x120e1(%rip)        # 11752c <display+0xc>
  105448:	00 00 00 
  10544b:	90                   	nop
  10544c:	5d                   	pop    %rbp
  10544d:	c3                   	retq   

000000000010544e <_Z16printf_backspacev>:
  10544e:	f3 0f 1e fa          	endbr64 
  105452:	55                   	push   %rbp
  105453:	48 89 e5             	mov    %rsp,%rbp
  105456:	48 8d 3d c3 20 01 00 	lea    0x120c3(%rip),%rdi        # 117520 <display>
  10545d:	e8 58 00 00 00       	callq  1054ba <_ZN7Display13put_backspaceEv>
  105462:	90                   	nop
  105463:	5d                   	pop    %rbp
  105464:	c3                   	retq   
  105465:	90                   	nop

0000000000105466 <_ZN7Display5clearEv>:
  105466:	f3 0f 1e fa          	endbr64 
  10546a:	55                   	push   %rbp
  10546b:	48 89 e5             	mov    %rsp,%rbp
  10546e:	48 83 ec 20          	sub    $0x20,%rsp
  105472:	48 89 7d e8          	mov    %rdi,-0x18(%rbp)
  105476:	48 8b 45 e8          	mov    -0x18(%rbp),%rax
  10547a:	48 8b 40 20          	mov    0x20(%rax),%rax
  10547e:	48 89 45 f8          	mov    %rax,-0x8(%rbp)
  105482:	48 8b 45 e8          	mov    -0x18(%rbp),%rax
  105486:	8b 50 28             	mov    0x28(%rax),%edx
  105489:	48 8b 45 e8          	mov    -0x18(%rbp),%rax
  10548d:	8b 40 2c             	mov    0x2c(%rax),%eax
  105490:	0f af c2             	imul   %edx,%eax
  105493:	c1 e0 02             	shl    $0x2,%eax
  105496:	89 45 f4             	mov    %eax,-0xc(%rbp)
  105499:	48 8b 45 e8          	mov    -0x18(%rbp),%rax
  10549d:	8b 00                	mov    (%rax),%eax
  10549f:	89 45 f0             	mov    %eax,-0x10(%rbp)
  1054a2:	8b 55 f4             	mov    -0xc(%rbp),%edx
  1054a5:	8b 4d f0             	mov    -0x10(%rbp),%ecx
  1054a8:	48 8b 45 f8          	mov    -0x8(%rbp),%rax
  1054ac:	89 ce                	mov    %ecx,%esi
  1054ae:	48 89 c7             	mov    %rax,%rdi
  1054b1:	e8 b5 79 00 00       	callq  10ce6b <_Z6memsetPvim>
  1054b6:	90                   	nop
  1054b7:	c9                   	leaveq 
  1054b8:	c3                   	retq   
  1054b9:	90                   	nop

00000000001054ba <_ZN7Display13put_backspaceEv>:
  1054ba:	f3 0f 1e fa          	endbr64 
  1054be:	55                   	push   %rbp
  1054bf:	48 89 e5             	mov    %rsp,%rbp
  1054c2:	48 83 ec 10          	sub    $0x10,%rsp
  1054c6:	48 89 7d f8          	mov    %rdi,-0x8(%rbp)
  1054ca:	48 8b 45 f8          	mov    -0x8(%rbp),%rax
  1054ce:	be 08 00 00 00       	mov    $0x8,%esi
  1054d3:	48 89 c7             	mov    %rax,%rdi
  1054d6:	e8 ff 02 00 00       	callq  1057da <_ZN7Display4putcEc>
  1054db:	90                   	nop
  1054dc:	c9                   	leaveq 
  1054dd:	c3                   	retq   

00000000001054de <_ZN7Display4putsEPKc>:
  1054de:	f3 0f 1e fa          	endbr64 
  1054e2:	55                   	push   %rbp
  1054e3:	48 89 e5             	mov    %rsp,%rbp
  1054e6:	48 83 ec 20          	sub    $0x20,%rsp
  1054ea:	48 89 7d e8          	mov    %rdi,-0x18(%rbp)
  1054ee:	48 89 75 e0          	mov    %rsi,-0x20(%rbp)
  1054f2:	c7 45 fc 00 00 00 00 	movl   $0x0,-0x4(%rbp)
  1054f9:	8b 45 fc             	mov    -0x4(%rbp),%eax
  1054fc:	8d 50 01             	lea    0x1(%rax),%edx
  1054ff:	89 55 fc             	mov    %edx,-0x4(%rbp)
  105502:	48 63 d0             	movslq %eax,%rdx
  105505:	48 8b 45 e0          	mov    -0x20(%rbp),%rax
  105509:	48 01 d0             	add    %rdx,%rax
  10550c:	0f b6 00             	movzbl (%rax),%eax
  10550f:	88 45 fb             	mov    %al,-0x5(%rbp)
  105512:	80 7d fb 00          	cmpb   $0x0,-0x5(%rbp)
  105516:	0f 95 c0             	setne  %al
  105519:	84 c0                	test   %al,%al
  10551b:	74 14                	je     105531 <_ZN7Display4putsEPKc+0x53>
  10551d:	0f be 55 fb          	movsbl -0x5(%rbp),%edx
  105521:	48 8b 45 e8          	mov    -0x18(%rbp),%rax
  105525:	89 d6                	mov    %edx,%esi
  105527:	48 89 c7             	mov    %rax,%rdi
  10552a:	e8 ab 02 00 00       	callq  1057da <_ZN7Display4putcEc>
  10552f:	eb c8                	jmp    1054f9 <_ZN7Display4putsEPKc+0x1b>
  105531:	8b 45 fc             	mov    -0x4(%rbp),%eax
  105534:	c9                   	leaveq 
  105535:	c3                   	retq   

0000000000105536 <_Z10putchar_atcjj>:
  105536:	f3 0f 1e fa          	endbr64 
  10553a:	55                   	push   %rbp
  10553b:	48 89 e5             	mov    %rsp,%rbp
  10553e:	48 83 ec 40          	sub    $0x40,%rsp
  105542:	89 f8                	mov    %edi,%eax
  105544:	89 75 c8             	mov    %esi,-0x38(%rbp)
  105547:	89 55 c4             	mov    %edx,-0x3c(%rbp)
  10554a:	88 45 cc             	mov    %al,-0x34(%rbp)
  10554d:	48 8b 05 ec 1f 01 00 	mov    0x11fec(%rip),%rax        # 117540 <display+0x20>
  105554:	48 89 45 e8          	mov    %rax,-0x18(%rbp)
  105558:	8b 05 ea 1f 01 00    	mov    0x11fea(%rip),%eax        # 117548 <display+0x28>
  10555e:	89 45 e4             	mov    %eax,-0x1c(%rbp)
  105561:	8b 05 d1 1f 01 00    	mov    0x11fd1(%rip),%eax        # 117538 <display+0x18>
  105567:	89 45 e0             	mov    %eax,-0x20(%rbp)
  10556a:	8b 05 cc 1f 01 00    	mov    0x11fcc(%rip),%eax        # 11753c <display+0x1c>
  105570:	89 45 dc             	mov    %eax,-0x24(%rbp)
  105573:	48 8b 05 f6 1f 01 00 	mov    0x11ff6(%rip),%rax        # 117570 <display+0x50>
  10557a:	48 89 45 d0          	mov    %rax,-0x30(%rbp)
  10557e:	48 8b 45 d0          	mov    -0x30(%rbp),%rax
  105582:	48 8b 50 08          	mov    0x8(%rax),%rdx
  105586:	0f be 4d cc          	movsbl -0x34(%rbp),%ecx
  10558a:	48 8b 45 d0          	mov    -0x30(%rbp),%rax
  10558e:	48 8b 00             	mov    (%rax),%rax
  105591:	0f b6 40 03          	movzbl 0x3(%rax),%eax
  105595:	0f b6 c0             	movzbl %al,%eax
  105598:	0f af c1             	imul   %ecx,%eax
  10559b:	48 98                	cltq   
  10559d:	48 01 d0             	add    %rdx,%rax
  1055a0:	48 89 45 f8          	mov    %rax,-0x8(%rbp)
  1055a4:	8b 45 c4             	mov    -0x3c(%rbp),%eax
  1055a7:	0f af 45 dc          	imul   -0x24(%rbp),%eax
  1055ab:	89 45 f4             	mov    %eax,-0xc(%rbp)
  1055ae:	8b 45 c4             	mov    -0x3c(%rbp),%eax
  1055b1:	83 c0 01             	add    $0x1,%eax
  1055b4:	0f af 45 dc          	imul   -0x24(%rbp),%eax
  1055b8:	39 45 f4             	cmp    %eax,-0xc(%rbp)
  1055bb:	73 7d                	jae    10563a <_Z10putchar_atcjj+0x104>
  1055bd:	8b 45 c8             	mov    -0x38(%rbp),%eax
  1055c0:	0f af 45 e0          	imul   -0x20(%rbp),%eax
  1055c4:	89 45 f0             	mov    %eax,-0x10(%rbp)
  1055c7:	8b 45 c8             	mov    -0x38(%rbp),%eax
  1055ca:	83 c0 01             	add    $0x1,%eax
  1055cd:	0f af 45 e0          	imul   -0x20(%rbp),%eax
  1055d1:	39 45 f0             	cmp    %eax,-0x10(%rbp)
  1055d4:	73 56                	jae    10562c <_Z10putchar_atcjj+0xf6>
  1055d6:	48 8b 45 f8          	mov    -0x8(%rbp),%rax
  1055da:	0f b6 00             	movzbl (%rax),%eax
  1055dd:	0f be d0             	movsbl %al,%edx
  1055e0:	8b 45 c8             	mov    -0x38(%rbp),%eax
  1055e3:	0f af 45 e0          	imul   -0x20(%rbp),%eax
  1055e7:	8b 4d f0             	mov    -0x10(%rbp),%ecx
  1055ea:	29 c1                	sub    %eax,%ecx
  1055ec:	89 c8                	mov    %ecx,%eax
  1055ee:	be 80 00 00 00       	mov    $0x80,%esi
  1055f3:	89 c1                	mov    %eax,%ecx
  1055f5:	d3 fe                	sar    %cl,%esi
  1055f7:	89 f0                	mov    %esi,%eax
  1055f9:	21 d0                	and    %edx,%eax
  1055fb:	85 c0                	test   %eax,%eax
  1055fd:	7e 27                	jle    105626 <_Z10putchar_atcjj+0xf0>
  1055ff:	8b 45 f4             	mov    -0xc(%rbp),%eax
  105602:	0f af 45 e4          	imul   -0x1c(%rbp),%eax
  105606:	89 c2                	mov    %eax,%edx
  105608:	8b 45 f0             	mov    -0x10(%rbp),%eax
  10560b:	01 d0                	add    %edx,%eax
  10560d:	89 c0                	mov    %eax,%eax
  10560f:	48 8d 14 85 00 00 00 	lea    0x0(,%rax,4),%rdx
  105616:	00 
  105617:	48 8b 45 e8          	mov    -0x18(%rbp),%rax
  10561b:	48 01 c2             	add    %rax,%rdx
  10561e:	8b 05 00 1f 01 00    	mov    0x11f00(%rip),%eax        # 117524 <display+0x4>
  105624:	89 02                	mov    %eax,(%rdx)
  105626:	83 45 f0 01          	addl   $0x1,-0x10(%rbp)
  10562a:	eb 9b                	jmp    1055c7 <_Z10putchar_atcjj+0x91>
  10562c:	48 83 45 f8 01       	addq   $0x1,-0x8(%rbp)
  105631:	83 45 f4 01          	addl   $0x1,-0xc(%rbp)
  105635:	e9 74 ff ff ff       	jmpq   1055ae <_Z10putchar_atcjj+0x78>
  10563a:	90                   	nop
  10563b:	c9                   	leaveq 
  10563c:	c3                   	retq   

000000000010563d <_Z13empty_char_atjj>:
  10563d:	f3 0f 1e fa          	endbr64 
  105641:	55                   	push   %rbp
  105642:	48 89 e5             	mov    %rsp,%rbp
  105645:	48 83 ec 38          	sub    $0x38,%rsp
  105649:	89 7d cc             	mov    %edi,-0x34(%rbp)
  10564c:	89 75 c8             	mov    %esi,-0x38(%rbp)
  10564f:	48 8b 05 ea 1e 01 00 	mov    0x11eea(%rip),%rax        # 117540 <display+0x20>
  105656:	48 89 45 f0          	mov    %rax,-0x10(%rbp)
  10565a:	8b 05 e8 1e 01 00    	mov    0x11ee8(%rip),%eax        # 117548 <display+0x28>
  105660:	89 45 ec             	mov    %eax,-0x14(%rbp)
  105663:	8b 05 cf 1e 01 00    	mov    0x11ecf(%rip),%eax        # 117538 <display+0x18>
  105669:	89 45 e8             	mov    %eax,-0x18(%rbp)
  10566c:	8b 05 ca 1e 01 00    	mov    0x11eca(%rip),%eax        # 11753c <display+0x1c>
  105672:	89 45 e4             	mov    %eax,-0x1c(%rbp)
  105675:	48 8b 05 f4 1e 01 00 	mov    0x11ef4(%rip),%rax        # 117570 <display+0x50>
  10567c:	48 89 45 d8          	mov    %rax,-0x28(%rbp)
  105680:	8b 45 c8             	mov    -0x38(%rbp),%eax
  105683:	0f af 45 e4          	imul   -0x1c(%rbp),%eax
  105687:	89 45 fc             	mov    %eax,-0x4(%rbp)
  10568a:	8b 45 c8             	mov    -0x38(%rbp),%eax
  10568d:	83 c0 01             	add    $0x1,%eax
  105690:	0f af 45 e4          	imul   -0x1c(%rbp),%eax
  105694:	39 45 fc             	cmp    %eax,-0x4(%rbp)
  105697:	73 4c                	jae    1056e5 <_Z13empty_char_atjj+0xa8>
  105699:	8b 45 cc             	mov    -0x34(%rbp),%eax
  10569c:	0f af 45 e8          	imul   -0x18(%rbp),%eax
  1056a0:	89 45 f8             	mov    %eax,-0x8(%rbp)
  1056a3:	8b 45 cc             	mov    -0x34(%rbp),%eax
  1056a6:	83 c0 01             	add    $0x1,%eax
  1056a9:	0f af 45 e8          	imul   -0x18(%rbp),%eax
  1056ad:	39 45 f8             	cmp    %eax,-0x8(%rbp)
  1056b0:	73 2d                	jae    1056df <_Z13empty_char_atjj+0xa2>
  1056b2:	8b 45 fc             	mov    -0x4(%rbp),%eax
  1056b5:	0f af 45 ec          	imul   -0x14(%rbp),%eax
  1056b9:	89 c2                	mov    %eax,%edx
  1056bb:	8b 45 f8             	mov    -0x8(%rbp),%eax
  1056be:	01 d0                	add    %edx,%eax
  1056c0:	89 c0                	mov    %eax,%eax
  1056c2:	48 8d 14 85 00 00 00 	lea    0x0(,%rax,4),%rdx
  1056c9:	00 
  1056ca:	48 8b 45 f0          	mov    -0x10(%rbp),%rax
  1056ce:	48 01 c2             	add    %rax,%rdx
  1056d1:	8b 05 49 1e 01 00    	mov    0x11e49(%rip),%eax        # 117520 <display>
  1056d7:	89 02                	mov    %eax,(%rdx)
  1056d9:	83 45 f8 01          	addl   $0x1,-0x8(%rbp)
  1056dd:	eb c4                	jmp    1056a3 <_Z13empty_char_atjj+0x66>
  1056df:	83 45 fc 01          	addl   $0x1,-0x4(%rbp)
  1056e3:	eb a5                	jmp    10568a <_Z13empty_char_atjj+0x4d>
  1056e5:	90                   	nop
  1056e6:	c9                   	leaveq 
  1056e7:	c3                   	retq   

00000000001056e8 <_Z9scroll_upv>:
  1056e8:	f3 0f 1e fa          	endbr64 
  1056ec:	55                   	push   %rbp
  1056ed:	48 89 e5             	mov    %rsp,%rbp
  1056f0:	48 83 c4 80          	add    $0xffffffffffffff80,%rsp
  1056f4:	48 8b 05 25 1e 01 00 	mov    0x11e25(%rip),%rax        # 117520 <display>
  1056fb:	48 8b 15 26 1e 01 00 	mov    0x11e26(%rip),%rdx        # 117528 <display+0x8>
  105702:	48 89 45 a0          	mov    %rax,-0x60(%rbp)
  105706:	48 89 55 a8          	mov    %rdx,-0x58(%rbp)
  10570a:	48 8b 05 1f 1e 01 00 	mov    0x11e1f(%rip),%rax        # 117530 <display+0x10>
  105711:	48 8b 15 20 1e 01 00 	mov    0x11e20(%rip),%rdx        # 117538 <display+0x18>
  105718:	48 89 45 b0          	mov    %rax,-0x50(%rbp)
  10571c:	48 89 55 b8          	mov    %rdx,-0x48(%rbp)
  105720:	48 8b 05 19 1e 01 00 	mov    0x11e19(%rip),%rax        # 117540 <display+0x20>
  105727:	48 8b 15 1a 1e 01 00 	mov    0x11e1a(%rip),%rdx        # 117548 <display+0x28>
  10572e:	48 89 45 80          	mov    %rax,-0x80(%rbp)
  105732:	48 89 55 88          	mov    %rdx,-0x78(%rbp)
  105736:	48 8b 05 13 1e 01 00 	mov    0x11e13(%rip),%rax        # 117550 <display+0x30>
  10573d:	48 89 45 90          	mov    %rax,-0x70(%rbp)
  105741:	8b 45 88             	mov    -0x78(%rbp),%eax
  105744:	89 45 fc             	mov    %eax,-0x4(%rbp)
  105747:	8b 45 8c             	mov    -0x74(%rbp),%eax
  10574a:	89 45 f8             	mov    %eax,-0x8(%rbp)
  10574d:	8b 45 b8             	mov    -0x48(%rbp),%eax
  105750:	89 45 f4             	mov    %eax,-0xc(%rbp)
  105753:	8b 45 bc             	mov    -0x44(%rbp),%eax
  105756:	89 45 f0             	mov    %eax,-0x10(%rbp)
  105759:	8b 45 b4             	mov    -0x4c(%rbp),%eax
  10575c:	83 e8 01             	sub    $0x1,%eax
  10575f:	89 45 ec             	mov    %eax,-0x14(%rbp)
  105762:	8b 45 f0             	mov    -0x10(%rbp),%eax
  105765:	0f af 45 fc          	imul   -0x4(%rbp),%eax
  105769:	c1 e0 02             	shl    $0x2,%eax
  10576c:	89 c0                	mov    %eax,%eax
  10576e:	48 89 45 e0          	mov    %rax,-0x20(%rbp)
  105772:	48 8b 45 80          	mov    -0x80(%rbp),%rax
  105776:	48 89 45 d8          	mov    %rax,-0x28(%rbp)
  10577a:	8b 45 ec             	mov    -0x14(%rbp),%eax
  10577d:	48 0f af 45 e0       	imul   -0x20(%rbp),%rax
  105782:	48 89 c2             	mov    %rax,%rdx
  105785:	48 8b 4d d8          	mov    -0x28(%rbp),%rcx
  105789:	48 8b 45 e0          	mov    -0x20(%rbp),%rax
  10578d:	48 01 c8             	add    %rcx,%rax
  105790:	48 89 c1             	mov    %rax,%rcx
  105793:	48 8b 45 d8          	mov    -0x28(%rbp),%rax
  105797:	48 89 ce             	mov    %rcx,%rsi
  10579a:	48 89 c7             	mov    %rax,%rdi
  10579d:	e8 87 76 00 00       	callq  10ce29 <_Z6memcpyPvPKvm>
  1057a2:	8b 45 ec             	mov    -0x14(%rbp),%eax
  1057a5:	48 8b 55 e0          	mov    -0x20(%rbp),%rdx
  1057a9:	48 0f af c2          	imul   %rdx,%rax
  1057ad:	48 89 45 d0          	mov    %rax,-0x30(%rbp)
  1057b1:	48 8b 55 d8          	mov    -0x28(%rbp),%rdx
  1057b5:	48 8b 45 d0          	mov    -0x30(%rbp),%rax
  1057b9:	48 01 d0             	add    %rdx,%rax
  1057bc:	48 89 45 c8          	mov    %rax,-0x38(%rbp)
  1057c0:	8b 45 a0             	mov    -0x60(%rbp),%eax
  1057c3:	89 c1                	mov    %eax,%ecx
  1057c5:	48 8b 55 e0          	mov    -0x20(%rbp),%rdx
  1057c9:	48 8b 45 c8          	mov    -0x38(%rbp),%rax
  1057cd:	89 ce                	mov    %ecx,%esi
  1057cf:	48 89 c7             	mov    %rax,%rdi
  1057d2:	e8 94 76 00 00       	callq  10ce6b <_Z6memsetPvim>
  1057d7:	90                   	nop
  1057d8:	c9                   	leaveq 
  1057d9:	c3                   	retq   

00000000001057da <_ZN7Display4putcEc>:
  1057da:	f3 0f 1e fa          	endbr64 
  1057de:	55                   	push   %rbp
  1057df:	48 89 e5             	mov    %rsp,%rbp
  1057e2:	48 83 ec 40          	sub    $0x40,%rsp
  1057e6:	48 89 7d c8          	mov    %rdi,-0x38(%rbp)
  1057ea:	89 f0                	mov    %esi,%eax
  1057ec:	88 45 c4             	mov    %al,-0x3c(%rbp)
  1057ef:	c7 45 fc 00 00 00 00 	movl   $0x0,-0x4(%rbp)
  1057f6:	c7 45 f8 00 00 00 00 	movl   $0x0,-0x8(%rbp)
  1057fd:	c7 45 f4 ff ff ff ff 	movl   $0xffffffff,-0xc(%rbp)
  105804:	c7 45 e4 ff ff ff ff 	movl   $0xffffffff,-0x1c(%rbp)
  10580b:	c7 45 f0 00 00 00 00 	movl   $0x0,-0x10(%rbp)
  105812:	8b 05 10 1d 01 00    	mov    0x11d10(%rip),%eax        # 117528 <display+0x8>
  105818:	89 45 ec             	mov    %eax,-0x14(%rbp)
  10581b:	8b 05 0b 1d 01 00    	mov    0x11d0b(%rip),%eax        # 11752c <display+0xc>
  105821:	89 45 e8             	mov    %eax,-0x18(%rbp)
  105824:	8b 05 06 1d 01 00    	mov    0x11d06(%rip),%eax        # 117530 <display+0x10>
  10582a:	89 45 e0             	mov    %eax,-0x20(%rbp)
  10582d:	8b 05 01 1d 01 00    	mov    0x11d01(%rip),%eax        # 117534 <display+0x14>
  105833:	89 45 dc             	mov    %eax,-0x24(%rbp)
  105836:	80 7d c4 0a          	cmpb   $0xa,-0x3c(%rbp)
  10583a:	75 10                	jne    10584c <_ZN7Display4putcEc+0x72>
  10583c:	c7 45 f4 00 00 00 00 	movl   $0x0,-0xc(%rbp)
  105843:	c7 45 f8 01 00 00 00 	movl   $0x1,-0x8(%rbp)
  10584a:	eb 42                	jmp    10588e <_ZN7Display4putcEc+0xb4>
  10584c:	80 7d c4 0d          	cmpb   $0xd,-0x3c(%rbp)
  105850:	75 09                	jne    10585b <_ZN7Display4putcEc+0x81>
  105852:	c7 45 f4 00 00 00 00 	movl   $0x0,-0xc(%rbp)
  105859:	eb 33                	jmp    10588e <_ZN7Display4putcEc+0xb4>
  10585b:	80 7d c4 09          	cmpb   $0x9,-0x3c(%rbp)
  10585f:	75 09                	jne    10586a <_ZN7Display4putcEc+0x90>
  105861:	c7 45 fc 04 00 00 00 	movl   $0x4,-0x4(%rbp)
  105868:	eb 24                	jmp    10588e <_ZN7Display4putcEc+0xb4>
  10586a:	80 7d c4 08          	cmpb   $0x8,-0x3c(%rbp)
  10586e:	75 10                	jne    105880 <_ZN7Display4putcEc+0xa6>
  105870:	c7 45 fc ff ff ff ff 	movl   $0xffffffff,-0x4(%rbp)
  105877:	c7 45 f0 02 00 00 00 	movl   $0x2,-0x10(%rbp)
  10587e:	eb 0e                	jmp    10588e <_ZN7Display4putcEc+0xb4>
  105880:	c7 45 fc 01 00 00 00 	movl   $0x1,-0x4(%rbp)
  105887:	c7 45 f0 01 00 00 00 	movl   $0x1,-0x10(%rbp)
  10588e:	83 7d f0 01          	cmpl   $0x1,-0x10(%rbp)
  105892:	75 13                	jne    1058a7 <_ZN7Display4putcEc+0xcd>
  105894:	0f be 45 c4          	movsbl -0x3c(%rbp),%eax
  105898:	8b 55 e8             	mov    -0x18(%rbp),%edx
  10589b:	8b 4d ec             	mov    -0x14(%rbp),%ecx
  10589e:	89 ce                	mov    %ecx,%esi
  1058a0:	89 c7                	mov    %eax,%edi
  1058a2:	e8 8f fc ff ff       	callq  105536 <_Z10putchar_atcjj>
  1058a7:	83 7d f0 02          	cmpl   $0x2,-0x10(%rbp)
  1058ab:	75 12                	jne    1058bf <_ZN7Display4putcEc+0xe5>
  1058ad:	8b 45 ec             	mov    -0x14(%rbp),%eax
  1058b0:	8d 50 ff             	lea    -0x1(%rax),%edx
  1058b3:	8b 45 e8             	mov    -0x18(%rbp),%eax
  1058b6:	89 c6                	mov    %eax,%esi
  1058b8:	89 d7                	mov    %edx,%edi
  1058ba:	e8 7e fd ff ff       	callq  10563d <_Z13empty_char_atjj>
  1058bf:	83 7d f4 ff          	cmpl   $0xffffffff,-0xc(%rbp)
  1058c3:	74 06                	je     1058cb <_ZN7Display4putcEc+0xf1>
  1058c5:	8b 45 f4             	mov    -0xc(%rbp),%eax
  1058c8:	89 45 ec             	mov    %eax,-0x14(%rbp)
  1058cb:	83 7d e4 ff          	cmpl   $0xffffffff,-0x1c(%rbp)
  1058cf:	74 06                	je     1058d7 <_ZN7Display4putcEc+0xfd>
  1058d1:	8b 45 e4             	mov    -0x1c(%rbp),%eax
  1058d4:	89 45 e8             	mov    %eax,-0x18(%rbp)
  1058d7:	83 7d fc 00          	cmpl   $0x0,-0x4(%rbp)
  1058db:	74 1b                	je     1058f8 <_ZN7Display4putcEc+0x11e>
  1058dd:	8b 45 fc             	mov    -0x4(%rbp),%eax
  1058e0:	01 45 ec             	add    %eax,-0x14(%rbp)
  1058e3:	8b 45 ec             	mov    -0x14(%rbp),%eax
  1058e6:	3b 45 e0             	cmp    -0x20(%rbp),%eax
  1058e9:	72 0d                	jb     1058f8 <_ZN7Display4putcEc+0x11e>
  1058eb:	8b 45 e0             	mov    -0x20(%rbp),%eax
  1058ee:	2b 45 ec             	sub    -0x14(%rbp),%eax
  1058f1:	89 45 ec             	mov    %eax,-0x14(%rbp)
  1058f4:	83 45 f8 01          	addl   $0x1,-0x8(%rbp)
  1058f8:	83 7d f8 00          	cmpl   $0x0,-0x8(%rbp)
  1058fc:	74 1c                	je     10591a <_ZN7Display4putcEc+0x140>
  1058fe:	8b 45 f8             	mov    -0x8(%rbp),%eax
  105901:	01 45 e8             	add    %eax,-0x18(%rbp)
  105904:	8b 45 e8             	mov    -0x18(%rbp),%eax
  105907:	3b 45 dc             	cmp    -0x24(%rbp),%eax
  10590a:	72 0e                	jb     10591a <_ZN7Display4putcEc+0x140>
  10590c:	e8 d7 fd ff ff       	callq  1056e8 <_Z9scroll_upv>
  105911:	8b 45 dc             	mov    -0x24(%rbp),%eax
  105914:	83 e8 01             	sub    $0x1,%eax
  105917:	89 45 e8             	mov    %eax,-0x18(%rbp)
  10591a:	8b 45 ec             	mov    -0x14(%rbp),%eax
  10591d:	89 05 05 1c 01 00    	mov    %eax,0x11c05(%rip)        # 117528 <display+0x8>
  105923:	8b 45 e8             	mov    -0x18(%rbp),%eax
  105926:	89 05 00 1c 01 00    	mov    %eax,0x11c00(%rip)        # 11752c <display+0xc>
  10592c:	b8 00 00 00 00       	mov    $0x0,%eax
  105931:	c9                   	leaveq 
  105932:	c3                   	retq   

0000000000105933 <_Z14ReadSectorsATAmjh>:
  105933:	f3 0f 1e fa          	endbr64 
  105937:	55                   	push   %rbp
  105938:	48 89 e5             	mov    %rsp,%rbp
  10593b:	53                   	push   %rbx
  10593c:	48 83 ec 28          	sub    $0x28,%rsp
  105940:	48 89 7d d8          	mov    %rdi,-0x28(%rbp)
  105944:	89 75 d4             	mov    %esi,-0x2c(%rbp)
  105947:	89 d0                	mov    %edx,%eax
  105949:	88 45 d0             	mov    %al,-0x30(%rbp)
  10594c:	e8 d0 01 00 00       	callq  105b21 <_ZL7WaitBSYv>
  105951:	8b 45 d4             	mov    -0x2c(%rbp),%eax
  105954:	c1 e8 18             	shr    $0x18,%eax
  105957:	83 e0 0f             	and    $0xf,%eax
  10595a:	83 c8 e0             	or     $0xffffffe0,%eax
  10595d:	0f b6 c0             	movzbl %al,%eax
  105960:	89 c6                	mov    %eax,%esi
  105962:	bf f6 01 00 00       	mov    $0x1f6,%edi
  105967:	e8 28 bf ff ff       	callq  101894 <_Z6__outbth>
  10596c:	0f b6 45 d0          	movzbl -0x30(%rbp),%eax
  105970:	89 c6                	mov    %eax,%esi
  105972:	bf f2 01 00 00       	mov    $0x1f2,%edi
  105977:	e8 18 bf ff ff       	callq  101894 <_Z6__outbth>
  10597c:	8b 45 d4             	mov    -0x2c(%rbp),%eax
  10597f:	0f b6 c0             	movzbl %al,%eax
  105982:	89 c6                	mov    %eax,%esi
  105984:	bf f3 01 00 00       	mov    $0x1f3,%edi
  105989:	e8 06 bf ff ff       	callq  101894 <_Z6__outbth>
  10598e:	8b 45 d4             	mov    -0x2c(%rbp),%eax
  105991:	c1 e8 08             	shr    $0x8,%eax
  105994:	0f b6 c0             	movzbl %al,%eax
  105997:	89 c6                	mov    %eax,%esi
  105999:	bf f4 01 00 00       	mov    $0x1f4,%edi
  10599e:	e8 f1 be ff ff       	callq  101894 <_Z6__outbth>
  1059a3:	8b 45 d4             	mov    -0x2c(%rbp),%eax
  1059a6:	c1 e8 10             	shr    $0x10,%eax
  1059a9:	0f b6 c0             	movzbl %al,%eax
  1059ac:	89 c6                	mov    %eax,%esi
  1059ae:	bf f5 01 00 00       	mov    $0x1f5,%edi
  1059b3:	e8 dc be ff ff       	callq  101894 <_Z6__outbth>
  1059b8:	be 20 00 00 00       	mov    $0x20,%esi
  1059bd:	bf f7 01 00 00       	mov    $0x1f7,%edi
  1059c2:	e8 cd be ff ff       	callq  101894 <_Z6__outbth>
  1059c7:	48 8b 45 d8          	mov    -0x28(%rbp),%rax
  1059cb:	48 89 45 e8          	mov    %rax,-0x18(%rbp)
  1059cf:	c7 45 e4 00 00 00 00 	movl   $0x0,-0x1c(%rbp)
  1059d6:	0f b6 45 d0          	movzbl -0x30(%rbp),%eax
  1059da:	39 45 e4             	cmp    %eax,-0x1c(%rbp)
  1059dd:	7d 4c                	jge    105a2b <_Z14ReadSectorsATAmjh+0xf8>
  1059df:	e8 3d 01 00 00       	callq  105b21 <_ZL7WaitBSYv>
  1059e4:	e8 56 01 00 00       	callq  105b3f <_ZL7WaitDRQv>
  1059e9:	c7 45 e0 00 00 00 00 	movl   $0x0,-0x20(%rbp)
  1059f0:	81 7d e0 ff 00 00 00 	cmpl   $0xff,-0x20(%rbp)
  1059f7:	7f 24                	jg     105a1d <_Z14ReadSectorsATAmjh+0xea>
  1059f9:	8b 45 e0             	mov    -0x20(%rbp),%eax
  1059fc:	48 98                	cltq   
  1059fe:	48 8d 14 00          	lea    (%rax,%rax,1),%rdx
  105a02:	48 8b 45 e8          	mov    -0x18(%rbp),%rax
  105a06:	48 8d 1c 02          	lea    (%rdx,%rax,1),%rbx
  105a0a:	bf f0 01 00 00       	mov    $0x1f0,%edi
  105a0f:	e8 3f be ff ff       	callq  101853 <_Z5__inwt>
  105a14:	66 89 03             	mov    %ax,(%rbx)
  105a17:	83 45 e0 01          	addl   $0x1,-0x20(%rbp)
  105a1b:	eb d3                	jmp    1059f0 <_Z14ReadSectorsATAmjh+0xbd>
  105a1d:	48 81 45 e8 00 02 00 	addq   $0x200,-0x18(%rbp)
  105a24:	00 
  105a25:	83 45 e4 01          	addl   $0x1,-0x1c(%rbp)
  105a29:	eb ab                	jmp    1059d6 <_Z14ReadSectorsATAmjh+0xa3>
  105a2b:	90                   	nop
  105a2c:	48 83 c4 28          	add    $0x28,%rsp
  105a30:	5b                   	pop    %rbx
  105a31:	5d                   	pop    %rbp
  105a32:	c3                   	retq   

0000000000105a33 <_Z15WriteSectorsATAjhPj>:
  105a33:	f3 0f 1e fa          	endbr64 
  105a37:	55                   	push   %rbp
  105a38:	48 89 e5             	mov    %rsp,%rbp
  105a3b:	48 83 ec 20          	sub    $0x20,%rsp
  105a3f:	89 7d ec             	mov    %edi,-0x14(%rbp)
  105a42:	89 f0                	mov    %esi,%eax
  105a44:	48 89 55 e0          	mov    %rdx,-0x20(%rbp)
  105a48:	88 45 e8             	mov    %al,-0x18(%rbp)
  105a4b:	e8 d1 00 00 00       	callq  105b21 <_ZL7WaitBSYv>
  105a50:	8b 45 ec             	mov    -0x14(%rbp),%eax
  105a53:	c1 e8 18             	shr    $0x18,%eax
  105a56:	83 e0 0f             	and    $0xf,%eax
  105a59:	83 c8 e0             	or     $0xffffffe0,%eax
  105a5c:	0f b6 c0             	movzbl %al,%eax
  105a5f:	89 c6                	mov    %eax,%esi
  105a61:	bf f6 01 00 00       	mov    $0x1f6,%edi
  105a66:	e8 29 be ff ff       	callq  101894 <_Z6__outbth>
  105a6b:	0f b6 45 e8          	movzbl -0x18(%rbp),%eax
  105a6f:	89 c6                	mov    %eax,%esi
  105a71:	bf f2 01 00 00       	mov    $0x1f2,%edi
  105a76:	e8 19 be ff ff       	callq  101894 <_Z6__outbth>
  105a7b:	8b 45 ec             	mov    -0x14(%rbp),%eax
  105a7e:	0f b6 c0             	movzbl %al,%eax
  105a81:	89 c6                	mov    %eax,%esi
  105a83:	bf f3 01 00 00       	mov    $0x1f3,%edi
  105a88:	e8 07 be ff ff       	callq  101894 <_Z6__outbth>
  105a8d:	8b 45 ec             	mov    -0x14(%rbp),%eax
  105a90:	c1 e8 08             	shr    $0x8,%eax
  105a93:	0f b6 c0             	movzbl %al,%eax
  105a96:	89 c6                	mov    %eax,%esi
  105a98:	bf f4 01 00 00       	mov    $0x1f4,%edi
  105a9d:	e8 f2 bd ff ff       	callq  101894 <_Z6__outbth>
  105aa2:	8b 45 ec             	mov    -0x14(%rbp),%eax
  105aa5:	c1 e8 10             	shr    $0x10,%eax
  105aa8:	0f b6 c0             	movzbl %al,%eax
  105aab:	89 c6                	mov    %eax,%esi
  105aad:	bf f5 01 00 00       	mov    $0x1f5,%edi
  105ab2:	e8 dd bd ff ff       	callq  101894 <_Z6__outbth>
  105ab7:	be 30 00 00 00       	mov    $0x30,%esi
  105abc:	bf f7 01 00 00       	mov    $0x1f7,%edi
  105ac1:	e8 ce bd ff ff       	callq  101894 <_Z6__outbth>
  105ac6:	c7 45 fc 00 00 00 00 	movl   $0x0,-0x4(%rbp)
  105acd:	0f b6 45 e8          	movzbl -0x18(%rbp),%eax
  105ad1:	39 45 fc             	cmp    %eax,-0x4(%rbp)
  105ad4:	7d 48                	jge    105b1e <_Z15WriteSectorsATAjhPj+0xeb>
  105ad6:	e8 46 00 00 00       	callq  105b21 <_ZL7WaitBSYv>
  105adb:	e8 5f 00 00 00       	callq  105b3f <_ZL7WaitDRQv>
  105ae0:	c7 45 f8 00 00 00 00 	movl   $0x0,-0x8(%rbp)
  105ae7:	81 7d f8 ff 00 00 00 	cmpl   $0xff,-0x8(%rbp)
  105aee:	7f 28                	jg     105b18 <_Z15WriteSectorsATAjhPj+0xe5>
  105af0:	8b 45 f8             	mov    -0x8(%rbp),%eax
  105af3:	48 98                	cltq   
  105af5:	48 8d 14 85 00 00 00 	lea    0x0(,%rax,4),%rdx
  105afc:	00 
  105afd:	48 8b 45 e0          	mov    -0x20(%rbp),%rax
  105b01:	48 01 d0             	add    %rdx,%rax
  105b04:	8b 00                	mov    (%rax),%eax
  105b06:	89 c6                	mov    %eax,%esi
  105b08:	bf f0 01 00 00       	mov    $0x1f0,%edi
  105b0d:	e8 cc bd ff ff       	callq  1018de <_Z6__outljj>
  105b12:	83 45 f8 01          	addl   $0x1,-0x8(%rbp)
  105b16:	eb cf                	jmp    105ae7 <_Z15WriteSectorsATAjhPj+0xb4>
  105b18:	83 45 fc 01          	addl   $0x1,-0x4(%rbp)
  105b1c:	eb af                	jmp    105acd <_Z15WriteSectorsATAjhPj+0x9a>
  105b1e:	90                   	nop
  105b1f:	c9                   	leaveq 
  105b20:	c3                   	retq   

0000000000105b21 <_ZL7WaitBSYv>:
  105b21:	f3 0f 1e fa          	endbr64 
  105b25:	55                   	push   %rbp
  105b26:	48 89 e5             	mov    %rsp,%rbp
  105b29:	bf f7 01 00 00       	mov    $0x1f7,%edi
  105b2e:	e8 fe bc ff ff       	callq  101831 <_Z5__inbt>
  105b33:	c0 e8 07             	shr    $0x7,%al
  105b36:	84 c0                	test   %al,%al
  105b38:	74 02                	je     105b3c <_ZL7WaitBSYv+0x1b>
  105b3a:	eb ed                	jmp    105b29 <_ZL7WaitBSYv+0x8>
  105b3c:	90                   	nop
  105b3d:	5d                   	pop    %rbp
  105b3e:	c3                   	retq   

0000000000105b3f <_ZL7WaitDRQv>:
  105b3f:	f3 0f 1e fa          	endbr64 
  105b43:	55                   	push   %rbp
  105b44:	48 89 e5             	mov    %rsp,%rbp
  105b47:	bf f7 01 00 00       	mov    $0x1f7,%edi
  105b4c:	e8 e0 bc ff ff       	callq  101831 <_Z5__inbt>
  105b51:	0f b6 c0             	movzbl %al,%eax
  105b54:	83 e0 40             	and    $0x40,%eax
  105b57:	85 c0                	test   %eax,%eax
  105b59:	0f 94 c0             	sete   %al
  105b5c:	84 c0                	test   %al,%al
  105b5e:	74 02                	je     105b62 <_ZL7WaitDRQv+0x23>
  105b60:	eb e5                	jmp    105b47 <_ZL7WaitDRQv+0x8>
  105b62:	90                   	nop
  105b63:	5d                   	pop    %rbp
  105b64:	c3                   	retq   
  105b65:	90                   	nop

0000000000105b66 <_ZN9ATADevice4ReadEmPvm>:
  105b66:	f3 0f 1e fa          	endbr64 
  105b6a:	55                   	push   %rbp
  105b6b:	48 89 e5             	mov    %rsp,%rbp
  105b6e:	48 83 ec 20          	sub    $0x20,%rsp
  105b72:	48 89 7d f8          	mov    %rdi,-0x8(%rbp)
  105b76:	48 89 75 f0          	mov    %rsi,-0x10(%rbp)
  105b7a:	48 89 55 e8          	mov    %rdx,-0x18(%rbp)
  105b7e:	48 89 4d e0          	mov    %rcx,-0x20(%rbp)
  105b82:	48 8b 45 e0          	mov    -0x20(%rbp),%rax
  105b86:	0f b6 d0             	movzbl %al,%edx
  105b89:	48 8b 45 f0          	mov    -0x10(%rbp),%rax
  105b8d:	89 c1                	mov    %eax,%ecx
  105b8f:	48 8b 45 e8          	mov    -0x18(%rbp),%rax
  105b93:	89 ce                	mov    %ecx,%esi
  105b95:	48 89 c7             	mov    %rax,%rdi
  105b98:	e8 96 fd ff ff       	callq  105933 <_Z14ReadSectorsATAmjh>
  105b9d:	90                   	nop
  105b9e:	c9                   	leaveq 
  105b9f:	c3                   	retq   

0000000000105ba0 <_ZN9ATADevice5WriteEmPvm>:
  105ba0:	f3 0f 1e fa          	endbr64 
  105ba4:	55                   	push   %rbp
  105ba5:	48 89 e5             	mov    %rsp,%rbp
  105ba8:	48 83 ec 20          	sub    $0x20,%rsp
  105bac:	48 89 7d f8          	mov    %rdi,-0x8(%rbp)
  105bb0:	48 89 75 f0          	mov    %rsi,-0x10(%rbp)
  105bb4:	48 89 55 e8          	mov    %rdx,-0x18(%rbp)
  105bb8:	48 89 4d e0          	mov    %rcx,-0x20(%rbp)
  105bbc:	48 8b 45 e0          	mov    -0x20(%rbp),%rax
  105bc0:	0f b6 c0             	movzbl %al,%eax
  105bc3:	48 8b 55 f0          	mov    -0x10(%rbp),%rdx
  105bc7:	89 d1                	mov    %edx,%ecx
  105bc9:	48 8b 55 e8          	mov    -0x18(%rbp),%rdx
  105bcd:	89 c6                	mov    %eax,%esi
  105bcf:	89 cf                	mov    %ecx,%edi
  105bd1:	e8 5d fe ff ff       	callq  105a33 <_Z15WriteSectorsATAjhPj>
  105bd6:	90                   	nop
  105bd7:	c9                   	leaveq 
  105bd8:	c3                   	retq   

0000000000105bd9 <_Z9MouseWaitv>:
  105bd9:	f3 0f 1e fa          	endbr64 
  105bdd:	55                   	push   %rbp
  105bde:	48 89 e5             	mov    %rsp,%rbp
  105be1:	48 83 ec 10          	sub    $0x10,%rsp
  105be5:	48 c7 45 f8 a0 86 01 	movq   $0x186a0,-0x8(%rbp)
  105bec:	00 
  105bed:	48 8b 45 f8          	mov    -0x8(%rbp),%rax
  105bf1:	48 8d 50 ff          	lea    -0x1(%rax),%rdx
  105bf5:	48 89 55 f8          	mov    %rdx,-0x8(%rbp)
  105bf9:	48 85 c0             	test   %rax,%rax
  105bfc:	0f 95 c0             	setne  %al
  105bff:	84 c0                	test   %al,%al
  105c01:	74 1c                	je     105c1f <_Z9MouseWaitv+0x46>
  105c03:	bf 64 00 00 00       	mov    $0x64,%edi
  105c08:	e8 24 bc ff ff       	callq  101831 <_Z5__inbt>
  105c0d:	0f b6 c0             	movzbl %al,%eax
  105c10:	83 e0 02             	and    $0x2,%eax
  105c13:	85 c0                	test   %eax,%eax
  105c15:	0f 94 c0             	sete   %al
  105c18:	84 c0                	test   %al,%al
  105c1a:	75 02                	jne    105c1e <_Z9MouseWaitv+0x45>
  105c1c:	eb cf                	jmp    105bed <_Z9MouseWaitv+0x14>
  105c1e:	90                   	nop
  105c1f:	c9                   	leaveq 
  105c20:	c3                   	retq   

0000000000105c21 <_Z14MouseWaitInputv>:
  105c21:	f3 0f 1e fa          	endbr64 
  105c25:	55                   	push   %rbp
  105c26:	48 89 e5             	mov    %rsp,%rbp
  105c29:	48 83 ec 10          	sub    $0x10,%rsp
  105c2d:	48 c7 45 f8 a0 86 01 	movq   $0x186a0,-0x8(%rbp)
  105c34:	00 
  105c35:	48 8b 45 f8          	mov    -0x8(%rbp),%rax
  105c39:	48 8d 50 ff          	lea    -0x1(%rax),%rdx
  105c3d:	48 89 55 f8          	mov    %rdx,-0x8(%rbp)
  105c41:	48 85 c0             	test   %rax,%rax
  105c44:	0f 95 c0             	setne  %al
  105c47:	84 c0                	test   %al,%al
  105c49:	74 1c                	je     105c67 <_Z14MouseWaitInputv+0x46>
  105c4b:	bf 64 00 00 00       	mov    $0x64,%edi
  105c50:	e8 dc bb ff ff       	callq  101831 <_Z5__inbt>
  105c55:	0f b6 c0             	movzbl %al,%eax
  105c58:	83 e0 01             	and    $0x1,%eax
  105c5b:	85 c0                	test   %eax,%eax
  105c5d:	0f 95 c0             	setne  %al
  105c60:	84 c0                	test   %al,%al
  105c62:	75 02                	jne    105c66 <_Z14MouseWaitInputv+0x45>
  105c64:	eb cf                	jmp    105c35 <_Z14MouseWaitInputv+0x14>
  105c66:	90                   	nop
  105c67:	c9                   	leaveq 
  105c68:	c3                   	retq   

0000000000105c69 <_Z10MouseWriteh>:
  105c69:	f3 0f 1e fa          	endbr64 
  105c6d:	55                   	push   %rbp
  105c6e:	48 89 e5             	mov    %rsp,%rbp
  105c71:	48 83 ec 10          	sub    $0x10,%rsp
  105c75:	89 f8                	mov    %edi,%eax
  105c77:	88 45 fc             	mov    %al,-0x4(%rbp)
  105c7a:	e8 5a ff ff ff       	callq  105bd9 <_Z9MouseWaitv>
  105c7f:	be d4 00 00 00       	mov    $0xd4,%esi
  105c84:	bf 64 00 00 00       	mov    $0x64,%edi
  105c89:	e8 06 bc ff ff       	callq  101894 <_Z6__outbth>
  105c8e:	e8 46 ff ff ff       	callq  105bd9 <_Z9MouseWaitv>
  105c93:	0f b6 45 fc          	movzbl -0x4(%rbp),%eax
  105c97:	89 c6                	mov    %eax,%esi
  105c99:	bf 60 00 00 00       	mov    $0x60,%edi
  105c9e:	e8 f1 bb ff ff       	callq  101894 <_Z6__outbth>
  105ca3:	90                   	nop
  105ca4:	c9                   	leaveq 
  105ca5:	c3                   	retq   

0000000000105ca6 <_Z9MouseReadv>:
  105ca6:	f3 0f 1e fa          	endbr64 
  105caa:	55                   	push   %rbp
  105cab:	48 89 e5             	mov    %rsp,%rbp
  105cae:	e8 6e ff ff ff       	callq  105c21 <_Z14MouseWaitInputv>
  105cb3:	bf 60 00 00 00       	mov    $0x60,%edi
  105cb8:	e8 74 bb ff ff       	callq  101831 <_Z5__inbt>
  105cbd:	5d                   	pop    %rbp
  105cbe:	c3                   	retq   

0000000000105cbf <_ZL18ProcessMousePacketv>:
  105cbf:	f3 0f 1e fa          	endbr64 
  105cc3:	55                   	push   %rbp
  105cc4:	48 89 e5             	mov    %rsp,%rbp
  105cc7:	48 83 ec 10          	sub    $0x10,%rsp
  105ccb:	0f b6 05 ab 18 01 00 	movzbl 0x118ab(%rip),%eax        # 11757d <_ZL16MousePacketReady>
  105cd2:	84 c0                	test   %al,%al
  105cd4:	0f 84 9a 02 00 00    	je     105f74 <_ZL18ProcessMousePacketv+0x2b5>
  105cda:	0f b6 05 98 18 01 00 	movzbl 0x11898(%rip),%eax        # 117579 <_ZL11MousePacket>
  105ce1:	83 e0 10             	and    $0x10,%eax
  105ce4:	88 45 ff             	mov    %al,-0x1(%rbp)
  105ce7:	0f b6 05 8b 18 01 00 	movzbl 0x1188b(%rip),%eax        # 117579 <_ZL11MousePacket>
  105cee:	83 e0 20             	and    $0x20,%eax
  105cf1:	88 45 fe             	mov    %al,-0x2(%rbp)
  105cf4:	0f b6 05 7e 18 01 00 	movzbl 0x1187e(%rip),%eax        # 117579 <_ZL11MousePacket>
  105cfb:	83 e0 40             	and    $0x40,%eax
  105cfe:	88 45 fd             	mov    %al,-0x3(%rbp)
  105d01:	0f b6 05 71 18 01 00 	movzbl 0x11871(%rip),%eax        # 117579 <_ZL11MousePacket>
  105d08:	83 e0 80             	and    $0xffffff80,%eax
  105d0b:	88 45 fc             	mov    %al,-0x4(%rbp)
  105d0e:	80 7d ff 00          	cmpb   $0x0,-0x1(%rbp)
  105d12:	75 31                	jne    105d45 <_ZL18ProcessMousePacketv+0x86>
  105d14:	0f b6 05 5f 18 01 00 	movzbl 0x1185f(%rip),%eax        # 11757a <_ZL11MousePacket+0x1>
  105d1b:	0f b6 d0             	movzbl %al,%edx
  105d1e:	8b 05 5c 18 01 00    	mov    0x1185c(%rip),%eax        # 117580 <_ZL14MousePositionX>
  105d24:	01 d0                	add    %edx,%eax
  105d26:	89 05 54 18 01 00    	mov    %eax,0x11854(%rip)        # 117580 <_ZL14MousePositionX>
  105d2c:	80 7d fd 00          	cmpb   $0x0,-0x3(%rbp)
  105d30:	74 53                	je     105d85 <_ZL18ProcessMousePacketv+0xc6>
  105d32:	8b 05 48 18 01 00    	mov    0x11848(%rip),%eax        # 117580 <_ZL14MousePositionX>
  105d38:	05 ff 00 00 00       	add    $0xff,%eax
  105d3d:	89 05 3d 18 01 00    	mov    %eax,0x1183d(%rip)        # 117580 <_ZL14MousePositionX>
  105d43:	eb 40                	jmp    105d85 <_ZL18ProcessMousePacketv+0xc6>
  105d45:	0f b6 05 2e 18 01 00 	movzbl 0x1182e(%rip),%eax        # 11757a <_ZL11MousePacket+0x1>
  105d4c:	f7 d8                	neg    %eax
  105d4e:	88 05 26 18 01 00    	mov    %al,0x11826(%rip)        # 11757a <_ZL11MousePacket+0x1>
  105d54:	8b 15 26 18 01 00    	mov    0x11826(%rip),%edx        # 117580 <_ZL14MousePositionX>
  105d5a:	0f b6 05 19 18 01 00 	movzbl 0x11819(%rip),%eax        # 11757a <_ZL11MousePacket+0x1>
  105d61:	0f b6 c0             	movzbl %al,%eax
  105d64:	29 c2                	sub    %eax,%edx
  105d66:	89 d0                	mov    %edx,%eax
  105d68:	89 05 12 18 01 00    	mov    %eax,0x11812(%rip)        # 117580 <_ZL14MousePositionX>
  105d6e:	80 7d fd 00          	cmpb   $0x0,-0x3(%rbp)
  105d72:	74 11                	je     105d85 <_ZL18ProcessMousePacketv+0xc6>
  105d74:	8b 05 06 18 01 00    	mov    0x11806(%rip),%eax        # 117580 <_ZL14MousePositionX>
  105d7a:	2d ff 00 00 00       	sub    $0xff,%eax
  105d7f:	89 05 fb 17 01 00    	mov    %eax,0x117fb(%rip)        # 117580 <_ZL14MousePositionX>
  105d85:	80 7d fe 00          	cmpb   $0x0,-0x2(%rbp)
  105d89:	75 33                	jne    105dbe <_ZL18ProcessMousePacketv+0xff>
  105d8b:	8b 15 f3 17 01 00    	mov    0x117f3(%rip),%edx        # 117584 <_ZL14MousePositionY>
  105d91:	0f b6 05 e3 17 01 00 	movzbl 0x117e3(%rip),%eax        # 11757b <_ZL11MousePacket+0x2>
  105d98:	0f b6 c0             	movzbl %al,%eax
  105d9b:	29 c2                	sub    %eax,%edx
  105d9d:	89 d0                	mov    %edx,%eax
  105d9f:	89 05 df 17 01 00    	mov    %eax,0x117df(%rip)        # 117584 <_ZL14MousePositionY>
  105da5:	80 7d fc 00          	cmpb   $0x0,-0x4(%rbp)
  105da9:	74 51                	je     105dfc <_ZL18ProcessMousePacketv+0x13d>
  105dab:	8b 05 d3 17 01 00    	mov    0x117d3(%rip),%eax        # 117584 <_ZL14MousePositionY>
  105db1:	2d ff 00 00 00       	sub    $0xff,%eax
  105db6:	89 05 c8 17 01 00    	mov    %eax,0x117c8(%rip)        # 117584 <_ZL14MousePositionY>
  105dbc:	eb 3e                	jmp    105dfc <_ZL18ProcessMousePacketv+0x13d>
  105dbe:	0f b6 05 b6 17 01 00 	movzbl 0x117b6(%rip),%eax        # 11757b <_ZL11MousePacket+0x2>
  105dc5:	f7 d8                	neg    %eax
  105dc7:	88 05 ae 17 01 00    	mov    %al,0x117ae(%rip)        # 11757b <_ZL11MousePacket+0x2>
  105dcd:	0f b6 05 a7 17 01 00 	movzbl 0x117a7(%rip),%eax        # 11757b <_ZL11MousePacket+0x2>
  105dd4:	0f b6 d0             	movzbl %al,%edx
  105dd7:	8b 05 a7 17 01 00    	mov    0x117a7(%rip),%eax        # 117584 <_ZL14MousePositionY>
  105ddd:	01 d0                	add    %edx,%eax
  105ddf:	89 05 9f 17 01 00    	mov    %eax,0x1179f(%rip)        # 117584 <_ZL14MousePositionY>
  105de5:	80 7d fc 00          	cmpb   $0x0,-0x4(%rbp)
  105de9:	74 11                	je     105dfc <_ZL18ProcessMousePacketv+0x13d>
  105deb:	8b 05 93 17 01 00    	mov    0x11793(%rip),%eax        # 117584 <_ZL14MousePositionY>
  105df1:	05 ff 00 00 00       	add    $0xff,%eax
  105df6:	89 05 88 17 01 00    	mov    %eax,0x11788(%rip)        # 117584 <_ZL14MousePositionY>
  105dfc:	8b 05 7e 17 01 00    	mov    0x1177e(%rip),%eax        # 117580 <_ZL14MousePositionX>
  105e02:	85 c0                	test   %eax,%eax
  105e04:	79 0a                	jns    105e10 <_ZL18ProcessMousePacketv+0x151>
  105e06:	c7 05 70 17 01 00 00 	movl   $0x0,0x11770(%rip)        # 117580 <_ZL14MousePositionX>
  105e0d:	00 00 00 
  105e10:	8b 05 7a 17 01 00    	mov    0x1177a(%rip),%eax        # 117590 <_ZL5Width>
  105e16:	8d 50 ff             	lea    -0x1(%rax),%edx
  105e19:	8b 05 61 17 01 00    	mov    0x11761(%rip),%eax        # 117580 <_ZL14MousePositionX>
  105e1f:	39 c2                	cmp    %eax,%edx
  105e21:	73 0f                	jae    105e32 <_ZL18ProcessMousePacketv+0x173>
  105e23:	8b 05 67 17 01 00    	mov    0x11767(%rip),%eax        # 117590 <_ZL5Width>
  105e29:	83 e8 01             	sub    $0x1,%eax
  105e2c:	89 05 4e 17 01 00    	mov    %eax,0x1174e(%rip)        # 117580 <_ZL14MousePositionX>
  105e32:	8b 05 4c 17 01 00    	mov    0x1174c(%rip),%eax        # 117584 <_ZL14MousePositionY>
  105e38:	85 c0                	test   %eax,%eax
  105e3a:	79 0a                	jns    105e46 <_ZL18ProcessMousePacketv+0x187>
  105e3c:	c7 05 3e 17 01 00 00 	movl   $0x0,0x1173e(%rip)        # 117584 <_ZL14MousePositionY>
  105e43:	00 00 00 
  105e46:	8b 05 48 17 01 00    	mov    0x11748(%rip),%eax        # 117594 <_ZL6Height>
  105e4c:	8d 50 ff             	lea    -0x1(%rax),%edx
  105e4f:	8b 05 2f 17 01 00    	mov    0x1172f(%rip),%eax        # 117584 <_ZL14MousePositionY>
  105e55:	39 c2                	cmp    %eax,%edx
  105e57:	73 0f                	jae    105e68 <_ZL18ProcessMousePacketv+0x1a9>
  105e59:	8b 05 35 17 01 00    	mov    0x11735(%rip),%eax        # 117594 <_ZL6Height>
  105e5f:	83 e8 01             	sub    $0x1,%eax
  105e62:	89 05 1c 17 01 00    	mov    %eax,0x1171c(%rip)        # 117584 <_ZL14MousePositionY>
  105e68:	e8 7f f4 ff ff       	callq  1052ec <_ZN7Display13SharedDisplayEv>
  105e6d:	48 83 c0 20          	add    $0x20,%rax
  105e71:	8b 15 15 17 01 00    	mov    0x11715(%rip),%edx        # 11758c <_ZL17MousePositionOldY>
  105e77:	89 d1                	mov    %edx,%ecx
  105e79:	8b 15 09 17 01 00    	mov    0x11709(%rip),%edx        # 117588 <_ZL17MousePositionOldX>
  105e7f:	48 8d 35 7a 91 00 00 	lea    0x917a(%rip),%rsi        # 10f000 <MousePointer>
  105e86:	48 89 c7             	mov    %rax,%rdi
  105e89:	e8 d4 f2 ff ff       	callq  105162 <_ZN11Framebuffer16ClearMouseCursorEPhjj>
  105e8e:	e8 59 f4 ff ff       	callq  1052ec <_ZN7Display13SharedDisplayEv>
  105e93:	48 83 c0 20          	add    $0x20,%rax
  105e97:	8b 15 e7 16 01 00    	mov    0x116e7(%rip),%edx        # 117584 <_ZL14MousePositionY>
  105e9d:	89 d1                	mov    %edx,%ecx
  105e9f:	8b 15 db 16 01 00    	mov    0x116db(%rip),%edx        # 117580 <_ZL14MousePositionX>
  105ea5:	41 b8 ff ff ff ff    	mov    $0xffffffff,%r8d
  105eab:	48 8d 35 4e 91 00 00 	lea    0x914e(%rip),%rsi        # 10f000 <MousePointer>
  105eb2:	48 89 c7             	mov    %rax,%rdi
  105eb5:	e8 04 f1 ff ff       	callq  104fbe <_ZN11Framebuffer15DrawMouseCursorEPhjjj>
  105eba:	0f b6 05 b8 16 01 00 	movzbl 0x116b8(%rip),%eax        # 117579 <_ZL11MousePacket>
  105ec1:	0f b6 c0             	movzbl %al,%eax
  105ec4:	83 e0 01             	and    $0x1,%eax
  105ec7:	85 c0                	test   %eax,%eax
  105ec9:	74 12                	je     105edd <_ZL18ProcessMousePacketv+0x21e>
  105ecb:	0f b6 05 c6 16 01 00 	movzbl 0x116c6(%rip),%eax        # 117598 <_ZL7buttons>
  105ed2:	83 c8 01             	or     $0x1,%eax
  105ed5:	88 05 bd 16 01 00    	mov    %al,0x116bd(%rip)        # 117598 <_ZL7buttons>
  105edb:	eb 10                	jmp    105eed <_ZL18ProcessMousePacketv+0x22e>
  105edd:	0f b6 05 b4 16 01 00 	movzbl 0x116b4(%rip),%eax        # 117598 <_ZL7buttons>
  105ee4:	83 e0 fe             	and    $0xfffffffe,%eax
  105ee7:	88 05 ab 16 01 00    	mov    %al,0x116ab(%rip)        # 117598 <_ZL7buttons>
  105eed:	0f b6 05 85 16 01 00 	movzbl 0x11685(%rip),%eax        # 117579 <_ZL11MousePacket>
  105ef4:	0f b6 c0             	movzbl %al,%eax
  105ef7:	83 e0 04             	and    $0x4,%eax
  105efa:	85 c0                	test   %eax,%eax
  105efc:	74 12                	je     105f10 <_ZL18ProcessMousePacketv+0x251>
  105efe:	0f b6 05 93 16 01 00 	movzbl 0x11693(%rip),%eax        # 117598 <_ZL7buttons>
  105f05:	83 c8 02             	or     $0x2,%eax
  105f08:	88 05 8a 16 01 00    	mov    %al,0x1168a(%rip)        # 117598 <_ZL7buttons>
  105f0e:	eb 10                	jmp    105f20 <_ZL18ProcessMousePacketv+0x261>
  105f10:	0f b6 05 81 16 01 00 	movzbl 0x11681(%rip),%eax        # 117598 <_ZL7buttons>
  105f17:	83 e0 fd             	and    $0xfffffffd,%eax
  105f1a:	88 05 78 16 01 00    	mov    %al,0x11678(%rip)        # 117598 <_ZL7buttons>
  105f20:	0f b6 05 52 16 01 00 	movzbl 0x11652(%rip),%eax        # 117579 <_ZL11MousePacket>
  105f27:	0f b6 c0             	movzbl %al,%eax
  105f2a:	83 e0 02             	and    $0x2,%eax
  105f2d:	85 c0                	test   %eax,%eax
  105f2f:	74 12                	je     105f43 <_ZL18ProcessMousePacketv+0x284>
  105f31:	0f b6 05 60 16 01 00 	movzbl 0x11660(%rip),%eax        # 117598 <_ZL7buttons>
  105f38:	83 c8 04             	or     $0x4,%eax
  105f3b:	88 05 57 16 01 00    	mov    %al,0x11657(%rip)        # 117598 <_ZL7buttons>
  105f41:	eb 10                	jmp    105f53 <_ZL18ProcessMousePacketv+0x294>
  105f43:	0f b6 05 4e 16 01 00 	movzbl 0x1164e(%rip),%eax        # 117598 <_ZL7buttons>
  105f4a:	83 e0 fb             	and    $0xfffffffb,%eax
  105f4d:	88 05 45 16 01 00    	mov    %al,0x11645(%rip)        # 117598 <_ZL7buttons>
  105f53:	c6 05 23 16 01 00 00 	movb   $0x0,0x11623(%rip)        # 11757d <_ZL16MousePacketReady>
  105f5a:	8b 05 20 16 01 00    	mov    0x11620(%rip),%eax        # 117580 <_ZL14MousePositionX>
  105f60:	89 05 22 16 01 00    	mov    %eax,0x11622(%rip)        # 117588 <_ZL17MousePositionOldX>
  105f66:	8b 05 18 16 01 00    	mov    0x11618(%rip),%eax        # 117584 <_ZL14MousePositionY>
  105f6c:	89 05 1a 16 01 00    	mov    %eax,0x1161a(%rip)        # 11758c <_ZL17MousePositionOldY>
  105f72:	eb 01                	jmp    105f75 <_ZL18ProcessMousePacketv+0x2b6>
  105f74:	90                   	nop
  105f75:	c9                   	leaveq 
  105f76:	c3                   	retq   

0000000000105f77 <_ZL14mouse_callbackP9Registers>:
  105f77:	f3 0f 1e fa          	endbr64 
  105f7b:	55                   	push   %rbp
  105f7c:	48 89 e5             	mov    %rsp,%rbp
  105f7f:	48 83 ec 20          	sub    $0x20,%rsp
  105f83:	48 89 7d e8          	mov    %rdi,-0x18(%rbp)
  105f87:	bf 64 00 00 00       	mov    $0x64,%edi
  105f8c:	e8 a0 b8 ff ff       	callq  101831 <_Z5__inbt>
  105f91:	88 45 ff             	mov    %al,-0x1(%rbp)
  105f94:	e8 26 fd ff ff       	callq  105cbf <_ZL18ProcessMousePacketv>
  105f99:	0f b6 05 80 90 00 00 	movzbl 0x9080(%rip),%eax        # 10f020 <_ZZL14mouse_callbackP9RegistersE4skip>
  105fa0:	84 c0                	test   %al,%al
  105fa2:	74 09                	je     105fad <_ZL14mouse_callbackP9Registers+0x36>
  105fa4:	c6 05 75 90 00 00 00 	movb   $0x0,0x9075(%rip)        # 10f020 <_ZZL14mouse_callbackP9RegistersE4skip>
  105fab:	eb 7d                	jmp    10602a <_ZL14mouse_callbackP9Registers+0xb3>
  105fad:	0f b6 05 c4 15 01 00 	movzbl 0x115c4(%rip),%eax        # 117578 <_ZL10MouseCycle>
  105fb4:	0f b6 c0             	movzbl %al,%eax
  105fb7:	83 f8 02             	cmp    $0x2,%eax
  105fba:	74 53                	je     10600f <_ZL14mouse_callbackP9Registers+0x98>
  105fbc:	83 f8 02             	cmp    $0x2,%eax
  105fbf:	7f 69                	jg     10602a <_ZL14mouse_callbackP9Registers+0xb3>
  105fc1:	85 c0                	test   %eax,%eax
  105fc3:	74 07                	je     105fcc <_ZL14mouse_callbackP9Registers+0x55>
  105fc5:	83 f8 01             	cmp    $0x1,%eax
  105fc8:	74 29                	je     105ff3 <_ZL14mouse_callbackP9Registers+0x7c>
  105fca:	eb 5e                	jmp    10602a <_ZL14mouse_callbackP9Registers+0xb3>
  105fcc:	0f b6 45 ff          	movzbl -0x1(%rbp),%eax
  105fd0:	83 e0 08             	and    $0x8,%eax
  105fd3:	85 c0                	test   %eax,%eax
  105fd5:	74 52                	je     106029 <_ZL14mouse_callbackP9Registers+0xb2>
  105fd7:	0f b6 45 ff          	movzbl -0x1(%rbp),%eax
  105fdb:	88 05 98 15 01 00    	mov    %al,0x11598(%rip)        # 117579 <_ZL11MousePacket>
  105fe1:	0f b6 05 90 15 01 00 	movzbl 0x11590(%rip),%eax        # 117578 <_ZL10MouseCycle>
  105fe8:	83 c0 01             	add    $0x1,%eax
  105feb:	88 05 87 15 01 00    	mov    %al,0x11587(%rip)        # 117578 <_ZL10MouseCycle>
  105ff1:	eb 37                	jmp    10602a <_ZL14mouse_callbackP9Registers+0xb3>
  105ff3:	0f b6 45 ff          	movzbl -0x1(%rbp),%eax
  105ff7:	88 05 7d 15 01 00    	mov    %al,0x1157d(%rip)        # 11757a <_ZL11MousePacket+0x1>
  105ffd:	0f b6 05 74 15 01 00 	movzbl 0x11574(%rip),%eax        # 117578 <_ZL10MouseCycle>
  106004:	83 c0 01             	add    $0x1,%eax
  106007:	88 05 6b 15 01 00    	mov    %al,0x1156b(%rip)        # 117578 <_ZL10MouseCycle>
  10600d:	eb 1b                	jmp    10602a <_ZL14mouse_callbackP9Registers+0xb3>
  10600f:	0f b6 45 ff          	movzbl -0x1(%rbp),%eax
  106013:	88 05 62 15 01 00    	mov    %al,0x11562(%rip)        # 11757b <_ZL11MousePacket+0x2>
  106019:	c6 05 5d 15 01 00 01 	movb   $0x1,0x1155d(%rip)        # 11757d <_ZL16MousePacketReady>
  106020:	c6 05 51 15 01 00 00 	movb   $0x0,0x11551(%rip)        # 117578 <_ZL10MouseCycle>
  106027:	eb 01                	jmp    10602a <_ZL14mouse_callbackP9Registers+0xb3>
  106029:	90                   	nop
  10602a:	c9                   	leaveq 
  10602b:	c3                   	retq   

000000000010602c <_Z15InitialiseMousejj>:
  10602c:	f3 0f 1e fa          	endbr64 
  106030:	55                   	push   %rbp
  106031:	48 89 e5             	mov    %rsp,%rbp
  106034:	48 83 ec 20          	sub    $0x20,%rsp
  106038:	89 7d ec             	mov    %edi,-0x14(%rbp)
  10603b:	89 75 e8             	mov    %esi,-0x18(%rbp)
  10603e:	8b 45 ec             	mov    -0x14(%rbp),%eax
  106041:	89 05 49 15 01 00    	mov    %eax,0x11549(%rip)        # 117590 <_ZL5Width>
  106047:	8b 45 e8             	mov    -0x18(%rbp),%eax
  10604a:	89 05 44 15 01 00    	mov    %eax,0x11544(%rip)        # 117594 <_ZL6Height>
  106050:	c6 05 41 15 01 00 00 	movb   $0x0,0x11541(%rip)        # 117598 <_ZL7buttons>
  106057:	be a8 00 00 00       	mov    $0xa8,%esi
  10605c:	bf 64 00 00 00       	mov    $0x64,%edi
  106061:	e8 2e b8 ff ff       	callq  101894 <_Z6__outbth>
  106066:	e8 6e fb ff ff       	callq  105bd9 <_Z9MouseWaitv>
  10606b:	be 20 00 00 00       	mov    $0x20,%esi
  106070:	bf 64 00 00 00       	mov    $0x64,%edi
  106075:	e8 1a b8 ff ff       	callq  101894 <_Z6__outbth>
  10607a:	e8 a2 fb ff ff       	callq  105c21 <_Z14MouseWaitInputv>
  10607f:	bf 60 00 00 00       	mov    $0x60,%edi
  106084:	e8 a8 b7 ff ff       	callq  101831 <_Z5__inbt>
  106089:	88 45 ff             	mov    %al,-0x1(%rbp)
  10608c:	80 4d ff 02          	orb    $0x2,-0x1(%rbp)
  106090:	e8 44 fb ff ff       	callq  105bd9 <_Z9MouseWaitv>
  106095:	be 60 00 00 00       	mov    $0x60,%esi
  10609a:	bf 64 00 00 00       	mov    $0x64,%edi
  10609f:	e8 f0 b7 ff ff       	callq  101894 <_Z6__outbth>
  1060a4:	e8 30 fb ff ff       	callq  105bd9 <_Z9MouseWaitv>
  1060a9:	0f b6 45 ff          	movzbl -0x1(%rbp),%eax
  1060ad:	89 c6                	mov    %eax,%esi
  1060af:	bf 60 00 00 00       	mov    $0x60,%edi
  1060b4:	e8 db b7 ff ff       	callq  101894 <_Z6__outbth>
  1060b9:	bf f6 00 00 00       	mov    $0xf6,%edi
  1060be:	e8 a6 fb ff ff       	callq  105c69 <_Z10MouseWriteh>
  1060c3:	e8 de fb ff ff       	callq  105ca6 <_Z9MouseReadv>
  1060c8:	bf f4 00 00 00       	mov    $0xf4,%edi
  1060cd:	e8 97 fb ff ff       	callq  105c69 <_Z10MouseWriteh>
  1060d2:	e8 cf fb ff ff       	callq  105ca6 <_Z9MouseReadv>
  1060d7:	48 8d 35 99 fe ff ff 	lea    -0x167(%rip),%rsi        # 105f77 <_ZL14mouse_callbackP9Registers>
  1060de:	bf 2c 00 00 00       	mov    $0x2c,%edi
  1060e3:	e8 88 c8 ff ff       	callq  102970 <_Z24RegisterInterruptHandlerhPFvP9RegistersE>
  1060e8:	90                   	nop
  1060e9:	c9                   	leaveq 
  1060ea:	c3                   	retq   

00000000001060eb <_Z9GetMouseXv>:
  1060eb:	f3 0f 1e fa          	endbr64 
  1060ef:	55                   	push   %rbp
  1060f0:	48 89 e5             	mov    %rsp,%rbp
  1060f3:	8b 05 87 14 01 00    	mov    0x11487(%rip),%eax        # 117580 <_ZL14MousePositionX>
  1060f9:	f2 0f 2a c8          	cvtsi2sd %eax,%xmm1
  1060fd:	8b 05 8d 14 01 00    	mov    0x1148d(%rip),%eax        # 117590 <_ZL5Width>
  106103:	89 c0                	mov    %eax,%eax
  106105:	48 85 c0             	test   %rax,%rax
  106108:	78 07                	js     106111 <_Z9GetMouseXv+0x26>
  10610a:	f2 48 0f 2a c0       	cvtsi2sd %rax,%xmm0
  10610f:	eb 15                	jmp    106126 <_Z9GetMouseXv+0x3b>
  106111:	48 89 c2             	mov    %rax,%rdx
  106114:	48 d1 ea             	shr    %rdx
  106117:	83 e0 01             	and    $0x1,%eax
  10611a:	48 09 c2             	or     %rax,%rdx
  10611d:	f2 48 0f 2a c2       	cvtsi2sd %rdx,%xmm0
  106122:	f2 0f 58 c0          	addsd  %xmm0,%xmm0
  106126:	f2 0f 5e c8          	divsd  %xmm0,%xmm1
  10612a:	66 0f 28 c1          	movapd %xmm1,%xmm0
  10612e:	f2 0f 58 c0          	addsd  %xmm0,%xmm0
  106132:	f2 0f 10 0d 46 ae 00 	movsd  0xae46(%rip),%xmm1        # 110f80 <__rodata+0xf80>
  106139:	00 
  10613a:	f2 0f 5c c1          	subsd  %xmm1,%xmm0
  10613e:	5d                   	pop    %rbp
  10613f:	c3                   	retq   

0000000000106140 <_Z9GetMouseYv>:
  106140:	f3 0f 1e fa          	endbr64 
  106144:	55                   	push   %rbp
  106145:	48 89 e5             	mov    %rsp,%rbp
  106148:	8b 05 36 14 01 00    	mov    0x11436(%rip),%eax        # 117584 <_ZL14MousePositionY>
  10614e:	f2 0f 2a c8          	cvtsi2sd %eax,%xmm1
  106152:	8b 05 3c 14 01 00    	mov    0x1143c(%rip),%eax        # 117594 <_ZL6Height>
  106158:	89 c0                	mov    %eax,%eax
  10615a:	48 85 c0             	test   %rax,%rax
  10615d:	78 07                	js     106166 <_Z9GetMouseYv+0x26>
  10615f:	f2 48 0f 2a c0       	cvtsi2sd %rax,%xmm0
  106164:	eb 15                	jmp    10617b <_Z9GetMouseYv+0x3b>
  106166:	48 89 c2             	mov    %rax,%rdx
  106169:	48 d1 ea             	shr    %rdx
  10616c:	83 e0 01             	and    $0x1,%eax
  10616f:	48 09 c2             	or     %rax,%rdx
  106172:	f2 48 0f 2a c2       	cvtsi2sd %rdx,%xmm0
  106177:	f2 0f 58 c0          	addsd  %xmm0,%xmm0
  10617b:	f2 0f 5e c8          	divsd  %xmm0,%xmm1
  10617f:	66 0f 28 c1          	movapd %xmm1,%xmm0
  106183:	f2 0f 58 c0          	addsd  %xmm0,%xmm0
  106187:	f2 0f 10 0d f1 ad 00 	movsd  0xadf1(%rip),%xmm1        # 110f80 <__rodata+0xf80>
  10618e:	00 
  10618f:	f2 0f 5c c1          	subsd  %xmm1,%xmm0
  106193:	5d                   	pop    %rbp
  106194:	c3                   	retq   

0000000000106195 <_Z14GetMouseButtonh>:
  106195:	f3 0f 1e fa          	endbr64 
  106199:	55                   	push   %rbp
  10619a:	48 89 e5             	mov    %rsp,%rbp
  10619d:	48 83 ec 08          	sub    $0x8,%rsp
  1061a1:	89 f8                	mov    %edi,%eax
  1061a3:	88 45 fc             	mov    %al,-0x4(%rbp)
  1061a6:	80 7d fc 02          	cmpb   $0x2,-0x4(%rbp)
  1061aa:	76 07                	jbe    1061b3 <_Z14GetMouseButtonh+0x1e>
  1061ac:	b8 00 00 00 00       	mov    $0x0,%eax
  1061b1:	eb 1a                	jmp    1061cd <_Z14GetMouseButtonh+0x38>
  1061b3:	0f b6 45 fc          	movzbl -0x4(%rbp),%eax
  1061b7:	ba 01 00 00 00       	mov    $0x1,%edx
  1061bc:	89 c1                	mov    %eax,%ecx
  1061be:	d3 e2                	shl    %cl,%edx
  1061c0:	89 d0                	mov    %edx,%eax
  1061c2:	89 c2                	mov    %eax,%edx
  1061c4:	0f b6 05 cd 13 01 00 	movzbl 0x113cd(%rip),%eax        # 117598 <_ZL7buttons>
  1061cb:	21 d0                	and    %edx,%eax
  1061cd:	c9                   	leaveq 
  1061ce:	c3                   	retq   

00000000001061cf <_ZL17keyboard_callbackP9Registers>:
  1061cf:	f3 0f 1e fa          	endbr64 
  1061d3:	55                   	push   %rbp
  1061d4:	48 89 e5             	mov    %rsp,%rbp
  1061d7:	48 83 ec 20          	sub    $0x20,%rsp
  1061db:	48 89 7d e8          	mov    %rdi,-0x18(%rbp)
  1061df:	bf 60 00 00 00       	mov    $0x60,%edi
  1061e4:	e8 48 b6 ff ff       	callq  101831 <_Z5__inbt>
  1061e9:	88 45 fe             	mov    %al,-0x2(%rbp)
  1061ec:	80 7d fe 0e          	cmpb   $0xe,-0x2(%rbp)
  1061f0:	75 30                	jne    106222 <_ZL17keyboard_callbackP9Registers+0x53>
  1061f2:	48 8d 3d c7 13 01 00 	lea    0x113c7(%rip),%rdi        # 1175c0 <_ZL10key_buffer>
  1061f9:	e8 6e 64 00 00       	callq  10c66c <_Z6strlenPc>
  1061fe:	48 85 c0             	test   %rax,%rax
  106201:	0f 94 c0             	sete   %al
  106204:	84 c0                	test   %al,%al
  106206:	0f 85 9d 01 00 00    	jne    1063a9 <_ZL17keyboard_callbackP9Registers+0x1da>
  10620c:	48 8d 3d ad 13 01 00 	lea    0x113ad(%rip),%rdi        # 1175c0 <_ZL10key_buffer>
  106213:	e8 1f 64 00 00       	callq  10c637 <_Z9backspacePc>
  106218:	e8 e8 6b 00 00       	callq  10ce05 <_Z17kprintf_backspacev>
  10621d:	e9 8b 01 00 00       	jmpq   1063ad <_ZL17keyboard_callbackP9Registers+0x1de>
  106222:	80 7d fe 1c          	cmpb   $0x1c,-0x2(%rbp)
  106226:	75 38                	jne    106260 <_ZL17keyboard_callbackP9Registers+0x91>
  106228:	48 8d 3d e4 ae 00 00 	lea    0xaee4(%rip),%rdi        # 111113 <_ZL8sc_ascii+0x53>
  10622f:	b8 00 00 00 00       	mov    $0x0,%eax
  106234:	e8 f3 67 00 00       	callq  10ca2c <_Z7kprintfPKcz>
  106239:	48 8d 3d 80 13 01 00 	lea    0x11380(%rip),%rdi        # 1175c0 <_ZL10key_buffer>
  106240:	e8 51 d1 ff ff       	callq  103396 <_Z10user_inputPc>
  106245:	ba 00 01 00 00       	mov    $0x100,%edx
  10624a:	be 00 00 00 00       	mov    $0x0,%esi
  10624f:	48 8d 3d 6a 13 01 00 	lea    0x1136a(%rip),%rdi        # 1175c0 <_ZL10key_buffer>
  106256:	e8 10 6c 00 00       	callq  10ce6b <_Z6memsetPvim>
  10625b:	e9 4d 01 00 00       	jmpq   1063ad <_ZL17keyboard_callbackP9Registers+0x1de>
  106260:	48 8d 3d 59 13 01 00 	lea    0x11359(%rip),%rdi        # 1175c0 <_ZL10key_buffer>
  106267:	e8 00 64 00 00       	callq  10c66c <_Z6strlenPc>
  10626c:	48 3d ff 00 00 00    	cmp    $0xff,%rax
  106272:	0f 94 c0             	sete   %al
  106275:	84 c0                	test   %al,%al
  106277:	74 24                	je     10629d <_ZL17keyboard_callbackP9Registers+0xce>
  106279:	48 8d 3d 93 ae 00 00 	lea    0xae93(%rip),%rdi        # 111113 <_ZL8sc_ascii+0x53>
  106280:	b8 00 00 00 00       	mov    $0x0,%eax
  106285:	e8 a2 67 00 00       	callq  10ca2c <_Z7kprintfPKcz>
  10628a:	48 8d 3d 2f 13 01 00 	lea    0x1132f(%rip),%rdi        # 1175c0 <_ZL10key_buffer>
  106291:	e8 00 d1 ff ff       	callq  103396 <_Z10user_inputPc>
  106296:	c6 05 23 13 01 00 00 	movb   $0x0,0x11323(%rip)        # 1175c0 <_ZL10key_buffer>
  10629d:	0f b6 45 fe          	movzbl -0x2(%rbp),%eax
  1062a1:	48 98                	cltq   
  1062a3:	48 8d 15 16 ae 00 00 	lea    0xae16(%rip),%rdx        # 1110c0 <_ZL8sc_ascii>
  1062aa:	0f b6 04 10          	movzbl (%rax,%rdx,1),%eax
  1062ae:	88 45 ff             	mov    %al,-0x1(%rbp)
  1062b1:	0f b6 45 fe          	movzbl -0x2(%rbp),%eax
  1062b5:	84 c0                	test   %al,%al
  1062b7:	79 09                	jns    1062c2 <_ZL17keyboard_callbackP9Registers+0xf3>
  1062b9:	0f b6 45 fe          	movzbl -0x2(%rbp),%eax
  1062bd:	83 c0 80             	add    $0xffffff80,%eax
  1062c0:	eb 04                	jmp    1062c6 <_ZL17keyboard_callbackP9Registers+0xf7>
  1062c2:	0f b6 45 fe          	movzbl -0x2(%rbp),%eax
  1062c6:	89 45 f8             	mov    %eax,-0x8(%rbp)
  1062c9:	8b 45 f8             	mov    -0x8(%rbp),%eax
  1062cc:	48 98                	cltq   
  1062ce:	48 8d 15 eb ad 00 00 	lea    0xadeb(%rip),%rdx        # 1110c0 <_ZL8sc_ascii>
  1062d5:	0f b6 04 10          	movzbl (%rax,%rdx,1),%eax
  1062d9:	3c 3f                	cmp    $0x3f,%al
  1062db:	75 60                	jne    10633d <_ZL17keyboard_callbackP9Registers+0x16e>
  1062dd:	8b 45 f8             	mov    -0x8(%rbp),%eax
  1062e0:	89 c7                	mov    %eax,%edi
  1062e2:	e8 c8 00 00 00       	callq  1063af <_Z24get_index_of_control_keyi>
  1062e7:	89 45 f4             	mov    %eax,-0xc(%rbp)
  1062ea:	83 7d f4 00          	cmpl   $0x0,-0xc(%rbp)
  1062ee:	0f 88 b8 00 00 00    	js     1063ac <_ZL17keyboard_callbackP9Registers+0x1dd>
  1062f4:	0f b6 45 fe          	movzbl -0x2(%rbp),%eax
  1062f8:	84 c0                	test   %al,%al
  1062fa:	79 25                	jns    106321 <_ZL17keyboard_callbackP9Registers+0x152>
  1062fc:	8b 45 f4             	mov    -0xc(%rbp),%eax
  1062ff:	ba 01 00 00 00       	mov    $0x1,%edx
  106304:	89 c1                	mov    %eax,%ecx
  106306:	d3 e2                	shl    %cl,%edx
  106308:	89 d0                	mov    %edx,%eax
  10630a:	f7 d0                	not    %eax
  10630c:	89 c2                	mov    %eax,%edx
  10630e:	8b 05 8c 12 01 00    	mov    0x1128c(%rip),%eax        # 1175a0 <control_keys>
  106314:	21 d0                	and    %edx,%eax
  106316:	89 05 84 12 01 00    	mov    %eax,0x11284(%rip)        # 1175a0 <control_keys>
  10631c:	e9 8c 00 00 00       	jmpq   1063ad <_ZL17keyboard_callbackP9Registers+0x1de>
  106321:	8b 45 f4             	mov    -0xc(%rbp),%eax
  106324:	ba 01 00 00 00       	mov    $0x1,%edx
  106329:	89 c1                	mov    %eax,%ecx
  10632b:	d3 e2                	shl    %cl,%edx
  10632d:	8b 05 6d 12 01 00    	mov    0x1126d(%rip),%eax        # 1175a0 <control_keys>
  106333:	09 d0                	or     %edx,%eax
  106335:	89 05 65 12 01 00    	mov    %eax,0x11265(%rip)        # 1175a0 <control_keys>
  10633b:	eb 70                	jmp    1063ad <_ZL17keyboard_callbackP9Registers+0x1de>
  10633d:	80 7d fe 39          	cmpb   $0x39,-0x2(%rbp)
  106341:	77 6a                	ja     1063ad <_ZL17keyboard_callbackP9Registers+0x1de>
  106343:	8b 05 57 12 01 00    	mov    0x11257(%rip),%eax        # 1175a0 <control_keys>
  106349:	83 e0 01             	and    $0x1,%eax
  10634c:	85 c0                	test   %eax,%eax
  10634e:	75 16                	jne    106366 <_ZL17keyboard_callbackP9Registers+0x197>
  106350:	80 7d ff 40          	cmpb   $0x40,-0x1(%rbp)
  106354:	7e 10                	jle    106366 <_ZL17keyboard_callbackP9Registers+0x197>
  106356:	80 7d ff 5a          	cmpb   $0x5a,-0x1(%rbp)
  10635a:	7f 0a                	jg     106366 <_ZL17keyboard_callbackP9Registers+0x197>
  10635c:	0f b6 45 ff          	movzbl -0x1(%rbp),%eax
  106360:	83 c0 20             	add    $0x20,%eax
  106363:	88 45 ff             	mov    %al,-0x1(%rbp)
  106366:	8b 05 34 12 01 00    	mov    0x11234(%rip),%eax        # 1175a0 <control_keys>
  10636c:	83 e0 08             	and    $0x8,%eax
  10636f:	85 c0                	test   %eax,%eax
  106371:	74 04                	je     106377 <_ZL17keyboard_callbackP9Registers+0x1a8>
  106373:	c6 45 ff 7e          	movb   $0x7e,-0x1(%rbp)
  106377:	66 c7 45 f2 00 00    	movw   $0x0,-0xe(%rbp)
  10637d:	0f b6 45 ff          	movzbl -0x1(%rbp),%eax
  106381:	88 45 f2             	mov    %al,-0xe(%rbp)
  106384:	0f be 45 ff          	movsbl -0x1(%rbp),%eax
  106388:	89 c6                	mov    %eax,%esi
  10638a:	48 8d 3d 2f 12 01 00 	lea    0x1122f(%rip),%rdi        # 1175c0 <_ZL10key_buffer>
  106391:	e8 56 62 00 00       	callq  10c5ec <_Z6appendPcc>
  106396:	48 8d 45 f2          	lea    -0xe(%rbp),%rax
  10639a:	48 89 c7             	mov    %rax,%rdi
  10639d:	b8 00 00 00 00       	mov    $0x0,%eax
  1063a2:	e8 85 66 00 00       	callq  10ca2c <_Z7kprintfPKcz>
  1063a7:	eb 04                	jmp    1063ad <_ZL17keyboard_callbackP9Registers+0x1de>
  1063a9:	90                   	nop
  1063aa:	eb 01                	jmp    1063ad <_ZL17keyboard_callbackP9Registers+0x1de>
  1063ac:	90                   	nop
  1063ad:	c9                   	leaveq 
  1063ae:	c3                   	retq   

00000000001063af <_Z24get_index_of_control_keyi>:
  1063af:	f3 0f 1e fa          	endbr64 
  1063b3:	55                   	push   %rbp
  1063b4:	48 89 e5             	mov    %rsp,%rbp
  1063b7:	48 83 ec 20          	sub    $0x20,%rsp
  1063bb:	89 7d ec             	mov    %edi,-0x14(%rbp)
  1063be:	8b 45 ec             	mov    -0x14(%rbp),%eax
  1063c1:	48 98                	cltq   
  1063c3:	48 8d 14 c5 00 00 00 	lea    0x0(,%rax,8),%rdx
  1063ca:	00 
  1063cb:	48 8d 05 0e 8e 00 00 	lea    0x8e0e(%rip),%rax        # 10f1e0 <sc_name>
  1063d2:	48 8b 04 02          	mov    (%rdx,%rax,1),%rax
  1063d6:	48 89 45 f8          	mov    %rax,-0x8(%rbp)
  1063da:	48 8b 45 f8          	mov    -0x8(%rbp),%rax
  1063de:	48 8d 35 09 ac 00 00 	lea    0xac09(%rip),%rsi        # 110fee <__rodata+0xfee>
  1063e5:	48 89 c7             	mov    %rax,%rdi
  1063e8:	e8 9d 62 00 00       	callq  10c68a <_Z6strcmpPcS_>
  1063ed:	85 c0                	test   %eax,%eax
  1063ef:	0f 94 c0             	sete   %al
  1063f2:	84 c0                	test   %al,%al
  1063f4:	74 07                	je     1063fd <_Z24get_index_of_control_keyi+0x4e>
  1063f6:	b8 01 00 00 00       	mov    $0x1,%eax
  1063fb:	eb 6e                	jmp    10646b <_Z24get_index_of_control_keyi+0xbc>
  1063fd:	48 8b 45 f8          	mov    -0x8(%rbp),%rax
  106401:	48 8d 35 04 ac 00 00 	lea    0xac04(%rip),%rsi        # 11100c <__rodata+0x100c>
  106408:	48 89 c7             	mov    %rax,%rdi
  10640b:	e8 7a 62 00 00       	callq  10c68a <_Z6strcmpPcS_>
  106410:	85 c0                	test   %eax,%eax
  106412:	0f 94 c0             	sete   %al
  106415:	84 c0                	test   %al,%al
  106417:	74 07                	je     106420 <_Z24get_index_of_control_keyi+0x71>
  106419:	b8 00 00 00 00       	mov    $0x0,%eax
  10641e:	eb 4b                	jmp    10646b <_Z24get_index_of_control_keyi+0xbc>
  106420:	48 8b 45 f8          	mov    -0x8(%rbp),%rax
  106424:	48 8d 35 fe ab 00 00 	lea    0xabfe(%rip),%rsi        # 111029 <__rodata+0x1029>
  10642b:	48 89 c7             	mov    %rax,%rdi
  10642e:	e8 57 62 00 00       	callq  10c68a <_Z6strcmpPcS_>
  106433:	85 c0                	test   %eax,%eax
  106435:	0f 94 c0             	sete   %al
  106438:	84 c0                	test   %al,%al
  10643a:	74 07                	je     106443 <_Z24get_index_of_control_keyi+0x94>
  10643c:	b8 00 00 00 00       	mov    $0x0,%eax
  106441:	eb 28                	jmp    10646b <_Z24get_index_of_control_keyi+0xbc>
  106443:	48 8b 45 f8          	mov    -0x8(%rbp),%rax
  106447:	48 8d 35 eb ab 00 00 	lea    0xabeb(%rip),%rsi        # 111039 <__rodata+0x1039>
  10644e:	48 89 c7             	mov    %rax,%rdi
  106451:	e8 34 62 00 00       	callq  10c68a <_Z6strcmpPcS_>
  106456:	85 c0                	test   %eax,%eax
  106458:	0f 94 c0             	sete   %al
  10645b:	84 c0                	test   %al,%al
  10645d:	74 07                	je     106466 <_Z24get_index_of_control_keyi+0xb7>
  10645f:	b8 03 00 00 00       	mov    $0x3,%eax
  106464:	eb 05                	jmp    10646b <_Z24get_index_of_control_keyi+0xbc>
  106466:	b8 ff ff ff ff       	mov    $0xffffffff,%eax
  10646b:	c9                   	leaveq 
  10646c:	c3                   	retq   

000000000010646d <_Z12InitKeyboardv>:
  10646d:	f3 0f 1e fa          	endbr64 
  106471:	55                   	push   %rbp
  106472:	48 89 e5             	mov    %rsp,%rbp
  106475:	48 8d 35 53 fd ff ff 	lea    -0x2ad(%rip),%rsi        # 1061cf <_ZL17keyboard_callbackP9Registers>
  10647c:	bf 21 00 00 00       	mov    $0x21,%edi
  106481:	e8 ea c4 ff ff       	callq  102970 <_Z24RegisterInterruptHandlerhPFvP9RegistersE>
  106486:	90                   	nop
  106487:	5d                   	pop    %rbp
  106488:	c3                   	retq   
  106489:	90                   	nop

000000000010648a <_ZN4AHCI13CheckPortTypeEPNS_7HBAPortE>:
  10648a:	f3 0f 1e fa          	endbr64 
  10648e:	55                   	push   %rbp
  10648f:	48 89 e5             	mov    %rsp,%rbp
  106492:	48 83 ec 18          	sub    $0x18,%rsp
  106496:	48 89 7d e8          	mov    %rdi,-0x18(%rbp)
  10649a:	48 8b 45 e8          	mov    -0x18(%rbp),%rax
  10649e:	8b 40 28             	mov    0x28(%rax),%eax
  1064a1:	89 45 fc             	mov    %eax,-0x4(%rbp)
  1064a4:	8b 45 fc             	mov    -0x4(%rbp),%eax
  1064a7:	c1 e8 08             	shr    $0x8,%eax
  1064aa:	83 e0 07             	and    $0x7,%eax
  1064ad:	88 45 fb             	mov    %al,-0x5(%rbp)
  1064b0:	8b 45 fc             	mov    -0x4(%rbp),%eax
  1064b3:	83 e0 07             	and    $0x7,%eax
  1064b6:	88 45 fa             	mov    %al,-0x6(%rbp)
  1064b9:	80 7d fa 03          	cmpb   $0x3,-0x6(%rbp)
  1064bd:	74 07                	je     1064c6 <_ZN4AHCI13CheckPortTypeEPNS_7HBAPortE+0x3c>
  1064bf:	b8 00 00 00 00       	mov    $0x0,%eax
  1064c4:	eb 5c                	jmp    106522 <_ZN4AHCI13CheckPortTypeEPNS_7HBAPortE+0x98>
  1064c6:	80 7d fb 01          	cmpb   $0x1,-0x5(%rbp)
  1064ca:	74 07                	je     1064d3 <_ZN4AHCI13CheckPortTypeEPNS_7HBAPortE+0x49>
  1064cc:	b8 00 00 00 00       	mov    $0x0,%eax
  1064d1:	eb 4f                	jmp    106522 <_ZN4AHCI13CheckPortTypeEPNS_7HBAPortE+0x98>
  1064d3:	48 8b 45 e8          	mov    -0x18(%rbp),%rax
  1064d7:	8b 40 24             	mov    0x24(%rax),%eax
  1064da:	3d 01 01 14 eb       	cmp    $0xeb140101,%eax
  1064df:	74 25                	je     106506 <_ZN4AHCI13CheckPortTypeEPNS_7HBAPortE+0x7c>
  1064e1:	3d 01 01 14 eb       	cmp    $0xeb140101,%eax
  1064e6:	77 3a                	ja     106522 <_ZN4AHCI13CheckPortTypeEPNS_7HBAPortE+0x98>
  1064e8:	3d 01 01 3c c3       	cmp    $0xc33c0101,%eax
  1064ed:	74 2c                	je     10651b <_ZN4AHCI13CheckPortTypeEPNS_7HBAPortE+0x91>
  1064ef:	3d 01 01 3c c3       	cmp    $0xc33c0101,%eax
  1064f4:	77 2c                	ja     106522 <_ZN4AHCI13CheckPortTypeEPNS_7HBAPortE+0x98>
  1064f6:	3d 01 01 00 00       	cmp    $0x101,%eax
  1064fb:	74 10                	je     10650d <_ZN4AHCI13CheckPortTypeEPNS_7HBAPortE+0x83>
  1064fd:	3d 01 01 69 96       	cmp    $0x96690101,%eax
  106502:	74 10                	je     106514 <_ZN4AHCI13CheckPortTypeEPNS_7HBAPortE+0x8a>
  106504:	eb 1c                	jmp    106522 <_ZN4AHCI13CheckPortTypeEPNS_7HBAPortE+0x98>
  106506:	b8 04 00 00 00       	mov    $0x4,%eax
  10650b:	eb 15                	jmp    106522 <_ZN4AHCI13CheckPortTypeEPNS_7HBAPortE+0x98>
  10650d:	b8 01 00 00 00       	mov    $0x1,%eax
  106512:	eb 0e                	jmp    106522 <_ZN4AHCI13CheckPortTypeEPNS_7HBAPortE+0x98>
  106514:	b8 03 00 00 00       	mov    $0x3,%eax
  106519:	eb 07                	jmp    106522 <_ZN4AHCI13CheckPortTypeEPNS_7HBAPortE+0x98>
  10651b:	b8 02 00 00 00       	mov    $0x2,%eax
  106520:	eb 00                	jmp    106522 <_ZN4AHCI13CheckPortTypeEPNS_7HBAPortE+0x98>
  106522:	c9                   	leaveq 
  106523:	c3                   	retq   

0000000000106524 <_ZN4AHCI10AHCIDriver12PreparePortsEv>:
  106524:	f3 0f 1e fa          	endbr64 
  106528:	55                   	push   %rbp
  106529:	48 89 e5             	mov    %rsp,%rbp
  10652c:	53                   	push   %rbx
  10652d:	48 83 ec 38          	sub    $0x38,%rsp
  106531:	48 89 7d c8          	mov    %rdi,-0x38(%rbp)
  106535:	48 89 75 c0          	mov    %rsi,-0x40(%rbp)
  106539:	48 8b 45 c8          	mov    -0x38(%rbp),%rax
  10653d:	48 89 c7             	mov    %rax,%rdi
  106540:	e8 c5 7d 00 00       	callq  10e30a <_ZN6vectorIPN4AHCI10AHCIDeviceEEC1Ev>
  106545:	48 8b 45 c0          	mov    -0x40(%rbp),%rax
  106549:	48 8b 40 08          	mov    0x8(%rax),%rax
  10654d:	8b 40 0c             	mov    0xc(%rax),%eax
  106550:	89 45 e8             	mov    %eax,-0x18(%rbp)
  106553:	c7 45 ec 00 00 00 00 	movl   $0x0,-0x14(%rbp)
  10655a:	83 7d ec 1f          	cmpl   $0x1f,-0x14(%rbp)
  10655e:	0f 8f 7d 01 00 00    	jg     1066e1 <_ZN4AHCI10AHCIDriver12PreparePortsEv+0x1bd>
  106564:	8b 45 ec             	mov    -0x14(%rbp),%eax
  106567:	ba 01 00 00 00       	mov    $0x1,%edx
  10656c:	89 c1                	mov    %eax,%ecx
  10656e:	d3 e2                	shl    %cl,%edx
  106570:	89 d0                	mov    %edx,%eax
  106572:	23 45 e8             	and    -0x18(%rbp),%eax
  106575:	85 c0                	test   %eax,%eax
  106577:	0f 84 5b 01 00 00    	je     1066d8 <_ZN4AHCI10AHCIDriver12PreparePortsEv+0x1b4>
  10657d:	48 8b 45 c0          	mov    -0x40(%rbp),%rax
  106581:	48 8b 40 08          	mov    0x8(%rax),%rax
  106585:	8b 55 ec             	mov    -0x14(%rbp),%edx
  106588:	48 63 d2             	movslq %edx,%rdx
  10658b:	48 83 c2 02          	add    $0x2,%rdx
  10658f:	48 c1 e2 07          	shl    $0x7,%rdx
  106593:	48 01 d0             	add    %rdx,%rax
  106596:	48 89 c7             	mov    %rax,%rdi
  106599:	e8 ec fe ff ff       	callq  10648a <_ZN4AHCI13CheckPortTypeEPNS_7HBAPortE>
  10659e:	89 45 e4             	mov    %eax,-0x1c(%rbp)
  1065a1:	83 7d e4 01          	cmpl   $0x1,-0x1c(%rbp)
  1065a5:	74 0a                	je     1065b1 <_ZN4AHCI10AHCIDriver12PreparePortsEv+0x8d>
  1065a7:	83 7d e4 04          	cmpl   $0x4,-0x1c(%rbp)
  1065ab:	0f 85 27 01 00 00    	jne    1066d8 <_ZN4AHCI10AHCIDriver12PreparePortsEv+0x1b4>
  1065b1:	bf 10 00 00 00       	mov    $0x10,%edi
  1065b6:	e8 94 d4 ff ff       	callq  103a4f <_Znwm>
  1065bb:	48 c7 00 00 00 00 00 	movq   $0x0,(%rax)
  1065c2:	c7 40 08 00 00 00 00 	movl   $0x0,0x8(%rax)
  1065c9:	c6 40 0c 00          	movb   $0x0,0xc(%rax)
  1065cd:	48 8b 55 c0          	mov    -0x40(%rbp),%rdx
  1065d1:	0f b6 92 10 01 00 00 	movzbl 0x110(%rdx),%edx
  1065d8:	0f b6 ca             	movzbl %dl,%ecx
  1065db:	48 8b 55 c0          	mov    -0x40(%rbp),%rdx
  1065df:	48 63 c9             	movslq %ecx,%rcx
  1065e2:	48 83 c1 02          	add    $0x2,%rcx
  1065e6:	48 89 04 ca          	mov    %rax,(%rdx,%rcx,8)
  1065ea:	48 8b 45 c0          	mov    -0x40(%rbp),%rax
  1065ee:	0f b6 80 10 01 00 00 	movzbl 0x110(%rax),%eax
  1065f5:	0f b6 d0             	movzbl %al,%edx
  1065f8:	48 8b 45 c0          	mov    -0x40(%rbp),%rax
  1065fc:	48 63 d2             	movslq %edx,%rdx
  1065ff:	48 83 c2 02          	add    $0x2,%rdx
  106603:	48 8b 04 d0          	mov    (%rax,%rdx,8),%rax
  106607:	8b 55 e4             	mov    -0x1c(%rbp),%edx
  10660a:	89 50 08             	mov    %edx,0x8(%rax)
  10660d:	48 8b 45 c0          	mov    -0x40(%rbp),%rax
  106611:	48 8b 50 08          	mov    0x8(%rax),%rdx
  106615:	48 8b 45 c0          	mov    -0x40(%rbp),%rax
  106619:	0f b6 80 10 01 00 00 	movzbl 0x110(%rax),%eax
  106620:	0f b6 c8             	movzbl %al,%ecx
  106623:	48 8b 45 c0          	mov    -0x40(%rbp),%rax
  106627:	48 63 c9             	movslq %ecx,%rcx
  10662a:	48 83 c1 02          	add    $0x2,%rcx
  10662e:	48 8b 04 c8          	mov    (%rax,%rcx,8),%rax
  106632:	8b 4d ec             	mov    -0x14(%rbp),%ecx
  106635:	48 63 c9             	movslq %ecx,%rcx
  106638:	48 83 c1 02          	add    $0x2,%rcx
  10663c:	48 c1 e1 07          	shl    $0x7,%rcx
  106640:	48 01 ca             	add    %rcx,%rdx
  106643:	48 89 10             	mov    %rdx,(%rax)
  106646:	48 8b 45 c0          	mov    -0x40(%rbp),%rax
  10664a:	0f b6 80 10 01 00 00 	movzbl 0x110(%rax),%eax
  106651:	0f b6 d0             	movzbl %al,%edx
  106654:	48 8b 45 c0          	mov    -0x40(%rbp),%rax
  106658:	48 63 d2             	movslq %edx,%rdx
  10665b:	48 83 c2 02          	add    $0x2,%rdx
  10665f:	48 8b 04 d0          	mov    (%rax,%rdx,8),%rax
  106663:	48 8b 55 c0          	mov    -0x40(%rbp),%rdx
  106667:	0f b6 92 10 01 00 00 	movzbl 0x110(%rdx),%edx
  10666e:	88 50 0c             	mov    %dl,0xc(%rax)
  106671:	48 8b 45 c0          	mov    -0x40(%rbp),%rax
  106675:	0f b6 80 10 01 00 00 	movzbl 0x110(%rax),%eax
  10667c:	8d 50 01             	lea    0x1(%rax),%edx
  10667f:	48 8b 45 c0          	mov    -0x40(%rbp),%rax
  106683:	88 90 10 01 00 00    	mov    %dl,0x110(%rax)
  106689:	bf 10 00 00 00       	mov    $0x10,%edi
  10668e:	e8 bc d3 ff ff       	callq  103a4f <_Znwm>
  106693:	48 89 c3             	mov    %rax,%rbx
  106696:	48 8b 45 c0          	mov    -0x40(%rbp),%rax
  10669a:	0f b6 80 10 01 00 00 	movzbl 0x110(%rax),%eax
  1066a1:	0f b6 c0             	movzbl %al,%eax
  1066a4:	8d 50 ff             	lea    -0x1(%rax),%edx
  1066a7:	48 8b 45 c0          	mov    -0x40(%rbp),%rax
  1066ab:	48 63 d2             	movslq %edx,%rdx
  1066ae:	48 83 c2 02          	add    $0x2,%rdx
  1066b2:	48 8b 04 d0          	mov    (%rax,%rdx,8),%rax
  1066b6:	48 89 c6             	mov    %rax,%rsi
  1066b9:	48 89 df             	mov    %rbx,%rdi
  1066bc:	e8 81 07 00 00       	callq  106e42 <_ZN4AHCI10AHCIDeviceC1EPNS_4PortE>
  1066c1:	48 89 5d d8          	mov    %rbx,-0x28(%rbp)
  1066c5:	48 8d 55 d8          	lea    -0x28(%rbp),%rdx
  1066c9:	48 8b 45 c8          	mov    -0x38(%rbp),%rax
  1066cd:	48 89 d6             	mov    %rdx,%rsi
  1066d0:	48 89 c7             	mov    %rax,%rdi
  1066d3:	e8 72 7c 00 00       	callq  10e34a <_ZN6vectorIPN4AHCI10AHCIDeviceEE9push_backERKS2_>
  1066d8:	83 45 ec 01          	addl   $0x1,-0x14(%rbp)
  1066dc:	e9 79 fe ff ff       	jmpq   10655a <_ZN4AHCI10AHCIDriver12PreparePortsEv+0x36>
  1066e1:	90                   	nop
  1066e2:	48 8b 45 c8          	mov    -0x38(%rbp),%rax
  1066e6:	48 83 c4 38          	add    $0x38,%rsp
  1066ea:	5b                   	pop    %rbx
  1066eb:	5d                   	pop    %rbp
  1066ec:	c3                   	retq   
  1066ed:	90                   	nop

00000000001066ee <_ZN4AHCI4Port9ConfigureEv>:
  1066ee:	f3 0f 1e fa          	endbr64 
  1066f2:	55                   	push   %rbp
  1066f3:	48 89 e5             	mov    %rsp,%rbp
  1066f6:	48 83 ec 40          	sub    $0x40,%rsp
  1066fa:	48 89 7d c8          	mov    %rdi,-0x38(%rbp)
  1066fe:	48 8b 45 c8          	mov    -0x38(%rbp),%rax
  106702:	48 89 c7             	mov    %rax,%rdi
  106705:	e8 74 01 00 00       	callq  10687e <_ZN4AHCI4Port7StopCMDEv>
  10670a:	e8 13 ae ff ff       	callq  101522 <_ZN18PageFrameAllocator15SharedAllocatorEv>
  10670f:	48 89 c7             	mov    %rax,%rdi
  106712:	e8 5f ab ff ff       	callq  101276 <_ZN18PageFrameAllocator11RequestPageEv>
  106717:	48 89 45 f0          	mov    %rax,-0x10(%rbp)
  10671b:	48 8b 55 f0          	mov    -0x10(%rbp),%rdx
  10671f:	48 8b 45 c8          	mov    -0x38(%rbp),%rax
  106723:	48 8b 00             	mov    (%rax),%rax
  106726:	89 10                	mov    %edx,(%rax)
  106728:	48 8b 45 f0          	mov    -0x10(%rbp),%rax
  10672c:	48 c1 e8 20          	shr    $0x20,%rax
  106730:	48 89 c2             	mov    %rax,%rdx
  106733:	48 8b 45 c8          	mov    -0x38(%rbp),%rax
  106737:	48 8b 00             	mov    (%rax),%rax
  10673a:	89 50 04             	mov    %edx,0x4(%rax)
  10673d:	48 8b 45 c8          	mov    -0x38(%rbp),%rax
  106741:	48 8b 00             	mov    (%rax),%rax
  106744:	8b 00                	mov    (%rax),%eax
  106746:	89 c0                	mov    %eax,%eax
  106748:	ba 00 04 00 00       	mov    $0x400,%edx
  10674d:	be 00 00 00 00       	mov    $0x0,%esi
  106752:	48 89 c7             	mov    %rax,%rdi
  106755:	e8 11 67 00 00       	callq  10ce6b <_Z6memsetPvim>
  10675a:	e8 c3 ad ff ff       	callq  101522 <_ZN18PageFrameAllocator15SharedAllocatorEv>
  10675f:	48 89 c7             	mov    %rax,%rdi
  106762:	e8 0f ab ff ff       	callq  101276 <_ZN18PageFrameAllocator11RequestPageEv>
  106767:	48 89 45 e8          	mov    %rax,-0x18(%rbp)
  10676b:	48 8b 55 e8          	mov    -0x18(%rbp),%rdx
  10676f:	48 8b 45 c8          	mov    -0x38(%rbp),%rax
  106773:	48 8b 00             	mov    (%rax),%rax
  106776:	89 50 08             	mov    %edx,0x8(%rax)
  106779:	48 8b 45 e8          	mov    -0x18(%rbp),%rax
  10677d:	48 c1 e8 20          	shr    $0x20,%rax
  106781:	48 89 c2             	mov    %rax,%rdx
  106784:	48 8b 45 c8          	mov    -0x38(%rbp),%rax
  106788:	48 8b 00             	mov    (%rax),%rax
  10678b:	89 50 0c             	mov    %edx,0xc(%rax)
  10678e:	48 8b 45 e8          	mov    -0x18(%rbp),%rax
  106792:	ba 00 01 00 00       	mov    $0x100,%edx
  106797:	be 00 00 00 00       	mov    $0x0,%esi
  10679c:	48 89 c7             	mov    %rax,%rdi
  10679f:	e8 c7 66 00 00       	callq  10ce6b <_Z6memsetPvim>
  1067a4:	48 8b 45 c8          	mov    -0x38(%rbp),%rax
  1067a8:	48 8b 00             	mov    (%rax),%rax
  1067ab:	8b 00                	mov    (%rax),%eax
  1067ad:	89 c2                	mov    %eax,%edx
  1067af:	48 8b 45 c8          	mov    -0x38(%rbp),%rax
  1067b3:	48 8b 00             	mov    (%rax),%rax
  1067b6:	8b 40 04             	mov    0x4(%rax),%eax
  1067b9:	89 c0                	mov    %eax,%eax
  1067bb:	48 c1 e0 20          	shl    $0x20,%rax
  1067bf:	48 01 d0             	add    %rdx,%rax
  1067c2:	48 89 45 e0          	mov    %rax,-0x20(%rbp)
  1067c6:	c7 45 fc 00 00 00 00 	movl   $0x0,-0x4(%rbp)
  1067cd:	83 7d fc 1f          	cmpl   $0x1f,-0x4(%rbp)
  1067d1:	0f 8f 98 00 00 00    	jg     10686f <_ZN4AHCI4Port9ConfigureEv+0x181>
  1067d7:	8b 45 fc             	mov    -0x4(%rbp),%eax
  1067da:	48 98                	cltq   
  1067dc:	48 c1 e0 05          	shl    $0x5,%rax
  1067e0:	48 89 c2             	mov    %rax,%rdx
  1067e3:	48 8b 45 e0          	mov    -0x20(%rbp),%rax
  1067e7:	48 01 d0             	add    %rdx,%rax
  1067ea:	66 c7 40 02 08 00    	movw   $0x8,0x2(%rax)
  1067f0:	e8 2d ad ff ff       	callq  101522 <_ZN18PageFrameAllocator15SharedAllocatorEv>
  1067f5:	48 89 c7             	mov    %rax,%rdi
  1067f8:	e8 79 aa ff ff       	callq  101276 <_ZN18PageFrameAllocator11RequestPageEv>
  1067fd:	48 89 45 d8          	mov    %rax,-0x28(%rbp)
  106801:	8b 45 fc             	mov    -0x4(%rbp),%eax
  106804:	c1 e0 08             	shl    $0x8,%eax
  106807:	48 63 d0             	movslq %eax,%rdx
  10680a:	48 8b 45 d8          	mov    -0x28(%rbp),%rax
  10680e:	48 01 d0             	add    %rdx,%rax
  106811:	48 89 45 d0          	mov    %rax,-0x30(%rbp)
  106815:	8b 45 fc             	mov    -0x4(%rbp),%eax
  106818:	48 98                	cltq   
  10681a:	48 c1 e0 05          	shl    $0x5,%rax
  10681e:	48 89 c2             	mov    %rax,%rdx
  106821:	48 8b 45 e0          	mov    -0x20(%rbp),%rax
  106825:	48 01 d0             	add    %rdx,%rax
  106828:	48 8b 55 d0          	mov    -0x30(%rbp),%rdx
  10682c:	89 50 08             	mov    %edx,0x8(%rax)
  10682f:	48 8b 45 d0          	mov    -0x30(%rbp),%rax
  106833:	48 c1 e8 20          	shr    $0x20,%rax
  106837:	48 89 c2             	mov    %rax,%rdx
  10683a:	8b 45 fc             	mov    -0x4(%rbp),%eax
  10683d:	48 98                	cltq   
  10683f:	48 c1 e0 05          	shl    $0x5,%rax
  106843:	48 89 c1             	mov    %rax,%rcx
  106846:	48 8b 45 e0          	mov    -0x20(%rbp),%rax
  10684a:	48 01 c8             	add    %rcx,%rax
  10684d:	89 50 0c             	mov    %edx,0xc(%rax)
  106850:	48 8b 45 d8          	mov    -0x28(%rbp),%rax
  106854:	ba 00 01 00 00       	mov    $0x100,%edx
  106859:	be 00 00 00 00       	mov    $0x0,%esi
  10685e:	48 89 c7             	mov    %rax,%rdi
  106861:	e8 05 66 00 00       	callq  10ce6b <_Z6memsetPvim>
  106866:	83 45 fc 01          	addl   $0x1,-0x4(%rbp)
  10686a:	e9 5e ff ff ff       	jmpq   1067cd <_ZN4AHCI4Port9ConfigureEv+0xdf>
  10686f:	48 8b 45 c8          	mov    -0x38(%rbp),%rax
  106873:	48 89 c7             	mov    %rax,%rdi
  106876:	e8 71 00 00 00       	callq  1068ec <_ZN4AHCI4Port8StartCMDEv>
  10687b:	90                   	nop
  10687c:	c9                   	leaveq 
  10687d:	c3                   	retq   

000000000010687e <_ZN4AHCI4Port7StopCMDEv>:
  10687e:	f3 0f 1e fa          	endbr64 
  106882:	55                   	push   %rbp
  106883:	48 89 e5             	mov    %rsp,%rbp
  106886:	48 83 ec 08          	sub    $0x8,%rsp
  10688a:	48 89 7d f8          	mov    %rdi,-0x8(%rbp)
  10688e:	48 8b 45 f8          	mov    -0x8(%rbp),%rax
  106892:	48 8b 00             	mov    (%rax),%rax
  106895:	8b 50 18             	mov    0x18(%rax),%edx
  106898:	48 8b 45 f8          	mov    -0x8(%rbp),%rax
  10689c:	48 8b 00             	mov    (%rax),%rax
  10689f:	83 e2 fe             	and    $0xfffffffe,%edx
  1068a2:	89 50 18             	mov    %edx,0x18(%rax)
  1068a5:	48 8b 45 f8          	mov    -0x8(%rbp),%rax
  1068a9:	48 8b 00             	mov    (%rax),%rax
  1068ac:	8b 50 18             	mov    0x18(%rax),%edx
  1068af:	48 8b 45 f8          	mov    -0x8(%rbp),%rax
  1068b3:	48 8b 00             	mov    (%rax),%rax
  1068b6:	83 e2 ef             	and    $0xffffffef,%edx
  1068b9:	89 50 18             	mov    %edx,0x18(%rax)
  1068bc:	48 8b 45 f8          	mov    -0x8(%rbp),%rax
  1068c0:	48 8b 00             	mov    (%rax),%rax
  1068c3:	8b 40 18             	mov    0x18(%rax),%eax
  1068c6:	25 00 40 00 00       	and    $0x4000,%eax
  1068cb:	85 c0                	test   %eax,%eax
  1068cd:	75 15                	jne    1068e4 <_ZN4AHCI4Port7StopCMDEv+0x66>
  1068cf:	48 8b 45 f8          	mov    -0x8(%rbp),%rax
  1068d3:	48 8b 00             	mov    (%rax),%rax
  1068d6:	8b 40 18             	mov    0x18(%rax),%eax
  1068d9:	25 00 80 00 00       	and    $0x8000,%eax
  1068de:	85 c0                	test   %eax,%eax
  1068e0:	74 05                	je     1068e7 <_ZN4AHCI4Port7StopCMDEv+0x69>
  1068e2:	eb 01                	jmp    1068e5 <_ZN4AHCI4Port7StopCMDEv+0x67>
  1068e4:	90                   	nop
  1068e5:	eb d5                	jmp    1068bc <_ZN4AHCI4Port7StopCMDEv+0x3e>
  1068e7:	90                   	nop
  1068e8:	90                   	nop
  1068e9:	c9                   	leaveq 
  1068ea:	c3                   	retq   
  1068eb:	90                   	nop

00000000001068ec <_ZN4AHCI4Port8StartCMDEv>:
  1068ec:	f3 0f 1e fa          	endbr64 
  1068f0:	55                   	push   %rbp
  1068f1:	48 89 e5             	mov    %rsp,%rbp
  1068f4:	48 83 ec 08          	sub    $0x8,%rsp
  1068f8:	48 89 7d f8          	mov    %rdi,-0x8(%rbp)
  1068fc:	48 8b 45 f8          	mov    -0x8(%rbp),%rax
  106900:	48 8b 00             	mov    (%rax),%rax
  106903:	8b 40 18             	mov    0x18(%rax),%eax
  106906:	25 00 80 00 00       	and    $0x8000,%eax
  10690b:	85 c0                	test   %eax,%eax
  10690d:	74 02                	je     106911 <_ZN4AHCI4Port8StartCMDEv+0x25>
  10690f:	eb eb                	jmp    1068fc <_ZN4AHCI4Port8StartCMDEv+0x10>
  106911:	48 8b 45 f8          	mov    -0x8(%rbp),%rax
  106915:	48 8b 00             	mov    (%rax),%rax
  106918:	8b 50 18             	mov    0x18(%rax),%edx
  10691b:	48 8b 45 f8          	mov    -0x8(%rbp),%rax
  10691f:	48 8b 00             	mov    (%rax),%rax
  106922:	83 ca 10             	or     $0x10,%edx
  106925:	89 50 18             	mov    %edx,0x18(%rax)
  106928:	48 8b 45 f8          	mov    -0x8(%rbp),%rax
  10692c:	48 8b 00             	mov    (%rax),%rax
  10692f:	8b 50 18             	mov    0x18(%rax),%edx
  106932:	48 8b 45 f8          	mov    -0x8(%rbp),%rax
  106936:	48 8b 00             	mov    (%rax),%rax
  106939:	83 ca 01             	or     $0x1,%edx
  10693c:	89 50 18             	mov    %edx,0x18(%rax)
  10693f:	90                   	nop
  106940:	c9                   	leaveq 
  106941:	c3                   	retq   

0000000000106942 <_ZN4AHCI4Port4ReadEmPvj>:
  106942:	f3 0f 1e fa          	endbr64 
  106946:	55                   	push   %rbp
  106947:	48 89 e5             	mov    %rsp,%rbp
  10694a:	48 83 ec 50          	sub    $0x50,%rsp
  10694e:	48 89 7d c8          	mov    %rdi,-0x38(%rbp)
  106952:	48 89 75 c0          	mov    %rsi,-0x40(%rbp)
  106956:	48 89 55 b8          	mov    %rdx,-0x48(%rbp)
  10695a:	89 4d b4             	mov    %ecx,-0x4c(%rbp)
  10695d:	48 8b 45 c8          	mov    -0x38(%rbp),%rax
  106961:	48 8b 00             	mov    (%rax),%rax
  106964:	c7 40 10 ff ff ff ff 	movl   $0xffffffff,0x10(%rax)
  10696b:	48 8b 45 c8          	mov    -0x38(%rbp),%rax
  10696f:	48 8b 00             	mov    (%rax),%rax
  106972:	8b 00                	mov    (%rax),%eax
  106974:	89 c0                	mov    %eax,%eax
  106976:	48 89 45 f0          	mov    %rax,-0x10(%rbp)
  10697a:	48 8b 45 f0          	mov    -0x10(%rbp),%rax
  10697e:	0f b6 10             	movzbl (%rax),%edx
  106981:	83 e2 e0             	and    $0xffffffe0,%edx
  106984:	83 ca 05             	or     $0x5,%edx
  106987:	88 10                	mov    %dl,(%rax)
  106989:	48 8b 45 f0          	mov    -0x10(%rbp),%rax
  10698d:	0f b6 10             	movzbl (%rax),%edx
  106990:	83 e2 bf             	and    $0xffffffbf,%edx
  106993:	88 10                	mov    %dl,(%rax)
  106995:	48 8b 45 f0          	mov    -0x10(%rbp),%rax
  106999:	66 c7 40 02 01 00    	movw   $0x1,0x2(%rax)
  10699f:	48 8b 45 f0          	mov    -0x10(%rbp),%rax
  1069a3:	8b 40 08             	mov    0x8(%rax),%eax
  1069a6:	89 c0                	mov    %eax,%eax
  1069a8:	48 89 45 e8          	mov    %rax,-0x18(%rbp)
  1069ac:	48 8b 45 f0          	mov    -0x10(%rbp),%rax
  1069b0:	0f b7 40 02          	movzwl 0x2(%rax),%eax
  1069b4:	0f b7 c0             	movzwl %ax,%eax
  1069b7:	83 e8 01             	sub    $0x1,%eax
  1069ba:	48 98                	cltq   
  1069bc:	48 83 c0 08          	add    $0x8,%rax
  1069c0:	48 c1 e0 04          	shl    $0x4,%rax
  1069c4:	48 89 c2             	mov    %rax,%rdx
  1069c7:	48 8b 45 e8          	mov    -0x18(%rbp),%rax
  1069cb:	be 00 00 00 00       	mov    $0x0,%esi
  1069d0:	48 89 c7             	mov    %rax,%rdi
  1069d3:	e8 93 64 00 00       	callq  10ce6b <_Z6memsetPvim>
  1069d8:	48 8b 45 b8          	mov    -0x48(%rbp),%rax
  1069dc:	48 89 c6             	mov    %rax,%rsi
  1069df:	48 8d 3d 62 e6 00 00 	lea    0xe662(%rip),%rdi        # 115048 <KernelDirectory>
  1069e6:	e8 9d 99 ff ff       	callq  100388 <_ZN16PageTableManager15PhysicalAddressEm>
  1069eb:	48 8b 55 b8          	mov    -0x48(%rbp),%rdx
  1069ef:	81 e2 ff 0f 00 00    	and    $0xfff,%edx
  1069f5:	48 01 d0             	add    %rdx,%rax
  1069f8:	48 89 45 e0          	mov    %rax,-0x20(%rbp)
  1069fc:	48 8b 45 e0          	mov    -0x20(%rbp),%rax
  106a00:	89 c2                	mov    %eax,%edx
  106a02:	48 8b 45 e8          	mov    -0x18(%rbp),%rax
  106a06:	89 90 80 00 00 00    	mov    %edx,0x80(%rax)
  106a0c:	48 8b 45 e0          	mov    -0x20(%rbp),%rax
  106a10:	48 c1 e8 20          	shr    $0x20,%rax
  106a14:	89 c2                	mov    %eax,%edx
  106a16:	48 8b 45 e8          	mov    -0x18(%rbp),%rax
  106a1a:	89 90 84 00 00 00    	mov    %edx,0x84(%rax)
  106a20:	8b 45 b4             	mov    -0x4c(%rbp),%eax
  106a23:	c1 e0 09             	shl    $0x9,%eax
  106a26:	83 e8 01             	sub    $0x1,%eax
  106a29:	25 ff ff 3f 00       	and    $0x3fffff,%eax
  106a2e:	89 c2                	mov    %eax,%edx
  106a30:	48 8b 45 e8          	mov    -0x18(%rbp),%rax
  106a34:	89 d1                	mov    %edx,%ecx
  106a36:	81 e1 ff ff 3f 00    	and    $0x3fffff,%ecx
  106a3c:	8b 90 8c 00 00 00    	mov    0x8c(%rax),%edx
  106a42:	81 e2 00 00 c0 ff    	and    $0xffc00000,%edx
  106a48:	09 ca                	or     %ecx,%edx
  106a4a:	89 90 8c 00 00 00    	mov    %edx,0x8c(%rax)
  106a50:	48 8b 45 e8          	mov    -0x18(%rbp),%rax
  106a54:	0f b6 90 8f 00 00 00 	movzbl 0x8f(%rax),%edx
  106a5b:	83 ca 80             	or     $0xffffff80,%edx
  106a5e:	88 90 8f 00 00 00    	mov    %dl,0x8f(%rax)
  106a64:	48 8b 45 e8          	mov    -0x18(%rbp),%rax
  106a68:	48 89 45 d8          	mov    %rax,-0x28(%rbp)
  106a6c:	48 8b 45 d8          	mov    -0x28(%rbp),%rax
  106a70:	c6 00 27             	movb   $0x27,(%rax)
  106a73:	48 8b 45 d8          	mov    -0x28(%rbp),%rax
  106a77:	0f b6 50 01          	movzbl 0x1(%rax),%edx
  106a7b:	83 ca 80             	or     $0xffffff80,%edx
  106a7e:	88 50 01             	mov    %dl,0x1(%rax)
  106a81:	48 8b 45 d8          	mov    -0x28(%rbp),%rax
  106a85:	c6 40 02 25          	movb   $0x25,0x2(%rax)
  106a89:	48 8b 45 c0          	mov    -0x40(%rbp),%rax
  106a8d:	89 c2                	mov    %eax,%edx
  106a8f:	48 8b 45 d8          	mov    -0x28(%rbp),%rax
  106a93:	88 50 04             	mov    %dl,0x4(%rax)
  106a96:	48 8b 45 c0          	mov    -0x40(%rbp),%rax
  106a9a:	48 c1 e8 08          	shr    $0x8,%rax
  106a9e:	89 c2                	mov    %eax,%edx
  106aa0:	48 8b 45 d8          	mov    -0x28(%rbp),%rax
  106aa4:	88 50 05             	mov    %dl,0x5(%rax)
  106aa7:	48 8b 45 c0          	mov    -0x40(%rbp),%rax
  106aab:	48 c1 e8 10          	shr    $0x10,%rax
  106aaf:	89 c2                	mov    %eax,%edx
  106ab1:	48 8b 45 d8          	mov    -0x28(%rbp),%rax
  106ab5:	88 50 06             	mov    %dl,0x6(%rax)
  106ab8:	48 8b 45 c0          	mov    -0x40(%rbp),%rax
  106abc:	48 c1 e8 18          	shr    $0x18,%rax
  106ac0:	89 c2                	mov    %eax,%edx
  106ac2:	48 8b 45 d8          	mov    -0x28(%rbp),%rax
  106ac6:	88 50 08             	mov    %dl,0x8(%rax)
  106ac9:	48 8b 45 c0          	mov    -0x40(%rbp),%rax
  106acd:	48 c1 e8 20          	shr    $0x20,%rax
  106ad1:	89 c2                	mov    %eax,%edx
  106ad3:	48 8b 45 d8          	mov    -0x28(%rbp),%rax
  106ad7:	88 50 09             	mov    %dl,0x9(%rax)
  106ada:	48 8b 45 c0          	mov    -0x40(%rbp),%rax
  106ade:	48 c1 e8 28          	shr    $0x28,%rax
  106ae2:	89 c2                	mov    %eax,%edx
  106ae4:	48 8b 45 d8          	mov    -0x28(%rbp),%rax
  106ae8:	88 50 0a             	mov    %dl,0xa(%rax)
  106aeb:	48 8b 45 d8          	mov    -0x28(%rbp),%rax
  106aef:	c6 40 07 40          	movb   $0x40,0x7(%rax)
  106af3:	8b 45 b4             	mov    -0x4c(%rbp),%eax
  106af6:	89 c2                	mov    %eax,%edx
  106af8:	48 8b 45 d8          	mov    -0x28(%rbp),%rax
  106afc:	88 50 0c             	mov    %dl,0xc(%rax)
  106aff:	8b 45 b4             	mov    -0x4c(%rbp),%eax
  106b02:	c1 e8 08             	shr    $0x8,%eax
  106b05:	89 c2                	mov    %eax,%edx
  106b07:	48 8b 45 d8          	mov    -0x28(%rbp),%rax
  106b0b:	88 50 0d             	mov    %dl,0xd(%rax)
  106b0e:	48 c7 45 f8 00 00 00 	movq   $0x0,-0x8(%rbp)
  106b15:	00 
  106b16:	48 8b 45 c8          	mov    -0x38(%rbp),%rax
  106b1a:	48 8b 00             	mov    (%rax),%rax
  106b1d:	8b 40 20             	mov    0x20(%rax),%eax
  106b20:	25 88 00 00 00       	and    $0x88,%eax
  106b25:	85 c0                	test   %eax,%eax
  106b27:	74 11                	je     106b3a <_ZN4AHCI4Port4ReadEmPvj+0x1f8>
  106b29:	48 81 7d f8 3f 42 0f 	cmpq   $0xf423f,-0x8(%rbp)
  106b30:	00 
  106b31:	77 07                	ja     106b3a <_ZN4AHCI4Port4ReadEmPvj+0x1f8>
  106b33:	48 83 45 f8 01       	addq   $0x1,-0x8(%rbp)
  106b38:	eb dc                	jmp    106b16 <_ZN4AHCI4Port4ReadEmPvj+0x1d4>
  106b3a:	48 81 7d f8 40 42 0f 	cmpq   $0xf4240,-0x8(%rbp)
  106b41:	00 
  106b42:	75 07                	jne    106b4b <_ZN4AHCI4Port4ReadEmPvj+0x209>
  106b44:	b8 00 00 00 00       	mov    $0x0,%eax
  106b49:	eb 3c                	jmp    106b87 <_ZN4AHCI4Port4ReadEmPvj+0x245>
  106b4b:	48 8b 45 c8          	mov    -0x38(%rbp),%rax
  106b4f:	48 8b 00             	mov    (%rax),%rax
  106b52:	c7 40 38 01 00 00 00 	movl   $0x1,0x38(%rax)
  106b59:	48 8b 45 c8          	mov    -0x38(%rbp),%rax
  106b5d:	48 8b 00             	mov    (%rax),%rax
  106b60:	8b 40 38             	mov    0x38(%rax),%eax
  106b63:	85 c0                	test   %eax,%eax
  106b65:	74 1a                	je     106b81 <_ZN4AHCI4Port4ReadEmPvj+0x23f>
  106b67:	48 8b 45 c8          	mov    -0x38(%rbp),%rax
  106b6b:	48 8b 00             	mov    (%rax),%rax
  106b6e:	8b 40 10             	mov    0x10(%rax),%eax
  106b71:	25 00 00 00 40       	and    $0x40000000,%eax
  106b76:	85 c0                	test   %eax,%eax
  106b78:	74 df                	je     106b59 <_ZN4AHCI4Port4ReadEmPvj+0x217>
  106b7a:	b8 00 00 00 00       	mov    $0x0,%eax
  106b7f:	eb 06                	jmp    106b87 <_ZN4AHCI4Port4ReadEmPvj+0x245>
  106b81:	90                   	nop
  106b82:	b8 01 00 00 00       	mov    $0x1,%eax
  106b87:	c9                   	leaveq 
  106b88:	c3                   	retq   
  106b89:	90                   	nop

0000000000106b8a <_ZN4AHCI4Port5WriteEmPvj>:
  106b8a:	f3 0f 1e fa          	endbr64 
  106b8e:	55                   	push   %rbp
  106b8f:	48 89 e5             	mov    %rsp,%rbp
  106b92:	48 83 ec 50          	sub    $0x50,%rsp
  106b96:	48 89 7d c8          	mov    %rdi,-0x38(%rbp)
  106b9a:	48 89 75 c0          	mov    %rsi,-0x40(%rbp)
  106b9e:	48 89 55 b8          	mov    %rdx,-0x48(%rbp)
  106ba2:	89 4d b4             	mov    %ecx,-0x4c(%rbp)
  106ba5:	48 8b 45 c8          	mov    -0x38(%rbp),%rax
  106ba9:	48 8b 00             	mov    (%rax),%rax
  106bac:	c7 40 10 ff ff ff ff 	movl   $0xffffffff,0x10(%rax)
  106bb3:	48 8b 45 c8          	mov    -0x38(%rbp),%rax
  106bb7:	48 8b 00             	mov    (%rax),%rax
  106bba:	8b 00                	mov    (%rax),%eax
  106bbc:	89 c0                	mov    %eax,%eax
  106bbe:	48 89 45 f0          	mov    %rax,-0x10(%rbp)
  106bc2:	48 8b 45 f0          	mov    -0x10(%rbp),%rax
  106bc6:	0f b6 10             	movzbl (%rax),%edx
  106bc9:	83 e2 e0             	and    $0xffffffe0,%edx
  106bcc:	83 ca 05             	or     $0x5,%edx
  106bcf:	88 10                	mov    %dl,(%rax)
  106bd1:	48 8b 45 f0          	mov    -0x10(%rbp),%rax
  106bd5:	0f b6 10             	movzbl (%rax),%edx
  106bd8:	83 ca 40             	or     $0x40,%edx
  106bdb:	88 10                	mov    %dl,(%rax)
  106bdd:	48 8b 45 f0          	mov    -0x10(%rbp),%rax
  106be1:	66 c7 40 02 01 00    	movw   $0x1,0x2(%rax)
  106be7:	48 8b 45 f0          	mov    -0x10(%rbp),%rax
  106beb:	8b 40 08             	mov    0x8(%rax),%eax
  106bee:	89 c0                	mov    %eax,%eax
  106bf0:	48 89 45 e8          	mov    %rax,-0x18(%rbp)
  106bf4:	48 8b 45 f0          	mov    -0x10(%rbp),%rax
  106bf8:	0f b7 40 02          	movzwl 0x2(%rax),%eax
  106bfc:	0f b7 c0             	movzwl %ax,%eax
  106bff:	83 e8 01             	sub    $0x1,%eax
  106c02:	48 98                	cltq   
  106c04:	48 83 c0 08          	add    $0x8,%rax
  106c08:	48 c1 e0 04          	shl    $0x4,%rax
  106c0c:	48 89 c2             	mov    %rax,%rdx
  106c0f:	48 8b 45 e8          	mov    -0x18(%rbp),%rax
  106c13:	be 00 00 00 00       	mov    $0x0,%esi
  106c18:	48 89 c7             	mov    %rax,%rdi
  106c1b:	e8 4b 62 00 00       	callq  10ce6b <_Z6memsetPvim>
  106c20:	48 8b 05 29 e4 00 00 	mov    0xe429(%rip),%rax        # 115050 <CurrentDirectory>
  106c27:	48 8b 55 b8          	mov    -0x48(%rbp),%rdx
  106c2b:	48 89 d6             	mov    %rdx,%rsi
  106c2e:	48 89 c7             	mov    %rax,%rdi
  106c31:	e8 52 97 ff ff       	callq  100388 <_ZN16PageTableManager15PhysicalAddressEm>
  106c36:	48 8b 55 b8          	mov    -0x48(%rbp),%rdx
  106c3a:	81 e2 ff 0f 00 00    	and    $0xfff,%edx
  106c40:	48 01 d0             	add    %rdx,%rax
  106c43:	48 89 45 e0          	mov    %rax,-0x20(%rbp)
  106c47:	48 8b 45 e0          	mov    -0x20(%rbp),%rax
  106c4b:	89 c2                	mov    %eax,%edx
  106c4d:	48 8b 45 e8          	mov    -0x18(%rbp),%rax
  106c51:	89 90 80 00 00 00    	mov    %edx,0x80(%rax)
  106c57:	48 8b 45 e0          	mov    -0x20(%rbp),%rax
  106c5b:	48 c1 e8 20          	shr    $0x20,%rax
  106c5f:	89 c2                	mov    %eax,%edx
  106c61:	48 8b 45 e8          	mov    -0x18(%rbp),%rax
  106c65:	89 90 84 00 00 00    	mov    %edx,0x84(%rax)
  106c6b:	8b 45 b4             	mov    -0x4c(%rbp),%eax
  106c6e:	c1 e0 09             	shl    $0x9,%eax
  106c71:	83 e8 01             	sub    $0x1,%eax
  106c74:	25 ff ff 3f 00       	and    $0x3fffff,%eax
  106c79:	89 c2                	mov    %eax,%edx
  106c7b:	48 8b 45 e8          	mov    -0x18(%rbp),%rax
  106c7f:	89 d1                	mov    %edx,%ecx
  106c81:	81 e1 ff ff 3f 00    	and    $0x3fffff,%ecx
  106c87:	8b 90 8c 00 00 00    	mov    0x8c(%rax),%edx
  106c8d:	81 e2 00 00 c0 ff    	and    $0xffc00000,%edx
  106c93:	09 ca                	or     %ecx,%edx
  106c95:	89 90 8c 00 00 00    	mov    %edx,0x8c(%rax)
  106c9b:	48 8b 45 e8          	mov    -0x18(%rbp),%rax
  106c9f:	0f b6 90 8f 00 00 00 	movzbl 0x8f(%rax),%edx
  106ca6:	83 ca 80             	or     $0xffffff80,%edx
  106ca9:	88 90 8f 00 00 00    	mov    %dl,0x8f(%rax)
  106caf:	48 8b 45 e8          	mov    -0x18(%rbp),%rax
  106cb3:	48 89 45 d8          	mov    %rax,-0x28(%rbp)
  106cb7:	48 8b 45 d8          	mov    -0x28(%rbp),%rax
  106cbb:	c6 00 27             	movb   $0x27,(%rax)
  106cbe:	48 8b 45 d8          	mov    -0x28(%rbp),%rax
  106cc2:	0f b6 50 01          	movzbl 0x1(%rax),%edx
  106cc6:	83 ca 80             	or     $0xffffff80,%edx
  106cc9:	88 50 01             	mov    %dl,0x1(%rax)
  106ccc:	48 8b 45 d8          	mov    -0x28(%rbp),%rax
  106cd0:	c6 40 02 25          	movb   $0x25,0x2(%rax)
  106cd4:	48 8b 45 c0          	mov    -0x40(%rbp),%rax
  106cd8:	89 c2                	mov    %eax,%edx
  106cda:	48 8b 45 d8          	mov    -0x28(%rbp),%rax
  106cde:	88 50 04             	mov    %dl,0x4(%rax)
  106ce1:	48 8b 45 c0          	mov    -0x40(%rbp),%rax
  106ce5:	48 c1 e8 08          	shr    $0x8,%rax
  106ce9:	89 c2                	mov    %eax,%edx
  106ceb:	48 8b 45 d8          	mov    -0x28(%rbp),%rax
  106cef:	88 50 05             	mov    %dl,0x5(%rax)
  106cf2:	48 8b 45 c0          	mov    -0x40(%rbp),%rax
  106cf6:	48 c1 e8 10          	shr    $0x10,%rax
  106cfa:	89 c2                	mov    %eax,%edx
  106cfc:	48 8b 45 d8          	mov    -0x28(%rbp),%rax
  106d00:	88 50 06             	mov    %dl,0x6(%rax)
  106d03:	48 8b 45 c0          	mov    -0x40(%rbp),%rax
  106d07:	48 c1 e8 18          	shr    $0x18,%rax
  106d0b:	89 c2                	mov    %eax,%edx
  106d0d:	48 8b 45 d8          	mov    -0x28(%rbp),%rax
  106d11:	88 50 08             	mov    %dl,0x8(%rax)
  106d14:	48 8b 45 c0          	mov    -0x40(%rbp),%rax
  106d18:	48 c1 e8 20          	shr    $0x20,%rax
  106d1c:	89 c2                	mov    %eax,%edx
  106d1e:	48 8b 45 d8          	mov    -0x28(%rbp),%rax
  106d22:	88 50 09             	mov    %dl,0x9(%rax)
  106d25:	48 8b 45 c0          	mov    -0x40(%rbp),%rax
  106d29:	48 c1 e8 28          	shr    $0x28,%rax
  106d2d:	89 c2                	mov    %eax,%edx
  106d2f:	48 8b 45 d8          	mov    -0x28(%rbp),%rax
  106d33:	88 50 0a             	mov    %dl,0xa(%rax)
  106d36:	48 8b 45 d8          	mov    -0x28(%rbp),%rax
  106d3a:	c6 40 07 40          	movb   $0x40,0x7(%rax)
  106d3e:	8b 45 b4             	mov    -0x4c(%rbp),%eax
  106d41:	89 c2                	mov    %eax,%edx
  106d43:	48 8b 45 d8          	mov    -0x28(%rbp),%rax
  106d47:	88 50 0c             	mov    %dl,0xc(%rax)
  106d4a:	8b 45 b4             	mov    -0x4c(%rbp),%eax
  106d4d:	c1 e8 08             	shr    $0x8,%eax
  106d50:	89 c2                	mov    %eax,%edx
  106d52:	48 8b 45 d8          	mov    -0x28(%rbp),%rax
  106d56:	88 50 0d             	mov    %dl,0xd(%rax)
  106d59:	48 c7 45 f8 00 00 00 	movq   $0x0,-0x8(%rbp)
  106d60:	00 
  106d61:	48 8b 45 c8          	mov    -0x38(%rbp),%rax
  106d65:	48 8b 00             	mov    (%rax),%rax
  106d68:	8b 40 20             	mov    0x20(%rax),%eax
  106d6b:	25 88 00 00 00       	and    $0x88,%eax
  106d70:	85 c0                	test   %eax,%eax
  106d72:	74 11                	je     106d85 <_ZN4AHCI4Port5WriteEmPvj+0x1fb>
  106d74:	48 81 7d f8 3f 42 0f 	cmpq   $0xf423f,-0x8(%rbp)
  106d7b:	00 
  106d7c:	77 07                	ja     106d85 <_ZN4AHCI4Port5WriteEmPvj+0x1fb>
  106d7e:	48 83 45 f8 01       	addq   $0x1,-0x8(%rbp)
  106d83:	eb dc                	jmp    106d61 <_ZN4AHCI4Port5WriteEmPvj+0x1d7>
  106d85:	48 81 7d f8 40 42 0f 	cmpq   $0xf4240,-0x8(%rbp)
  106d8c:	00 
  106d8d:	75 07                	jne    106d96 <_ZN4AHCI4Port5WriteEmPvj+0x20c>
  106d8f:	b8 00 00 00 00       	mov    $0x0,%eax
  106d94:	eb 3c                	jmp    106dd2 <_ZN4AHCI4Port5WriteEmPvj+0x248>
  106d96:	48 8b 45 c8          	mov    -0x38(%rbp),%rax
  106d9a:	48 8b 00             	mov    (%rax),%rax
  106d9d:	c7 40 38 01 00 00 00 	movl   $0x1,0x38(%rax)
  106da4:	48 8b 45 c8          	mov    -0x38(%rbp),%rax
  106da8:	48 8b 00             	mov    (%rax),%rax
  106dab:	8b 40 38             	mov    0x38(%rax),%eax
  106dae:	85 c0                	test   %eax,%eax
  106db0:	74 1a                	je     106dcc <_ZN4AHCI4Port5WriteEmPvj+0x242>
  106db2:	48 8b 45 c8          	mov    -0x38(%rbp),%rax
  106db6:	48 8b 00             	mov    (%rax),%rax
  106db9:	8b 40 10             	mov    0x10(%rax),%eax
  106dbc:	25 00 00 00 40       	and    $0x40000000,%eax
  106dc1:	85 c0                	test   %eax,%eax
  106dc3:	74 df                	je     106da4 <_ZN4AHCI4Port5WriteEmPvj+0x21a>
  106dc5:	b8 00 00 00 00       	mov    $0x0,%eax
  106dca:	eb 06                	jmp    106dd2 <_ZN4AHCI4Port5WriteEmPvj+0x248>
  106dcc:	90                   	nop
  106dcd:	b8 01 00 00 00       	mov    $0x1,%eax
  106dd2:	c9                   	leaveq 
  106dd3:	c3                   	retq   

0000000000106dd4 <_ZN4AHCI10AHCIDriverC1EPN3PCI15PCIDeviceHeaderE>:
  106dd4:	f3 0f 1e fa          	endbr64 
  106dd8:	55                   	push   %rbp
  106dd9:	48 89 e5             	mov    %rsp,%rbp
  106ddc:	48 83 ec 10          	sub    $0x10,%rsp
  106de0:	48 89 7d f8          	mov    %rdi,-0x8(%rbp)
  106de4:	48 89 75 f0          	mov    %rsi,-0x10(%rbp)
  106de8:	48 8b 45 f8          	mov    -0x8(%rbp),%rax
  106dec:	48 8b 55 f0          	mov    -0x10(%rbp),%rdx
  106df0:	48 89 10             	mov    %rdx,(%rax)
  106df3:	48 8d 3d 1e a3 00 00 	lea    0xa31e(%rip),%rdi        # 111118 <_ZL8sc_ascii+0x58>
  106dfa:	b8 00 00 00 00       	mov    $0x0,%eax
  106dff:	e8 28 5c 00 00       	callq  10ca2c <_Z7kprintfPKcz>
  106e04:	48 8b 45 f0          	mov    -0x10(%rbp),%rax
  106e08:	8b 40 24             	mov    0x24(%rax),%eax
  106e0b:	89 c0                	mov    %eax,%eax
  106e0d:	48 89 c2             	mov    %rax,%rdx
  106e10:	48 8b 45 f8          	mov    -0x8(%rbp),%rax
  106e14:	48 89 50 08          	mov    %rdx,0x8(%rax)
  106e18:	48 8b 45 f8          	mov    -0x8(%rbp),%rax
  106e1c:	48 8b 40 08          	mov    0x8(%rax),%rax
  106e20:	48 89 c2             	mov    %rax,%rdx
  106e23:	48 8b 45 f8          	mov    -0x8(%rbp),%rax
  106e27:	48 8b 40 08          	mov    0x8(%rax),%rax
  106e2b:	b9 03 00 00 00       	mov    $0x3,%ecx
  106e30:	48 89 c6             	mov    %rax,%rsi
  106e33:	48 8d 3d 0e e2 00 00 	lea    0xe20e(%rip),%rdi        # 115048 <KernelDirectory>
  106e3a:	e8 97 92 ff ff       	callq  1000d6 <_ZN16PageTableManager9MapMemoryEmmm>
  106e3f:	90                   	nop
  106e40:	c9                   	leaveq 
  106e41:	c3                   	retq   

0000000000106e42 <_ZN4AHCI10AHCIDeviceC1EPNS_4PortE>:
  106e42:	f3 0f 1e fa          	endbr64 
  106e46:	55                   	push   %rbp
  106e47:	48 89 e5             	mov    %rsp,%rbp
  106e4a:	48 83 ec 10          	sub    $0x10,%rsp
  106e4e:	48 89 7d f8          	mov    %rdi,-0x8(%rbp)
  106e52:	48 89 75 f0          	mov    %rsi,-0x10(%rbp)
  106e56:	48 8b 45 f8          	mov    -0x8(%rbp),%rax
  106e5a:	48 89 c7             	mov    %rax,%rdi
  106e5d:	e8 6e 74 00 00       	callq  10e2d0 <_ZN6DeviceC1Ev>
  106e62:	48 8d 15 af 86 00 00 	lea    0x86af(%rip),%rdx        # 10f518 <_ZTVN4AHCI10AHCIDeviceE+0x10>
  106e69:	48 8b 45 f8          	mov    -0x8(%rbp),%rax
  106e6d:	48 89 10             	mov    %rdx,(%rax)
  106e70:	48 8b 45 f8          	mov    -0x8(%rbp),%rax
  106e74:	48 8b 55 f0          	mov    -0x10(%rbp),%rdx
  106e78:	48 89 50 08          	mov    %rdx,0x8(%rax)
  106e7c:	48 8b 45 f0          	mov    -0x10(%rbp),%rax
  106e80:	48 89 c7             	mov    %rax,%rdi
  106e83:	e8 66 f8 ff ff       	callq  1066ee <_ZN4AHCI4Port9ConfigureEv>
  106e88:	90                   	nop
  106e89:	c9                   	leaveq 
  106e8a:	c3                   	retq   
  106e8b:	90                   	nop

0000000000106e8c <_ZN4AHCI10AHCIDevice4ReadEmPvm>:
  106e8c:	f3 0f 1e fa          	endbr64 
  106e90:	55                   	push   %rbp
  106e91:	48 89 e5             	mov    %rsp,%rbp
  106e94:	48 83 ec 20          	sub    $0x20,%rsp
  106e98:	48 89 7d f8          	mov    %rdi,-0x8(%rbp)
  106e9c:	48 89 75 f0          	mov    %rsi,-0x10(%rbp)
  106ea0:	48 89 55 e8          	mov    %rdx,-0x18(%rbp)
  106ea4:	48 89 4d e0          	mov    %rcx,-0x20(%rbp)
  106ea8:	48 8b 45 f8          	mov    -0x8(%rbp),%rax
  106eac:	48 8b 40 08          	mov    0x8(%rax),%rax
  106eb0:	48 8b 55 e0          	mov    -0x20(%rbp),%rdx
  106eb4:	89 d1                	mov    %edx,%ecx
  106eb6:	48 8b 55 e8          	mov    -0x18(%rbp),%rdx
  106eba:	48 8b 75 f0          	mov    -0x10(%rbp),%rsi
  106ebe:	48 89 c7             	mov    %rax,%rdi
  106ec1:	e8 7c fa ff ff       	callq  106942 <_ZN4AHCI4Port4ReadEmPvj>
  106ec6:	90                   	nop
  106ec7:	c9                   	leaveq 
  106ec8:	c3                   	retq   
  106ec9:	90                   	nop

0000000000106eca <_ZN4AHCI10AHCIDevice5WriteEmPvm>:
  106eca:	f3 0f 1e fa          	endbr64 
  106ece:	55                   	push   %rbp
  106ecf:	48 89 e5             	mov    %rsp,%rbp
  106ed2:	48 83 ec 20          	sub    $0x20,%rsp
  106ed6:	48 89 7d f8          	mov    %rdi,-0x8(%rbp)
  106eda:	48 89 75 f0          	mov    %rsi,-0x10(%rbp)
  106ede:	48 89 55 e8          	mov    %rdx,-0x18(%rbp)
  106ee2:	48 89 4d e0          	mov    %rcx,-0x20(%rbp)
  106ee6:	48 8b 45 f8          	mov    -0x8(%rbp),%rax
  106eea:	48 8b 40 08          	mov    0x8(%rax),%rax
  106eee:	48 8b 55 e0          	mov    -0x20(%rbp),%rdx
  106ef2:	89 d1                	mov    %edx,%ecx
  106ef4:	48 8b 55 e8          	mov    -0x18(%rbp),%rdx
  106ef8:	48 8b 75 f0          	mov    -0x10(%rbp),%rsi
  106efc:	48 89 c7             	mov    %rax,%rdi
  106eff:	e8 86 fc ff ff       	callq  106b8a <_ZN4AHCI4Port5WriteEmPvj>
  106f04:	90                   	nop
  106f05:	c9                   	leaveq 
  106f06:	c3                   	retq   

0000000000106f07 <_Z17InitialiseDevicesv>:
  106f07:	f3 0f 1e fa          	endbr64 
  106f0b:	55                   	push   %rbp
  106f0c:	48 89 e5             	mov    %rsp,%rbp
  106f0f:	ba 80 00 00 00       	mov    $0x80,%edx
  106f14:	be 00 00 00 00       	mov    $0x0,%esi
  106f19:	48 8d 3d a0 07 01 00 	lea    0x107a0(%rip),%rdi        # 1176c0 <devices>
  106f20:	e8 46 5f 00 00       	callq  10ce6b <_Z6memsetPvim>
  106f25:	90                   	nop
  106f26:	5d                   	pop    %rbp
  106f27:	c3                   	retq   

0000000000106f28 <_Z14RegisterDeviceP6Device>:
  106f28:	f3 0f 1e fa          	endbr64 
  106f2c:	55                   	push   %rbp
  106f2d:	48 89 e5             	mov    %rsp,%rbp
  106f30:	48 83 ec 20          	sub    $0x20,%rsp
  106f34:	48 89 7d e8          	mov    %rdi,-0x18(%rbp)
  106f38:	c7 45 fc 00 00 00 00 	movl   $0x0,-0x4(%rbp)
  106f3f:	83 7d fc 0f          	cmpl   $0xf,-0x4(%rbp)
  106f43:	77 3d                	ja     106f82 <_Z14RegisterDeviceP6Device+0x5a>
  106f45:	8b 45 fc             	mov    -0x4(%rbp),%eax
  106f48:	48 8d 14 c5 00 00 00 	lea    0x0(,%rax,8),%rdx
  106f4f:	00 
  106f50:	48 8d 05 69 07 01 00 	lea    0x10769(%rip),%rax        # 1176c0 <devices>
  106f57:	48 8b 04 02          	mov    (%rdx,%rax,1),%rax
  106f5b:	48 85 c0             	test   %rax,%rax
  106f5e:	75 1c                	jne    106f7c <_Z14RegisterDeviceP6Device+0x54>
  106f60:	8b 45 fc             	mov    -0x4(%rbp),%eax
  106f63:	48 8d 0c c5 00 00 00 	lea    0x0(,%rax,8),%rcx
  106f6a:	00 
  106f6b:	48 8d 15 4e 07 01 00 	lea    0x1074e(%rip),%rdx        # 1176c0 <devices>
  106f72:	48 8b 45 e8          	mov    -0x18(%rbp),%rax
  106f76:	48 89 04 11          	mov    %rax,(%rcx,%rdx,1)
  106f7a:	eb 18                	jmp    106f94 <_Z14RegisterDeviceP6Device+0x6c>
  106f7c:	83 45 fc 01          	addl   $0x1,-0x4(%rbp)
  106f80:	eb bd                	jmp    106f3f <_Z14RegisterDeviceP6Device+0x17>
  106f82:	48 8d 3d b7 a1 00 00 	lea    0xa1b7(%rip),%rdi        # 111140 <_ZL8sc_ascii+0x80>
  106f89:	b8 00 00 00 00       	mov    $0x0,%eax
  106f8e:	e8 99 5a 00 00       	callq  10ca2c <_Z7kprintfPKcz>
  106f93:	f4                   	hlt    
  106f94:	c9                   	leaveq 
  106f95:	c3                   	retq   

0000000000106f96 <_Z16UnregisterDeviceP6Device>:
  106f96:	f3 0f 1e fa          	endbr64 
  106f9a:	55                   	push   %rbp
  106f9b:	48 89 e5             	mov    %rsp,%rbp
  106f9e:	48 83 ec 20          	sub    $0x20,%rsp
  106fa2:	48 89 7d e8          	mov    %rdi,-0x18(%rbp)
  106fa6:	c7 45 fc 00 00 00 00 	movl   $0x0,-0x4(%rbp)
  106fad:	83 7d fc 0f          	cmpl   $0xf,-0x4(%rbp)
  106fb1:	77 3e                	ja     106ff1 <_Z16UnregisterDeviceP6Device+0x5b>
  106fb3:	8b 45 fc             	mov    -0x4(%rbp),%eax
  106fb6:	48 8d 14 c5 00 00 00 	lea    0x0(,%rax,8),%rdx
  106fbd:	00 
  106fbe:	48 8d 05 fb 06 01 00 	lea    0x106fb(%rip),%rax        # 1176c0 <devices>
  106fc5:	48 8b 04 02          	mov    (%rdx,%rax,1),%rax
  106fc9:	48 39 45 e8          	cmp    %rax,-0x18(%rbp)
  106fcd:	75 1c                	jne    106feb <_Z16UnregisterDeviceP6Device+0x55>
  106fcf:	8b 45 fc             	mov    -0x4(%rbp),%eax
  106fd2:	48 8d 14 c5 00 00 00 	lea    0x0(,%rax,8),%rdx
  106fd9:	00 
  106fda:	48 8d 05 df 06 01 00 	lea    0x106df(%rip),%rax        # 1176c0 <devices>
  106fe1:	48 c7 04 02 00 00 00 	movq   $0x0,(%rdx,%rax,1)
  106fe8:	00 
  106fe9:	eb 18                	jmp    107003 <_Z16UnregisterDeviceP6Device+0x6d>
  106feb:	83 45 fc 01          	addl   $0x1,-0x4(%rbp)
  106fef:	eb bc                	jmp    106fad <_Z16UnregisterDeviceP6Device+0x17>
  106ff1:	48 8d 3d 70 a1 00 00 	lea    0xa170(%rip),%rdi        # 111168 <_ZL8sc_ascii+0xa8>
  106ff8:	b8 00 00 00 00       	mov    $0x0,%eax
  106ffd:	e8 2a 5a 00 00       	callq  10ca2c <_Z7kprintfPKcz>
  107002:	f4                   	hlt    
  107003:	c9                   	leaveq 
  107004:	c3                   	retq   
  107005:	90                   	nop

0000000000107006 <_Z22LocateFilesystemsFAT32P6Device>:
  107006:	f3 0f 1e fa          	endbr64 
  10700a:	55                   	push   %rbp
  10700b:	48 89 e5             	mov    %rsp,%rbp
  10700e:	53                   	push   %rbx
  10700f:	48 83 ec 38          	sub    $0x38,%rsp
  107013:	48 89 7d c8          	mov    %rdi,-0x38(%rbp)
  107017:	48 c7 45 d8 00 06 00 	movq   $0x600,-0x28(%rbp)
  10701e:	00 
  10701f:	0f b6 05 3a 0a 01 00 	movzbl 0x10a3a(%rip),%eax        # 117a60 <fromUEFI>
  107026:	84 c0                	test   %al,%al
  107028:	75 66                	jne    107090 <_Z22LocateFilesystemsFAT32P6Device+0x8a>
  10702a:	48 c7 45 d0 be 01 00 	movq   $0x1be,-0x30(%rbp)
  107031:	00 
  107032:	48 8b 55 d8          	mov    -0x28(%rbp),%rdx
  107036:	48 8b 45 d0          	mov    -0x30(%rbp),%rax
  10703a:	48 01 d0             	add    %rdx,%rax
  10703d:	48 89 45 e8          	mov    %rax,-0x18(%rbp)
  107041:	c7 45 e4 00 00 00 00 	movl   $0x0,-0x1c(%rbp)
  107048:	83 7d e4 03          	cmpl   $0x3,-0x1c(%rbp)
  10704c:	77 6b                	ja     1070b9 <_Z22LocateFilesystemsFAT32P6Device+0xb3>
  10704e:	48 8b 45 e8          	mov    -0x18(%rbp),%rax
  107052:	0f b6 40 04          	movzbl 0x4(%rax),%eax
  107056:	3c 0b                	cmp    $0xb,%al
  107058:	75 2b                	jne    107085 <_Z22LocateFilesystemsFAT32P6Device+0x7f>
  10705a:	bf 20 00 00 00       	mov    $0x20,%edi
  10705f:	e8 eb c9 ff ff       	callq  103a4f <_Znwm>
  107064:	48 89 c3             	mov    %rax,%rbx
  107067:	48 8b 45 e8          	mov    -0x18(%rbp),%rax
  10706b:	8b 50 08             	mov    0x8(%rax),%edx
  10706e:	48 8b 45 c8          	mov    -0x38(%rbp),%rax
  107072:	48 89 c6             	mov    %rax,%rsi
  107075:	48 89 df             	mov    %rbx,%rdi
  107078:	e8 bb 00 00 00       	callq  107138 <_ZN5FAT32C1EP6Devicej>
  10707d:	48 89 df             	mov    %rbx,%rdi
  107080:	e8 ca 43 00 00       	callq  10b44f <_Z18RegisterFilesystemP10Filesystem>
  107085:	48 83 45 e8 10       	addq   $0x10,-0x18(%rbp)
  10708a:	83 45 e4 01          	addl   $0x1,-0x1c(%rbp)
  10708e:	eb b8                	jmp    107048 <_Z22LocateFilesystemsFAT32P6Device+0x42>
  107090:	bf 20 00 00 00       	mov    $0x20,%edi
  107095:	e8 b5 c9 ff ff       	callq  103a4f <_Znwm>
  10709a:	48 89 c3             	mov    %rax,%rbx
  10709d:	48 8b 45 c8          	mov    -0x38(%rbp),%rax
  1070a1:	ba 00 00 00 00       	mov    $0x0,%edx
  1070a6:	48 89 c6             	mov    %rax,%rsi
  1070a9:	48 89 df             	mov    %rbx,%rdi
  1070ac:	e8 87 00 00 00       	callq  107138 <_ZN5FAT32C1EP6Devicej>
  1070b1:	48 89 df             	mov    %rbx,%rdi
  1070b4:	e8 96 43 00 00       	callq  10b44f <_Z18RegisterFilesystemP10Filesystem>
  1070b9:	90                   	nop
  1070ba:	48 83 c4 38          	add    $0x38,%rsp
  1070be:	5b                   	pop    %rbx
  1070bf:	5d                   	pop    %rbp
  1070c0:	c3                   	retq   
  1070c1:	90                   	nop

00000000001070c2 <_ZNK16FAT32_ActiveFile7GetSizeEv>:
  1070c2:	f3 0f 1e fa          	endbr64 
  1070c6:	55                   	push   %rbp
  1070c7:	48 89 e5             	mov    %rsp,%rbp
  1070ca:	48 83 ec 08          	sub    $0x8,%rsp
  1070ce:	48 89 7d f8          	mov    %rdi,-0x8(%rbp)
  1070d2:	48 8b 45 f8          	mov    -0x8(%rbp),%rax
  1070d6:	8b 80 94 00 00 00    	mov    0x94(%rax),%eax
  1070dc:	89 c0                	mov    %eax,%eax
  1070de:	c9                   	leaveq 
  1070df:	c3                   	retq   

00000000001070e0 <_ZNK16FAT32_ActiveFile7GetNameEv>:
  1070e0:	f3 0f 1e fa          	endbr64 
  1070e4:	55                   	push   %rbp
  1070e5:	48 89 e5             	mov    %rsp,%rbp
  1070e8:	48 83 ec 08          	sub    $0x8,%rsp
  1070ec:	48 89 7d f8          	mov    %rdi,-0x8(%rbp)
  1070f0:	48 8b 45 f8          	mov    -0x8(%rbp),%rax
  1070f4:	48 83 c0 10          	add    $0x10,%rax
  1070f8:	c9                   	leaveq 
  1070f9:	c3                   	retq   

00000000001070fa <_ZNK16FAT32_ActiveFile7GetPathEv>:
  1070fa:	f3 0f 1e fa          	endbr64 
  1070fe:	55                   	push   %rbp
  1070ff:	48 89 e5             	mov    %rsp,%rbp
  107102:	48 83 ec 08          	sub    $0x8,%rsp
  107106:	48 89 7d f8          	mov    %rdi,-0x8(%rbp)
  10710a:	48 8b 45 f8          	mov    -0x8(%rbp),%rax
  10710e:	48 8b 80 a8 00 00 00 	mov    0xa8(%rax),%rax
  107115:	c9                   	leaveq 
  107116:	c3                   	retq   
  107117:	90                   	nop

0000000000107118 <_ZNK16FAT32_ActiveFile13GetAttributesEv>:
  107118:	f3 0f 1e fa          	endbr64 
  10711c:	55                   	push   %rbp
  10711d:	48 89 e5             	mov    %rsp,%rbp
  107120:	48 83 ec 08          	sub    $0x8,%rsp
  107124:	48 89 7d f8          	mov    %rdi,-0x8(%rbp)
  107128:	48 8b 45 f8          	mov    -0x8(%rbp),%rax
  10712c:	0f b6 80 98 00 00 00 	movzbl 0x98(%rax),%eax
  107133:	0f b6 c0             	movzbl %al,%eax
  107136:	c9                   	leaveq 
  107137:	c3                   	retq   

0000000000107138 <_ZN5FAT32C1EP6Devicej>:
  107138:	f3 0f 1e fa          	endbr64 
  10713c:	55                   	push   %rbp
  10713d:	48 89 e5             	mov    %rsp,%rbp
  107140:	53                   	push   %rbx
  107141:	48 83 ec 28          	sub    $0x28,%rsp
  107145:	48 89 7d e8          	mov    %rdi,-0x18(%rbp)
  107149:	48 89 75 e0          	mov    %rsi,-0x20(%rbp)
  10714d:	89 55 dc             	mov    %edx,-0x24(%rbp)
  107150:	48 8b 45 e8          	mov    -0x18(%rbp),%rax
  107154:	8b 55 dc             	mov    -0x24(%rbp),%edx
  107157:	48 8b 4d e0          	mov    -0x20(%rbp),%rcx
  10715b:	48 89 ce             	mov    %rcx,%rsi
  10715e:	48 89 c7             	mov    %rax,%rdi
  107161:	e8 a8 73 00 00       	callq  10e50e <_ZN10FilesystemC1EP6Devicej>
  107166:	48 8d 15 e3 83 00 00 	lea    0x83e3(%rip),%rdx        # 10f550 <_ZTV5FAT32+0x10>
  10716d:	48 8b 45 e8          	mov    -0x18(%rbp),%rax
  107171:	48 89 10             	mov    %rdx,(%rax)
  107174:	bf 48 00 00 00       	mov    $0x48,%edi
  107179:	e8 d1 c8 ff ff       	callq  103a4f <_Znwm>
  10717e:	48 89 c3             	mov    %rax,%rbx
  107181:	8b 55 dc             	mov    -0x24(%rbp),%edx
  107184:	48 8b 45 e0          	mov    -0x20(%rbp),%rax
  107188:	48 89 c6             	mov    %rax,%rsi
  10718b:	48 89 df             	mov    %rbx,%rdi
  10718e:	e8 1d 0d 00 00       	callq  107eb0 <_ZN11FAT32DriverC1EP6Devicej>
  107193:	48 8b 45 e8          	mov    -0x18(%rbp),%rax
  107197:	48 89 58 18          	mov    %rbx,0x18(%rax)
  10719b:	90                   	nop
  10719c:	48 83 c4 28          	add    $0x28,%rsp
  1071a0:	5b                   	pop    %rbx
  1071a1:	5d                   	pop    %rbp
  1071a2:	c3                   	retq   
  1071a3:	90                   	nop

00000000001071a4 <_ZN5FAT32D1Ev>:
  1071a4:	f3 0f 1e fa          	endbr64 
  1071a8:	55                   	push   %rbp
  1071a9:	48 89 e5             	mov    %rsp,%rbp
  1071ac:	53                   	push   %rbx
  1071ad:	48 83 ec 18          	sub    $0x18,%rsp
  1071b1:	48 89 7d e8          	mov    %rdi,-0x18(%rbp)
  1071b5:	48 8d 15 94 83 00 00 	lea    0x8394(%rip),%rdx        # 10f550 <_ZTV5FAT32+0x10>
  1071bc:	48 8b 45 e8          	mov    -0x18(%rbp),%rax
  1071c0:	48 89 10             	mov    %rdx,(%rax)
  1071c3:	48 8b 45 e8          	mov    -0x18(%rbp),%rax
  1071c7:	48 8b 58 18          	mov    0x18(%rax),%rbx
  1071cb:	48 85 db             	test   %rbx,%rbx
  1071ce:	74 15                	je     1071e5 <_ZN5FAT32D1Ev+0x41>
  1071d0:	48 89 df             	mov    %rbx,%rdi
  1071d3:	e8 bc 0f 00 00       	callq  108194 <_ZN11FAT32DriverD1Ev>
  1071d8:	be 48 00 00 00       	mov    $0x48,%esi
  1071dd:	48 89 df             	mov    %rbx,%rdi
  1071e0:	e8 e4 c8 ff ff       	callq  103ac9 <_ZdlPvm>
  1071e5:	48 8b 45 e8          	mov    -0x18(%rbp),%rax
  1071e9:	48 89 c7             	mov    %rax,%rdi
  1071ec:	e8 5b 73 00 00       	callq  10e54c <_ZN10FilesystemD1Ev>
  1071f1:	90                   	nop
  1071f2:	48 83 c4 18          	add    $0x18,%rsp
  1071f6:	5b                   	pop    %rbx
  1071f7:	5d                   	pop    %rbp
  1071f8:	c3                   	retq   
  1071f9:	90                   	nop

00000000001071fa <_ZN5FAT328OpenFileEPKc>:
  1071fa:	f3 0f 1e fa          	endbr64 
  1071fe:	55                   	push   %rbp
  1071ff:	48 89 e5             	mov    %rsp,%rbp
  107202:	53                   	push   %rbx
  107203:	48 81 ec c8 00 00 00 	sub    $0xc8,%rsp
  10720a:	48 89 bd 38 ff ff ff 	mov    %rdi,-0xc8(%rbp)
  107211:	48 89 b5 30 ff ff ff 	mov    %rsi,-0xd0(%rbp)
  107218:	48 8b 85 38 ff ff ff 	mov    -0xc8(%rbp),%rax
  10721f:	48 8b 40 18          	mov    0x18(%rax),%rax
  107223:	48 8d 95 40 ff ff ff 	lea    -0xc0(%rbp),%rdx
  10722a:	48 8b 8d 30 ff ff ff 	mov    -0xd0(%rbp),%rcx
  107231:	48 89 ce             	mov    %rcx,%rsi
  107234:	48 89 c7             	mov    %rax,%rdi
  107237:	e8 ac 28 00 00       	callq  109ae8 <_ZN11FAT32Driver8OpenFileEPKcP8DirEntry>
  10723c:	89 45 ec             	mov    %eax,-0x14(%rbp)
  10723f:	83 7d ec 00          	cmpl   $0x0,-0x14(%rbp)
  107243:	74 0a                	je     10724f <_ZN5FAT328OpenFileEPKc+0x55>
  107245:	b8 00 00 00 00       	mov    $0x0,%eax
  10724a:	e9 38 01 00 00       	jmpq   107387 <_ZN5FAT328OpenFileEPKc+0x18d>
  10724f:	48 8b 85 30 ff ff ff 	mov    -0xd0(%rbp),%rax
  107256:	48 89 c7             	mov    %rax,%rdi
  107259:	e8 0e 54 00 00       	callq  10c66c <_Z6strlenPc>
  10725e:	48 83 c0 01          	add    $0x1,%rax
  107262:	48 89 c7             	mov    %rax,%rdi
  107265:	e8 03 c8 ff ff       	callq  103a6d <_Znam>
  10726a:	48 89 45 e0          	mov    %rax,-0x20(%rbp)
  10726e:	48 8b 95 30 ff ff ff 	mov    -0xd0(%rbp),%rdx
  107275:	48 8b 45 e0          	mov    -0x20(%rbp),%rax
  107279:	48 89 d6             	mov    %rdx,%rsi
  10727c:	48 89 c7             	mov    %rax,%rdi
  10727f:	e8 a0 54 00 00       	callq  10c724 <_Z6strcpyPcPKc>
  107284:	bf b0 00 00 00       	mov    $0xb0,%edi
  107289:	e8 c1 c7 ff ff       	callq  103a4f <_Znwm>
  10728e:	48 89 c3             	mov    %rax,%rbx
  107291:	48 89 de             	mov    %rbx,%rsi
  107294:	b8 00 00 00 00       	mov    $0x0,%eax
  107299:	ba 16 00 00 00       	mov    $0x16,%edx
  10729e:	48 89 f7             	mov    %rsi,%rdi
  1072a1:	48 89 d1             	mov    %rdx,%rcx
  1072a4:	f3 48 ab             	rep stos %rax,%es:(%rdi)
  1072a7:	48 89 df             	mov    %rbx,%rdi
  1072aa:	e8 bf 72 00 00       	callq  10e56e <_ZN16FAT32_ActiveFileC1Ev>
  1072af:	48 89 5d d8          	mov    %rbx,-0x28(%rbp)
  1072b3:	48 8b 45 d8          	mov    -0x28(%rbp),%rax
  1072b7:	48 8b 55 e0          	mov    -0x20(%rbp),%rdx
  1072bb:	48 89 90 a8 00 00 00 	mov    %rdx,0xa8(%rax)
  1072c2:	48 8b 45 d8          	mov    -0x28(%rbp),%rax
  1072c6:	48 8b 8d 40 ff ff ff 	mov    -0xc0(%rbp),%rcx
  1072cd:	48 8b 9d 48 ff ff ff 	mov    -0xb8(%rbp),%rbx
  1072d4:	48 89 48 10          	mov    %rcx,0x10(%rax)
  1072d8:	48 89 58 18          	mov    %rbx,0x18(%rax)
  1072dc:	48 8b 8d 50 ff ff ff 	mov    -0xb0(%rbp),%rcx
  1072e3:	48 8b 9d 58 ff ff ff 	mov    -0xa8(%rbp),%rbx
  1072ea:	48 89 48 20          	mov    %rcx,0x20(%rax)
  1072ee:	48 89 58 28          	mov    %rbx,0x28(%rax)
  1072f2:	48 8b 8d 60 ff ff ff 	mov    -0xa0(%rbp),%rcx
  1072f9:	48 8b 9d 68 ff ff ff 	mov    -0x98(%rbp),%rbx
  107300:	48 89 48 30          	mov    %rcx,0x30(%rax)
  107304:	48 89 58 38          	mov    %rbx,0x38(%rax)
  107308:	48 8b 8d 70 ff ff ff 	mov    -0x90(%rbp),%rcx
  10730f:	48 8b 9d 78 ff ff ff 	mov    -0x88(%rbp),%rbx
  107316:	48 89 48 40          	mov    %rcx,0x40(%rax)
  10731a:	48 89 58 48          	mov    %rbx,0x48(%rax)
  10731e:	48 8b 4d 80          	mov    -0x80(%rbp),%rcx
  107322:	48 8b 5d 88          	mov    -0x78(%rbp),%rbx
  107326:	48 89 48 50          	mov    %rcx,0x50(%rax)
  10732a:	48 89 58 58          	mov    %rbx,0x58(%rax)
  10732e:	48 8b 4d 90          	mov    -0x70(%rbp),%rcx
  107332:	48 8b 5d 98          	mov    -0x68(%rbp),%rbx
  107336:	48 89 48 60          	mov    %rcx,0x60(%rax)
  10733a:	48 89 58 68          	mov    %rbx,0x68(%rax)
  10733e:	48 8b 4d a0          	mov    -0x60(%rbp),%rcx
  107342:	48 8b 5d a8          	mov    -0x58(%rbp),%rbx
  107346:	48 89 48 70          	mov    %rcx,0x70(%rax)
  10734a:	48 89 58 78          	mov    %rbx,0x78(%rax)
  10734e:	48 8b 4d b0          	mov    -0x50(%rbp),%rcx
  107352:	48 8b 5d b8          	mov    -0x48(%rbp),%rbx
  107356:	48 89 88 80 00 00 00 	mov    %rcx,0x80(%rax)
  10735d:	48 89 98 88 00 00 00 	mov    %rbx,0x88(%rax)
  107364:	48 8b 4d c0          	mov    -0x40(%rbp),%rcx
  107368:	48 8b 5d c8          	mov    -0x38(%rbp),%rbx
  10736c:	48 89 88 90 00 00 00 	mov    %rcx,0x90(%rax)
  107373:	48 89 98 98 00 00 00 	mov    %rbx,0x98(%rax)
  10737a:	8b 55 d0             	mov    -0x30(%rbp),%edx
  10737d:	89 90 a0 00 00 00    	mov    %edx,0xa0(%rax)
  107383:	48 8b 45 d8          	mov    -0x28(%rbp),%rax
  107387:	48 81 c4 c8 00 00 00 	add    $0xc8,%rsp
  10738e:	5b                   	pop    %rbx
  10738f:	5d                   	pop    %rbp
  107390:	c3                   	retq   
  107391:	90                   	nop

0000000000107392 <_ZN5FAT329CloseFileEP10ActiveFile>:
  107392:	f3 0f 1e fa          	endbr64 
  107396:	55                   	push   %rbp
  107397:	48 89 e5             	mov    %rsp,%rbp
  10739a:	53                   	push   %rbx
  10739b:	48 83 ec 18          	sub    $0x18,%rsp
  10739f:	48 89 7d e8          	mov    %rdi,-0x18(%rbp)
  1073a3:	48 89 75 e0          	mov    %rsi,-0x20(%rbp)
  1073a7:	48 8b 45 e0          	mov    -0x20(%rbp),%rax
  1073ab:	48 8b 80 a8 00 00 00 	mov    0xa8(%rax),%rax
  1073b2:	48 85 c0             	test   %rax,%rax
  1073b5:	74 13                	je     1073ca <_ZN5FAT329CloseFileEP10ActiveFile+0x38>
  1073b7:	48 8b 45 e0          	mov    -0x20(%rbp),%rax
  1073bb:	48 8b 80 a8 00 00 00 	mov    0xa8(%rax),%rax
  1073c2:	48 89 c7             	mov    %rax,%rdi
  1073c5:	e8 e0 c6 ff ff       	callq  103aaa <_ZdaPv>
  1073ca:	48 8b 5d e0          	mov    -0x20(%rbp),%rbx
  1073ce:	48 85 db             	test   %rbx,%rbx
  1073d1:	74 15                	je     1073e8 <_ZN5FAT329CloseFileEP10ActiveFile+0x56>
  1073d3:	48 89 df             	mov    %rbx,%rdi
  1073d6:	e8 11 71 00 00       	callq  10e4ec <_ZN10ActiveFileD1Ev>
  1073db:	be 10 00 00 00       	mov    $0x10,%esi
  1073e0:	48 89 df             	mov    %rbx,%rdi
  1073e3:	e8 e1 c6 ff ff       	callq  103ac9 <_ZdlPvm>
  1073e8:	90                   	nop
  1073e9:	48 83 c4 18          	add    $0x18,%rsp
  1073ed:	5b                   	pop    %rbx
  1073ee:	5d                   	pop    %rbp
  1073ef:	c3                   	retq   

00000000001073f0 <_ZN5FAT3210CreateFileEPKcS1_j>:
  1073f0:	f3 0f 1e fa          	endbr64 
  1073f4:	55                   	push   %rbp
  1073f5:	48 89 e5             	mov    %rsp,%rbp
  1073f8:	53                   	push   %rbx
  1073f9:	48 81 ec f8 00 00 00 	sub    $0xf8,%rsp
  107400:	48 89 bd 18 ff ff ff 	mov    %rdi,-0xe8(%rbp)
  107407:	48 89 b5 10 ff ff ff 	mov    %rsi,-0xf0(%rbp)
  10740e:	48 89 95 08 ff ff ff 	mov    %rdx,-0xf8(%rbp)
  107415:	89 8d 04 ff ff ff    	mov    %ecx,-0xfc(%rbp)
  10741b:	c7 45 ec 00 02 00 00 	movl   $0x200,-0x14(%rbp)
  107422:	c6 45 eb 00          	movb   $0x0,-0x15(%rbp)
  107426:	8b 85 04 ff ff ff    	mov    -0xfc(%rbp),%eax
  10742c:	83 e0 01             	and    $0x1,%eax
  10742f:	85 c0                	test   %eax,%eax
  107431:	0f 95 c0             	setne  %al
  107434:	89 c2                	mov    %eax,%edx
  107436:	0f b6 45 eb          	movzbl -0x15(%rbp),%eax
  10743a:	09 d0                	or     %edx,%eax
  10743c:	88 45 eb             	mov    %al,-0x15(%rbp)
  10743f:	8b 85 04 ff ff ff    	mov    -0xfc(%rbp),%eax
  107445:	83 e0 02             	and    $0x2,%eax
  107448:	89 c2                	mov    %eax,%edx
  10744a:	0f b6 45 eb          	movzbl -0x15(%rbp),%eax
  10744e:	09 d0                	or     %edx,%eax
  107450:	88 45 eb             	mov    %al,-0x15(%rbp)
  107453:	8b 85 04 ff ff ff    	mov    -0xfc(%rbp),%eax
  107459:	83 e0 04             	and    $0x4,%eax
  10745c:	89 c2                	mov    %eax,%edx
  10745e:	0f b6 45 eb          	movzbl -0x15(%rbp),%eax
  107462:	09 d0                	or     %edx,%eax
  107464:	88 45 eb             	mov    %al,-0x15(%rbp)
  107467:	8b 85 04 ff ff ff    	mov    -0xfc(%rbp),%eax
  10746d:	83 e0 08             	and    $0x8,%eax
  107470:	89 c2                	mov    %eax,%edx
  107472:	0f b6 45 eb          	movzbl -0x15(%rbp),%eax
  107476:	09 d0                	or     %edx,%eax
  107478:	88 45 eb             	mov    %al,-0x15(%rbp)
  10747b:	8b 85 04 ff ff ff    	mov    -0xfc(%rbp),%eax
  107481:	83 e0 10             	and    $0x10,%eax
  107484:	89 c2                	mov    %eax,%edx
  107486:	0f b6 45 eb          	movzbl -0x15(%rbp),%eax
  10748a:	09 d0                	or     %edx,%eax
  10748c:	88 45 eb             	mov    %al,-0x15(%rbp)
  10748f:	8b 85 04 ff ff ff    	mov    -0xfc(%rbp),%eax
  107495:	83 e0 20             	and    $0x20,%eax
  107498:	89 c2                	mov    %eax,%edx
  10749a:	0f b6 45 eb          	movzbl -0x15(%rbp),%eax
  10749e:	09 d0                	or     %edx,%eax
  1074a0:	88 45 eb             	mov    %al,-0x15(%rbp)
  1074a3:	48 8b 95 08 ff ff ff 	mov    -0xf8(%rbp),%rdx
  1074aa:	48 8d 85 20 ff ff ff 	lea    -0xe0(%rbp),%rax
  1074b1:	48 89 d6             	mov    %rdx,%rsi
  1074b4:	48 89 c7             	mov    %rax,%rdi
  1074b7:	e8 68 52 00 00       	callq  10c724 <_Z6strcpyPcPKc>
  1074bc:	c7 45 a0 00 00 00 00 	movl   $0x0,-0x60(%rbp)
  1074c3:	0f b6 45 eb          	movzbl -0x15(%rbp),%eax
  1074c7:	88 45 a8             	mov    %al,-0x58(%rbp)
  1074ca:	8b 45 ec             	mov    -0x14(%rbp),%eax
  1074cd:	89 45 a4             	mov    %eax,-0x5c(%rbp)
  1074d0:	48 8b 85 18 ff ff ff 	mov    -0xe8(%rbp),%rax
  1074d7:	48 8b 40 18          	mov    0x18(%rax),%rax
  1074db:	48 8d 95 20 ff ff ff 	lea    -0xe0(%rbp),%rdx
  1074e2:	48 8b 8d 10 ff ff ff 	mov    -0xf0(%rbp),%rcx
  1074e9:	48 89 ce             	mov    %rcx,%rsi
  1074ec:	48 89 c7             	mov    %rax,%rdi
  1074ef:	e8 38 26 00 00       	callq  109b2c <_ZN11FAT32Driver10CreateFileEPKcP8DirEntry>
  1074f4:	48 8b 85 10 ff ff ff 	mov    -0xf0(%rbp),%rax
  1074fb:	48 89 c7             	mov    %rax,%rdi
  1074fe:	e8 69 51 00 00       	callq  10c66c <_Z6strlenPc>
  107503:	48 89 45 e0          	mov    %rax,-0x20(%rbp)
  107507:	48 8b 85 08 ff ff ff 	mov    -0xf8(%rbp),%rax
  10750e:	48 89 c7             	mov    %rax,%rdi
  107511:	e8 56 51 00 00       	callq  10c66c <_Z6strlenPc>
  107516:	48 89 45 d8          	mov    %rax,-0x28(%rbp)
  10751a:	48 8b 55 e0          	mov    -0x20(%rbp),%rdx
  10751e:	48 8b 45 d8          	mov    -0x28(%rbp),%rax
  107522:	48 01 d0             	add    %rdx,%rax
  107525:	48 83 c0 02          	add    $0x2,%rax
  107529:	48 89 45 d0          	mov    %rax,-0x30(%rbp)
  10752d:	48 8b 45 d0          	mov    -0x30(%rbp),%rax
  107531:	48 89 c7             	mov    %rax,%rdi
  107534:	e8 34 c5 ff ff       	callq  103a6d <_Znam>
  107539:	48 89 45 c8          	mov    %rax,-0x38(%rbp)
  10753d:	48 8b 55 e0          	mov    -0x20(%rbp),%rdx
  107541:	48 8b 8d 10 ff ff ff 	mov    -0xf0(%rbp),%rcx
  107548:	48 8b 45 c8          	mov    -0x38(%rbp),%rax
  10754c:	48 89 ce             	mov    %rcx,%rsi
  10754f:	48 89 c7             	mov    %rax,%rdi
  107552:	e8 d2 58 00 00       	callq  10ce29 <_Z6memcpyPvPKvm>
  107557:	48 8b 55 c8          	mov    -0x38(%rbp),%rdx
  10755b:	48 8b 45 e0          	mov    -0x20(%rbp),%rax
  10755f:	48 01 d0             	add    %rdx,%rax
  107562:	c6 00 2f             	movb   $0x2f,(%rax)
  107565:	48 8b 45 e0          	mov    -0x20(%rbp),%rax
  107569:	48 8d 50 01          	lea    0x1(%rax),%rdx
  10756d:	48 8b 45 c8          	mov    -0x38(%rbp),%rax
  107571:	48 8d 0c 02          	lea    (%rdx,%rax,1),%rcx
  107575:	48 8b 55 d8          	mov    -0x28(%rbp),%rdx
  107579:	48 8b 85 08 ff ff ff 	mov    -0xf8(%rbp),%rax
  107580:	48 89 c6             	mov    %rax,%rsi
  107583:	48 89 cf             	mov    %rcx,%rdi
  107586:	e8 9e 58 00 00       	callq  10ce29 <_Z6memcpyPvPKvm>
  10758b:	48 8b 55 e0          	mov    -0x20(%rbp),%rdx
  10758f:	48 8b 45 d8          	mov    -0x28(%rbp),%rax
  107593:	48 01 d0             	add    %rdx,%rax
  107596:	48 8d 50 01          	lea    0x1(%rax),%rdx
  10759a:	48 8b 45 c8          	mov    -0x38(%rbp),%rax
  10759e:	48 01 d0             	add    %rdx,%rax
  1075a1:	c6 00 00             	movb   $0x0,(%rax)
  1075a4:	bf b0 00 00 00       	mov    $0xb0,%edi
  1075a9:	e8 a1 c4 ff ff       	callq  103a4f <_Znwm>
  1075ae:	48 89 c3             	mov    %rax,%rbx
  1075b1:	48 89 de             	mov    %rbx,%rsi
  1075b4:	b8 00 00 00 00       	mov    $0x0,%eax
  1075b9:	ba 16 00 00 00       	mov    $0x16,%edx
  1075be:	48 89 f7             	mov    %rsi,%rdi
  1075c1:	48 89 d1             	mov    %rdx,%rcx
  1075c4:	f3 48 ab             	rep stos %rax,%es:(%rdi)
  1075c7:	48 89 df             	mov    %rbx,%rdi
  1075ca:	e8 9f 6f 00 00       	callq  10e56e <_ZN16FAT32_ActiveFileC1Ev>
  1075cf:	48 89 5d c0          	mov    %rbx,-0x40(%rbp)
  1075d3:	48 8b 45 c0          	mov    -0x40(%rbp),%rax
  1075d7:	48 8b 55 c8          	mov    -0x38(%rbp),%rdx
  1075db:	48 89 90 a8 00 00 00 	mov    %rdx,0xa8(%rax)
  1075e2:	48 8b 45 c0          	mov    -0x40(%rbp),%rax
  1075e6:	48 8b 8d 20 ff ff ff 	mov    -0xe0(%rbp),%rcx
  1075ed:	48 8b 9d 28 ff ff ff 	mov    -0xd8(%rbp),%rbx
  1075f4:	48 89 48 10          	mov    %rcx,0x10(%rax)
  1075f8:	48 89 58 18          	mov    %rbx,0x18(%rax)
  1075fc:	48 8b 8d 30 ff ff ff 	mov    -0xd0(%rbp),%rcx
  107603:	48 8b 9d 38 ff ff ff 	mov    -0xc8(%rbp),%rbx
  10760a:	48 89 48 20          	mov    %rcx,0x20(%rax)
  10760e:	48 89 58 28          	mov    %rbx,0x28(%rax)
  107612:	48 8b 8d 40 ff ff ff 	mov    -0xc0(%rbp),%rcx
  107619:	48 8b 9d 48 ff ff ff 	mov    -0xb8(%rbp),%rbx
  107620:	48 89 48 30          	mov    %rcx,0x30(%rax)
  107624:	48 89 58 38          	mov    %rbx,0x38(%rax)
  107628:	48 8b 8d 50 ff ff ff 	mov    -0xb0(%rbp),%rcx
  10762f:	48 8b 9d 58 ff ff ff 	mov    -0xa8(%rbp),%rbx
  107636:	48 89 48 40          	mov    %rcx,0x40(%rax)
  10763a:	48 89 58 48          	mov    %rbx,0x48(%rax)
  10763e:	48 8b 8d 60 ff ff ff 	mov    -0xa0(%rbp),%rcx
  107645:	48 8b 9d 68 ff ff ff 	mov    -0x98(%rbp),%rbx
  10764c:	48 89 48 50          	mov    %rcx,0x50(%rax)
  107650:	48 89 58 58          	mov    %rbx,0x58(%rax)
  107654:	48 8b 8d 70 ff ff ff 	mov    -0x90(%rbp),%rcx
  10765b:	48 8b 9d 78 ff ff ff 	mov    -0x88(%rbp),%rbx
  107662:	48 89 48 60          	mov    %rcx,0x60(%rax)
  107666:	48 89 58 68          	mov    %rbx,0x68(%rax)
  10766a:	48 8b 4d 80          	mov    -0x80(%rbp),%rcx
  10766e:	48 8b 5d 88          	mov    -0x78(%rbp),%rbx
  107672:	48 89 48 70          	mov    %rcx,0x70(%rax)
  107676:	48 89 58 78          	mov    %rbx,0x78(%rax)
  10767a:	48 8b 4d 90          	mov    -0x70(%rbp),%rcx
  10767e:	48 8b 5d 98          	mov    -0x68(%rbp),%rbx
  107682:	48 89 88 80 00 00 00 	mov    %rcx,0x80(%rax)
  107689:	48 89 98 88 00 00 00 	mov    %rbx,0x88(%rax)
  107690:	48 8b 4d a0          	mov    -0x60(%rbp),%rcx
  107694:	48 8b 5d a8          	mov    -0x58(%rbp),%rbx
  107698:	48 89 88 90 00 00 00 	mov    %rcx,0x90(%rax)
  10769f:	48 89 98 98 00 00 00 	mov    %rbx,0x98(%rax)
  1076a6:	8b 55 b0             	mov    -0x50(%rbp),%edx
  1076a9:	89 90 a0 00 00 00    	mov    %edx,0xa0(%rax)
  1076af:	48 8b 45 c0          	mov    -0x40(%rbp),%rax
  1076b3:	48 81 c4 f8 00 00 00 	add    $0xf8,%rsp
  1076ba:	5b                   	pop    %rbx
  1076bb:	5d                   	pop    %rbp
  1076bc:	c3                   	retq   
  1076bd:	90                   	nop

00000000001076be <_ZN5FAT3210ResizeFileEP10ActiveFilem>:
  1076be:	f3 0f 1e fa          	endbr64 
  1076c2:	55                   	push   %rbp
  1076c3:	48 89 e5             	mov    %rsp,%rbp
  1076c6:	53                   	push   %rbx
  1076c7:	48 83 ec 28          	sub    $0x28,%rsp
  1076cb:	48 89 7d e8          	mov    %rdi,-0x18(%rbp)
  1076cf:	48 89 75 e0          	mov    %rsi,-0x20(%rbp)
  1076d3:	48 89 55 d8          	mov    %rdx,-0x28(%rbp)
  1076d7:	48 8b 45 e8          	mov    -0x18(%rbp),%rax
  1076db:	48 8b 78 18          	mov    0x18(%rax),%rdi
  1076df:	48 8b 45 d8          	mov    -0x28(%rbp),%rax
  1076e3:	89 c6                	mov    %eax,%esi
  1076e5:	48 83 ec 08          	sub    $0x8,%rsp
  1076e9:	48 8b 45 e0          	mov    -0x20(%rbp),%rax
  1076ed:	48 81 ec 98 00 00 00 	sub    $0x98,%rsp
  1076f4:	48 89 e2             	mov    %rsp,%rdx
  1076f7:	48 8b 48 10          	mov    0x10(%rax),%rcx
  1076fb:	48 8b 58 18          	mov    0x18(%rax),%rbx
  1076ff:	48 89 0a             	mov    %rcx,(%rdx)
  107702:	48 89 5a 08          	mov    %rbx,0x8(%rdx)
  107706:	48 8b 48 20          	mov    0x20(%rax),%rcx
  10770a:	48 8b 58 28          	mov    0x28(%rax),%rbx
  10770e:	48 89 4a 10          	mov    %rcx,0x10(%rdx)
  107712:	48 89 5a 18          	mov    %rbx,0x18(%rdx)
  107716:	48 8b 48 30          	mov    0x30(%rax),%rcx
  10771a:	48 8b 58 38          	mov    0x38(%rax),%rbx
  10771e:	48 89 4a 20          	mov    %rcx,0x20(%rdx)
  107722:	48 89 5a 28          	mov    %rbx,0x28(%rdx)
  107726:	48 8b 48 40          	mov    0x40(%rax),%rcx
  10772a:	48 8b 58 48          	mov    0x48(%rax),%rbx
  10772e:	48 89 4a 30          	mov    %rcx,0x30(%rdx)
  107732:	48 89 5a 38          	mov    %rbx,0x38(%rdx)
  107736:	48 8b 48 50          	mov    0x50(%rax),%rcx
  10773a:	48 8b 58 58          	mov    0x58(%rax),%rbx
  10773e:	48 89 4a 40          	mov    %rcx,0x40(%rdx)
  107742:	48 89 5a 48          	mov    %rbx,0x48(%rdx)
  107746:	48 8b 48 60          	mov    0x60(%rax),%rcx
  10774a:	48 8b 58 68          	mov    0x68(%rax),%rbx
  10774e:	48 89 4a 50          	mov    %rcx,0x50(%rdx)
  107752:	48 89 5a 58          	mov    %rbx,0x58(%rdx)
  107756:	48 8b 48 70          	mov    0x70(%rax),%rcx
  10775a:	48 8b 58 78          	mov    0x78(%rax),%rbx
  10775e:	48 89 4a 60          	mov    %rcx,0x60(%rdx)
  107762:	48 89 5a 68          	mov    %rbx,0x68(%rdx)
  107766:	48 8b 88 80 00 00 00 	mov    0x80(%rax),%rcx
  10776d:	48 8b 98 88 00 00 00 	mov    0x88(%rax),%rbx
  107774:	48 89 4a 70          	mov    %rcx,0x70(%rdx)
  107778:	48 89 5a 78          	mov    %rbx,0x78(%rdx)
  10777c:	48 8b 88 90 00 00 00 	mov    0x90(%rax),%rcx
  107783:	48 8b 98 98 00 00 00 	mov    0x98(%rax),%rbx
  10778a:	48 89 8a 80 00 00 00 	mov    %rcx,0x80(%rdx)
  107791:	48 89 9a 88 00 00 00 	mov    %rbx,0x88(%rdx)
  107798:	8b 80 a0 00 00 00    	mov    0xa0(%rax),%eax
  10779e:	89 82 90 00 00 00    	mov    %eax,0x90(%rdx)
  1077a4:	e8 1f 2c 00 00       	callq  10a3c8 <_ZN11FAT32Driver10ResizeFileE8DirEntryj>
  1077a9:	48 81 c4 a0 00 00 00 	add    $0xa0,%rsp
  1077b0:	48 8b 45 d8          	mov    -0x28(%rbp),%rax
  1077b4:	89 c2                	mov    %eax,%edx
  1077b6:	48 8b 45 e0          	mov    -0x20(%rbp),%rax
  1077ba:	89 90 94 00 00 00    	mov    %edx,0x94(%rax)
  1077c0:	48 8b 45 e0          	mov    -0x20(%rbp),%rax
  1077c4:	48 c7 40 08 00 00 00 	movq   $0x0,0x8(%rax)
  1077cb:	00 
  1077cc:	90                   	nop
  1077cd:	48 8b 5d f8          	mov    -0x8(%rbp),%rbx
  1077d1:	c9                   	leaveq 
  1077d2:	c3                   	retq   
  1077d3:	90                   	nop

00000000001077d4 <_ZN5FAT3210DeleteFileEP10ActiveFile>:
  1077d4:	f3 0f 1e fa          	endbr64 
  1077d8:	55                   	push   %rbp
  1077d9:	48 89 e5             	mov    %rsp,%rbp
  1077dc:	53                   	push   %rbx
  1077dd:	48 83 ec 18          	sub    $0x18,%rsp
  1077e1:	48 89 7d e8          	mov    %rdi,-0x18(%rbp)
  1077e5:	48 89 75 e0          	mov    %rsi,-0x20(%rbp)
  1077e9:	48 8b 45 e8          	mov    -0x18(%rbp),%rax
  1077ed:	48 8b 70 18          	mov    0x18(%rax),%rsi
  1077f1:	48 83 ec 08          	sub    $0x8,%rsp
  1077f5:	48 8b 45 e0          	mov    -0x20(%rbp),%rax
  1077f9:	48 81 ec 98 00 00 00 	sub    $0x98,%rsp
  107800:	48 89 e2             	mov    %rsp,%rdx
  107803:	48 8b 48 10          	mov    0x10(%rax),%rcx
  107807:	48 8b 58 18          	mov    0x18(%rax),%rbx
  10780b:	48 89 0a             	mov    %rcx,(%rdx)
  10780e:	48 89 5a 08          	mov    %rbx,0x8(%rdx)
  107812:	48 8b 48 20          	mov    0x20(%rax),%rcx
  107816:	48 8b 58 28          	mov    0x28(%rax),%rbx
  10781a:	48 89 4a 10          	mov    %rcx,0x10(%rdx)
  10781e:	48 89 5a 18          	mov    %rbx,0x18(%rdx)
  107822:	48 8b 48 30          	mov    0x30(%rax),%rcx
  107826:	48 8b 58 38          	mov    0x38(%rax),%rbx
  10782a:	48 89 4a 20          	mov    %rcx,0x20(%rdx)
  10782e:	48 89 5a 28          	mov    %rbx,0x28(%rdx)
  107832:	48 8b 48 40          	mov    0x40(%rax),%rcx
  107836:	48 8b 58 48          	mov    0x48(%rax),%rbx
  10783a:	48 89 4a 30          	mov    %rcx,0x30(%rdx)
  10783e:	48 89 5a 38          	mov    %rbx,0x38(%rdx)
  107842:	48 8b 48 50          	mov    0x50(%rax),%rcx
  107846:	48 8b 58 58          	mov    0x58(%rax),%rbx
  10784a:	48 89 4a 40          	mov    %rcx,0x40(%rdx)
  10784e:	48 89 5a 48          	mov    %rbx,0x48(%rdx)
  107852:	48 8b 48 60          	mov    0x60(%rax),%rcx
  107856:	48 8b 58 68          	mov    0x68(%rax),%rbx
  10785a:	48 89 4a 50          	mov    %rcx,0x50(%rdx)
  10785e:	48 89 5a 58          	mov    %rbx,0x58(%rdx)
  107862:	48 8b 48 70          	mov    0x70(%rax),%rcx
  107866:	48 8b 58 78          	mov    0x78(%rax),%rbx
  10786a:	48 89 4a 60          	mov    %rcx,0x60(%rdx)
  10786e:	48 89 5a 68          	mov    %rbx,0x68(%rdx)
  107872:	48 8b 88 80 00 00 00 	mov    0x80(%rax),%rcx
  107879:	48 8b 98 88 00 00 00 	mov    0x88(%rax),%rbx
  107880:	48 89 4a 70          	mov    %rcx,0x70(%rdx)
  107884:	48 89 5a 78          	mov    %rbx,0x78(%rdx)
  107888:	48 8b 88 90 00 00 00 	mov    0x90(%rax),%rcx
  10788f:	48 8b 98 98 00 00 00 	mov    0x98(%rax),%rbx
  107896:	48 89 8a 80 00 00 00 	mov    %rcx,0x80(%rdx)
  10789d:	48 89 9a 88 00 00 00 	mov    %rbx,0x88(%rdx)
  1078a4:	8b 80 a0 00 00 00    	mov    0xa0(%rax),%eax
  1078aa:	89 82 90 00 00 00    	mov    %eax,0x90(%rdx)
  1078b0:	48 89 f7             	mov    %rsi,%rdi
  1078b3:	e8 1c 24 00 00       	callq  109cd4 <_ZN11FAT32Driver10DeleteFileE8DirEntry>
  1078b8:	48 81 c4 a0 00 00 00 	add    $0xa0,%rsp
  1078bf:	48 8b 45 e8          	mov    -0x18(%rbp),%rax
  1078c3:	48 8b 00             	mov    (%rax),%rax
  1078c6:	48 83 c0 08          	add    $0x8,%rax
  1078ca:	48 8b 08             	mov    (%rax),%rcx
  1078cd:	48 8b 55 e0          	mov    -0x20(%rbp),%rdx
  1078d1:	48 8b 45 e8          	mov    -0x18(%rbp),%rax
  1078d5:	48 89 d6             	mov    %rdx,%rsi
  1078d8:	48 89 c7             	mov    %rax,%rdi
  1078db:	ff d1                	callq  *%rcx
  1078dd:	90                   	nop
  1078de:	48 8b 5d f8          	mov    -0x8(%rbp),%rbx
  1078e2:	c9                   	leaveq 
  1078e3:	c3                   	retq   

00000000001078e4 <_ZN5FAT3222GetDirectoryEntryCountEPKc>:
  1078e4:	f3 0f 1e fa          	endbr64 
  1078e8:	55                   	push   %rbp
  1078e9:	48 89 e5             	mov    %rsp,%rbp
  1078ec:	53                   	push   %rbx
  1078ed:	48 81 ec d8 00 00 00 	sub    $0xd8,%rsp
  1078f4:	48 89 bd 28 ff ff ff 	mov    %rdi,-0xd8(%rbp)
  1078fb:	48 89 b5 20 ff ff ff 	mov    %rsi,-0xe0(%rbp)
  107902:	48 8b 85 28 ff ff ff 	mov    -0xd8(%rbp),%rax
  107909:	48 8b 40 18          	mov    0x18(%rax),%rax
  10790d:	48 8d 95 50 ff ff ff 	lea    -0xb0(%rbp),%rdx
  107914:	48 8b 8d 20 ff ff ff 	mov    -0xe0(%rbp),%rcx
  10791b:	48 89 ce             	mov    %rcx,%rsi
  10791e:	48 89 c7             	mov    %rax,%rdi
  107921:	e8 c2 21 00 00       	callq  109ae8 <_ZN11FAT32Driver8OpenFileEPKcP8DirEntry>
  107926:	89 45 ec             	mov    %eax,-0x14(%rbp)
  107929:	83 7d ec 00          	cmpl   $0x0,-0x14(%rbp)
  10792d:	74 07                	je     107936 <_ZN5FAT3222GetDirectoryEntryCountEPKc+0x52>
  10792f:	bb 00 00 00 00       	mov    $0x0,%ebx
  107934:	eb 4a                	jmp    107980 <_ZN5FAT3222GetDirectoryEntryCountEPKc+0x9c>
  107936:	48 8b 85 28 ff ff ff 	mov    -0xd8(%rbp),%rax
  10793d:	48 8b 70 18          	mov    0x18(%rax),%rsi
  107941:	8b 55 d0             	mov    -0x30(%rbp),%edx
  107944:	48 8d 85 30 ff ff ff 	lea    -0xd0(%rbp),%rax
  10794b:	41 b8 00 00 00 00    	mov    $0x0,%r8d
  107951:	b9 00 00 00 00       	mov    $0x0,%ecx
  107956:	48 89 c7             	mov    %rax,%rdi
  107959:	e8 34 12 00 00       	callq  108b92 <_ZN11FAT32Driver14GetDirectoriesEjjb>
  10795e:	48 8d 85 30 ff ff ff 	lea    -0xd0(%rbp),%rax
  107965:	48 89 c7             	mov    %rax,%rdi
  107968:	e8 5f 6c 00 00       	callq  10e5cc <_ZNK6vectorI8DirEntryE4sizeEv>
  10796d:	48 89 c3             	mov    %rax,%rbx
  107970:	90                   	nop
  107971:	48 8d 85 30 ff ff ff 	lea    -0xd0(%rbp),%rax
  107978:	48 89 c7             	mov    %rax,%rdi
  10797b:	e8 1c 6c 00 00       	callq  10e59c <_ZN6vectorI8DirEntryED1Ev>
  107980:	48 89 d8             	mov    %rbx,%rax
  107983:	48 81 c4 d8 00 00 00 	add    $0xd8,%rsp
  10798a:	5b                   	pop    %rbx
  10798b:	5d                   	pop    %rbp
  10798c:	c3                   	retq   
  10798d:	90                   	nop

000000000010798e <_ZN5FAT327GetFileEPKcm>:
  10798e:	f3 0f 1e fa          	endbr64 
  107992:	55                   	push   %rbp
  107993:	48 89 e5             	mov    %rsp,%rbp
  107996:	53                   	push   %rbx
  107997:	48 81 ec a8 01 00 00 	sub    $0x1a8,%rsp
  10799e:	48 89 bd 68 fe ff ff 	mov    %rdi,-0x198(%rbp)
  1079a5:	48 89 b5 60 fe ff ff 	mov    %rsi,-0x1a0(%rbp)
  1079ac:	48 89 95 58 fe ff ff 	mov    %rdx,-0x1a8(%rbp)
  1079b3:	48 8b 85 68 fe ff ff 	mov    -0x198(%rbp),%rax
  1079ba:	48 8b 40 18          	mov    0x18(%rax),%rax
  1079be:	48 8d 95 30 ff ff ff 	lea    -0xd0(%rbp),%rdx
  1079c5:	48 8b 8d 60 fe ff ff 	mov    -0x1a0(%rbp),%rcx
  1079cc:	48 89 ce             	mov    %rcx,%rsi
  1079cf:	48 89 c7             	mov    %rax,%rdi
  1079d2:	e8 11 21 00 00       	callq  109ae8 <_ZN11FAT32Driver8OpenFileEPKcP8DirEntry>
  1079d7:	48 8b 85 68 fe ff ff 	mov    -0x198(%rbp),%rax
  1079de:	48 8b 70 18          	mov    0x18(%rax),%rsi
  1079e2:	8b 55 b0             	mov    -0x50(%rbp),%edx
  1079e5:	48 8d 85 10 ff ff ff 	lea    -0xf0(%rbp),%rax
  1079ec:	41 b8 00 00 00 00    	mov    $0x0,%r8d
  1079f2:	b9 00 00 00 00       	mov    $0x0,%ecx
  1079f7:	48 89 c7             	mov    %rax,%rdi
  1079fa:	e8 93 11 00 00       	callq  108b92 <_ZN11FAT32Driver14GetDirectoriesEjjb>
  1079ff:	48 8d 85 10 ff ff ff 	lea    -0xf0(%rbp),%rax
  107a06:	48 89 c7             	mov    %rax,%rdi
  107a09:	e8 be 6b 00 00       	callq  10e5cc <_ZNK6vectorI8DirEntryE4sizeEv>
  107a0e:	48 39 85 58 fe ff ff 	cmp    %rax,-0x1a8(%rbp)
  107a15:	0f 92 c0             	setb   %al
  107a18:	84 c0                	test   %al,%al
  107a1a:	0f 84 e1 01 00 00    	je     107c01 <_ZN5FAT327GetFileEPKcm+0x273>
  107a20:	48 8b 95 58 fe ff ff 	mov    -0x1a8(%rbp),%rdx
  107a27:	48 8d 85 10 ff ff ff 	lea    -0xf0(%rbp),%rax
  107a2e:	48 89 d6             	mov    %rdx,%rsi
  107a31:	48 89 c7             	mov    %rax,%rdi
  107a34:	e8 ad 6b 00 00       	callq  10e5e6 <_ZN6vectorI8DirEntryEixEm>
  107a39:	48 8b 08             	mov    (%rax),%rcx
  107a3c:	48 8b 58 08          	mov    0x8(%rax),%rbx
  107a40:	48 89 8d 70 fe ff ff 	mov    %rcx,-0x190(%rbp)
  107a47:	48 89 9d 78 fe ff ff 	mov    %rbx,-0x188(%rbp)
  107a4e:	48 8b 48 10          	mov    0x10(%rax),%rcx
  107a52:	48 8b 58 18          	mov    0x18(%rax),%rbx
  107a56:	48 89 8d 80 fe ff ff 	mov    %rcx,-0x180(%rbp)
  107a5d:	48 89 9d 88 fe ff ff 	mov    %rbx,-0x178(%rbp)
  107a64:	48 8b 48 20          	mov    0x20(%rax),%rcx
  107a68:	48 8b 58 28          	mov    0x28(%rax),%rbx
  107a6c:	48 89 8d 90 fe ff ff 	mov    %rcx,-0x170(%rbp)
  107a73:	48 89 9d 98 fe ff ff 	mov    %rbx,-0x168(%rbp)
  107a7a:	48 8b 48 30          	mov    0x30(%rax),%rcx
  107a7e:	48 8b 58 38          	mov    0x38(%rax),%rbx
  107a82:	48 89 8d a0 fe ff ff 	mov    %rcx,-0x160(%rbp)
  107a89:	48 89 9d a8 fe ff ff 	mov    %rbx,-0x158(%rbp)
  107a90:	48 8b 48 40          	mov    0x40(%rax),%rcx
  107a94:	48 8b 58 48          	mov    0x48(%rax),%rbx
  107a98:	48 89 8d b0 fe ff ff 	mov    %rcx,-0x150(%rbp)
  107a9f:	48 89 9d b8 fe ff ff 	mov    %rbx,-0x148(%rbp)
  107aa6:	48 8b 48 50          	mov    0x50(%rax),%rcx
  107aaa:	48 8b 58 58          	mov    0x58(%rax),%rbx
  107aae:	48 89 8d c0 fe ff ff 	mov    %rcx,-0x140(%rbp)
  107ab5:	48 89 9d c8 fe ff ff 	mov    %rbx,-0x138(%rbp)
  107abc:	48 8b 48 60          	mov    0x60(%rax),%rcx
  107ac0:	48 8b 58 68          	mov    0x68(%rax),%rbx
  107ac4:	48 89 8d d0 fe ff ff 	mov    %rcx,-0x130(%rbp)
  107acb:	48 89 9d d8 fe ff ff 	mov    %rbx,-0x128(%rbp)
  107ad2:	48 8b 48 70          	mov    0x70(%rax),%rcx
  107ad6:	48 8b 58 78          	mov    0x78(%rax),%rbx
  107ada:	48 89 8d e0 fe ff ff 	mov    %rcx,-0x120(%rbp)
  107ae1:	48 89 9d e8 fe ff ff 	mov    %rbx,-0x118(%rbp)
  107ae8:	48 8b 88 80 00 00 00 	mov    0x80(%rax),%rcx
  107aef:	48 8b 98 88 00 00 00 	mov    0x88(%rax),%rbx
  107af6:	48 89 8d f0 fe ff ff 	mov    %rcx,-0x110(%rbp)
  107afd:	48 89 9d f8 fe ff ff 	mov    %rbx,-0x108(%rbp)
  107b04:	8b 80 90 00 00 00    	mov    0x90(%rax),%eax
  107b0a:	89 85 00 ff ff ff    	mov    %eax,-0x100(%rbp)
  107b10:	48 8b 85 60 fe ff ff 	mov    -0x1a0(%rbp),%rax
  107b17:	48 89 c7             	mov    %rax,%rdi
  107b1a:	e8 4d 4b 00 00       	callq  10c66c <_Z6strlenPc>
  107b1f:	48 89 45 e8          	mov    %rax,-0x18(%rbp)
  107b23:	48 8d 85 70 fe ff ff 	lea    -0x190(%rbp),%rax
  107b2a:	48 89 c7             	mov    %rax,%rdi
  107b2d:	e8 3a 4b 00 00       	callq  10c66c <_Z6strlenPc>
  107b32:	48 89 45 e0          	mov    %rax,-0x20(%rbp)
  107b36:	48 8b 55 e8          	mov    -0x18(%rbp),%rdx
  107b3a:	48 8b 45 e0          	mov    -0x20(%rbp),%rax
  107b3e:	48 01 d0             	add    %rdx,%rax
  107b41:	48 83 c0 01          	add    $0x1,%rax
  107b45:	48 89 45 d8          	mov    %rax,-0x28(%rbp)
  107b49:	48 8b 45 d8          	mov    -0x28(%rbp),%rax
  107b4d:	48 83 c0 01          	add    $0x1,%rax
  107b51:	48 89 c7             	mov    %rax,%rdi
  107b54:	e8 14 bf ff ff       	callq  103a6d <_Znam>
  107b59:	48 89 45 d0          	mov    %rax,-0x30(%rbp)
  107b5d:	48 8b 55 e8          	mov    -0x18(%rbp),%rdx
  107b61:	48 8b 8d 60 fe ff ff 	mov    -0x1a0(%rbp),%rcx
  107b68:	48 8b 45 d0          	mov    -0x30(%rbp),%rax
  107b6c:	48 89 ce             	mov    %rcx,%rsi
  107b6f:	48 89 c7             	mov    %rax,%rdi
  107b72:	e8 b2 52 00 00       	callq  10ce29 <_Z6memcpyPvPKvm>
  107b77:	48 8b 55 d0          	mov    -0x30(%rbp),%rdx
  107b7b:	48 8b 45 e8          	mov    -0x18(%rbp),%rax
  107b7f:	48 01 d0             	add    %rdx,%rax
  107b82:	c6 00 2f             	movb   $0x2f,(%rax)
  107b85:	48 8b 45 e8          	mov    -0x18(%rbp),%rax
  107b89:	48 8d 50 01          	lea    0x1(%rax),%rdx
  107b8d:	48 8b 45 d0          	mov    -0x30(%rbp),%rax
  107b91:	48 8d 0c 02          	lea    (%rdx,%rax,1),%rcx
  107b95:	48 8b 55 e0          	mov    -0x20(%rbp),%rdx
  107b99:	48 8d 85 70 fe ff ff 	lea    -0x190(%rbp),%rax
  107ba0:	48 89 c6             	mov    %rax,%rsi
  107ba3:	48 89 cf             	mov    %rcx,%rdi
  107ba6:	e8 7e 52 00 00       	callq  10ce29 <_Z6memcpyPvPKvm>
  107bab:	48 8b 55 e8          	mov    -0x18(%rbp),%rdx
  107baf:	48 8b 45 e0          	mov    -0x20(%rbp),%rax
  107bb3:	48 01 d0             	add    %rdx,%rax
  107bb6:	48 8d 50 01          	lea    0x1(%rax),%rdx
  107bba:	48 8b 45 d0          	mov    -0x30(%rbp),%rax
  107bbe:	48 01 d0             	add    %rdx,%rax
  107bc1:	c6 00 00             	movb   $0x0,(%rax)
  107bc4:	48 8b 85 68 fe ff ff 	mov    -0x198(%rbp),%rax
  107bcb:	48 8b 00             	mov    (%rax),%rax
  107bce:	48 8b 08             	mov    (%rax),%rcx
  107bd1:	48 8b 55 d0          	mov    -0x30(%rbp),%rdx
  107bd5:	48 8b 85 68 fe ff ff 	mov    -0x198(%rbp),%rax
  107bdc:	48 89 d6             	mov    %rdx,%rsi
  107bdf:	48 89 c7             	mov    %rax,%rdi
  107be2:	ff d1                	callq  *%rcx
  107be4:	48 89 45 c8          	mov    %rax,-0x38(%rbp)
  107be8:	48 83 7d d0 00       	cmpq   $0x0,-0x30(%rbp)
  107bed:	74 0c                	je     107bfb <_ZN5FAT327GetFileEPKcm+0x26d>
  107bef:	48 8b 45 d0          	mov    -0x30(%rbp),%rax
  107bf3:	48 89 c7             	mov    %rax,%rdi
  107bf6:	e8 af be ff ff       	callq  103aaa <_ZdaPv>
  107bfb:	48 8b 5d c8          	mov    -0x38(%rbp),%rbx
  107bff:	eb 05                	jmp    107c06 <_ZN5FAT327GetFileEPKcm+0x278>
  107c01:	bb 00 00 00 00       	mov    $0x0,%ebx
  107c06:	48 8d 85 10 ff ff ff 	lea    -0xf0(%rbp),%rax
  107c0d:	48 89 c7             	mov    %rax,%rdi
  107c10:	e8 87 69 00 00       	callq  10e59c <_ZN6vectorI8DirEntryED1Ev>
  107c15:	48 89 d8             	mov    %rbx,%rax
  107c18:	48 81 c4 a8 01 00 00 	add    $0x1a8,%rsp
  107c1f:	5b                   	pop    %rbx
  107c20:	5d                   	pop    %rbp
  107c21:	c3                   	retq   

0000000000107c22 <_ZN5FAT324ReadEP10ActiveFilePvm>:
  107c22:	f3 0f 1e fa          	endbr64 
  107c26:	55                   	push   %rbp
  107c27:	48 89 e5             	mov    %rsp,%rbp
  107c2a:	53                   	push   %rbx
  107c2b:	48 83 ec 38          	sub    $0x38,%rsp
  107c2f:	48 89 7d d8          	mov    %rdi,-0x28(%rbp)
  107c33:	48 89 75 d0          	mov    %rsi,-0x30(%rbp)
  107c37:	48 89 55 c8          	mov    %rdx,-0x38(%rbp)
  107c3b:	48 89 4d c0          	mov    %rcx,-0x40(%rbp)
  107c3f:	48 8b 45 d0          	mov    -0x30(%rbp),%rax
  107c43:	48 8b 40 08          	mov    0x8(%rax),%rax
  107c47:	48 89 45 e8          	mov    %rax,-0x18(%rbp)
  107c4b:	48 8b 45 d8          	mov    -0x28(%rbp),%rax
  107c4f:	48 8b 78 18          	mov    0x18(%rax),%rdi
  107c53:	4c 8b 4d c0          	mov    -0x40(%rbp),%r9
  107c57:	4c 8b 45 c8          	mov    -0x38(%rbp),%r8
  107c5b:	48 8b 75 e8          	mov    -0x18(%rbp),%rsi
  107c5f:	48 83 ec 08          	sub    $0x8,%rsp
  107c63:	48 8b 45 d0          	mov    -0x30(%rbp),%rax
  107c67:	48 81 ec 98 00 00 00 	sub    $0x98,%rsp
  107c6e:	48 89 e2             	mov    %rsp,%rdx
  107c71:	48 8b 48 10          	mov    0x10(%rax),%rcx
  107c75:	48 8b 58 18          	mov    0x18(%rax),%rbx
  107c79:	48 89 0a             	mov    %rcx,(%rdx)
  107c7c:	48 89 5a 08          	mov    %rbx,0x8(%rdx)
  107c80:	48 8b 48 20          	mov    0x20(%rax),%rcx
  107c84:	48 8b 58 28          	mov    0x28(%rax),%rbx
  107c88:	48 89 4a 10          	mov    %rcx,0x10(%rdx)
  107c8c:	48 89 5a 18          	mov    %rbx,0x18(%rdx)
  107c90:	48 8b 48 30          	mov    0x30(%rax),%rcx
  107c94:	48 8b 58 38          	mov    0x38(%rax),%rbx
  107c98:	48 89 4a 20          	mov    %rcx,0x20(%rdx)
  107c9c:	48 89 5a 28          	mov    %rbx,0x28(%rdx)
  107ca0:	48 8b 48 40          	mov    0x40(%rax),%rcx
  107ca4:	48 8b 58 48          	mov    0x48(%rax),%rbx
  107ca8:	48 89 4a 30          	mov    %rcx,0x30(%rdx)
  107cac:	48 89 5a 38          	mov    %rbx,0x38(%rdx)
  107cb0:	48 8b 48 50          	mov    0x50(%rax),%rcx
  107cb4:	48 8b 58 58          	mov    0x58(%rax),%rbx
  107cb8:	48 89 4a 40          	mov    %rcx,0x40(%rdx)
  107cbc:	48 89 5a 48          	mov    %rbx,0x48(%rdx)
  107cc0:	48 8b 48 60          	mov    0x60(%rax),%rcx
  107cc4:	48 8b 58 68          	mov    0x68(%rax),%rbx
  107cc8:	48 89 4a 50          	mov    %rcx,0x50(%rdx)
  107ccc:	48 89 5a 58          	mov    %rbx,0x58(%rdx)
  107cd0:	48 8b 48 70          	mov    0x70(%rax),%rcx
  107cd4:	48 8b 58 78          	mov    0x78(%rax),%rbx
  107cd8:	48 89 4a 60          	mov    %rcx,0x60(%rdx)
  107cdc:	48 89 5a 68          	mov    %rbx,0x68(%rdx)
  107ce0:	48 8b 88 80 00 00 00 	mov    0x80(%rax),%rcx
  107ce7:	48 8b 98 88 00 00 00 	mov    0x88(%rax),%rbx
  107cee:	48 89 4a 70          	mov    %rcx,0x70(%rdx)
  107cf2:	48 89 5a 78          	mov    %rbx,0x78(%rdx)
  107cf6:	48 8b 88 90 00 00 00 	mov    0x90(%rax),%rcx
  107cfd:	48 8b 98 98 00 00 00 	mov    0x98(%rax),%rbx
  107d04:	48 89 8a 80 00 00 00 	mov    %rcx,0x80(%rdx)
  107d0b:	48 89 9a 88 00 00 00 	mov    %rbx,0x88(%rdx)
  107d12:	8b 80 a0 00 00 00    	mov    0xa0(%rax),%eax
  107d18:	89 82 90 00 00 00    	mov    %eax,0x90(%rdx)
  107d1e:	4c 89 c9             	mov    %r9,%rcx
  107d21:	4c 89 c2             	mov    %r8,%rdx
  107d24:	e8 1b 22 00 00       	callq  109f44 <_ZN11FAT32Driver8ReadFileE8DirEntrymPvm>
  107d29:	48 81 c4 a0 00 00 00 	add    $0xa0,%rsp
  107d30:	48 8b 45 d0          	mov    -0x30(%rbp),%rax
  107d34:	48 8b 50 08          	mov    0x8(%rax),%rdx
  107d38:	48 8b 45 c0          	mov    -0x40(%rbp),%rax
  107d3c:	48 01 c2             	add    %rax,%rdx
  107d3f:	48 8b 45 d0          	mov    -0x30(%rbp),%rax
  107d43:	48 89 50 08          	mov    %rdx,0x8(%rax)
  107d47:	b8 00 00 00 00       	mov    $0x0,%eax
  107d4c:	48 8b 5d f8          	mov    -0x8(%rbp),%rbx
  107d50:	c9                   	leaveq 
  107d51:	c3                   	retq   

0000000000107d52 <_ZN5FAT325WriteEP10ActiveFilePvm>:
  107d52:	f3 0f 1e fa          	endbr64 
  107d56:	55                   	push   %rbp
  107d57:	48 89 e5             	mov    %rsp,%rbp
  107d5a:	53                   	push   %rbx
  107d5b:	48 83 ec 38          	sub    $0x38,%rsp
  107d5f:	48 89 7d d8          	mov    %rdi,-0x28(%rbp)
  107d63:	48 89 75 d0          	mov    %rsi,-0x30(%rbp)
  107d67:	48 89 55 c8          	mov    %rdx,-0x38(%rbp)
  107d6b:	48 89 4d c0          	mov    %rcx,-0x40(%rbp)
  107d6f:	48 8b 45 d0          	mov    -0x30(%rbp),%rax
  107d73:	48 8b 40 08          	mov    0x8(%rax),%rax
  107d77:	48 89 45 e8          	mov    %rax,-0x18(%rbp)
  107d7b:	48 8b 45 d8          	mov    -0x28(%rbp),%rax
  107d7f:	48 8b 78 18          	mov    0x18(%rax),%rdi
  107d83:	4c 8b 4d c0          	mov    -0x40(%rbp),%r9
  107d87:	4c 8b 45 c8          	mov    -0x38(%rbp),%r8
  107d8b:	48 8b 75 e8          	mov    -0x18(%rbp),%rsi
  107d8f:	48 83 ec 08          	sub    $0x8,%rsp
  107d93:	48 8b 45 d0          	mov    -0x30(%rbp),%rax
  107d97:	48 81 ec 98 00 00 00 	sub    $0x98,%rsp
  107d9e:	48 89 e2             	mov    %rsp,%rdx
  107da1:	48 8b 48 10          	mov    0x10(%rax),%rcx
  107da5:	48 8b 58 18          	mov    0x18(%rax),%rbx
  107da9:	48 89 0a             	mov    %rcx,(%rdx)
  107dac:	48 89 5a 08          	mov    %rbx,0x8(%rdx)
  107db0:	48 8b 48 20          	mov    0x20(%rax),%rcx
  107db4:	48 8b 58 28          	mov    0x28(%rax),%rbx
  107db8:	48 89 4a 10          	mov    %rcx,0x10(%rdx)
  107dbc:	48 89 5a 18          	mov    %rbx,0x18(%rdx)
  107dc0:	48 8b 48 30          	mov    0x30(%rax),%rcx
  107dc4:	48 8b 58 38          	mov    0x38(%rax),%rbx
  107dc8:	48 89 4a 20          	mov    %rcx,0x20(%rdx)
  107dcc:	48 89 5a 28          	mov    %rbx,0x28(%rdx)
  107dd0:	48 8b 48 40          	mov    0x40(%rax),%rcx
  107dd4:	48 8b 58 48          	mov    0x48(%rax),%rbx
  107dd8:	48 89 4a 30          	mov    %rcx,0x30(%rdx)
  107ddc:	48 89 5a 38          	mov    %rbx,0x38(%rdx)
  107de0:	48 8b 48 50          	mov    0x50(%rax),%rcx
  107de4:	48 8b 58 58          	mov    0x58(%rax),%rbx
  107de8:	48 89 4a 40          	mov    %rcx,0x40(%rdx)
  107dec:	48 89 5a 48          	mov    %rbx,0x48(%rdx)
  107df0:	48 8b 48 60          	mov    0x60(%rax),%rcx
  107df4:	48 8b 58 68          	mov    0x68(%rax),%rbx
  107df8:	48 89 4a 50          	mov    %rcx,0x50(%rdx)
  107dfc:	48 89 5a 58          	mov    %rbx,0x58(%rdx)
  107e00:	48 8b 48 70          	mov    0x70(%rax),%rcx
  107e04:	48 8b 58 78          	mov    0x78(%rax),%rbx
  107e08:	48 89 4a 60          	mov    %rcx,0x60(%rdx)
  107e0c:	48 89 5a 68          	mov    %rbx,0x68(%rdx)
  107e10:	48 8b 88 80 00 00 00 	mov    0x80(%rax),%rcx
  107e17:	48 8b 98 88 00 00 00 	mov    0x88(%rax),%rbx
  107e1e:	48 89 4a 70          	mov    %rcx,0x70(%rdx)
  107e22:	48 89 5a 78          	mov    %rbx,0x78(%rdx)
  107e26:	48 8b 88 90 00 00 00 	mov    0x90(%rax),%rcx
  107e2d:	48 8b 98 98 00 00 00 	mov    0x98(%rax),%rbx
  107e34:	48 89 8a 80 00 00 00 	mov    %rcx,0x80(%rdx)
  107e3b:	48 89 9a 88 00 00 00 	mov    %rbx,0x88(%rdx)
  107e42:	8b 80 a0 00 00 00    	mov    0xa0(%rax),%eax
  107e48:	89 82 90 00 00 00    	mov    %eax,0x90(%rdx)
  107e4e:	4c 89 c9             	mov    %r9,%rcx
  107e51:	4c 89 c2             	mov    %r8,%rdx
  107e54:	e8 9d 22 00 00       	callq  10a0f6 <_ZN11FAT32Driver9WriteFileE8DirEntrymPvm>
  107e59:	48 81 c4 a0 00 00 00 	add    $0xa0,%rsp
  107e60:	48 8b 45 d0          	mov    -0x30(%rbp),%rax
  107e64:	48 8b 50 08          	mov    0x8(%rax),%rdx
  107e68:	48 8b 45 c0          	mov    -0x40(%rbp),%rax
  107e6c:	48 01 c2             	add    %rax,%rdx
  107e6f:	48 8b 45 d0          	mov    -0x30(%rbp),%rax
  107e73:	48 89 50 08          	mov    %rdx,0x8(%rax)
  107e77:	48 8b 45 d0          	mov    -0x30(%rbp),%rax
  107e7b:	8b 80 94 00 00 00    	mov    0x94(%rax),%eax
  107e81:	89 c2                	mov    %eax,%edx
  107e83:	48 8b 45 d0          	mov    -0x30(%rbp),%rax
  107e87:	48 8b 40 08          	mov    0x8(%rax),%rax
  107e8b:	48 39 c2             	cmp    %rax,%rdx
  107e8e:	73 14                	jae    107ea4 <_ZN5FAT325WriteEP10ActiveFilePvm+0x152>
  107e90:	48 8b 45 d0          	mov    -0x30(%rbp),%rax
  107e94:	48 8b 40 08          	mov    0x8(%rax),%rax
  107e98:	89 c2                	mov    %eax,%edx
  107e9a:	48 8b 45 d0          	mov    -0x30(%rbp),%rax
  107e9e:	89 90 94 00 00 00    	mov    %edx,0x94(%rax)
  107ea4:	b8 00 00 00 00       	mov    $0x0,%eax
  107ea9:	48 8b 5d f8          	mov    -0x8(%rbp),%rbx
  107ead:	c9                   	leaveq 
  107eae:	c3                   	retq   
  107eaf:	90                   	nop

0000000000107eb0 <_ZN11FAT32DriverC1EP6Devicej>:
  107eb0:	f3 0f 1e fa          	endbr64 
  107eb4:	55                   	push   %rbp
  107eb5:	48 89 e5             	mov    %rsp,%rbp
  107eb8:	48 83 ec 40          	sub    $0x40,%rsp
  107ebc:	48 89 7d d8          	mov    %rdi,-0x28(%rbp)
  107ec0:	48 89 75 d0          	mov    %rsi,-0x30(%rbp)
  107ec4:	89 55 cc             	mov    %edx,-0x34(%rbp)
  107ec7:	48 8b 45 d8          	mov    -0x28(%rbp),%rax
  107ecb:	48 8b 55 d0          	mov    -0x30(%rbp),%rdx
  107ecf:	48 89 10             	mov    %rdx,(%rax)
  107ed2:	48 8b 45 d8          	mov    -0x28(%rbp),%rax
  107ed6:	8b 55 cc             	mov    -0x34(%rbp),%edx
  107ed9:	89 50 08             	mov    %edx,0x8(%rax)
  107edc:	48 c7 45 f8 00 06 00 	movq   $0x600,-0x8(%rbp)
  107ee3:	00 
  107ee4:	48 8b 45 d8          	mov    -0x28(%rbp),%rax
  107ee8:	c7 40 08 00 00 00 00 	movl   $0x0,0x8(%rax)
  107eef:	0f b6 05 6a fb 00 00 	movzbl 0xfb6a(%rip),%eax        # 117a60 <fromUEFI>
  107ef6:	84 c0                	test   %al,%al
  107ef8:	75 29                	jne    107f23 <_ZN11FAT32DriverC1EP6Devicej+0x73>
  107efa:	48 c7 45 f0 be 01 00 	movq   $0x1be,-0x10(%rbp)
  107f01:	00 
  107f02:	48 8b 55 f8          	mov    -0x8(%rbp),%rdx
  107f06:	48 8b 45 f0          	mov    -0x10(%rbp),%rax
  107f0a:	48 01 d0             	add    %rdx,%rax
  107f0d:	48 83 c0 10          	add    $0x10,%rax
  107f11:	48 89 45 e8          	mov    %rax,-0x18(%rbp)
  107f15:	48 8b 45 e8          	mov    -0x18(%rbp),%rax
  107f19:	8b 50 08             	mov    0x8(%rax),%edx
  107f1c:	48 8b 45 d8          	mov    -0x28(%rbp),%rax
  107f20:	89 50 08             	mov    %edx,0x8(%rax)
  107f23:	bf 00 02 00 00       	mov    $0x200,%edi
  107f28:	e8 55 51 00 00       	callq  10d082 <_Z7kmallocm>
  107f2d:	48 89 c2             	mov    %rax,%rdx
  107f30:	48 8b 45 d8          	mov    -0x28(%rbp),%rax
  107f34:	48 89 50 10          	mov    %rdx,0x10(%rax)
  107f38:	48 8b 45 d0          	mov    -0x30(%rbp),%rax
  107f3c:	48 8b 00             	mov    (%rax),%rax
  107f3f:	48 83 c0 18          	add    $0x18,%rax
  107f43:	4c 8b 00             	mov    (%rax),%r8
  107f46:	48 8b 45 d8          	mov    -0x28(%rbp),%rax
  107f4a:	48 8b 50 10          	mov    0x10(%rax),%rdx
  107f4e:	48 8b 45 d8          	mov    -0x28(%rbp),%rax
  107f52:	8b 40 08             	mov    0x8(%rax),%eax
  107f55:	89 c6                	mov    %eax,%esi
  107f57:	48 8b 45 d0          	mov    -0x30(%rbp),%rax
  107f5b:	b9 01 00 00 00       	mov    $0x1,%ecx
  107f60:	48 89 c7             	mov    %rax,%rdi
  107f63:	41 ff d0             	callq  *%r8
  107f66:	48 8d 3d 23 92 00 00 	lea    0x9223(%rip),%rdi        # 111190 <_ZL8sc_ascii+0xd0>
  107f6d:	b8 00 00 00 00       	mov    $0x0,%eax
  107f72:	e8 b5 4a 00 00       	callq  10ca2c <_Z7kprintfPKcz>
  107f77:	48 8b 45 d8          	mov    -0x28(%rbp),%rax
  107f7b:	48 8b 40 10          	mov    0x10(%rax),%rax
  107f7f:	0f b6 40 10          	movzbl 0x10(%rax),%eax
  107f83:	0f b6 d0             	movzbl %al,%edx
  107f86:	48 8b 45 d8          	mov    -0x28(%rbp),%rax
  107f8a:	48 8b 40 10          	mov    0x10(%rax),%rax
  107f8e:	8b 40 24             	mov    0x24(%rax),%eax
  107f91:	0f af d0             	imul   %eax,%edx
  107f94:	48 8b 45 d8          	mov    -0x28(%rbp),%rax
  107f98:	48 8b 40 10          	mov    0x10(%rax),%rax
  107f9c:	0f b7 40 0e          	movzwl 0xe(%rax),%eax
  107fa0:	0f b7 c0             	movzwl %ax,%eax
  107fa3:	01 c2                	add    %eax,%edx
  107fa5:	48 8b 45 d8          	mov    -0x28(%rbp),%rax
  107fa9:	89 50 34             	mov    %edx,0x34(%rax)
  107fac:	48 8b 45 d8          	mov    -0x28(%rbp),%rax
  107fb0:	48 8b 40 10          	mov    0x10(%rax),%rax
  107fb4:	8b 50 2c             	mov    0x2c(%rax),%edx
  107fb7:	48 8b 45 d8          	mov    -0x28(%rbp),%rax
  107fbb:	89 50 38             	mov    %edx,0x38(%rax)
  107fbe:	48 8b 45 d8          	mov    -0x28(%rbp),%rax
  107fc2:	48 8b 40 10          	mov    0x10(%rax),%rax
  107fc6:	0f b7 40 13          	movzwl 0x13(%rax),%eax
  107fca:	66 85 c0             	test   %ax,%ax
  107fcd:	75 14                	jne    107fe3 <_ZN11FAT32DriverC1EP6Devicej+0x133>
  107fcf:	48 8b 45 d8          	mov    -0x28(%rbp),%rax
  107fd3:	48 8b 40 10          	mov    0x10(%rax),%rax
  107fd7:	8b 50 20             	mov    0x20(%rax),%edx
  107fda:	48 8b 45 d8          	mov    -0x28(%rbp),%rax
  107fde:	89 50 3c             	mov    %edx,0x3c(%rax)
  107fe1:	eb 16                	jmp    107ff9 <_ZN11FAT32DriverC1EP6Devicej+0x149>
  107fe3:	48 8b 45 d8          	mov    -0x28(%rbp),%rax
  107fe7:	48 8b 40 10          	mov    0x10(%rax),%rax
  107feb:	0f b7 40 13          	movzwl 0x13(%rax),%eax
  107fef:	0f b7 d0             	movzwl %ax,%edx
  107ff2:	48 8b 45 d8          	mov    -0x28(%rbp),%rax
  107ff6:	89 50 3c             	mov    %edx,0x3c(%rax)
  107ff9:	48 8b 45 d8          	mov    -0x28(%rbp),%rax
  107ffd:	8b 40 3c             	mov    0x3c(%rax),%eax
  108000:	48 8b 55 d8          	mov    -0x28(%rbp),%rdx
  108004:	48 8b 52 10          	mov    0x10(%rdx),%rdx
  108008:	0f b6 52 0d          	movzbl 0xd(%rdx),%edx
  10800c:	0f b6 ca             	movzbl %dl,%ecx
  10800f:	ba 00 00 00 00       	mov    $0x0,%edx
  108014:	f7 f1                	div    %ecx
  108016:	89 c2                	mov    %eax,%edx
  108018:	48 8b 45 d8          	mov    -0x28(%rbp),%rax
  10801c:	89 50 40             	mov    %edx,0x40(%rax)
  10801f:	48 8b 45 d8          	mov    -0x28(%rbp),%rax
  108023:	48 8b 40 10          	mov    0x10(%rax),%rax
  108027:	0f b6 40 0d          	movzbl 0xd(%rax),%eax
  10802b:	0f b6 d0             	movzbl %al,%edx
  10802e:	48 8b 45 d8          	mov    -0x28(%rbp),%rax
  108032:	48 8b 40 10          	mov    0x10(%rax),%rax
  108036:	0f b7 40 0b          	movzwl 0xb(%rax),%eax
  10803a:	0f b7 c0             	movzwl %ax,%eax
  10803d:	0f af c2             	imul   %edx,%eax
  108040:	89 c2                	mov    %eax,%edx
  108042:	48 8b 45 d8          	mov    -0x28(%rbp),%rax
  108046:	89 50 30             	mov    %edx,0x30(%rax)
  108049:	48 8b 45 d8          	mov    -0x28(%rbp),%rax
  10804d:	8b 40 30             	mov    0x30(%rax),%eax
  108050:	89 c0                	mov    %eax,%eax
  108052:	48 89 c7             	mov    %rax,%rdi
  108055:	e8 28 50 00 00       	callq  10d082 <_Z7kmallocm>
  10805a:	48 89 c2             	mov    %rax,%rdx
  10805d:	48 8b 45 d8          	mov    -0x28(%rbp),%rax
  108061:	48 89 50 18          	mov    %rdx,0x18(%rax)
  108065:	48 8b 45 d8          	mov    -0x28(%rbp),%rax
  108069:	8b 40 30             	mov    0x30(%rax),%eax
  10806c:	89 c0                	mov    %eax,%eax
  10806e:	48 89 c7             	mov    %rax,%rdi
  108071:	e8 0c 50 00 00       	callq  10d082 <_Z7kmallocm>
  108076:	48 89 c2             	mov    %rax,%rdx
  108079:	48 8b 45 d8          	mov    -0x28(%rbp),%rax
  10807d:	48 89 50 20          	mov    %rdx,0x20(%rax)
  108081:	48 8b 45 d8          	mov    -0x28(%rbp),%rax
  108085:	48 8b 40 10          	mov    0x10(%rax),%rax
  108089:	8b 50 24             	mov    0x24(%rax),%edx
  10808c:	48 8b 45 d8          	mov    -0x28(%rbp),%rax
  108090:	48 8b 40 10          	mov    0x10(%rax),%rax
  108094:	0f b7 40 0b          	movzwl 0xb(%rax),%eax
  108098:	0f b7 c0             	movzwl %ax,%eax
  10809b:	0f af c2             	imul   %edx,%eax
  10809e:	89 c0                	mov    %eax,%eax
  1080a0:	48 89 c7             	mov    %rax,%rdi
  1080a3:	e8 da 4f 00 00       	callq  10d082 <_Z7kmallocm>
  1080a8:	48 89 c2             	mov    %rax,%rdx
  1080ab:	48 8b 45 d8          	mov    -0x28(%rbp),%rax
  1080af:	48 89 50 28          	mov    %rdx,0x28(%rax)
  1080b3:	48 8b 45 d0          	mov    -0x30(%rbp),%rax
  1080b7:	48 8b 00             	mov    (%rax),%rax
  1080ba:	48 83 c0 18          	add    $0x18,%rax
  1080be:	4c 8b 00             	mov    (%rax),%r8
  1080c1:	48 8b 45 d8          	mov    -0x28(%rbp),%rax
  1080c5:	48 8b 40 10          	mov    0x10(%rax),%rax
  1080c9:	8b 40 24             	mov    0x24(%rax),%eax
  1080cc:	89 c7                	mov    %eax,%edi
  1080ce:	48 8b 45 d8          	mov    -0x28(%rbp),%rax
  1080d2:	48 8b 50 28          	mov    0x28(%rax),%rdx
  1080d6:	48 8b 45 d8          	mov    -0x28(%rbp),%rax
  1080da:	8b 48 08             	mov    0x8(%rax),%ecx
  1080dd:	48 8b 45 d8          	mov    -0x28(%rbp),%rax
  1080e1:	48 8b 40 10          	mov    0x10(%rax),%rax
  1080e5:	0f b7 40 0e          	movzwl 0xe(%rax),%eax
  1080e9:	0f b7 c0             	movzwl %ax,%eax
  1080ec:	01 c8                	add    %ecx,%eax
  1080ee:	89 c6                	mov    %eax,%esi
  1080f0:	48 8b 45 d0          	mov    -0x30(%rbp),%rax
  1080f4:	48 89 f9             	mov    %rdi,%rcx
  1080f7:	48 89 c7             	mov    %rax,%rdi
  1080fa:	41 ff d0             	callq  *%r8
  1080fd:	48 8d 3d c9 90 00 00 	lea    0x90c9(%rip),%rdi        # 1111cd <_ZL8sc_ascii+0x10d>
  108104:	b8 00 00 00 00       	mov    $0x0,%eax
  108109:	e8 1e 49 00 00       	callq  10ca2c <_Z7kprintfPKcz>
  10810e:	48 8b 45 d8          	mov    -0x28(%rbp),%rax
  108112:	8b 40 34             	mov    0x34(%rax),%eax
  108115:	89 c6                	mov    %eax,%esi
  108117:	48 8d 3d bd 90 00 00 	lea    0x90bd(%rip),%rdi        # 1111db <_ZL8sc_ascii+0x11b>
  10811e:	b8 00 00 00 00       	mov    $0x0,%eax
  108123:	e8 04 49 00 00       	callq  10ca2c <_Z7kprintfPKcz>
  108128:	48 8b 45 d8          	mov    -0x28(%rbp),%rax
  10812c:	8b 40 38             	mov    0x38(%rax),%eax
  10812f:	89 c6                	mov    %eax,%esi
  108131:	48 8d 3d c0 90 00 00 	lea    0x90c0(%rip),%rdi        # 1111f8 <_ZL8sc_ascii+0x138>
  108138:	b8 00 00 00 00       	mov    $0x0,%eax
  10813d:	e8 ea 48 00 00       	callq  10ca2c <_Z7kprintfPKcz>
  108142:	48 8b 45 d8          	mov    -0x28(%rbp),%rax
  108146:	8b 40 3c             	mov    0x3c(%rax),%eax
  108149:	89 c6                	mov    %eax,%esi
  10814b:	48 8d 3d c9 90 00 00 	lea    0x90c9(%rip),%rdi        # 11121b <_ZL8sc_ascii+0x15b>
  108152:	b8 00 00 00 00       	mov    $0x0,%eax
  108157:	e8 d0 48 00 00       	callq  10ca2c <_Z7kprintfPKcz>
  10815c:	48 8b 45 d8          	mov    -0x28(%rbp),%rax
  108160:	8b 40 40             	mov    0x40(%rax),%eax
  108163:	89 c6                	mov    %eax,%esi
  108165:	48 8d 3d cb 90 00 00 	lea    0x90cb(%rip),%rdi        # 111237 <_ZL8sc_ascii+0x177>
  10816c:	b8 00 00 00 00       	mov    $0x0,%eax
  108171:	e8 b6 48 00 00       	callq  10ca2c <_Z7kprintfPKcz>
  108176:	48 8b 45 d8          	mov    -0x28(%rbp),%rax
  10817a:	8b 40 30             	mov    0x30(%rax),%eax
  10817d:	89 c6                	mov    %eax,%esi
  10817f:	48 8d 3d ca 90 00 00 	lea    0x90ca(%rip),%rdi        # 111250 <_ZL8sc_ascii+0x190>
  108186:	b8 00 00 00 00       	mov    $0x0,%eax
  10818b:	e8 9c 48 00 00       	callq  10ca2c <_Z7kprintfPKcz>
  108190:	90                   	nop
  108191:	c9                   	leaveq 
  108192:	c3                   	retq   
  108193:	90                   	nop

0000000000108194 <_ZN11FAT32DriverD1Ev>:
  108194:	f3 0f 1e fa          	endbr64 
  108198:	55                   	push   %rbp
  108199:	48 89 e5             	mov    %rsp,%rbp
  10819c:	48 83 ec 20          	sub    $0x20,%rsp
  1081a0:	48 89 7d e8          	mov    %rdi,-0x18(%rbp)
  1081a4:	48 8b 45 e8          	mov    -0x18(%rbp),%rax
  1081a8:	48 8b 00             	mov    (%rax),%rax
  1081ab:	48 8b 55 e8          	mov    -0x18(%rbp),%rdx
  1081af:	48 8b 12             	mov    (%rdx),%rdx
  1081b2:	48 8b 12             	mov    (%rdx),%rdx
  1081b5:	48 83 c2 20          	add    $0x20,%rdx
  1081b9:	4c 8b 02             	mov    (%rdx),%r8
  1081bc:	48 8b 55 e8          	mov    -0x18(%rbp),%rdx
  1081c0:	48 8b 52 10          	mov    0x10(%rdx),%rdx
  1081c4:	48 8b 4d e8          	mov    -0x18(%rbp),%rcx
  1081c8:	8b 49 08             	mov    0x8(%rcx),%ecx
  1081cb:	89 ce                	mov    %ecx,%esi
  1081cd:	b9 01 00 00 00       	mov    $0x1,%ecx
  1081d2:	48 89 c7             	mov    %rax,%rdi
  1081d5:	41 ff d0             	callq  *%r8
  1081d8:	48 8b 45 e8          	mov    -0x18(%rbp),%rax
  1081dc:	48 8b 00             	mov    (%rax),%rax
  1081df:	48 8b 55 e8          	mov    -0x18(%rbp),%rdx
  1081e3:	48 8b 12             	mov    (%rdx),%rdx
  1081e6:	48 8b 12             	mov    (%rdx),%rdx
  1081e9:	48 83 c2 20          	add    $0x20,%rdx
  1081ed:	4c 8b 02             	mov    (%rdx),%r8
  1081f0:	48 8b 55 e8          	mov    -0x18(%rbp),%rdx
  1081f4:	48 8b 52 10          	mov    0x10(%rdx),%rdx
  1081f8:	48 8b 4d e8          	mov    -0x18(%rbp),%rcx
  1081fc:	8b 71 08             	mov    0x8(%rcx),%esi
  1081ff:	48 8b 4d e8          	mov    -0x18(%rbp),%rcx
  108203:	48 8b 49 10          	mov    0x10(%rcx),%rcx
  108207:	0f b7 49 32          	movzwl 0x32(%rcx),%ecx
  10820b:	0f b7 c9             	movzwl %cx,%ecx
  10820e:	01 f1                	add    %esi,%ecx
  108210:	89 ce                	mov    %ecx,%esi
  108212:	b9 01 00 00 00       	mov    $0x1,%ecx
  108217:	48 89 c7             	mov    %rax,%rdi
  10821a:	41 ff d0             	callq  *%r8
  10821d:	c7 45 fc 00 00 00 00 	movl   $0x0,-0x4(%rbp)
  108224:	48 8b 45 e8          	mov    -0x18(%rbp),%rax
  108228:	48 8b 40 10          	mov    0x10(%rax),%rax
  10822c:	0f b6 40 10          	movzbl 0x10(%rax),%eax
  108230:	0f b6 c0             	movzbl %al,%eax
  108233:	39 45 fc             	cmp    %eax,-0x4(%rbp)
  108236:	73 67                	jae    10829f <_ZN11FAT32DriverD1Ev+0x10b>
  108238:	48 8b 45 e8          	mov    -0x18(%rbp),%rax
  10823c:	48 8b 00             	mov    (%rax),%rax
  10823f:	48 8b 55 e8          	mov    -0x18(%rbp),%rdx
  108243:	48 8b 12             	mov    (%rdx),%rdx
  108246:	48 8b 12             	mov    (%rdx),%rdx
  108249:	48 83 c2 20          	add    $0x20,%rdx
  10824d:	4c 8b 02             	mov    (%rdx),%r8
  108250:	48 8b 55 e8          	mov    -0x18(%rbp),%rdx
  108254:	48 8b 52 10          	mov    0x10(%rdx),%rdx
  108258:	8b 52 24             	mov    0x24(%rdx),%edx
  10825b:	89 d7                	mov    %edx,%edi
  10825d:	48 8b 55 e8          	mov    -0x18(%rbp),%rdx
  108261:	48 8b 52 28          	mov    0x28(%rdx),%rdx
  108265:	48 8b 4d e8          	mov    -0x18(%rbp),%rcx
  108269:	8b 71 08             	mov    0x8(%rcx),%esi
  10826c:	48 8b 4d e8          	mov    -0x18(%rbp),%rcx
  108270:	48 8b 49 10          	mov    0x10(%rcx),%rcx
  108274:	0f b7 49 0e          	movzwl 0xe(%rcx),%ecx
  108278:	0f b7 c9             	movzwl %cx,%ecx
  10827b:	01 ce                	add    %ecx,%esi
  10827d:	48 8b 4d e8          	mov    -0x18(%rbp),%rcx
  108281:	48 8b 49 10          	mov    0x10(%rcx),%rcx
  108285:	8b 49 24             	mov    0x24(%rcx),%ecx
  108288:	0f af 4d fc          	imul   -0x4(%rbp),%ecx
  10828c:	01 f1                	add    %esi,%ecx
  10828e:	89 ce                	mov    %ecx,%esi
  108290:	48 89 f9             	mov    %rdi,%rcx
  108293:	48 89 c7             	mov    %rax,%rdi
  108296:	41 ff d0             	callq  *%r8
  108299:	83 45 fc 01          	addl   $0x1,-0x4(%rbp)
  10829d:	eb 85                	jmp    108224 <_ZN11FAT32DriverD1Ev+0x90>
  10829f:	48 8b 45 e8          	mov    -0x18(%rbp),%rax
  1082a3:	48 8b 40 18          	mov    0x18(%rax),%rax
  1082a7:	48 89 c7             	mov    %rax,%rdi
  1082aa:	e8 2b 4d 00 00       	callq  10cfda <_Z5kfreePv>
  1082af:	48 8b 45 e8          	mov    -0x18(%rbp),%rax
  1082b3:	48 8b 40 20          	mov    0x20(%rax),%rax
  1082b7:	48 89 c7             	mov    %rax,%rdi
  1082ba:	e8 1b 4d 00 00       	callq  10cfda <_Z5kfreePv>
  1082bf:	48 8b 45 e8          	mov    -0x18(%rbp),%rax
  1082c3:	48 8b 40 28          	mov    0x28(%rax),%rax
  1082c7:	48 89 c7             	mov    %rax,%rdi
  1082ca:	e8 0b 4d 00 00       	callq  10cfda <_Z5kfreePv>
  1082cf:	48 8b 45 e8          	mov    -0x18(%rbp),%rax
  1082d3:	48 8b 40 10          	mov    0x10(%rax),%rax
  1082d7:	48 89 c7             	mov    %rax,%rdi
  1082da:	e8 fb 4c 00 00       	callq  10cfda <_Z5kfreePv>
  1082df:	90                   	nop
  1082e0:	c9                   	leaveq 
  1082e1:	c3                   	retq   

00000000001082e2 <_ZN11FAT32Driver7ReadFATEj>:
  1082e2:	f3 0f 1e fa          	endbr64 
  1082e6:	55                   	push   %rbp
  1082e7:	48 89 e5             	mov    %rsp,%rbp
  1082ea:	48 83 ec 10          	sub    $0x10,%rsp
  1082ee:	48 89 7d f8          	mov    %rdi,-0x8(%rbp)
  1082f2:	89 75 f4             	mov    %esi,-0xc(%rbp)
  1082f5:	83 7d f4 01          	cmpl   $0x1,-0xc(%rbp)
  1082f9:	76 0c                	jbe    108307 <_ZN11FAT32Driver7ReadFATEj+0x25>
  1082fb:	48 8b 45 f8          	mov    -0x8(%rbp),%rax
  1082ff:	8b 40 40             	mov    0x40(%rax),%eax
  108302:	39 45 f4             	cmp    %eax,-0xc(%rbp)
  108305:	76 07                	jbe    10830e <_ZN11FAT32Driver7ReadFATEj+0x2c>
  108307:	b8 ff ff ff ff       	mov    $0xffffffff,%eax
  10830c:	eb 19                	jmp    108327 <_ZN11FAT32Driver7ReadFATEj+0x45>
  10830e:	48 8b 45 f8          	mov    -0x8(%rbp),%rax
  108312:	48 8b 40 28          	mov    0x28(%rax),%rax
  108316:	8b 55 f4             	mov    -0xc(%rbp),%edx
  108319:	48 c1 e2 02          	shl    $0x2,%rdx
  10831d:	48 01 d0             	add    %rdx,%rax
  108320:	8b 00                	mov    (%rax),%eax
  108322:	25 ff ff ff 0f       	and    $0xfffffff,%eax
  108327:	c9                   	leaveq 
  108328:	c3                   	retq   
  108329:	90                   	nop

000000000010832a <_ZN11FAT32Driver8WriteFATEjj>:
  10832a:	f3 0f 1e fa          	endbr64 
  10832e:	55                   	push   %rbp
  10832f:	48 89 e5             	mov    %rsp,%rbp
  108332:	48 83 ec 10          	sub    $0x10,%rsp
  108336:	48 89 7d f8          	mov    %rdi,-0x8(%rbp)
  10833a:	89 75 f4             	mov    %esi,-0xc(%rbp)
  10833d:	89 55 f0             	mov    %edx,-0x10(%rbp)
  108340:	83 7d f4 01          	cmpl   $0x1,-0xc(%rbp)
  108344:	76 0c                	jbe    108352 <_ZN11FAT32Driver8WriteFATEjj+0x28>
  108346:	48 8b 45 f8          	mov    -0x8(%rbp),%rax
  10834a:	8b 40 40             	mov    0x40(%rax),%eax
  10834d:	39 45 f4             	cmp    %eax,-0xc(%rbp)
  108350:	76 07                	jbe    108359 <_ZN11FAT32Driver8WriteFATEjj+0x2f>
  108352:	b8 ff ff ff ff       	mov    $0xffffffff,%eax
  108357:	eb 67                	jmp    1083c0 <_ZN11FAT32Driver8WriteFATEjj+0x96>
  108359:	48 8b 45 f8          	mov    -0x8(%rbp),%rax
  10835d:	48 8b 40 28          	mov    0x28(%rax),%rax
  108361:	8b 55 f4             	mov    -0xc(%rbp),%edx
  108364:	48 c1 e2 02          	shl    $0x2,%rdx
  108368:	48 01 d0             	add    %rdx,%rax
  10836b:	8b 10                	mov    (%rax),%edx
  10836d:	48 8b 45 f8          	mov    -0x8(%rbp),%rax
  108371:	48 8b 40 28          	mov    0x28(%rax),%rax
  108375:	8b 4d f4             	mov    -0xc(%rbp),%ecx
  108378:	48 c1 e1 02          	shl    $0x2,%rcx
  10837c:	48 01 c8             	add    %rcx,%rax
  10837f:	81 e2 00 00 00 f0    	and    $0xf0000000,%edx
  108385:	89 10                	mov    %edx,(%rax)
  108387:	48 8b 45 f8          	mov    -0x8(%rbp),%rax
  10838b:	48 8b 40 28          	mov    0x28(%rax),%rax
  10838f:	8b 55 f4             	mov    -0xc(%rbp),%edx
  108392:	48 c1 e2 02          	shl    $0x2,%rdx
  108396:	48 01 d0             	add    %rdx,%rax
  108399:	8b 10                	mov    (%rax),%edx
  10839b:	8b 45 f0             	mov    -0x10(%rbp),%eax
  10839e:	25 ff ff ff 0f       	and    $0xfffffff,%eax
  1083a3:	89 c6                	mov    %eax,%esi
  1083a5:	48 8b 45 f8          	mov    -0x8(%rbp),%rax
  1083a9:	48 8b 40 28          	mov    0x28(%rax),%rax
  1083ad:	8b 4d f4             	mov    -0xc(%rbp),%ecx
  1083b0:	48 c1 e1 02          	shl    $0x2,%rcx
  1083b4:	48 01 c8             	add    %rcx,%rax
  1083b7:	09 f2                	or     %esi,%edx
  1083b9:	89 10                	mov    %edx,(%rax)
  1083bb:	b8 00 00 00 00       	mov    $0x0,%eax
  1083c0:	c9                   	leaveq 
  1083c1:	c3                   	retq   

00000000001083c2 <_ZN11FAT32Driver11ReadClusterEjPv>:
  1083c2:	f3 0f 1e fa          	endbr64 
  1083c6:	55                   	push   %rbp
  1083c7:	48 89 e5             	mov    %rsp,%rbp
  1083ca:	48 83 ec 30          	sub    $0x30,%rsp
  1083ce:	48 89 7d e8          	mov    %rdi,-0x18(%rbp)
  1083d2:	89 75 e4             	mov    %esi,-0x1c(%rbp)
  1083d5:	48 89 55 d8          	mov    %rdx,-0x28(%rbp)
  1083d9:	83 7d e4 01          	cmpl   $0x1,-0x1c(%rbp)
  1083dd:	76 0c                	jbe    1083eb <_ZN11FAT32Driver11ReadClusterEjPv+0x29>
  1083df:	48 8b 45 e8          	mov    -0x18(%rbp),%rax
  1083e3:	8b 40 40             	mov    0x40(%rax),%eax
  1083e6:	39 45 e4             	cmp    %eax,-0x1c(%rbp)
  1083e9:	76 07                	jbe    1083f2 <_ZN11FAT32Driver11ReadClusterEjPv+0x30>
  1083eb:	b8 ff ff ff ff       	mov    $0xffffffff,%eax
  1083f0:	eb 78                	jmp    10846a <_ZN11FAT32Driver11ReadClusterEjPv+0xa8>
  1083f2:	8b 45 e4             	mov    -0x1c(%rbp),%eax
  1083f5:	8d 50 fe             	lea    -0x2(%rax),%edx
  1083f8:	48 8b 45 e8          	mov    -0x18(%rbp),%rax
  1083fc:	48 8b 40 10          	mov    0x10(%rax),%rax
  108400:	0f b6 40 0d          	movzbl 0xd(%rax),%eax
  108404:	0f b6 c0             	movzbl %al,%eax
  108407:	0f af d0             	imul   %eax,%edx
  10840a:	48 8b 45 e8          	mov    -0x18(%rbp),%rax
  10840e:	8b 40 34             	mov    0x34(%rax),%eax
  108411:	01 d0                	add    %edx,%eax
  108413:	89 45 fc             	mov    %eax,-0x4(%rbp)
  108416:	48 8b 45 e8          	mov    -0x18(%rbp),%rax
  10841a:	48 8b 38             	mov    (%rax),%rdi
  10841d:	48 8b 45 e8          	mov    -0x18(%rbp),%rax
  108421:	48 8b 00             	mov    (%rax),%rax
  108424:	48 8b 00             	mov    (%rax),%rax
  108427:	48 83 c0 18          	add    $0x18,%rax
  10842b:	4c 8b 00             	mov    (%rax),%r8
  10842e:	48 8b 45 e8          	mov    -0x18(%rbp),%rax
  108432:	8b 40 30             	mov    0x30(%rax),%eax
  108435:	48 8b 55 e8          	mov    -0x18(%rbp),%rdx
  108439:	48 8b 52 10          	mov    0x10(%rdx),%rdx
  10843d:	0f b7 52 0b          	movzwl 0xb(%rdx),%edx
  108441:	0f b7 ca             	movzwl %dx,%ecx
  108444:	ba 00 00 00 00       	mov    $0x0,%edx
  108449:	f7 f1                	div    %ecx
  10844b:	89 c1                	mov    %eax,%ecx
  10844d:	48 8b 45 e8          	mov    -0x18(%rbp),%rax
  108451:	8b 50 08             	mov    0x8(%rax),%edx
  108454:	8b 45 fc             	mov    -0x4(%rbp),%eax
  108457:	01 d0                	add    %edx,%eax
  108459:	89 c6                	mov    %eax,%esi
  10845b:	48 8b 45 d8          	mov    -0x28(%rbp),%rax
  10845f:	48 89 c2             	mov    %rax,%rdx
  108462:	41 ff d0             	callq  *%r8
  108465:	b8 00 00 00 00       	mov    $0x0,%eax
  10846a:	c9                   	leaveq 
  10846b:	c3                   	retq   

000000000010846c <_ZN11FAT32Driver12WriteClusterEjPv>:
  10846c:	f3 0f 1e fa          	endbr64 
  108470:	55                   	push   %rbp
  108471:	48 89 e5             	mov    %rsp,%rbp
  108474:	48 83 ec 30          	sub    $0x30,%rsp
  108478:	48 89 7d e8          	mov    %rdi,-0x18(%rbp)
  10847c:	89 75 e4             	mov    %esi,-0x1c(%rbp)
  10847f:	48 89 55 d8          	mov    %rdx,-0x28(%rbp)
  108483:	83 7d e4 01          	cmpl   $0x1,-0x1c(%rbp)
  108487:	76 0c                	jbe    108495 <_ZN11FAT32Driver12WriteClusterEjPv+0x29>
  108489:	48 8b 45 e8          	mov    -0x18(%rbp),%rax
  10848d:	8b 40 40             	mov    0x40(%rax),%eax
  108490:	39 45 e4             	cmp    %eax,-0x1c(%rbp)
  108493:	76 07                	jbe    10849c <_ZN11FAT32Driver12WriteClusterEjPv+0x30>
  108495:	b8 ff ff ff ff       	mov    $0xffffffff,%eax
  10849a:	eb 78                	jmp    108514 <_ZN11FAT32Driver12WriteClusterEjPv+0xa8>
  10849c:	8b 45 e4             	mov    -0x1c(%rbp),%eax
  10849f:	8d 50 fe             	lea    -0x2(%rax),%edx
  1084a2:	48 8b 45 e8          	mov    -0x18(%rbp),%rax
  1084a6:	48 8b 40 10          	mov    0x10(%rax),%rax
  1084aa:	0f b6 40 0d          	movzbl 0xd(%rax),%eax
  1084ae:	0f b6 c0             	movzbl %al,%eax
  1084b1:	0f af d0             	imul   %eax,%edx
  1084b4:	48 8b 45 e8          	mov    -0x18(%rbp),%rax
  1084b8:	8b 40 34             	mov    0x34(%rax),%eax
  1084bb:	01 d0                	add    %edx,%eax
  1084bd:	89 45 fc             	mov    %eax,-0x4(%rbp)
  1084c0:	48 8b 45 e8          	mov    -0x18(%rbp),%rax
  1084c4:	48 8b 38             	mov    (%rax),%rdi
  1084c7:	48 8b 45 e8          	mov    -0x18(%rbp),%rax
  1084cb:	48 8b 00             	mov    (%rax),%rax
  1084ce:	48 8b 00             	mov    (%rax),%rax
  1084d1:	48 83 c0 20          	add    $0x20,%rax
  1084d5:	4c 8b 00             	mov    (%rax),%r8
  1084d8:	48 8b 45 e8          	mov    -0x18(%rbp),%rax
  1084dc:	8b 40 30             	mov    0x30(%rax),%eax
  1084df:	48 8b 55 e8          	mov    -0x18(%rbp),%rdx
  1084e3:	48 8b 52 10          	mov    0x10(%rdx),%rdx
  1084e7:	0f b7 52 0b          	movzwl 0xb(%rdx),%edx
  1084eb:	0f b7 ca             	movzwl %dx,%ecx
  1084ee:	ba 00 00 00 00       	mov    $0x0,%edx
  1084f3:	f7 f1                	div    %ecx
  1084f5:	89 c1                	mov    %eax,%ecx
  1084f7:	48 8b 45 e8          	mov    -0x18(%rbp),%rax
  1084fb:	8b 50 08             	mov    0x8(%rax),%edx
  1084fe:	8b 45 fc             	mov    -0x4(%rbp),%eax
  108501:	01 d0                	add    %edx,%eax
  108503:	89 c6                	mov    %eax,%esi
  108505:	48 8b 45 d8          	mov    -0x28(%rbp),%rax
  108509:	48 89 c2             	mov    %rax,%rdx
  10850c:	41 ff d0             	callq  *%r8
  10850f:	b8 00 00 00 00       	mov    $0x0,%eax
  108514:	c9                   	leaveq 
  108515:	c3                   	retq   

0000000000108516 <_ZN11FAT32Driver15GetClusterChainEj>:
  108516:	f3 0f 1e fa          	endbr64 
  10851a:	55                   	push   %rbp
  10851b:	48 89 e5             	mov    %rsp,%rbp
  10851e:	48 83 ec 50          	sub    $0x50,%rsp
  108522:	48 89 7d c8          	mov    %rdi,-0x38(%rbp)
  108526:	48 89 75 c0          	mov    %rsi,-0x40(%rbp)
  10852a:	89 55 bc             	mov    %edx,-0x44(%rbp)
  10852d:	8b 45 bc             	mov    -0x44(%rbp),%eax
  108530:	83 f8 01             	cmp    $0x1,%eax
  108533:	76 0e                	jbe    108543 <_ZN11FAT32Driver15GetClusterChainEj+0x2d>
  108535:	48 8b 45 c0          	mov    -0x40(%rbp),%rax
  108539:	8b 50 40             	mov    0x40(%rax),%edx
  10853c:	8b 45 bc             	mov    -0x44(%rbp),%eax
  10853f:	39 c2                	cmp    %eax,%edx
  108541:	73 11                	jae    108554 <_ZN11FAT32Driver15GetClusterChainEj+0x3e>
  108543:	48 8b 45 c8          	mov    -0x38(%rbp),%rax
  108547:	48 89 c7             	mov    %rax,%rdi
  10854a:	e8 e1 60 00 00       	callq  10e630 <_ZN6vectorIjEC1Ev>
  10854f:	e9 90 00 00 00       	jmpq   1085e4 <_ZN11FAT32Driver15GetClusterChainEj+0xce>
  108554:	48 8d 45 e0          	lea    -0x20(%rbp),%rax
  108558:	48 89 c7             	mov    %rax,%rdi
  10855b:	e8 d0 60 00 00       	callq  10e630 <_ZN6vectorIjEC1Ev>
  108560:	48 8d 55 bc          	lea    -0x44(%rbp),%rdx
  108564:	48 8d 45 e0          	lea    -0x20(%rbp),%rax
  108568:	48 89 d6             	mov    %rdx,%rsi
  10856b:	48 89 c7             	mov    %rax,%rdi
  10856e:	e8 2d 61 00 00       	callq  10e6a0 <_ZN6vectorIjE9push_backERKj>
  108573:	8b 45 bc             	mov    -0x44(%rbp),%eax
  108576:	89 45 dc             	mov    %eax,-0x24(%rbp)
  108579:	8b 55 dc             	mov    -0x24(%rbp),%edx
  10857c:	48 8b 45 c0          	mov    -0x40(%rbp),%rax
  108580:	89 d6                	mov    %edx,%esi
  108582:	48 89 c7             	mov    %rax,%rdi
  108585:	e8 58 fd ff ff       	callq  1082e2 <_ZN11FAT32Driver7ReadFATEj>
  10858a:	89 45 dc             	mov    %eax,-0x24(%rbp)
  10858d:	8b 45 dc             	mov    -0x24(%rbp),%eax
  108590:	3d f7 ff ff 0f       	cmp    $0xffffff7,%eax
  108595:	75 0e                	jne    1085a5 <_ZN11FAT32Driver15GetClusterChainEj+0x8f>
  108597:	48 8b 45 c8          	mov    -0x38(%rbp),%rax
  10859b:	48 89 c7             	mov    %rax,%rdi
  10859e:	e8 8d 60 00 00       	callq  10e630 <_ZN6vectorIjEC1Ev>
  1085a3:	eb 33                	jmp    1085d8 <_ZN11FAT32Driver15GetClusterChainEj+0xc2>
  1085a5:	8b 45 dc             	mov    -0x24(%rbp),%eax
  1085a8:	3d f7 ff ff 0f       	cmp    $0xffffff7,%eax
  1085ad:	77 15                	ja     1085c4 <_ZN11FAT32Driver15GetClusterChainEj+0xae>
  1085af:	48 8d 55 dc          	lea    -0x24(%rbp),%rdx
  1085b3:	48 8d 45 e0          	lea    -0x20(%rbp),%rax
  1085b7:	48 89 d6             	mov    %rdx,%rsi
  1085ba:	48 89 c7             	mov    %rax,%rdi
  1085bd:	e8 de 60 00 00       	callq  10e6a0 <_ZN6vectorIjE9push_backERKj>
  1085c2:	eb b5                	jmp    108579 <_ZN11FAT32Driver15GetClusterChainEj+0x63>
  1085c4:	90                   	nop
  1085c5:	48 8d 55 e0          	lea    -0x20(%rbp),%rdx
  1085c9:	48 8b 45 c8          	mov    -0x38(%rbp),%rax
  1085cd:	48 89 d6             	mov    %rdx,%rsi
  1085d0:	48 89 c7             	mov    %rax,%rdi
  1085d3:	e8 3a 61 00 00       	callq  10e712 <_ZN6vectorIjEC1ERKS0_>
  1085d8:	48 8d 45 e0          	lea    -0x20(%rbp),%rax
  1085dc:	48 89 c7             	mov    %rax,%rdi
  1085df:	e8 8c 60 00 00       	callq  10e670 <_ZN6vectorIjED1Ev>
  1085e4:	48 8b 45 c8          	mov    -0x38(%rbp),%rax
  1085e8:	c9                   	leaveq 
  1085e9:	c3                   	retq   

00000000001085ea <_ZN11FAT32Driver20AllocateClusterChainEj>:
  1085ea:	f3 0f 1e fa          	endbr64 
  1085ee:	55                   	push   %rbp
  1085ef:	48 89 e5             	mov    %rsp,%rbp
  1085f2:	48 83 ec 30          	sub    $0x30,%rsp
  1085f6:	48 89 7d d8          	mov    %rdi,-0x28(%rbp)
  1085fa:	89 75 d4             	mov    %esi,-0x2c(%rbp)
  1085fd:	c7 45 fc 00 00 00 00 	movl   $0x0,-0x4(%rbp)
  108604:	c7 45 f8 02 00 00 00 	movl   $0x2,-0x8(%rbp)
  10860b:	8b 45 f8             	mov    -0x8(%rbp),%eax
  10860e:	89 45 f4             	mov    %eax,-0xc(%rbp)
  108611:	c7 45 f0 00 00 00 00 	movl   $0x0,-0x10(%rbp)
  108618:	c7 45 ec 00 00 00 00 	movl   $0x0,-0x14(%rbp)
  10861f:	8b 45 fc             	mov    -0x4(%rbp),%eax
  108622:	3b 45 d4             	cmp    -0x2c(%rbp),%eax
  108625:	0f 83 a4 00 00 00    	jae    1086cf <_ZN11FAT32Driver20AllocateClusterChainEj+0xe5>
  10862b:	48 8b 45 d8          	mov    -0x28(%rbp),%rax
  10862f:	8b 40 40             	mov    0x40(%rax),%eax
  108632:	39 45 f8             	cmp    %eax,-0x8(%rbp)
  108635:	72 0a                	jb     108641 <_ZN11FAT32Driver20AllocateClusterChainEj+0x57>
  108637:	b8 f7 ff ff 0f       	mov    $0xffffff7,%eax
  10863c:	e9 91 00 00 00       	jmpq   1086d2 <_ZN11FAT32Driver20AllocateClusterChainEj+0xe8>
  108641:	8b 55 f8             	mov    -0x8(%rbp),%edx
  108644:	48 8b 45 d8          	mov    -0x28(%rbp),%rax
  108648:	89 d6                	mov    %edx,%esi
  10864a:	48 89 c7             	mov    %rax,%rdi
  10864d:	e8 90 fc ff ff       	callq  1082e2 <_ZN11FAT32Driver7ReadFATEj>
  108652:	89 45 ec             	mov    %eax,-0x14(%rbp)
  108655:	83 7d ec 00          	cmpl   $0x0,-0x14(%rbp)
  108659:	75 6b                	jne    1086c6 <_ZN11FAT32Driver20AllocateClusterChainEj+0xdc>
  10865b:	83 7d fc 00          	cmpl   $0x0,-0x4(%rbp)
  10865f:	74 24                	je     108685 <_ZN11FAT32Driver20AllocateClusterChainEj+0x9b>
  108661:	8b 55 f8             	mov    -0x8(%rbp),%edx
  108664:	8b 4d f4             	mov    -0xc(%rbp),%ecx
  108667:	48 8b 45 d8          	mov    -0x28(%rbp),%rax
  10866b:	89 ce                	mov    %ecx,%esi
  10866d:	48 89 c7             	mov    %rax,%rdi
  108670:	e8 b5 fc ff ff       	callq  10832a <_ZN11FAT32Driver8WriteFATEjj>
  108675:	85 c0                	test   %eax,%eax
  108677:	0f 95 c0             	setne  %al
  10867a:	84 c0                	test   %al,%al
  10867c:	74 0d                	je     10868b <_ZN11FAT32Driver20AllocateClusterChainEj+0xa1>
  10867e:	b8 f7 ff ff 0f       	mov    $0xffffff7,%eax
  108683:	eb 4d                	jmp    1086d2 <_ZN11FAT32Driver20AllocateClusterChainEj+0xe8>
  108685:	8b 45 f8             	mov    -0x8(%rbp),%eax
  108688:	89 45 f0             	mov    %eax,-0x10(%rbp)
  10868b:	8b 45 d4             	mov    -0x2c(%rbp),%eax
  10868e:	83 e8 01             	sub    $0x1,%eax
  108691:	39 45 fc             	cmp    %eax,-0x4(%rbp)
  108694:	75 26                	jne    1086bc <_ZN11FAT32Driver20AllocateClusterChainEj+0xd2>
  108696:	8b 4d f8             	mov    -0x8(%rbp),%ecx
  108699:	48 8b 45 d8          	mov    -0x28(%rbp),%rax
  10869d:	ba f8 ff ff 0f       	mov    $0xffffff8,%edx
  1086a2:	89 ce                	mov    %ecx,%esi
  1086a4:	48 89 c7             	mov    %rax,%rdi
  1086a7:	e8 7e fc ff ff       	callq  10832a <_ZN11FAT32Driver8WriteFATEjj>
  1086ac:	85 c0                	test   %eax,%eax
  1086ae:	0f 95 c0             	setne  %al
  1086b1:	84 c0                	test   %al,%al
  1086b3:	74 07                	je     1086bc <_ZN11FAT32Driver20AllocateClusterChainEj+0xd2>
  1086b5:	b8 f7 ff ff 0f       	mov    $0xffffff7,%eax
  1086ba:	eb 16                	jmp    1086d2 <_ZN11FAT32Driver20AllocateClusterChainEj+0xe8>
  1086bc:	83 45 fc 01          	addl   $0x1,-0x4(%rbp)
  1086c0:	8b 45 f8             	mov    -0x8(%rbp),%eax
  1086c3:	89 45 f4             	mov    %eax,-0xc(%rbp)
  1086c6:	83 45 f8 01          	addl   $0x1,-0x8(%rbp)
  1086ca:	e9 50 ff ff ff       	jmpq   10861f <_ZN11FAT32Driver20AllocateClusterChainEj+0x35>
  1086cf:	8b 45 f0             	mov    -0x10(%rbp),%eax
  1086d2:	c9                   	leaveq 
  1086d3:	c3                   	retq   

00000000001086d4 <_ZN11FAT32Driver16FreeClusterChainEj>:
  1086d4:	f3 0f 1e fa          	endbr64 
  1086d8:	55                   	push   %rbp
  1086d9:	48 89 e5             	mov    %rsp,%rbp
  1086dc:	53                   	push   %rbx
  1086dd:	48 83 ec 38          	sub    $0x38,%rsp
  1086e1:	48 89 7d c8          	mov    %rdi,-0x38(%rbp)
  1086e5:	89 75 c4             	mov    %esi,-0x3c(%rbp)
  1086e8:	48 8d 45 d0          	lea    -0x30(%rbp),%rax
  1086ec:	8b 55 c4             	mov    -0x3c(%rbp),%edx
  1086ef:	48 8b 4d c8          	mov    -0x38(%rbp),%rcx
  1086f3:	48 89 ce             	mov    %rcx,%rsi
  1086f6:	48 89 c7             	mov    %rax,%rdi
  1086f9:	e8 18 fe ff ff       	callq  108516 <_ZN11FAT32Driver15GetClusterChainEj>
  1086fe:	c7 45 ec 00 00 00 00 	movl   $0x0,-0x14(%rbp)
  108705:	8b 5d ec             	mov    -0x14(%rbp),%ebx
  108708:	48 8d 45 d0          	lea    -0x30(%rbp),%rax
  10870c:	48 89 c7             	mov    %rax,%rdi
  10870f:	e8 94 60 00 00       	callq  10e7a8 <_ZNK6vectorIjE4sizeEv>
  108714:	48 39 c3             	cmp    %rax,%rbx
  108717:	0f 92 c0             	setb   %al
  10871a:	84 c0                	test   %al,%al
  10871c:	74 2d                	je     10874b <_ZN11FAT32Driver16FreeClusterChainEj+0x77>
  10871e:	8b 55 ec             	mov    -0x14(%rbp),%edx
  108721:	48 8d 45 d0          	lea    -0x30(%rbp),%rax
  108725:	48 89 d6             	mov    %rdx,%rsi
  108728:	48 89 c7             	mov    %rax,%rdi
  10872b:	e8 92 60 00 00       	callq  10e7c2 <_ZN6vectorIjEixEm>
  108730:	8b 08                	mov    (%rax),%ecx
  108732:	48 8b 45 c8          	mov    -0x38(%rbp),%rax
  108736:	ba 00 00 00 00       	mov    $0x0,%edx
  10873b:	89 ce                	mov    %ecx,%esi
  10873d:	48 89 c7             	mov    %rax,%rdi
  108740:	e8 e5 fb ff ff       	callq  10832a <_ZN11FAT32Driver8WriteFATEjj>
  108745:	83 45 ec 01          	addl   $0x1,-0x14(%rbp)
  108749:	eb ba                	jmp    108705 <_ZN11FAT32Driver16FreeClusterChainEj+0x31>
  10874b:	48 8d 45 d0          	lea    -0x30(%rbp),%rax
  10874f:	48 89 c7             	mov    %rax,%rdi
  108752:	e8 19 5f 00 00       	callq  10e670 <_ZN6vectorIjED1Ev>
  108757:	90                   	nop
  108758:	48 83 c4 38          	add    $0x38,%rsp
  10875c:	5b                   	pop    %rbx
  10875d:	5d                   	pop    %rbp
  10875e:	c3                   	retq   
  10875f:	90                   	nop

0000000000108760 <_ZN11FAT32Driver16ReadClusterChainEjRj>:
  108760:	f3 0f 1e fa          	endbr64 
  108764:	55                   	push   %rbp
  108765:	48 89 e5             	mov    %rsp,%rbp
  108768:	53                   	push   %rbx
  108769:	48 83 ec 58          	sub    $0x58,%rsp
  10876d:	48 89 7d b8          	mov    %rdi,-0x48(%rbp)
  108771:	89 75 b4             	mov    %esi,-0x4c(%rbp)
  108774:	48 89 55 a8          	mov    %rdx,-0x58(%rbp)
  108778:	83 7d b4 01          	cmpl   $0x1,-0x4c(%rbp)
  10877c:	76 0c                	jbe    10878a <_ZN11FAT32Driver16ReadClusterChainEjRj+0x2a>
  10877e:	48 8b 45 b8          	mov    -0x48(%rbp),%rax
  108782:	8b 40 40             	mov    0x40(%rax),%eax
  108785:	39 45 b4             	cmp    %eax,-0x4c(%rbp)
  108788:	76 0a                	jbe    108794 <_ZN11FAT32Driver16ReadClusterChainEjRj+0x34>
  10878a:	bb 00 00 00 00       	mov    $0x0,%ebx
  10878f:	e9 a7 00 00 00       	jmpq   10883b <_ZN11FAT32Driver16ReadClusterChainEjRj+0xdb>
  108794:	48 8d 45 c0          	lea    -0x40(%rbp),%rax
  108798:	8b 55 b4             	mov    -0x4c(%rbp),%edx
  10879b:	48 8b 4d b8          	mov    -0x48(%rbp),%rcx
  10879f:	48 89 ce             	mov    %rcx,%rsi
  1087a2:	48 89 c7             	mov    %rax,%rdi
  1087a5:	e8 6c fd ff ff       	callq  108516 <_ZN11FAT32Driver15GetClusterChainEj>
  1087aa:	48 8d 45 c0          	lea    -0x40(%rbp),%rax
  1087ae:	48 89 c7             	mov    %rax,%rdi
  1087b1:	e8 f2 5f 00 00       	callq  10e7a8 <_ZNK6vectorIjE4sizeEv>
  1087b6:	89 45 e0             	mov    %eax,-0x20(%rbp)
  1087b9:	48 8b 45 b8          	mov    -0x48(%rbp),%rax
  1087bd:	8b 40 30             	mov    0x30(%rax),%eax
  1087c0:	0f af 45 e0          	imul   -0x20(%rbp),%eax
  1087c4:	89 c2                	mov    %eax,%edx
  1087c6:	48 8b 45 a8          	mov    -0x58(%rbp),%rax
  1087ca:	89 10                	mov    %edx,(%rax)
  1087cc:	48 8b 45 a8          	mov    -0x58(%rbp),%rax
  1087d0:	8b 00                	mov    (%rax),%eax
  1087d2:	89 c0                	mov    %eax,%eax
  1087d4:	48 89 c7             	mov    %rax,%rdi
  1087d7:	e8 91 b2 ff ff       	callq  103a6d <_Znam>
  1087dc:	48 89 45 e8          	mov    %rax,-0x18(%rbp)
  1087e0:	c7 45 e4 00 00 00 00 	movl   $0x0,-0x1c(%rbp)
  1087e7:	48 8b 45 a8          	mov    -0x58(%rbp),%rax
  1087eb:	8b 00                	mov    (%rax),%eax
  1087ed:	39 45 e4             	cmp    %eax,-0x1c(%rbp)
  1087f0:	73 39                	jae    10882b <_ZN11FAT32Driver16ReadClusterChainEjRj+0xcb>
  1087f2:	8b 55 e4             	mov    -0x1c(%rbp),%edx
  1087f5:	48 8d 45 c0          	lea    -0x40(%rbp),%rax
  1087f9:	48 89 d6             	mov    %rdx,%rsi
  1087fc:	48 89 c7             	mov    %rax,%rdi
  1087ff:	e8 be 5f 00 00       	callq  10e7c2 <_ZN6vectorIjEixEm>
  108804:	8b 08                	mov    (%rax),%ecx
  108806:	48 8b 55 e8          	mov    -0x18(%rbp),%rdx
  10880a:	48 8b 45 b8          	mov    -0x48(%rbp),%rax
  10880e:	89 ce                	mov    %ecx,%esi
  108810:	48 89 c7             	mov    %rax,%rdi
  108813:	e8 aa fb ff ff       	callq  1083c2 <_ZN11FAT32Driver11ReadClusterEjPv>
  108818:	48 8b 45 b8          	mov    -0x48(%rbp),%rax
  10881c:	8b 40 30             	mov    0x30(%rax),%eax
  10881f:	89 c0                	mov    %eax,%eax
  108821:	48 01 45 e8          	add    %rax,-0x18(%rbp)
  108825:	83 45 e4 01          	addl   $0x1,-0x1c(%rbp)
  108829:	eb bc                	jmp    1087e7 <_ZN11FAT32Driver16ReadClusterChainEjRj+0x87>
  10882b:	48 8b 5d e8          	mov    -0x18(%rbp),%rbx
  10882f:	48 8d 45 c0          	lea    -0x40(%rbp),%rax
  108833:	48 89 c7             	mov    %rax,%rdi
  108836:	e8 35 5e 00 00       	callq  10e670 <_ZN6vectorIjED1Ev>
  10883b:	48 89 d8             	mov    %rbx,%rax
  10883e:	48 83 c4 58          	add    $0x58,%rsp
  108842:	5b                   	pop    %rbx
  108843:	5d                   	pop    %rbp
  108844:	c3                   	retq   
  108845:	90                   	nop

0000000000108846 <_ZN11FAT32Driver17WriteClusterChainEjPvj>:
  108846:	f3 0f 1e fa          	endbr64 
  10884a:	55                   	push   %rbp
  10884b:	48 89 e5             	mov    %rsp,%rbp
  10884e:	48 83 ec 50          	sub    $0x50,%rsp
  108852:	48 89 7d c8          	mov    %rdi,-0x38(%rbp)
  108856:	89 75 c4             	mov    %esi,-0x3c(%rbp)
  108859:	48 89 55 b8          	mov    %rdx,-0x48(%rbp)
  10885d:	89 4d c0             	mov    %ecx,-0x40(%rbp)
  108860:	48 8d 45 d0          	lea    -0x30(%rbp),%rax
  108864:	8b 55 c4             	mov    -0x3c(%rbp),%edx
  108867:	48 8b 4d c8          	mov    -0x38(%rbp),%rcx
  10886b:	48 89 ce             	mov    %rcx,%rsi
  10886e:	48 89 c7             	mov    %rax,%rdi
  108871:	e8 a0 fc ff ff       	callq  108516 <_ZN11FAT32Driver15GetClusterChainEj>
  108876:	48 8d 45 d0          	lea    -0x30(%rbp),%rax
  10887a:	48 89 c7             	mov    %rax,%rdi
  10887d:	e8 26 5f 00 00       	callq  10e7a8 <_ZNK6vectorIjE4sizeEv>
  108882:	89 45 e8             	mov    %eax,-0x18(%rbp)
  108885:	8b 45 c0             	mov    -0x40(%rbp),%eax
  108888:	89 45 fc             	mov    %eax,-0x4(%rbp)
  10888b:	8b 45 fc             	mov    -0x4(%rbp),%eax
  10888e:	3b 45 e8             	cmp    -0x18(%rbp),%eax
  108891:	76 06                	jbe    108899 <_ZN11FAT32Driver17WriteClusterChainEjPvj+0x53>
  108893:	8b 45 e8             	mov    -0x18(%rbp),%eax
  108896:	89 45 fc             	mov    %eax,-0x4(%rbp)
  108899:	48 8b 45 b8          	mov    -0x48(%rbp),%rax
  10889d:	48 89 45 f0          	mov    %rax,-0x10(%rbp)
  1088a1:	c7 45 ec 00 00 00 00 	movl   $0x0,-0x14(%rbp)
  1088a8:	8b 45 ec             	mov    -0x14(%rbp),%eax
  1088ab:	3b 45 fc             	cmp    -0x4(%rbp),%eax
  1088ae:	73 39                	jae    1088e9 <_ZN11FAT32Driver17WriteClusterChainEjPvj+0xa3>
  1088b0:	8b 55 ec             	mov    -0x14(%rbp),%edx
  1088b3:	48 8d 45 d0          	lea    -0x30(%rbp),%rax
  1088b7:	48 89 d6             	mov    %rdx,%rsi
  1088ba:	48 89 c7             	mov    %rax,%rdi
  1088bd:	e8 00 5f 00 00       	callq  10e7c2 <_ZN6vectorIjEixEm>
  1088c2:	8b 08                	mov    (%rax),%ecx
  1088c4:	48 8b 55 f0          	mov    -0x10(%rbp),%rdx
  1088c8:	48 8b 45 c8          	mov    -0x38(%rbp),%rax
  1088cc:	89 ce                	mov    %ecx,%esi
  1088ce:	48 89 c7             	mov    %rax,%rdi
  1088d1:	e8 96 fb ff ff       	callq  10846c <_ZN11FAT32Driver12WriteClusterEjPv>
  1088d6:	48 8b 45 c8          	mov    -0x38(%rbp),%rax
  1088da:	8b 40 30             	mov    0x30(%rax),%eax
  1088dd:	89 c0                	mov    %eax,%eax
  1088df:	48 01 45 f0          	add    %rax,-0x10(%rbp)
  1088e3:	83 45 ec 01          	addl   $0x1,-0x14(%rbp)
  1088e7:	eb bf                	jmp    1088a8 <_ZN11FAT32Driver17WriteClusterChainEjPvj+0x62>
  1088e9:	48 8d 45 d0          	lea    -0x30(%rbp),%rax
  1088ed:	48 89 c7             	mov    %rax,%rdi
  1088f0:	e8 7b 5d 00 00       	callq  10e670 <_ZN6vectorIjED1Ev>
  1088f5:	90                   	nop
  1088f6:	c9                   	leaveq 
  1088f7:	c3                   	retq   

00000000001088f8 <_ZN11FAT32Driver18ResizeClusterChainEjj>:
  1088f8:	f3 0f 1e fa          	endbr64 
  1088fc:	55                   	push   %rbp
  1088fd:	48 89 e5             	mov    %rsp,%rbp
  108900:	53                   	push   %rbx
  108901:	48 83 ec 38          	sub    $0x38,%rsp
  108905:	48 89 7d c8          	mov    %rdi,-0x38(%rbp)
  108909:	89 75 c4             	mov    %esi,-0x3c(%rbp)
  10890c:	89 55 c0             	mov    %edx,-0x40(%rbp)
  10890f:	48 8d 45 d0          	lea    -0x30(%rbp),%rax
  108913:	8b 55 c4             	mov    -0x3c(%rbp),%edx
  108916:	48 8b 4d c8          	mov    -0x38(%rbp),%rcx
  10891a:	48 89 ce             	mov    %rcx,%rsi
  10891d:	48 89 c7             	mov    %rax,%rdi
  108920:	e8 f1 fb ff ff       	callq  108516 <_ZN11FAT32Driver15GetClusterChainEj>
  108925:	48 8d 45 d0          	lea    -0x30(%rbp),%rax
  108929:	48 89 c7             	mov    %rax,%rdi
  10892c:	e8 77 5e 00 00       	callq  10e7a8 <_ZNK6vectorIjE4sizeEv>
  108931:	89 45 ec             	mov    %eax,-0x14(%rbp)
  108934:	8b 45 ec             	mov    -0x14(%rbp),%eax
  108937:	3b 45 c0             	cmp    -0x40(%rbp),%eax
  10893a:	75 0a                	jne    108946 <_ZN11FAT32Driver18ResizeClusterChainEjj+0x4e>
  10893c:	bb 00 00 00 00       	mov    $0x0,%ebx
  108941:	e9 a0 00 00 00       	jmpq   1089e6 <_ZN11FAT32Driver18ResizeClusterChainEjj+0xee>
  108946:	8b 45 ec             	mov    -0x14(%rbp),%eax
  108949:	3b 45 c0             	cmp    -0x40(%rbp),%eax
  10894c:	76 50                	jbe    10899e <_ZN11FAT32Driver18ResizeClusterChainEjj+0xa6>
  10894e:	8b 45 c0             	mov    -0x40(%rbp),%eax
  108951:	83 e8 01             	sub    $0x1,%eax
  108954:	89 c2                	mov    %eax,%edx
  108956:	48 8d 45 d0          	lea    -0x30(%rbp),%rax
  10895a:	48 89 d6             	mov    %rdx,%rsi
  10895d:	48 89 c7             	mov    %rax,%rdi
  108960:	e8 5d 5e 00 00       	callq  10e7c2 <_ZN6vectorIjEixEm>
  108965:	8b 08                	mov    (%rax),%ecx
  108967:	48 8b 45 c8          	mov    -0x38(%rbp),%rax
  10896b:	ba f8 ff ff 0f       	mov    $0xffffff8,%edx
  108970:	89 ce                	mov    %ecx,%esi
  108972:	48 89 c7             	mov    %rax,%rdi
  108975:	e8 b0 f9 ff ff       	callq  10832a <_ZN11FAT32Driver8WriteFATEjj>
  10897a:	8b 55 c0             	mov    -0x40(%rbp),%edx
  10897d:	48 8d 45 d0          	lea    -0x30(%rbp),%rax
  108981:	48 89 d6             	mov    %rdx,%rsi
  108984:	48 89 c7             	mov    %rax,%rdi
  108987:	e8 36 5e 00 00       	callq  10e7c2 <_ZN6vectorIjEixEm>
  10898c:	8b 10                	mov    (%rax),%edx
  10898e:	48 8b 45 c8          	mov    -0x38(%rbp),%rax
  108992:	89 d6                	mov    %edx,%esi
  108994:	48 89 c7             	mov    %rax,%rdi
  108997:	e8 38 fd ff ff       	callq  1086d4 <_ZN11FAT32Driver16FreeClusterChainEj>
  10899c:	eb 43                	jmp    1089e1 <_ZN11FAT32Driver18ResizeClusterChainEjj+0xe9>
  10899e:	8b 45 c0             	mov    -0x40(%rbp),%eax
  1089a1:	2b 45 ec             	sub    -0x14(%rbp),%eax
  1089a4:	89 c2                	mov    %eax,%edx
  1089a6:	48 8b 45 c8          	mov    -0x38(%rbp),%rax
  1089aa:	89 d6                	mov    %edx,%esi
  1089ac:	48 89 c7             	mov    %rax,%rdi
  1089af:	e8 36 fc ff ff       	callq  1085ea <_ZN11FAT32Driver20AllocateClusterChainEj>
  1089b4:	89 45 e8             	mov    %eax,-0x18(%rbp)
  1089b7:	8b 45 ec             	mov    -0x14(%rbp),%eax
  1089ba:	83 e8 01             	sub    $0x1,%eax
  1089bd:	89 c2                	mov    %eax,%edx
  1089bf:	48 8d 45 d0          	lea    -0x30(%rbp),%rax
  1089c3:	48 89 d6             	mov    %rdx,%rsi
  1089c6:	48 89 c7             	mov    %rax,%rdi
  1089c9:	e8 f4 5d 00 00       	callq  10e7c2 <_ZN6vectorIjEixEm>
  1089ce:	8b 08                	mov    (%rax),%ecx
  1089d0:	8b 55 e8             	mov    -0x18(%rbp),%edx
  1089d3:	48 8b 45 c8          	mov    -0x38(%rbp),%rax
  1089d7:	89 ce                	mov    %ecx,%esi
  1089d9:	48 89 c7             	mov    %rax,%rdi
  1089dc:	e8 49 f9 ff ff       	callq  10832a <_ZN11FAT32Driver8WriteFATEjj>
  1089e1:	bb 01 00 00 00       	mov    $0x1,%ebx
  1089e6:	48 8d 45 d0          	lea    -0x30(%rbp),%rax
  1089ea:	48 89 c7             	mov    %rax,%rdi
  1089ed:	e8 7e 5c 00 00       	callq  10e670 <_ZN6vectorIjED1Ev>
  1089f2:	83 fb 01             	cmp    $0x1,%ebx
  1089f5:	48 83 c4 38          	add    $0x38,%rsp
  1089f9:	5b                   	pop    %rbx
  1089fa:	5d                   	pop    %rbp
  1089fb:	c3                   	retq   

00000000001089fc <_ZN11FAT32Driver23GetDirectoriesOnClusterEjR6vectorI8DirEntryE>:
  1089fc:	f3 0f 1e fa          	endbr64 
  108a00:	55                   	push   %rbp
  108a01:	48 89 e5             	mov    %rsp,%rbp
  108a04:	48 81 ec d0 00 00 00 	sub    $0xd0,%rsp
  108a0b:	48 89 bd 48 ff ff ff 	mov    %rdi,-0xb8(%rbp)
  108a12:	89 b5 44 ff ff ff    	mov    %esi,-0xbc(%rbp)
  108a18:	48 89 95 38 ff ff ff 	mov    %rdx,-0xc8(%rbp)
  108a1f:	83 bd 44 ff ff ff 01 	cmpl   $0x1,-0xbc(%rbp)
  108a26:	0f 86 5c 01 00 00    	jbe    108b88 <_ZN11FAT32Driver23GetDirectoriesOnClusterEjR6vectorI8DirEntryE+0x18c>
  108a2c:	48 8b 85 48 ff ff ff 	mov    -0xb8(%rbp),%rax
  108a33:	8b 40 40             	mov    0x40(%rax),%eax
  108a36:	39 85 44 ff ff ff    	cmp    %eax,-0xbc(%rbp)
  108a3c:	0f 87 46 01 00 00    	ja     108b88 <_ZN11FAT32Driver23GetDirectoriesOnClusterEjR6vectorI8DirEntryE+0x18c>
  108a42:	48 8b 85 48 ff ff ff 	mov    -0xb8(%rbp),%rax
  108a49:	48 8b 50 18          	mov    0x18(%rax),%rdx
  108a4d:	8b 8d 44 ff ff ff    	mov    -0xbc(%rbp),%ecx
  108a53:	48 8b 85 48 ff ff ff 	mov    -0xb8(%rbp),%rax
  108a5a:	89 ce                	mov    %ecx,%esi
  108a5c:	48 89 c7             	mov    %rax,%rdi
  108a5f:	e8 5e f9 ff ff       	callq  1083c2 <_ZN11FAT32Driver11ReadClusterEjPv>
  108a64:	48 8b 85 48 ff ff ff 	mov    -0xb8(%rbp),%rax
  108a6b:	48 8b 40 18          	mov    0x18(%rax),%rax
  108a6f:	48 89 45 f8          	mov    %rax,-0x8(%rbp)
  108a73:	c7 45 f4 00 00 00 00 	movl   $0x0,-0xc(%rbp)
  108a7a:	c6 45 f3 00          	movb   $0x0,-0xd(%rbp)
  108a7e:	48 8b 45 f8          	mov    -0x8(%rbp),%rax
  108a82:	0f b6 00             	movzbl (%rax),%eax
  108a85:	84 c0                	test   %al,%al
  108a87:	0f 84 fe 00 00 00    	je     108b8b <_ZN11FAT32Driver23GetDirectoriesOnClusterEjR6vectorI8DirEntryE+0x18f>
  108a8d:	48 8b 45 f8          	mov    -0x8(%rbp),%rax
  108a91:	0f b6 00             	movzbl (%rax),%eax
  108a94:	3c e5                	cmp    $0xe5,%al
  108a96:	74 17                	je     108aaf <_ZN11FAT32Driver23GetDirectoriesOnClusterEjR6vectorI8DirEntryE+0xb3>
  108a98:	48 8b 45 f8          	mov    -0x8(%rbp),%rax
  108a9c:	0f b6 40 0b          	movzbl 0xb(%rax),%eax
  108aa0:	0f b6 c0             	movzbl %al,%eax
  108aa3:	83 e0 0f             	and    $0xf,%eax
  108aa6:	83 f8 0f             	cmp    $0xf,%eax
  108aa9:	0f 85 81 00 00 00    	jne    108b30 <_ZN11FAT32Driver23GetDirectoriesOnClusterEjR6vectorI8DirEntryE+0x134>
  108aaf:	48 8b 45 f8          	mov    -0x8(%rbp),%rax
  108ab3:	0f b6 40 0b          	movzbl 0xb(%rax),%eax
  108ab7:	0f b6 c0             	movzbl %al,%eax
  108aba:	83 e0 0f             	and    $0xf,%eax
  108abd:	83 f8 0f             	cmp    $0xf,%eax
  108ac0:	0f 94 c0             	sete   %al
  108ac3:	88 45 f3             	mov    %al,-0xd(%rbp)
  108ac6:	8b 55 f4             	mov    -0xc(%rbp),%edx
  108ac9:	48 8b 85 48 ff ff ff 	mov    -0xb8(%rbp),%rax
  108ad0:	8b 40 30             	mov    0x30(%rax),%eax
  108ad3:	89 c0                	mov    %eax,%eax
  108ad5:	48 c1 e8 05          	shr    $0x5,%rax
  108ad9:	48 83 e8 01          	sub    $0x1,%rax
  108add:	48 39 c2             	cmp    %rax,%rdx
  108ae0:	73 0e                	jae    108af0 <_ZN11FAT32Driver23GetDirectoriesOnClusterEjR6vectorI8DirEntryE+0xf4>
  108ae2:	48 83 45 f8 20       	addq   $0x20,-0x8(%rbp)
  108ae7:	83 45 f4 01          	addl   $0x1,-0xc(%rbp)
  108aeb:	e9 93 00 00 00       	jmpq   108b83 <_ZN11FAT32Driver23GetDirectoriesOnClusterEjR6vectorI8DirEntryE+0x187>
  108af0:	8b 95 44 ff ff ff    	mov    -0xbc(%rbp),%edx
  108af6:	48 8b 85 48 ff ff ff 	mov    -0xb8(%rbp),%rax
  108afd:	89 d6                	mov    %edx,%esi
  108aff:	48 89 c7             	mov    %rax,%rdi
  108b02:	e8 db f7 ff ff       	callq  1082e2 <_ZN11FAT32Driver7ReadFATEj>
  108b07:	89 45 ec             	mov    %eax,-0x14(%rbp)
  108b0a:	81 7d ec f7 ff ff 0f 	cmpl   $0xffffff7,-0x14(%rbp)
  108b11:	77 7b                	ja     108b8e <_ZN11FAT32Driver23GetDirectoriesOnClusterEjR6vectorI8DirEntryE+0x192>
  108b13:	48 8b 95 38 ff ff ff 	mov    -0xc8(%rbp),%rdx
  108b1a:	8b 4d ec             	mov    -0x14(%rbp),%ecx
  108b1d:	48 8b 85 48 ff ff ff 	mov    -0xb8(%rbp),%rax
  108b24:	89 ce                	mov    %ecx,%esi
  108b26:	48 89 c7             	mov    %rax,%rdi
  108b29:	e8 ce fe ff ff       	callq  1089fc <_ZN11FAT32Driver23GetDirectoriesOnClusterEjR6vectorI8DirEntryE>
  108b2e:	eb 5f                	jmp    108b8f <_ZN11FAT32Driver23GetDirectoriesOnClusterEjR6vectorI8DirEntryE+0x193>
  108b30:	0f b6 4d f3          	movzbl -0xd(%rbp),%ecx
  108b34:	48 8d 85 50 ff ff ff 	lea    -0xb0(%rbp),%rax
  108b3b:	48 8b 55 f8          	mov    -0x8(%rbp),%rdx
  108b3f:	48 8b b5 48 ff ff ff 	mov    -0xb8(%rbp),%rsi
  108b46:	48 89 c7             	mov    %rax,%rdi
  108b49:	e8 3c 1c 00 00       	callq  10a78a <_ZN11FAT32Driver12FromFATEntryEP14DirectoryEntryb>
  108b4e:	8b 85 44 ff ff ff    	mov    -0xbc(%rbp),%eax
  108b54:	89 45 dc             	mov    %eax,-0x24(%rbp)
  108b57:	8b 45 f4             	mov    -0xc(%rbp),%eax
  108b5a:	89 45 e0             	mov    %eax,-0x20(%rbp)
  108b5d:	48 8d 95 50 ff ff ff 	lea    -0xb0(%rbp),%rdx
  108b64:	48 8b 85 38 ff ff ff 	mov    -0xc8(%rbp),%rax
  108b6b:	48 89 d6             	mov    %rdx,%rsi
  108b6e:	48 89 c7             	mov    %rax,%rdi
  108b71:	e8 86 5c 00 00       	callq  10e7fc <_ZN6vectorI8DirEntryE9push_backERKS0_>
  108b76:	c6 45 f3 00          	movb   $0x0,-0xd(%rbp)
  108b7a:	48 83 45 f8 20       	addq   $0x20,-0x8(%rbp)
  108b7f:	83 45 f4 01          	addl   $0x1,-0xc(%rbp)
  108b83:	e9 f6 fe ff ff       	jmpq   108a7e <_ZN11FAT32Driver23GetDirectoriesOnClusterEjR6vectorI8DirEntryE+0x82>
  108b88:	90                   	nop
  108b89:	eb 04                	jmp    108b8f <_ZN11FAT32Driver23GetDirectoriesOnClusterEjR6vectorI8DirEntryE+0x193>
  108b8b:	90                   	nop
  108b8c:	eb 01                	jmp    108b8f <_ZN11FAT32Driver23GetDirectoriesOnClusterEjR6vectorI8DirEntryE+0x193>
  108b8e:	90                   	nop
  108b8f:	c9                   	leaveq 
  108b90:	c3                   	retq   
  108b91:	90                   	nop

0000000000108b92 <_ZN11FAT32Driver14GetDirectoriesEjjb>:
  108b92:	f3 0f 1e fa          	endbr64 
  108b96:	55                   	push   %rbp
  108b97:	48 89 e5             	mov    %rsp,%rbp
  108b9a:	48 83 ec 40          	sub    $0x40,%rsp
  108b9e:	48 89 7d d8          	mov    %rdi,-0x28(%rbp)
  108ba2:	48 89 75 d0          	mov    %rsi,-0x30(%rbp)
  108ba6:	89 55 cc             	mov    %edx,-0x34(%rbp)
  108ba9:	89 4d c8             	mov    %ecx,-0x38(%rbp)
  108bac:	44 89 c0             	mov    %r8d,%eax
  108baf:	88 45 c4             	mov    %al,-0x3c(%rbp)
  108bb2:	48 8b 45 d8          	mov    -0x28(%rbp),%rax
  108bb6:	48 89 c7             	mov    %rax,%rdi
  108bb9:	e8 68 5d 00 00       	callq  10e926 <_ZN6vectorI8DirEntryEC1Ev>
  108bbe:	83 7d cc 01          	cmpl   $0x1,-0x34(%rbp)
  108bc2:	0f 86 19 01 00 00    	jbe    108ce1 <_ZN11FAT32Driver14GetDirectoriesEjjb+0x14f>
  108bc8:	48 8b 45 d0          	mov    -0x30(%rbp),%rax
  108bcc:	8b 40 40             	mov    0x40(%rax),%eax
  108bcf:	39 45 cc             	cmp    %eax,-0x34(%rbp)
  108bd2:	0f 87 09 01 00 00    	ja     108ce1 <_ZN11FAT32Driver14GetDirectoriesEjjb+0x14f>
  108bd8:	48 8d 45 e0          	lea    -0x20(%rbp),%rax
  108bdc:	48 89 c7             	mov    %rax,%rdi
  108bdf:	e8 42 5d 00 00       	callq  10e926 <_ZN6vectorI8DirEntryEC1Ev>
  108be4:	48 8d 55 e0          	lea    -0x20(%rbp),%rdx
  108be8:	8b 4d cc             	mov    -0x34(%rbp),%ecx
  108beb:	48 8b 45 d0          	mov    -0x30(%rbp),%rax
  108bef:	89 ce                	mov    %ecx,%esi
  108bf1:	48 89 c7             	mov    %rax,%rdi
  108bf4:	e8 03 fe ff ff       	callq  1089fc <_ZN11FAT32Driver23GetDirectoriesOnClusterEjR6vectorI8DirEntryE>
  108bf9:	48 c7 45 f8 00 00 00 	movq   $0x0,-0x8(%rbp)
  108c00:	00 
  108c01:	48 8d 45 e0          	lea    -0x20(%rbp),%rax
  108c05:	48 89 c7             	mov    %rax,%rdi
  108c08:	e8 bf 59 00 00       	callq  10e5cc <_ZNK6vectorI8DirEntryE4sizeEv>
  108c0d:	48 39 45 f8          	cmp    %rax,-0x8(%rbp)
  108c11:	0f 92 c0             	setb   %al
  108c14:	84 c0                	test   %al,%al
  108c16:	0f 84 b6 00 00 00    	je     108cd2 <_ZN11FAT32Driver14GetDirectoriesEjjb+0x140>
  108c1c:	0f b6 45 c4          	movzbl -0x3c(%rbp),%eax
  108c20:	83 f0 01             	xor    $0x1,%eax
  108c23:	84 c0                	test   %al,%al
  108c25:	74 50                	je     108c77 <_ZN11FAT32Driver14GetDirectoriesEjjb+0xe5>
  108c27:	48 8b 55 f8          	mov    -0x8(%rbp),%rdx
  108c2b:	48 8d 45 e0          	lea    -0x20(%rbp),%rax
  108c2f:	48 89 d6             	mov    %rdx,%rsi
  108c32:	48 89 c7             	mov    %rax,%rdi
  108c35:	e8 ac 59 00 00       	callq  10e5e6 <_ZN6vectorI8DirEntryEixEm>
  108c3a:	0f b6 80 88 00 00 00 	movzbl 0x88(%rax),%eax
  108c41:	0f b6 c0             	movzbl %al,%eax
  108c44:	23 45 c8             	and    -0x38(%rbp),%eax
  108c47:	85 c0                	test   %eax,%eax
  108c49:	0f 95 c0             	setne  %al
  108c4c:	84 c0                	test   %al,%al
  108c4e:	75 77                	jne    108cc7 <_ZN11FAT32Driver14GetDirectoriesEjjb+0x135>
  108c50:	48 8b 55 f8          	mov    -0x8(%rbp),%rdx
  108c54:	48 8d 45 e0          	lea    -0x20(%rbp),%rax
  108c58:	48 89 d6             	mov    %rdx,%rsi
  108c5b:	48 89 c7             	mov    %rax,%rdi
  108c5e:	e8 83 59 00 00       	callq  10e5e6 <_ZN6vectorI8DirEntryEixEm>
  108c63:	48 89 c2             	mov    %rax,%rdx
  108c66:	48 8b 45 d8          	mov    -0x28(%rbp),%rax
  108c6a:	48 89 d6             	mov    %rdx,%rsi
  108c6d:	48 89 c7             	mov    %rax,%rdi
  108c70:	e8 87 5b 00 00       	callq  10e7fc <_ZN6vectorI8DirEntryE9push_backERKS0_>
  108c75:	eb 51                	jmp    108cc8 <_ZN11FAT32Driver14GetDirectoriesEjjb+0x136>
  108c77:	48 8b 55 f8          	mov    -0x8(%rbp),%rdx
  108c7b:	48 8d 45 e0          	lea    -0x20(%rbp),%rax
  108c7f:	48 89 d6             	mov    %rdx,%rsi
  108c82:	48 89 c7             	mov    %rax,%rdi
  108c85:	e8 5c 59 00 00       	callq  10e5e6 <_ZN6vectorI8DirEntryEixEm>
  108c8a:	0f b6 80 88 00 00 00 	movzbl 0x88(%rax),%eax
  108c91:	0f b6 c0             	movzbl %al,%eax
  108c94:	23 45 c8             	and    -0x38(%rbp),%eax
  108c97:	85 c0                	test   %eax,%eax
  108c99:	0f 95 c0             	setne  %al
  108c9c:	84 c0                	test   %al,%al
  108c9e:	74 28                	je     108cc8 <_ZN11FAT32Driver14GetDirectoriesEjjb+0x136>
  108ca0:	48 8b 55 f8          	mov    -0x8(%rbp),%rdx
  108ca4:	48 8d 45 e0          	lea    -0x20(%rbp),%rax
  108ca8:	48 89 d6             	mov    %rdx,%rsi
  108cab:	48 89 c7             	mov    %rax,%rdi
  108cae:	e8 33 59 00 00       	callq  10e5e6 <_ZN6vectorI8DirEntryEixEm>
  108cb3:	48 89 c2             	mov    %rax,%rdx
  108cb6:	48 8b 45 d8          	mov    -0x28(%rbp),%rax
  108cba:	48 89 d6             	mov    %rdx,%rsi
  108cbd:	48 89 c7             	mov    %rax,%rdi
  108cc0:	e8 37 5b 00 00       	callq  10e7fc <_ZN6vectorI8DirEntryE9push_backERKS0_>
  108cc5:	eb 01                	jmp    108cc8 <_ZN11FAT32Driver14GetDirectoriesEjjb+0x136>
  108cc7:	90                   	nop
  108cc8:	48 83 45 f8 01       	addq   $0x1,-0x8(%rbp)
  108ccd:	e9 2f ff ff ff       	jmpq   108c01 <_ZN11FAT32Driver14GetDirectoriesEjjb+0x6f>
  108cd2:	90                   	nop
  108cd3:	48 8d 45 e0          	lea    -0x20(%rbp),%rax
  108cd7:	48 89 c7             	mov    %rax,%rdi
  108cda:	e8 bd 58 00 00       	callq  10e59c <_ZN6vectorI8DirEntryED1Ev>
  108cdf:	eb 01                	jmp    108ce2 <_ZN11FAT32Driver14GetDirectoriesEjjb+0x150>
  108ce1:	90                   	nop
  108ce2:	48 8b 45 d8          	mov    -0x28(%rbp),%rax
  108ce6:	c9                   	leaveq 
  108ce7:	c3                   	retq   

0000000000108ce8 <_ZN11FAT32Driver20ModifyDirectoryEntryEjPKc8DirEntry>:
  108ce8:	f3 0f 1e fa          	endbr64 
  108cec:	55                   	push   %rbp
  108ced:	48 89 e5             	mov    %rsp,%rbp
  108cf0:	53                   	push   %rbx
  108cf1:	48 83 ec 58          	sub    $0x58,%rsp
  108cf5:	48 89 7d b8          	mov    %rdi,-0x48(%rbp)
  108cf9:	89 75 b4             	mov    %esi,-0x4c(%rbp)
  108cfc:	48 89 55 a8          	mov    %rdx,-0x58(%rbp)
  108d00:	c6 45 ef 00          	movb   $0x0,-0x11(%rbp)
  108d04:	48 8b 55 a8          	mov    -0x58(%rbp),%rdx
  108d08:	48 8b 45 b8          	mov    -0x48(%rbp),%rax
  108d0c:	48 89 d6             	mov    %rdx,%rsi
  108d0f:	48 89 c7             	mov    %rax,%rdi
  108d12:	e8 e3 22 00 00       	callq  10affa <_ZN11FAT32Driver11IsFATFormatEPc>
  108d17:	85 c0                	test   %eax,%eax
  108d19:	0f 95 c0             	setne  %al
  108d1c:	84 c0                	test   %al,%al
  108d1e:	74 04                	je     108d24 <_ZN11FAT32Driver20ModifyDirectoryEntryEjPKc8DirEntry+0x3c>
  108d20:	c6 45 ef 01          	movb   $0x1,-0x11(%rbp)
  108d24:	48 8b 45 b8          	mov    -0x48(%rbp),%rax
  108d28:	48 8b 50 18          	mov    0x18(%rax),%rdx
  108d2c:	8b 4d b4             	mov    -0x4c(%rbp),%ecx
  108d2f:	48 8b 45 b8          	mov    -0x48(%rbp),%rax
  108d33:	89 ce                	mov    %ecx,%esi
  108d35:	48 89 c7             	mov    %rax,%rdi
  108d38:	e8 85 f6 ff ff       	callq  1083c2 <_ZN11FAT32Driver11ReadClusterEjPv>
  108d3d:	48 8b 45 b8          	mov    -0x48(%rbp),%rax
  108d41:	48 8b 40 18          	mov    0x18(%rax),%rax
  108d45:	48 89 45 e0          	mov    %rax,-0x20(%rbp)
  108d49:	c7 45 dc 00 00 00 00 	movl   $0x0,-0x24(%rbp)
  108d50:	c7 45 c0 00 00 00 00 	movl   $0x0,-0x40(%rbp)
  108d57:	48 8d 75 c0          	lea    -0x40(%rbp),%rsi
  108d5b:	48 8b 55 b8          	mov    -0x48(%rbp),%rdx
  108d5f:	48 83 ec 08          	sub    $0x8,%rsp
  108d63:	48 81 ec 98 00 00 00 	sub    $0x98,%rsp
  108d6a:	48 89 e0             	mov    %rsp,%rax
  108d6d:	48 8b 4d 10          	mov    0x10(%rbp),%rcx
  108d71:	48 8b 5d 18          	mov    0x18(%rbp),%rbx
  108d75:	48 89 08             	mov    %rcx,(%rax)
  108d78:	48 89 58 08          	mov    %rbx,0x8(%rax)
  108d7c:	48 8b 4d 20          	mov    0x20(%rbp),%rcx
  108d80:	48 8b 5d 28          	mov    0x28(%rbp),%rbx
  108d84:	48 89 48 10          	mov    %rcx,0x10(%rax)
  108d88:	48 89 58 18          	mov    %rbx,0x18(%rax)
  108d8c:	48 8b 4d 30          	mov    0x30(%rbp),%rcx
  108d90:	48 8b 5d 38          	mov    0x38(%rbp),%rbx
  108d94:	48 89 48 20          	mov    %rcx,0x20(%rax)
  108d98:	48 89 58 28          	mov    %rbx,0x28(%rax)
  108d9c:	48 8b 4d 40          	mov    0x40(%rbp),%rcx
  108da0:	48 8b 5d 48          	mov    0x48(%rbp),%rbx
  108da4:	48 89 48 30          	mov    %rcx,0x30(%rax)
  108da8:	48 89 58 38          	mov    %rbx,0x38(%rax)
  108dac:	48 8b 4d 50          	mov    0x50(%rbp),%rcx
  108db0:	48 8b 5d 58          	mov    0x58(%rbp),%rbx
  108db4:	48 89 48 40          	mov    %rcx,0x40(%rax)
  108db8:	48 89 58 48          	mov    %rbx,0x48(%rax)
  108dbc:	48 8b 4d 60          	mov    0x60(%rbp),%rcx
  108dc0:	48 8b 5d 68          	mov    0x68(%rbp),%rbx
  108dc4:	48 89 48 50          	mov    %rcx,0x50(%rax)
  108dc8:	48 89 58 58          	mov    %rbx,0x58(%rax)
  108dcc:	48 8b 4d 70          	mov    0x70(%rbp),%rcx
  108dd0:	48 8b 5d 78          	mov    0x78(%rbp),%rbx
  108dd4:	48 89 48 60          	mov    %rcx,0x60(%rax)
  108dd8:	48 89 58 68          	mov    %rbx,0x68(%rax)
  108ddc:	48 8b 8d 80 00 00 00 	mov    0x80(%rbp),%rcx
  108de3:	48 8b 9d 88 00 00 00 	mov    0x88(%rbp),%rbx
  108dea:	48 89 48 70          	mov    %rcx,0x70(%rax)
  108dee:	48 89 58 78          	mov    %rbx,0x78(%rax)
  108df2:	48 8b 8d 90 00 00 00 	mov    0x90(%rbp),%rcx
  108df9:	48 8b 9d 98 00 00 00 	mov    0x98(%rbp),%rbx
  108e00:	48 89 88 80 00 00 00 	mov    %rcx,0x80(%rax)
  108e07:	48 89 98 88 00 00 00 	mov    %rbx,0x88(%rax)
  108e0e:	8b 8d a0 00 00 00    	mov    0xa0(%rbp),%ecx
  108e14:	89 88 90 00 00 00    	mov    %ecx,0x90(%rax)
  108e1a:	48 89 d7             	mov    %rdx,%rdi
  108e1d:	e8 66 1b 00 00       	callq  10a988 <_ZN11FAT32Driver10ToFATEntryE8DirEntryRj>
  108e22:	48 81 c4 a0 00 00 00 	add    $0xa0,%rsp
  108e29:	48 89 45 d0          	mov    %rax,-0x30(%rbp)
  108e2d:	48 8b 45 e0          	mov    -0x20(%rbp),%rax
  108e31:	0f b6 00             	movzbl (%rax),%eax
  108e34:	84 c0                	test   %al,%al
  108e36:	0f 84 f4 01 00 00    	je     109030 <_ZN11FAT32Driver20ModifyDirectoryEntryEjPKc8DirEntry+0x348>
  108e3c:	48 8b 45 e0          	mov    -0x20(%rbp),%rax
  108e40:	0f b6 40 0b          	movzbl 0xb(%rax),%eax
  108e44:	0f b6 c0             	movzbl %al,%eax
  108e47:	83 e0 0f             	and    $0xf,%eax
  108e4a:	83 f8 0f             	cmp    $0xf,%eax
  108e4d:	74 1f                	je     108e6e <_ZN11FAT32Driver20ModifyDirectoryEntryEjPKc8DirEntry+0x186>
  108e4f:	0f b6 4d ef          	movzbl -0x11(%rbp),%ecx
  108e53:	48 8b 55 a8          	mov    -0x58(%rbp),%rdx
  108e57:	48 8b 75 e0          	mov    -0x20(%rbp),%rsi
  108e5b:	48 8b 45 b8          	mov    -0x48(%rbp),%rax
  108e5f:	48 89 c7             	mov    %rax,%rdi
  108e62:	e8 65 20 00 00       	callq  10aecc <_ZN11FAT32Driver7CompareEP14DirectoryEntryPKcb>
  108e67:	83 f0 01             	xor    $0x1,%eax
  108e6a:	84 c0                	test   %al,%al
  108e6c:	74 07                	je     108e75 <_ZN11FAT32Driver20ModifyDirectoryEntryEjPKc8DirEntry+0x18d>
  108e6e:	b8 01 00 00 00       	mov    $0x1,%eax
  108e73:	eb 05                	jmp    108e7a <_ZN11FAT32Driver20ModifyDirectoryEntryEjPKc8DirEntry+0x192>
  108e75:	b8 00 00 00 00       	mov    $0x0,%eax
  108e7a:	84 c0                	test   %al,%al
  108e7c:	0f 84 1c 01 00 00    	je     108f9e <_ZN11FAT32Driver20ModifyDirectoryEntryEjPKc8DirEntry+0x2b6>
  108e82:	8b 55 dc             	mov    -0x24(%rbp),%edx
  108e85:	48 8b 45 b8          	mov    -0x48(%rbp),%rax
  108e89:	8b 40 30             	mov    0x30(%rax),%eax
  108e8c:	89 c0                	mov    %eax,%eax
  108e8e:	48 c1 e8 05          	shr    $0x5,%rax
  108e92:	48 83 e8 01          	sub    $0x1,%rax
  108e96:	48 39 c2             	cmp    %rax,%rdx
  108e99:	73 0b                	jae    108ea6 <_ZN11FAT32Driver20ModifyDirectoryEntryEjPKc8DirEntry+0x1be>
  108e9b:	48 83 45 e0 20       	addq   $0x20,-0x20(%rbp)
  108ea0:	83 45 dc 01          	addl   $0x1,-0x24(%rbp)
  108ea4:	eb 87                	jmp    108e2d <_ZN11FAT32Driver20ModifyDirectoryEntryEjPKc8DirEntry+0x145>
  108ea6:	8b 55 b4             	mov    -0x4c(%rbp),%edx
  108ea9:	48 8b 45 b8          	mov    -0x48(%rbp),%rax
  108ead:	89 d6                	mov    %edx,%esi
  108eaf:	48 89 c7             	mov    %rax,%rdi
  108eb2:	e8 2b f4 ff ff       	callq  1082e2 <_ZN11FAT32Driver7ReadFATEj>
  108eb7:	89 45 c4             	mov    %eax,-0x3c(%rbp)
  108eba:	81 7d c4 f7 ff ff 0f 	cmpl   $0xffffff7,-0x3c(%rbp)
  108ec1:	0f 87 6c 01 00 00    	ja     109033 <_ZN11FAT32Driver20ModifyDirectoryEntryEjPKc8DirEntry+0x34b>
  108ec7:	48 8b 55 a8          	mov    -0x58(%rbp),%rdx
  108ecb:	8b 75 c4             	mov    -0x3c(%rbp),%esi
  108ece:	48 8b 7d b8          	mov    -0x48(%rbp),%rdi
  108ed2:	48 83 ec 08          	sub    $0x8,%rsp
  108ed6:	48 81 ec 98 00 00 00 	sub    $0x98,%rsp
  108edd:	48 89 e0             	mov    %rsp,%rax
  108ee0:	48 8b 4d 10          	mov    0x10(%rbp),%rcx
  108ee4:	48 8b 5d 18          	mov    0x18(%rbp),%rbx
  108ee8:	48 89 08             	mov    %rcx,(%rax)
  108eeb:	48 89 58 08          	mov    %rbx,0x8(%rax)
  108eef:	48 8b 4d 20          	mov    0x20(%rbp),%rcx
  108ef3:	48 8b 5d 28          	mov    0x28(%rbp),%rbx
  108ef7:	48 89 48 10          	mov    %rcx,0x10(%rax)
  108efb:	48 89 58 18          	mov    %rbx,0x18(%rax)
  108eff:	48 8b 4d 30          	mov    0x30(%rbp),%rcx
  108f03:	48 8b 5d 38          	mov    0x38(%rbp),%rbx
  108f07:	48 89 48 20          	mov    %rcx,0x20(%rax)
  108f0b:	48 89 58 28          	mov    %rbx,0x28(%rax)
  108f0f:	48 8b 4d 40          	mov    0x40(%rbp),%rcx
  108f13:	48 8b 5d 48          	mov    0x48(%rbp),%rbx
  108f17:	48 89 48 30          	mov    %rcx,0x30(%rax)
  108f1b:	48 89 58 38          	mov    %rbx,0x38(%rax)
  108f1f:	48 8b 4d 50          	mov    0x50(%rbp),%rcx
  108f23:	48 8b 5d 58          	mov    0x58(%rbp),%rbx
  108f27:	48 89 48 40          	mov    %rcx,0x40(%rax)
  108f2b:	48 89 58 48          	mov    %rbx,0x48(%rax)
  108f2f:	48 8b 4d 60          	mov    0x60(%rbp),%rcx
  108f33:	48 8b 5d 68          	mov    0x68(%rbp),%rbx
  108f37:	48 89 48 50          	mov    %rcx,0x50(%rax)
  108f3b:	48 89 58 58          	mov    %rbx,0x58(%rax)
  108f3f:	48 8b 4d 70          	mov    0x70(%rbp),%rcx
  108f43:	48 8b 5d 78          	mov    0x78(%rbp),%rbx
  108f47:	48 89 48 60          	mov    %rcx,0x60(%rax)
  108f4b:	48 89 58 68          	mov    %rbx,0x68(%rax)
  108f4f:	48 8b 8d 80 00 00 00 	mov    0x80(%rbp),%rcx
  108f56:	48 8b 9d 88 00 00 00 	mov    0x88(%rbp),%rbx
  108f5d:	48 89 48 70          	mov    %rcx,0x70(%rax)
  108f61:	48 89 58 78          	mov    %rbx,0x78(%rax)
  108f65:	48 8b 8d 90 00 00 00 	mov    0x90(%rbp),%rcx
  108f6c:	48 8b 9d 98 00 00 00 	mov    0x98(%rbp),%rbx
  108f73:	48 89 88 80 00 00 00 	mov    %rcx,0x80(%rax)
  108f7a:	48 89 98 88 00 00 00 	mov    %rbx,0x88(%rax)
  108f81:	8b 8d a0 00 00 00    	mov    0xa0(%rbp),%ecx
  108f87:	89 88 90 00 00 00    	mov    %ecx,0x90(%rax)
  108f8d:	e8 56 fd ff ff       	callq  108ce8 <_ZN11FAT32Driver20ModifyDirectoryEntryEjPKc8DirEntry>
  108f92:	48 81 c4 a0 00 00 00 	add    $0xa0,%rsp
  108f99:	e9 96 00 00 00       	jmpq   109034 <_ZN11FAT32Driver20ModifyDirectoryEntryEjPKc8DirEntry+0x34c>
  108f9e:	0f b6 85 98 00 00 00 	movzbl 0x98(%rbp),%eax
  108fa5:	84 c0                	test   %al,%al
  108fa7:	75 37                	jne    108fe0 <_ZN11FAT32Driver20ModifyDirectoryEntryEjPKc8DirEntry+0x2f8>
  108fa9:	c7 45 d8 00 00 00 00 	movl   $0x0,-0x28(%rbp)
  108fb0:	8b 45 c0             	mov    -0x40(%rbp),%eax
  108fb3:	83 c0 01             	add    $0x1,%eax
  108fb6:	39 45 d8             	cmp    %eax,-0x28(%rbp)
  108fb9:	73 5a                	jae    109015 <_ZN11FAT32Driver20ModifyDirectoryEntryEjPKc8DirEntry+0x32d>
  108fbb:	8b 45 d8             	mov    -0x28(%rbp),%eax
  108fbe:	48 c1 e0 05          	shl    $0x5,%rax
  108fc2:	48 f7 d8             	neg    %rax
  108fc5:	48 89 c2             	mov    %rax,%rdx
  108fc8:	48 8b 45 e0          	mov    -0x20(%rbp),%rax
  108fcc:	48 01 d0             	add    %rdx,%rax
  108fcf:	48 89 45 c8          	mov    %rax,-0x38(%rbp)
  108fd3:	48 8b 45 c8          	mov    -0x38(%rbp),%rax
  108fd7:	c6 00 e5             	movb   $0xe5,(%rax)
  108fda:	83 45 d8 01          	addl   $0x1,-0x28(%rbp)
  108fde:	eb d0                	jmp    108fb0 <_ZN11FAT32Driver20ModifyDirectoryEntryEjPKc8DirEntry+0x2c8>
  108fe0:	0f b6 95 98 00 00 00 	movzbl 0x98(%rbp),%edx
  108fe7:	48 8b 45 e0          	mov    -0x20(%rbp),%rax
  108feb:	88 50 0b             	mov    %dl,0xb(%rax)
  108fee:	8b 85 90 00 00 00    	mov    0x90(%rbp),%eax
  108ff4:	89 c2                	mov    %eax,%edx
  108ff6:	48 8b 45 e0          	mov    -0x20(%rbp),%rax
  108ffa:	66 89 50 1a          	mov    %dx,0x1a(%rax)
  108ffe:	48 8b 45 e0          	mov    -0x20(%rbp),%rax
  109002:	66 c7 40 14 00 00    	movw   $0x0,0x14(%rax)
  109008:	8b 95 94 00 00 00    	mov    0x94(%rbp),%edx
  10900e:	48 8b 45 e0          	mov    -0x20(%rbp),%rax
  109012:	89 50 1c             	mov    %edx,0x1c(%rax)
  109015:	48 8b 45 b8          	mov    -0x48(%rbp),%rax
  109019:	48 8b 50 18          	mov    0x18(%rax),%rdx
  10901d:	8b 4d b4             	mov    -0x4c(%rbp),%ecx
  109020:	48 8b 45 b8          	mov    -0x48(%rbp),%rax
  109024:	89 ce                	mov    %ecx,%esi
  109026:	48 89 c7             	mov    %rax,%rdi
  109029:	e8 3e f4 ff ff       	callq  10846c <_ZN11FAT32Driver12WriteClusterEjPv>
  10902e:	eb 04                	jmp    109034 <_ZN11FAT32Driver20ModifyDirectoryEntryEjPKc8DirEntry+0x34c>
  109030:	90                   	nop
  109031:	eb 01                	jmp    109034 <_ZN11FAT32Driver20ModifyDirectoryEntryEjPKc8DirEntry+0x34c>
  109033:	90                   	nop
  109034:	48 8b 5d f8          	mov    -0x8(%rbp),%rbx
  109038:	c9                   	leaveq 
  109039:	c3                   	retq   

000000000010903a <_ZN11FAT32Driver21PrepareAddedDirectoryEj>:
  10903a:	f3 0f 1e fa          	endbr64 
  10903e:	55                   	push   %rbp
  10903f:	48 89 e5             	mov    %rsp,%rbp
  109042:	48 83 ec 20          	sub    $0x20,%rsp
  109046:	48 89 7d e8          	mov    %rdi,-0x18(%rbp)
  10904a:	89 75 e4             	mov    %esi,-0x1c(%rbp)
  10904d:	83 7d e4 01          	cmpl   $0x1,-0x1c(%rbp)
  109051:	76 0c                	jbe    10905f <_ZN11FAT32Driver21PrepareAddedDirectoryEj+0x25>
  109053:	48 8b 45 e8          	mov    -0x18(%rbp),%rax
  109057:	8b 40 40             	mov    0x40(%rax),%eax
  10905a:	39 45 e4             	cmp    %eax,-0x1c(%rbp)
  10905d:	76 0a                	jbe    109069 <_ZN11FAT32Driver21PrepareAddedDirectoryEj+0x2f>
  10905f:	b8 ff ff ff ff       	mov    $0xffffffff,%eax
  109064:	e9 db 01 00 00       	jmpq   109244 <_ZN11FAT32Driver21PrepareAddedDirectoryEj+0x20a>
  109069:	48 8b 45 e8          	mov    -0x18(%rbp),%rax
  10906d:	8b 40 30             	mov    0x30(%rax),%eax
  109070:	89 c0                	mov    %eax,%eax
  109072:	48 89 c7             	mov    %rax,%rdi
  109075:	e8 f3 a9 ff ff       	callq  103a6d <_Znam>
  10907a:	48 89 45 f8          	mov    %rax,-0x8(%rbp)
  10907e:	48 8b 55 f8          	mov    -0x8(%rbp),%rdx
  109082:	8b 4d e4             	mov    -0x1c(%rbp),%ecx
  109085:	48 8b 45 e8          	mov    -0x18(%rbp),%rax
  109089:	89 ce                	mov    %ecx,%esi
  10908b:	48 89 c7             	mov    %rax,%rdi
  10908e:	e8 2f f3 ff ff       	callq  1083c2 <_ZN11FAT32Driver11ReadClusterEjPv>
  109093:	48 8b 45 f8          	mov    -0x8(%rbp),%rax
  109097:	48 89 45 f0          	mov    %rax,-0x10(%rbp)
  10909b:	48 8b 45 f0          	mov    -0x10(%rbp),%rax
  10909f:	ba 20 00 00 00       	mov    $0x20,%edx
  1090a4:	be 00 00 00 00       	mov    $0x0,%esi
  1090a9:	48 89 c7             	mov    %rax,%rdi
  1090ac:	e8 ba 3d 00 00       	callq  10ce6b <_Z6memsetPvim>
  1090b1:	48 8b 45 f0          	mov    -0x10(%rbp),%rax
  1090b5:	ba 0b 00 00 00       	mov    $0xb,%edx
  1090ba:	48 8d 35 a7 81 00 00 	lea    0x81a7(%rip),%rsi        # 111268 <_ZL8sc_ascii+0x1a8>
  1090c1:	48 89 c7             	mov    %rax,%rdi
  1090c4:	e8 60 3d 00 00       	callq  10ce29 <_Z6memcpyPvPKvm>
  1090c9:	48 8b 45 f0          	mov    -0x10(%rbp),%rax
  1090cd:	c6 40 0b 10          	movb   $0x10,0xb(%rax)
  1090d1:	8b 45 e4             	mov    -0x1c(%rbp),%eax
  1090d4:	89 c2                	mov    %eax,%edx
  1090d6:	48 8b 45 f0          	mov    -0x10(%rbp),%rax
  1090da:	66 89 50 1a          	mov    %dx,0x1a(%rax)
  1090de:	8b 45 e4             	mov    -0x1c(%rbp),%eax
  1090e1:	c1 e8 10             	shr    $0x10,%eax
  1090e4:	89 c2                	mov    %eax,%edx
  1090e6:	48 8b 45 f0          	mov    -0x10(%rbp),%rax
  1090ea:	66 89 50 14          	mov    %dx,0x14(%rax)
  1090ee:	48 8b 45 e8          	mov    -0x18(%rbp),%rax
  1090f2:	48 89 c7             	mov    %rax,%rdi
  1090f5:	e8 a8 1e 00 00       	callq  10afa2 <_ZNK11FAT32Driver7GetDateEv>
  1090fa:	48 8b 55 f0          	mov    -0x10(%rbp),%rdx
  1090fe:	66 89 42 10          	mov    %ax,0x10(%rdx)
  109102:	48 8b 45 e8          	mov    -0x18(%rbp),%rax
  109106:	48 89 c7             	mov    %rax,%rdi
  109109:	e8 46 1e 00 00       	callq  10af54 <_ZNK11FAT32Driver7GetTimeEv>
  10910e:	48 8b 55 f0          	mov    -0x10(%rbp),%rdx
  109112:	66 89 42 0e          	mov    %ax,0xe(%rdx)
  109116:	48 8b 45 e8          	mov    -0x18(%rbp),%rax
  10911a:	48 89 c7             	mov    %rax,%rdi
  10911d:	e8 1a 1e 00 00       	callq  10af3c <_ZNK11FAT32Driver15GetMillisecondsEv>
  109122:	48 8b 55 f0          	mov    -0x10(%rbp),%rdx
  109126:	88 42 0d             	mov    %al,0xd(%rdx)
  109129:	48 8b 45 e8          	mov    -0x18(%rbp),%rax
  10912d:	48 89 c7             	mov    %rax,%rdi
  109130:	e8 6d 1e 00 00       	callq  10afa2 <_ZNK11FAT32Driver7GetDateEv>
  109135:	48 8b 55 f0          	mov    -0x10(%rbp),%rdx
  109139:	66 89 42 12          	mov    %ax,0x12(%rdx)
  10913d:	48 8b 45 e8          	mov    -0x18(%rbp),%rax
  109141:	48 89 c7             	mov    %rax,%rdi
  109144:	e8 59 1e 00 00       	callq  10afa2 <_ZNK11FAT32Driver7GetDateEv>
  109149:	48 8b 55 f0          	mov    -0x10(%rbp),%rdx
  10914d:	66 89 42 18          	mov    %ax,0x18(%rdx)
  109151:	48 8b 45 e8          	mov    -0x18(%rbp),%rax
  109155:	48 89 c7             	mov    %rax,%rdi
  109158:	e8 f7 1d 00 00       	callq  10af54 <_ZNK11FAT32Driver7GetTimeEv>
  10915d:	48 8b 55 f0          	mov    -0x10(%rbp),%rdx
  109161:	66 89 42 16          	mov    %ax,0x16(%rdx)
  109165:	48 83 45 f0 20       	addq   $0x20,-0x10(%rbp)
  10916a:	48 8b 45 f0          	mov    -0x10(%rbp),%rax
  10916e:	ba 20 00 00 00       	mov    $0x20,%edx
  109173:	be 00 00 00 00       	mov    $0x0,%esi
  109178:	48 89 c7             	mov    %rax,%rdi
  10917b:	e8 eb 3c 00 00       	callq  10ce6b <_Z6memsetPvim>
  109180:	48 8b 45 f0          	mov    -0x10(%rbp),%rax
  109184:	ba 0b 00 00 00       	mov    $0xb,%edx
  109189:	48 8d 35 e4 80 00 00 	lea    0x80e4(%rip),%rsi        # 111274 <_ZL8sc_ascii+0x1b4>
  109190:	48 89 c7             	mov    %rax,%rdi
  109193:	e8 91 3c 00 00       	callq  10ce29 <_Z6memcpyPvPKvm>
  109198:	48 8b 45 f0          	mov    -0x10(%rbp),%rax
  10919c:	c6 40 0b 10          	movb   $0x10,0xb(%rax)
  1091a0:	48 8b 45 e8          	mov    -0x18(%rbp),%rax
  1091a4:	48 89 c7             	mov    %rax,%rdi
  1091a7:	e8 f6 1d 00 00       	callq  10afa2 <_ZNK11FAT32Driver7GetDateEv>
  1091ac:	48 8b 55 f0          	mov    -0x10(%rbp),%rdx
  1091b0:	66 89 42 10          	mov    %ax,0x10(%rdx)
  1091b4:	48 8b 45 e8          	mov    -0x18(%rbp),%rax
  1091b8:	48 89 c7             	mov    %rax,%rdi
  1091bb:	e8 94 1d 00 00       	callq  10af54 <_ZNK11FAT32Driver7GetTimeEv>
  1091c0:	48 8b 55 f0          	mov    -0x10(%rbp),%rdx
  1091c4:	66 89 42 0e          	mov    %ax,0xe(%rdx)
  1091c8:	48 8b 45 e8          	mov    -0x18(%rbp),%rax
  1091cc:	48 89 c7             	mov    %rax,%rdi
  1091cf:	e8 68 1d 00 00       	callq  10af3c <_ZNK11FAT32Driver15GetMillisecondsEv>
  1091d4:	48 8b 55 f0          	mov    -0x10(%rbp),%rdx
  1091d8:	88 42 0d             	mov    %al,0xd(%rdx)
  1091db:	48 8b 45 e8          	mov    -0x18(%rbp),%rax
  1091df:	48 89 c7             	mov    %rax,%rdi
  1091e2:	e8 bb 1d 00 00       	callq  10afa2 <_ZNK11FAT32Driver7GetDateEv>
  1091e7:	48 8b 55 f0          	mov    -0x10(%rbp),%rdx
  1091eb:	66 89 42 12          	mov    %ax,0x12(%rdx)
  1091ef:	48 8b 45 e8          	mov    -0x18(%rbp),%rax
  1091f3:	48 89 c7             	mov    %rax,%rdi
  1091f6:	e8 a7 1d 00 00       	callq  10afa2 <_ZNK11FAT32Driver7GetDateEv>
  1091fb:	48 8b 55 f0          	mov    -0x10(%rbp),%rdx
  1091ff:	66 89 42 18          	mov    %ax,0x18(%rdx)
  109203:	48 8b 45 e8          	mov    -0x18(%rbp),%rax
  109207:	48 89 c7             	mov    %rax,%rdi
  10920a:	e8 45 1d 00 00       	callq  10af54 <_ZNK11FAT32Driver7GetTimeEv>
  10920f:	48 8b 55 f0          	mov    -0x10(%rbp),%rdx
  109213:	66 89 42 16          	mov    %ax,0x16(%rdx)
  109217:	48 8b 55 f8          	mov    -0x8(%rbp),%rdx
  10921b:	8b 4d e4             	mov    -0x1c(%rbp),%ecx
  10921e:	48 8b 45 e8          	mov    -0x18(%rbp),%rax
  109222:	89 ce                	mov    %ecx,%esi
  109224:	48 89 c7             	mov    %rax,%rdi
  109227:	e8 40 f2 ff ff       	callq  10846c <_ZN11FAT32Driver12WriteClusterEjPv>
  10922c:	48 83 7d f8 00       	cmpq   $0x0,-0x8(%rbp)
  109231:	74 0c                	je     10923f <_ZN11FAT32Driver21PrepareAddedDirectoryEj+0x205>
  109233:	48 8b 45 f8          	mov    -0x8(%rbp),%rax
  109237:	48 89 c7             	mov    %rax,%rdi
  10923a:	e8 6b a8 ff ff       	callq  103aaa <_ZdaPv>
  10923f:	b8 00 00 00 00       	mov    $0x0,%eax
  109244:	c9                   	leaveq 
  109245:	c3                   	retq   

0000000000109246 <_ZN11FAT32Driver14CleanFileEntryEj8DirEntry>:
  109246:	f3 0f 1e fa          	endbr64 
  10924a:	55                   	push   %rbp
  10924b:	48 89 e5             	mov    %rsp,%rbp
  10924e:	53                   	push   %rbx
  10924f:	48 83 ec 18          	sub    $0x18,%rsp
  109253:	48 89 7d e8          	mov    %rdi,-0x18(%rbp)
  109257:	89 75 e4             	mov    %esi,-0x1c(%rbp)
  10925a:	c6 85 98 00 00 00 00 	movb   $0x0,0x98(%rbp)
  109261:	8b 75 e4             	mov    -0x1c(%rbp),%esi
  109264:	48 8b 7d e8          	mov    -0x18(%rbp),%rdi
  109268:	48 83 ec 08          	sub    $0x8,%rsp
  10926c:	48 81 ec 98 00 00 00 	sub    $0x98,%rsp
  109273:	48 89 e0             	mov    %rsp,%rax
  109276:	48 8b 4d 10          	mov    0x10(%rbp),%rcx
  10927a:	48 8b 5d 18          	mov    0x18(%rbp),%rbx
  10927e:	48 89 08             	mov    %rcx,(%rax)
  109281:	48 89 58 08          	mov    %rbx,0x8(%rax)
  109285:	48 8b 4d 20          	mov    0x20(%rbp),%rcx
  109289:	48 8b 5d 28          	mov    0x28(%rbp),%rbx
  10928d:	48 89 48 10          	mov    %rcx,0x10(%rax)
  109291:	48 89 58 18          	mov    %rbx,0x18(%rax)
  109295:	48 8b 4d 30          	mov    0x30(%rbp),%rcx
  109299:	48 8b 5d 38          	mov    0x38(%rbp),%rbx
  10929d:	48 89 48 20          	mov    %rcx,0x20(%rax)
  1092a1:	48 89 58 28          	mov    %rbx,0x28(%rax)
  1092a5:	48 8b 4d 40          	mov    0x40(%rbp),%rcx
  1092a9:	48 8b 5d 48          	mov    0x48(%rbp),%rbx
  1092ad:	48 89 48 30          	mov    %rcx,0x30(%rax)
  1092b1:	48 89 58 38          	mov    %rbx,0x38(%rax)
  1092b5:	48 8b 4d 50          	mov    0x50(%rbp),%rcx
  1092b9:	48 8b 5d 58          	mov    0x58(%rbp),%rbx
  1092bd:	48 89 48 40          	mov    %rcx,0x40(%rax)
  1092c1:	48 89 58 48          	mov    %rbx,0x48(%rax)
  1092c5:	48 8b 4d 60          	mov    0x60(%rbp),%rcx
  1092c9:	48 8b 5d 68          	mov    0x68(%rbp),%rbx
  1092cd:	48 89 48 50          	mov    %rcx,0x50(%rax)
  1092d1:	48 89 58 58          	mov    %rbx,0x58(%rax)
  1092d5:	48 8b 4d 70          	mov    0x70(%rbp),%rcx
  1092d9:	48 8b 5d 78          	mov    0x78(%rbp),%rbx
  1092dd:	48 89 48 60          	mov    %rcx,0x60(%rax)
  1092e1:	48 89 58 68          	mov    %rbx,0x68(%rax)
  1092e5:	48 8b 8d 80 00 00 00 	mov    0x80(%rbp),%rcx
  1092ec:	48 8b 9d 88 00 00 00 	mov    0x88(%rbp),%rbx
  1092f3:	48 89 48 70          	mov    %rcx,0x70(%rax)
  1092f7:	48 89 58 78          	mov    %rbx,0x78(%rax)
  1092fb:	48 8b 8d 90 00 00 00 	mov    0x90(%rbp),%rcx
  109302:	48 8b 9d 98 00 00 00 	mov    0x98(%rbp),%rbx
  109309:	48 89 88 80 00 00 00 	mov    %rcx,0x80(%rax)
  109310:	48 89 98 88 00 00 00 	mov    %rbx,0x88(%rax)
  109317:	8b 95 a0 00 00 00    	mov    0xa0(%rbp),%edx
  10931d:	89 90 90 00 00 00    	mov    %edx,0x90(%rax)
  109323:	48 8d 55 10          	lea    0x10(%rbp),%rdx
  109327:	e8 bc f9 ff ff       	callq  108ce8 <_ZN11FAT32Driver20ModifyDirectoryEntryEjPKc8DirEntry>
  10932c:	48 81 c4 a0 00 00 00 	add    $0xa0,%rsp
  109333:	90                   	nop
  109334:	48 8b 5d f8          	mov    -0x8(%rbp),%rbx
  109338:	c9                   	leaveq 
  109339:	c3                   	retq   

000000000010933a <_ZN11FAT32Driver15DirectorySearchEPKcjP8DirEntry>:
  10933a:	f3 0f 1e fa          	endbr64 
  10933e:	55                   	push   %rbp
  10933f:	48 89 e5             	mov    %rsp,%rbp
  109342:	53                   	push   %rbx
  109343:	48 83 ec 48          	sub    $0x48,%rsp
  109347:	48 89 7d c8          	mov    %rdi,-0x38(%rbp)
  10934b:	48 89 75 c0          	mov    %rsi,-0x40(%rbp)
  10934f:	89 55 bc             	mov    %edx,-0x44(%rbp)
  109352:	48 89 4d b0          	mov    %rcx,-0x50(%rbp)
  109356:	83 7d bc 01          	cmpl   $0x1,-0x44(%rbp)
  10935a:	76 0c                	jbe    109368 <_ZN11FAT32Driver15DirectorySearchEPKcjP8DirEntry+0x2e>
  10935c:	48 8b 45 c8          	mov    -0x38(%rbp),%rax
  109360:	8b 40 40             	mov    0x40(%rax),%eax
  109363:	39 45 bc             	cmp    %eax,-0x44(%rbp)
  109366:	76 0a                	jbe    109372 <_ZN11FAT32Driver15DirectorySearchEPKcjP8DirEntry+0x38>
  109368:	bb ff ff ff ff       	mov    $0xffffffff,%ebx
  10936d:	e9 60 01 00 00       	jmpq   1094d2 <_ZN11FAT32Driver15DirectorySearchEPKcjP8DirEntry+0x198>
  109372:	48 8d 45 d0          	lea    -0x30(%rbp),%rax
  109376:	48 89 c7             	mov    %rax,%rdi
  109379:	e8 a8 55 00 00       	callq  10e926 <_ZN6vectorI8DirEntryEC1Ev>
  10937e:	48 8d 55 d0          	lea    -0x30(%rbp),%rdx
  109382:	8b 4d bc             	mov    -0x44(%rbp),%ecx
  109385:	48 8b 45 c8          	mov    -0x38(%rbp),%rax
  109389:	89 ce                	mov    %ecx,%esi
  10938b:	48 89 c7             	mov    %rax,%rdi
  10938e:	e8 69 f6 ff ff       	callq  1089fc <_ZN11FAT32Driver23GetDirectoriesOnClusterEjR6vectorI8DirEntryE>
  109393:	48 c7 45 e8 00 00 00 	movq   $0x0,-0x18(%rbp)
  10939a:	00 
  10939b:	48 8d 45 d0          	lea    -0x30(%rbp),%rax
  10939f:	48 89 c7             	mov    %rax,%rdi
  1093a2:	e8 25 52 00 00       	callq  10e5cc <_ZNK6vectorI8DirEntryE4sizeEv>
  1093a7:	48 39 45 e8          	cmp    %rax,-0x18(%rbp)
  1093ab:	0f 92 c0             	setb   %al
  1093ae:	84 c0                	test   %al,%al
  1093b0:	0f 84 0b 01 00 00    	je     1094c1 <_ZN11FAT32Driver15DirectorySearchEPKcjP8DirEntry+0x187>
  1093b6:	48 8b 55 e8          	mov    -0x18(%rbp),%rdx
  1093ba:	48 8d 45 d0          	lea    -0x30(%rbp),%rax
  1093be:	48 89 d6             	mov    %rdx,%rsi
  1093c1:	48 89 c7             	mov    %rax,%rdi
  1093c4:	e8 1d 52 00 00       	callq  10e5e6 <_ZN6vectorI8DirEntryEixEm>
  1093c9:	48 89 c2             	mov    %rax,%rdx
  1093cc:	48 8b 45 c0          	mov    -0x40(%rbp),%rax
  1093d0:	48 89 c6             	mov    %rax,%rsi
  1093d3:	48 89 d7             	mov    %rdx,%rdi
  1093d6:	e8 af 32 00 00       	callq  10c68a <_Z6strcmpPcS_>
  1093db:	85 c0                	test   %eax,%eax
  1093dd:	0f 94 c0             	sete   %al
  1093e0:	84 c0                	test   %al,%al
  1093e2:	0f 84 cf 00 00 00    	je     1094b7 <_ZN11FAT32Driver15DirectorySearchEPKcjP8DirEntry+0x17d>
  1093e8:	48 83 7d b0 00       	cmpq   $0x0,-0x50(%rbp)
  1093ed:	0f 84 bd 00 00 00    	je     1094b0 <_ZN11FAT32Driver15DirectorySearchEPKcjP8DirEntry+0x176>
  1093f3:	48 8b 55 e8          	mov    -0x18(%rbp),%rdx
  1093f7:	48 8d 45 d0          	lea    -0x30(%rbp),%rax
  1093fb:	48 89 d6             	mov    %rdx,%rsi
  1093fe:	48 89 c7             	mov    %rax,%rdi
  109401:	e8 e0 51 00 00       	callq  10e5e6 <_ZN6vectorI8DirEntryEixEm>
  109406:	48 8b 55 b0          	mov    -0x50(%rbp),%rdx
  10940a:	48 8b 08             	mov    (%rax),%rcx
  10940d:	48 8b 58 08          	mov    0x8(%rax),%rbx
  109411:	48 89 0a             	mov    %rcx,(%rdx)
  109414:	48 89 5a 08          	mov    %rbx,0x8(%rdx)
  109418:	48 8b 48 10          	mov    0x10(%rax),%rcx
  10941c:	48 8b 58 18          	mov    0x18(%rax),%rbx
  109420:	48 89 4a 10          	mov    %rcx,0x10(%rdx)
  109424:	48 89 5a 18          	mov    %rbx,0x18(%rdx)
  109428:	48 8b 48 20          	mov    0x20(%rax),%rcx
  10942c:	48 8b 58 28          	mov    0x28(%rax),%rbx
  109430:	48 89 4a 20          	mov    %rcx,0x20(%rdx)
  109434:	48 89 5a 28          	mov    %rbx,0x28(%rdx)
  109438:	48 8b 48 30          	mov    0x30(%rax),%rcx
  10943c:	48 8b 58 38          	mov    0x38(%rax),%rbx
  109440:	48 89 4a 30          	mov    %rcx,0x30(%rdx)
  109444:	48 89 5a 38          	mov    %rbx,0x38(%rdx)
  109448:	48 8b 48 40          	mov    0x40(%rax),%rcx
  10944c:	48 8b 58 48          	mov    0x48(%rax),%rbx
  109450:	48 89 4a 40          	mov    %rcx,0x40(%rdx)
  109454:	48 89 5a 48          	mov    %rbx,0x48(%rdx)
  109458:	48 8b 48 50          	mov    0x50(%rax),%rcx
  10945c:	48 8b 58 58          	mov    0x58(%rax),%rbx
  109460:	48 89 4a 50          	mov    %rcx,0x50(%rdx)
  109464:	48 89 5a 58          	mov    %rbx,0x58(%rdx)
  109468:	48 8b 48 60          	mov    0x60(%rax),%rcx
  10946c:	48 8b 58 68          	mov    0x68(%rax),%rbx
  109470:	48 89 4a 60          	mov    %rcx,0x60(%rdx)
  109474:	48 89 5a 68          	mov    %rbx,0x68(%rdx)
  109478:	48 8b 48 70          	mov    0x70(%rax),%rcx
  10947c:	48 8b 58 78          	mov    0x78(%rax),%rbx
  109480:	48 89 4a 70          	mov    %rcx,0x70(%rdx)
  109484:	48 89 5a 78          	mov    %rbx,0x78(%rdx)
  109488:	48 8b 88 80 00 00 00 	mov    0x80(%rax),%rcx
  10948f:	48 8b 98 88 00 00 00 	mov    0x88(%rax),%rbx
  109496:	48 89 8a 80 00 00 00 	mov    %rcx,0x80(%rdx)
  10949d:	48 89 9a 88 00 00 00 	mov    %rbx,0x88(%rdx)
  1094a4:	8b 80 90 00 00 00    	mov    0x90(%rax),%eax
  1094aa:	89 82 90 00 00 00    	mov    %eax,0x90(%rdx)
  1094b0:	bb 00 00 00 00       	mov    $0x0,%ebx
  1094b5:	eb 0f                	jmp    1094c6 <_ZN11FAT32Driver15DirectorySearchEPKcjP8DirEntry+0x18c>
  1094b7:	48 83 45 e8 01       	addq   $0x1,-0x18(%rbp)
  1094bc:	e9 da fe ff ff       	jmpq   10939b <_ZN11FAT32Driver15DirectorySearchEPKcjP8DirEntry+0x61>
  1094c1:	bb fe ff ff ff       	mov    $0xfffffffe,%ebx
  1094c6:	48 8d 45 d0          	lea    -0x30(%rbp),%rax
  1094ca:	48 89 c7             	mov    %rax,%rdi
  1094cd:	e8 ca 50 00 00       	callq  10e59c <_ZN6vectorI8DirEntryED1Ev>
  1094d2:	89 d8                	mov    %ebx,%eax
  1094d4:	48 83 c4 48          	add    $0x48,%rsp
  1094d8:	5b                   	pop    %rbx
  1094d9:	5d                   	pop    %rbp
  1094da:	c3                   	retq   
  1094db:	90                   	nop

00000000001094dc <_ZN11FAT32Driver12DirectoryAddEj8DirEntry>:
  1094dc:	f3 0f 1e fa          	endbr64 
  1094e0:	55                   	push   %rbp
  1094e1:	48 89 e5             	mov    %rsp,%rbp
  1094e4:	53                   	push   %rbx
  1094e5:	48 83 ec 58          	sub    $0x58,%rsp
  1094e9:	48 89 7d a8          	mov    %rdi,-0x58(%rbp)
  1094ed:	89 75 a4             	mov    %esi,-0x5c(%rbp)
  1094f0:	83 7d a4 01          	cmpl   $0x1,-0x5c(%rbp)
  1094f4:	76 0c                	jbe    109502 <_ZN11FAT32Driver12DirectoryAddEj8DirEntry+0x26>
  1094f6:	48 8b 45 a8          	mov    -0x58(%rbp),%rax
  1094fa:	8b 40 40             	mov    0x40(%rax),%eax
  1094fd:	39 45 a4             	cmp    %eax,-0x5c(%rbp)
  109500:	76 0a                	jbe    10950c <_ZN11FAT32Driver12DirectoryAddEj8DirEntry+0x30>
  109502:	b8 ff ff ff ff       	mov    $0xffffffff,%eax
  109507:	e9 d6 05 00 00       	jmpq   109ae2 <_ZN11FAT32Driver12DirectoryAddEj8DirEntry+0x606>
  10950c:	c6 45 d3 00          	movb   $0x0,-0x2d(%rbp)
  109510:	48 8b 45 a8          	mov    -0x58(%rbp),%rax
  109514:	48 8d 75 10          	lea    0x10(%rbp),%rsi
  109518:	48 89 c7             	mov    %rax,%rdi
  10951b:	e8 da 1a 00 00       	callq  10affa <_ZN11FAT32Driver11IsFATFormatEPc>
  109520:	85 c0                	test   %eax,%eax
  109522:	0f 95 c0             	setne  %al
  109525:	84 c0                	test   %al,%al
  109527:	74 04                	je     10952d <_ZN11FAT32Driver12DirectoryAddEj8DirEntry+0x51>
  109529:	c6 45 d3 01          	movb   $0x1,-0x2d(%rbp)
  10952d:	48 8b 45 a8          	mov    -0x58(%rbp),%rax
  109531:	48 8b 50 18          	mov    0x18(%rax),%rdx
  109535:	8b 4d a4             	mov    -0x5c(%rbp),%ecx
  109538:	48 8b 45 a8          	mov    -0x58(%rbp),%rax
  10953c:	89 ce                	mov    %ecx,%esi
  10953e:	48 89 c7             	mov    %rax,%rdi
  109541:	e8 7c ee ff ff       	callq  1083c2 <_ZN11FAT32Driver11ReadClusterEjPv>
  109546:	48 8b 45 a8          	mov    -0x58(%rbp),%rax
  10954a:	48 8b 40 18          	mov    0x18(%rax),%rax
  10954e:	48 89 45 e8          	mov    %rax,-0x18(%rbp)
  109552:	c7 45 e4 00 00 00 00 	movl   $0x0,-0x1c(%rbp)
  109559:	48 8d 75 b4          	lea    -0x4c(%rbp),%rsi
  10955d:	48 8b 55 a8          	mov    -0x58(%rbp),%rdx
  109561:	48 83 ec 08          	sub    $0x8,%rsp
  109565:	48 81 ec 98 00 00 00 	sub    $0x98,%rsp
  10956c:	48 89 e0             	mov    %rsp,%rax
  10956f:	48 8b 4d 10          	mov    0x10(%rbp),%rcx
  109573:	48 8b 5d 18          	mov    0x18(%rbp),%rbx
  109577:	48 89 08             	mov    %rcx,(%rax)
  10957a:	48 89 58 08          	mov    %rbx,0x8(%rax)
  10957e:	48 8b 4d 20          	mov    0x20(%rbp),%rcx
  109582:	48 8b 5d 28          	mov    0x28(%rbp),%rbx
  109586:	48 89 48 10          	mov    %rcx,0x10(%rax)
  10958a:	48 89 58 18          	mov    %rbx,0x18(%rax)
  10958e:	48 8b 4d 30          	mov    0x30(%rbp),%rcx
  109592:	48 8b 5d 38          	mov    0x38(%rbp),%rbx
  109596:	48 89 48 20          	mov    %rcx,0x20(%rax)
  10959a:	48 89 58 28          	mov    %rbx,0x28(%rax)
  10959e:	48 8b 4d 40          	mov    0x40(%rbp),%rcx
  1095a2:	48 8b 5d 48          	mov    0x48(%rbp),%rbx
  1095a6:	48 89 48 30          	mov    %rcx,0x30(%rax)
  1095aa:	48 89 58 38          	mov    %rbx,0x38(%rax)
  1095ae:	48 8b 4d 50          	mov    0x50(%rbp),%rcx
  1095b2:	48 8b 5d 58          	mov    0x58(%rbp),%rbx
  1095b6:	48 89 48 40          	mov    %rcx,0x40(%rax)
  1095ba:	48 89 58 48          	mov    %rbx,0x48(%rax)
  1095be:	48 8b 4d 60          	mov    0x60(%rbp),%rcx
  1095c2:	48 8b 5d 68          	mov    0x68(%rbp),%rbx
  1095c6:	48 89 48 50          	mov    %rcx,0x50(%rax)
  1095ca:	48 89 58 58          	mov    %rbx,0x58(%rax)
  1095ce:	48 8b 4d 70          	mov    0x70(%rbp),%rcx
  1095d2:	48 8b 5d 78          	mov    0x78(%rbp),%rbx
  1095d6:	48 89 48 60          	mov    %rcx,0x60(%rax)
  1095da:	48 89 58 68          	mov    %rbx,0x68(%rax)
  1095de:	48 8b 8d 80 00 00 00 	mov    0x80(%rbp),%rcx
  1095e5:	48 8b 9d 88 00 00 00 	mov    0x88(%rbp),%rbx
  1095ec:	48 89 48 70          	mov    %rcx,0x70(%rax)
  1095f0:	48 89 58 78          	mov    %rbx,0x78(%rax)
  1095f4:	48 8b 8d 90 00 00 00 	mov    0x90(%rbp),%rcx
  1095fb:	48 8b 9d 98 00 00 00 	mov    0x98(%rbp),%rbx
  109602:	48 89 88 80 00 00 00 	mov    %rcx,0x80(%rax)
  109609:	48 89 98 88 00 00 00 	mov    %rbx,0x88(%rax)
  109610:	8b 8d a0 00 00 00    	mov    0xa0(%rbp),%ecx
  109616:	89 88 90 00 00 00    	mov    %ecx,0x90(%rax)
  10961c:	48 89 d7             	mov    %rdx,%rdi
  10961f:	e8 64 13 00 00       	callq  10a988 <_ZN11FAT32Driver10ToFATEntryE8DirEntryRj>
  109624:	48 81 c4 a0 00 00 00 	add    $0xa0,%rsp
  10962b:	48 89 45 c8          	mov    %rax,-0x38(%rbp)
  10962f:	c7 45 e0 00 00 00 00 	movl   $0x0,-0x20(%rbp)
  109636:	48 8b 45 e8          	mov    -0x18(%rbp),%rax
  10963a:	0f b6 00             	movzbl (%rax),%eax
  10963d:	3c e5                	cmp    $0xe5,%al
  10963f:	0f 84 64 01 00 00    	je     1097a9 <_ZN11FAT32Driver12DirectoryAddEj8DirEntry+0x2cd>
  109645:	48 8b 45 e8          	mov    -0x18(%rbp),%rax
  109649:	0f b6 00             	movzbl (%rax),%eax
  10964c:	84 c0                	test   %al,%al
  10964e:	0f 84 55 01 00 00    	je     1097a9 <_ZN11FAT32Driver12DirectoryAddEj8DirEntry+0x2cd>
  109654:	8b 55 e4             	mov    -0x1c(%rbp),%edx
  109657:	48 8b 45 a8          	mov    -0x58(%rbp),%rax
  10965b:	8b 40 30             	mov    0x30(%rax),%eax
  10965e:	89 c0                	mov    %eax,%eax
  109660:	48 c1 e8 05          	shr    $0x5,%rax
  109664:	48 83 e8 01          	sub    $0x1,%rax
  109668:	48 39 c2             	cmp    %rax,%rdx
  10966b:	73 0e                	jae    10967b <_ZN11FAT32Driver12DirectoryAddEj8DirEntry+0x19f>
  10966d:	48 83 45 e8 20       	addq   $0x20,-0x18(%rbp)
  109672:	83 45 e4 01          	addl   $0x1,-0x1c(%rbp)
  109676:	e9 62 04 00 00       	jmpq   109add <_ZN11FAT32Driver12DirectoryAddEj8DirEntry+0x601>
  10967b:	8b 55 a4             	mov    -0x5c(%rbp),%edx
  10967e:	48 8b 45 a8          	mov    -0x58(%rbp),%rax
  109682:	89 d6                	mov    %edx,%esi
  109684:	48 89 c7             	mov    %rax,%rdi
  109687:	e8 56 ec ff ff       	callq  1082e2 <_ZN11FAT32Driver7ReadFATEj>
  10968c:	89 45 dc             	mov    %eax,-0x24(%rbp)
  10968f:	81 7d dc f7 ff ff 0f 	cmpl   $0xffffff7,-0x24(%rbp)
  109696:	76 3b                	jbe    1096d3 <_ZN11FAT32Driver12DirectoryAddEj8DirEntry+0x1f7>
  109698:	48 8b 45 a8          	mov    -0x58(%rbp),%rax
  10969c:	be 01 00 00 00       	mov    $0x1,%esi
  1096a1:	48 89 c7             	mov    %rax,%rdi
  1096a4:	e8 41 ef ff ff       	callq  1085ea <_ZN11FAT32Driver20AllocateClusterChainEj>
  1096a9:	89 45 dc             	mov    %eax,-0x24(%rbp)
  1096ac:	81 7d dc f7 ff ff 0f 	cmpl   $0xffffff7,-0x24(%rbp)
  1096b3:	75 0a                	jne    1096bf <_ZN11FAT32Driver12DirectoryAddEj8DirEntry+0x1e3>
  1096b5:	b8 ff ff ff ff       	mov    $0xffffffff,%eax
  1096ba:	e9 23 04 00 00       	jmpq   109ae2 <_ZN11FAT32Driver12DirectoryAddEj8DirEntry+0x606>
  1096bf:	8b 55 dc             	mov    -0x24(%rbp),%edx
  1096c2:	8b 4d a4             	mov    -0x5c(%rbp),%ecx
  1096c5:	48 8b 45 a8          	mov    -0x58(%rbp),%rax
  1096c9:	89 ce                	mov    %ecx,%esi
  1096cb:	48 89 c7             	mov    %rax,%rdi
  1096ce:	e8 57 ec ff ff       	callq  10832a <_ZN11FAT32Driver8WriteFATEjj>
  1096d3:	8b 75 dc             	mov    -0x24(%rbp),%esi
  1096d6:	48 8b 55 a8          	mov    -0x58(%rbp),%rdx
  1096da:	48 83 ec 08          	sub    $0x8,%rsp
  1096de:	48 81 ec 98 00 00 00 	sub    $0x98,%rsp
  1096e5:	48 89 e0             	mov    %rsp,%rax
  1096e8:	48 8b 4d 10          	mov    0x10(%rbp),%rcx
  1096ec:	48 8b 5d 18          	mov    0x18(%rbp),%rbx
  1096f0:	48 89 08             	mov    %rcx,(%rax)
  1096f3:	48 89 58 08          	mov    %rbx,0x8(%rax)
  1096f7:	48 8b 4d 20          	mov    0x20(%rbp),%rcx
  1096fb:	48 8b 5d 28          	mov    0x28(%rbp),%rbx
  1096ff:	48 89 48 10          	mov    %rcx,0x10(%rax)
  109703:	48 89 58 18          	mov    %rbx,0x18(%rax)
  109707:	48 8b 4d 30          	mov    0x30(%rbp),%rcx
  10970b:	48 8b 5d 38          	mov    0x38(%rbp),%rbx
  10970f:	48 89 48 20          	mov    %rcx,0x20(%rax)
  109713:	48 89 58 28          	mov    %rbx,0x28(%rax)
  109717:	48 8b 4d 40          	mov    0x40(%rbp),%rcx
  10971b:	48 8b 5d 48          	mov    0x48(%rbp),%rbx
  10971f:	48 89 48 30          	mov    %rcx,0x30(%rax)
  109723:	48 89 58 38          	mov    %rbx,0x38(%rax)
  109727:	48 8b 4d 50          	mov    0x50(%rbp),%rcx
  10972b:	48 8b 5d 58          	mov    0x58(%rbp),%rbx
  10972f:	48 89 48 40          	mov    %rcx,0x40(%rax)
  109733:	48 89 58 48          	mov    %rbx,0x48(%rax)
  109737:	48 8b 4d 60          	mov    0x60(%rbp),%rcx
  10973b:	48 8b 5d 68          	mov    0x68(%rbp),%rbx
  10973f:	48 89 48 50          	mov    %rcx,0x50(%rax)
  109743:	48 89 58 58          	mov    %rbx,0x58(%rax)
  109747:	48 8b 4d 70          	mov    0x70(%rbp),%rcx
  10974b:	48 8b 5d 78          	mov    0x78(%rbp),%rbx
  10974f:	48 89 48 60          	mov    %rcx,0x60(%rax)
  109753:	48 89 58 68          	mov    %rbx,0x68(%rax)
  109757:	48 8b 8d 80 00 00 00 	mov    0x80(%rbp),%rcx
  10975e:	48 8b 9d 88 00 00 00 	mov    0x88(%rbp),%rbx
  109765:	48 89 48 70          	mov    %rcx,0x70(%rax)
  109769:	48 89 58 78          	mov    %rbx,0x78(%rax)
  10976d:	48 8b 8d 90 00 00 00 	mov    0x90(%rbp),%rcx
  109774:	48 8b 9d 98 00 00 00 	mov    0x98(%rbp),%rbx
  10977b:	48 89 88 80 00 00 00 	mov    %rcx,0x80(%rax)
  109782:	48 89 98 88 00 00 00 	mov    %rbx,0x88(%rax)
  109789:	8b 8d a0 00 00 00    	mov    0xa0(%rbp),%ecx
  10978f:	89 88 90 00 00 00    	mov    %ecx,0x90(%rax)
  109795:	48 89 d7             	mov    %rdx,%rdi
  109798:	e8 3f fd ff ff       	callq  1094dc <_ZN11FAT32Driver12DirectoryAddEj8DirEntry>
  10979d:	48 81 c4 a0 00 00 00 	add    $0xa0,%rsp
  1097a4:	e9 39 03 00 00       	jmpq   109ae2 <_ZN11FAT32Driver12DirectoryAddEj8DirEntry+0x606>
  1097a9:	8b 45 b4             	mov    -0x4c(%rbp),%eax
  1097ac:	39 45 e0             	cmp    %eax,-0x20(%rbp)
  1097af:	0f 83 59 01 00 00    	jae    10990e <_ZN11FAT32Driver12DirectoryAddEj8DirEntry+0x432>
  1097b5:	83 45 e0 01          	addl   $0x1,-0x20(%rbp)
  1097b9:	8b 55 e4             	mov    -0x1c(%rbp),%edx
  1097bc:	48 8b 45 a8          	mov    -0x58(%rbp),%rax
  1097c0:	8b 40 30             	mov    0x30(%rax),%eax
  1097c3:	89 c0                	mov    %eax,%eax
  1097c5:	48 c1 e8 05          	shr    $0x5,%rax
  1097c9:	48 83 e8 01          	sub    $0x1,%rax
  1097cd:	48 39 c2             	cmp    %rax,%rdx
  1097d0:	73 0e                	jae    1097e0 <_ZN11FAT32Driver12DirectoryAddEj8DirEntry+0x304>
  1097d2:	48 83 45 e8 20       	addq   $0x20,-0x18(%rbp)
  1097d7:	83 45 e4 01          	addl   $0x1,-0x1c(%rbp)
  1097db:	e9 fd 02 00 00       	jmpq   109add <_ZN11FAT32Driver12DirectoryAddEj8DirEntry+0x601>
  1097e0:	8b 55 a4             	mov    -0x5c(%rbp),%edx
  1097e3:	48 8b 45 a8          	mov    -0x58(%rbp),%rax
  1097e7:	89 d6                	mov    %edx,%esi
  1097e9:	48 89 c7             	mov    %rax,%rdi
  1097ec:	e8 f1 ea ff ff       	callq  1082e2 <_ZN11FAT32Driver7ReadFATEj>
  1097f1:	89 45 d8             	mov    %eax,-0x28(%rbp)
  1097f4:	81 7d d8 f7 ff ff 0f 	cmpl   $0xffffff7,-0x28(%rbp)
  1097fb:	76 3b                	jbe    109838 <_ZN11FAT32Driver12DirectoryAddEj8DirEntry+0x35c>
  1097fd:	48 8b 45 a8          	mov    -0x58(%rbp),%rax
  109801:	be 01 00 00 00       	mov    $0x1,%esi
  109806:	48 89 c7             	mov    %rax,%rdi
  109809:	e8 dc ed ff ff       	callq  1085ea <_ZN11FAT32Driver20AllocateClusterChainEj>
  10980e:	89 45 d8             	mov    %eax,-0x28(%rbp)
  109811:	81 7d d8 f7 ff ff 0f 	cmpl   $0xffffff7,-0x28(%rbp)
  109818:	75 0a                	jne    109824 <_ZN11FAT32Driver12DirectoryAddEj8DirEntry+0x348>
  10981a:	b8 ff ff ff ff       	mov    $0xffffffff,%eax
  10981f:	e9 be 02 00 00       	jmpq   109ae2 <_ZN11FAT32Driver12DirectoryAddEj8DirEntry+0x606>
  109824:	8b 55 d8             	mov    -0x28(%rbp),%edx
  109827:	8b 4d a4             	mov    -0x5c(%rbp),%ecx
  10982a:	48 8b 45 a8          	mov    -0x58(%rbp),%rax
  10982e:	89 ce                	mov    %ecx,%esi
  109830:	48 89 c7             	mov    %rax,%rdi
  109833:	e8 f2 ea ff ff       	callq  10832a <_ZN11FAT32Driver8WriteFATEjj>
  109838:	8b 75 d8             	mov    -0x28(%rbp),%esi
  10983b:	48 8b 55 a8          	mov    -0x58(%rbp),%rdx
  10983f:	48 83 ec 08          	sub    $0x8,%rsp
  109843:	48 81 ec 98 00 00 00 	sub    $0x98,%rsp
  10984a:	48 89 e0             	mov    %rsp,%rax
  10984d:	48 8b 4d 10          	mov    0x10(%rbp),%rcx
  109851:	48 8b 5d 18          	mov    0x18(%rbp),%rbx
  109855:	48 89 08             	mov    %rcx,(%rax)
  109858:	48 89 58 08          	mov    %rbx,0x8(%rax)
  10985c:	48 8b 4d 20          	mov    0x20(%rbp),%rcx
  109860:	48 8b 5d 28          	mov    0x28(%rbp),%rbx
  109864:	48 89 48 10          	mov    %rcx,0x10(%rax)
  109868:	48 89 58 18          	mov    %rbx,0x18(%rax)
  10986c:	48 8b 4d 30          	mov    0x30(%rbp),%rcx
  109870:	48 8b 5d 38          	mov    0x38(%rbp),%rbx
  109874:	48 89 48 20          	mov    %rcx,0x20(%rax)
  109878:	48 89 58 28          	mov    %rbx,0x28(%rax)
  10987c:	48 8b 4d 40          	mov    0x40(%rbp),%rcx
  109880:	48 8b 5d 48          	mov    0x48(%rbp),%rbx
  109884:	48 89 48 30          	mov    %rcx,0x30(%rax)
  109888:	48 89 58 38          	mov    %rbx,0x38(%rax)
  10988c:	48 8b 4d 50          	mov    0x50(%rbp),%rcx
  109890:	48 8b 5d 58          	mov    0x58(%rbp),%rbx
  109894:	48 89 48 40          	mov    %rcx,0x40(%rax)
  109898:	48 89 58 48          	mov    %rbx,0x48(%rax)
  10989c:	48 8b 4d 60          	mov    0x60(%rbp),%rcx
  1098a0:	48 8b 5d 68          	mov    0x68(%rbp),%rbx
  1098a4:	48 89 48 50          	mov    %rcx,0x50(%rax)
  1098a8:	48 89 58 58          	mov    %rbx,0x58(%rax)
  1098ac:	48 8b 4d 70          	mov    0x70(%rbp),%rcx
  1098b0:	48 8b 5d 78          	mov    0x78(%rbp),%rbx
  1098b4:	48 89 48 60          	mov    %rcx,0x60(%rax)
  1098b8:	48 89 58 68          	mov    %rbx,0x68(%rax)
  1098bc:	48 8b 8d 80 00 00 00 	mov    0x80(%rbp),%rcx
  1098c3:	48 8b 9d 88 00 00 00 	mov    0x88(%rbp),%rbx
  1098ca:	48 89 48 70          	mov    %rcx,0x70(%rax)
  1098ce:	48 89 58 78          	mov    %rbx,0x78(%rax)
  1098d2:	48 8b 8d 90 00 00 00 	mov    0x90(%rbp),%rcx
  1098d9:	48 8b 9d 98 00 00 00 	mov    0x98(%rbp),%rbx
  1098e0:	48 89 88 80 00 00 00 	mov    %rcx,0x80(%rax)
  1098e7:	48 89 98 88 00 00 00 	mov    %rbx,0x88(%rax)
  1098ee:	8b 8d a0 00 00 00    	mov    0xa0(%rbp),%ecx
  1098f4:	89 88 90 00 00 00    	mov    %ecx,0x90(%rax)
  1098fa:	48 89 d7             	mov    %rdx,%rdi
  1098fd:	e8 da fb ff ff       	callq  1094dc <_ZN11FAT32Driver12DirectoryAddEj8DirEntry>
  109902:	48 81 c4 a0 00 00 00 	add    $0xa0,%rsp
  109909:	e9 d4 01 00 00       	jmpq   109ae2 <_ZN11FAT32Driver12DirectoryAddEj8DirEntry+0x606>
  10990e:	48 8b 45 a8          	mov    -0x58(%rbp),%rax
  109912:	48 89 c7             	mov    %rax,%rdi
  109915:	e8 88 16 00 00       	callq  10afa2 <_ZNK11FAT32Driver7GetDateEv>
  10991a:	48 8b 55 c8          	mov    -0x38(%rbp),%rdx
  10991e:	66 89 42 10          	mov    %ax,0x10(%rdx)
  109922:	48 8b 45 a8          	mov    -0x58(%rbp),%rax
  109926:	48 89 c7             	mov    %rax,%rdi
  109929:	e8 26 16 00 00       	callq  10af54 <_ZNK11FAT32Driver7GetTimeEv>
  10992e:	48 8b 55 c8          	mov    -0x38(%rbp),%rdx
  109932:	66 89 42 0e          	mov    %ax,0xe(%rdx)
  109936:	48 8b 45 a8          	mov    -0x58(%rbp),%rax
  10993a:	48 89 c7             	mov    %rax,%rdi
  10993d:	e8 fa 15 00 00       	callq  10af3c <_ZNK11FAT32Driver15GetMillisecondsEv>
  109942:	48 8b 55 c8          	mov    -0x38(%rbp),%rdx
  109946:	88 42 0d             	mov    %al,0xd(%rdx)
  109949:	48 8b 45 a8          	mov    -0x58(%rbp),%rax
  10994d:	48 89 c7             	mov    %rax,%rdi
  109950:	e8 4d 16 00 00       	callq  10afa2 <_ZNK11FAT32Driver7GetDateEv>
  109955:	48 8b 55 c8          	mov    -0x38(%rbp),%rdx
  109959:	66 89 42 12          	mov    %ax,0x12(%rdx)
  10995d:	48 8b 45 a8          	mov    -0x58(%rbp),%rax
  109961:	48 89 c7             	mov    %rax,%rdi
  109964:	e8 39 16 00 00       	callq  10afa2 <_ZNK11FAT32Driver7GetDateEv>
  109969:	48 8b 55 c8          	mov    -0x38(%rbp),%rdx
  10996d:	66 89 42 18          	mov    %ax,0x18(%rdx)
  109971:	48 8b 45 a8          	mov    -0x58(%rbp),%rax
  109975:	48 89 c7             	mov    %rax,%rdi
  109978:	e8 d7 15 00 00       	callq  10af54 <_ZNK11FAT32Driver7GetTimeEv>
  10997d:	48 8b 55 c8          	mov    -0x38(%rbp),%rdx
  109981:	66 89 42 16          	mov    %ax,0x16(%rdx)
  109985:	48 8b 45 c8          	mov    -0x38(%rbp),%rax
  109989:	8b 40 1c             	mov    0x1c(%rax),%eax
  10998c:	48 8b 55 a8          	mov    -0x58(%rbp),%rdx
  109990:	8b 5a 30             	mov    0x30(%rdx),%ebx
  109993:	ba 00 00 00 00       	mov    $0x0,%edx
  109998:	f7 f3                	div    %ebx
  10999a:	89 45 d4             	mov    %eax,-0x2c(%rbp)
  10999d:	48 8b 45 a8          	mov    -0x58(%rbp),%rax
  1099a1:	8b 40 30             	mov    0x30(%rax),%eax
  1099a4:	0f af 45 d4          	imul   -0x2c(%rbp),%eax
  1099a8:	89 c2                	mov    %eax,%edx
  1099aa:	48 8b 45 a8          	mov    -0x58(%rbp),%rax
  1099ae:	8b 40 30             	mov    0x30(%rax),%eax
  1099b1:	39 c2                	cmp    %eax,%edx
  1099b3:	74 04                	je     1099b9 <_ZN11FAT32Driver12DirectoryAddEj8DirEntry+0x4dd>
  1099b5:	83 45 d4 01          	addl   $0x1,-0x2c(%rbp)
  1099b9:	8b 55 d4             	mov    -0x2c(%rbp),%edx
  1099bc:	48 8b 45 a8          	mov    -0x58(%rbp),%rax
  1099c0:	89 d6                	mov    %edx,%esi
  1099c2:	48 89 c7             	mov    %rax,%rdi
  1099c5:	e8 20 ec ff ff       	callq  1085ea <_ZN11FAT32Driver20AllocateClusterChainEj>
  1099ca:	89 45 c4             	mov    %eax,-0x3c(%rbp)
  1099cd:	81 7d c4 f7 ff ff 0f 	cmpl   $0xffffff7,-0x3c(%rbp)
  1099d4:	75 0a                	jne    1099e0 <_ZN11FAT32Driver12DirectoryAddEj8DirEntry+0x504>
  1099d6:	b8 ff ff ff ff       	mov    $0xffffffff,%eax
  1099db:	e9 02 01 00 00       	jmpq   109ae2 <_ZN11FAT32Driver12DirectoryAddEj8DirEntry+0x606>
  1099e0:	48 8b 45 a8          	mov    -0x58(%rbp),%rax
  1099e4:	8b 40 30             	mov    0x30(%rax),%eax
  1099e7:	0f af 45 d4          	imul   -0x2c(%rbp),%eax
  1099eb:	89 c0                	mov    %eax,%eax
  1099ed:	48 89 c7             	mov    %rax,%rdi
  1099f0:	e8 78 a0 ff ff       	callq  103a6d <_Znam>
  1099f5:	48 89 45 b8          	mov    %rax,-0x48(%rbp)
  1099f9:	48 8b 45 a8          	mov    -0x58(%rbp),%rax
  1099fd:	8b 40 30             	mov    0x30(%rax),%eax
  109a00:	0f af 45 d4          	imul   -0x2c(%rbp),%eax
  109a04:	89 c2                	mov    %eax,%edx
  109a06:	48 8b 45 b8          	mov    -0x48(%rbp),%rax
  109a0a:	be 00 00 00 00       	mov    $0x0,%esi
  109a0f:	48 89 c7             	mov    %rax,%rdi
  109a12:	e8 54 34 00 00       	callq  10ce6b <_Z6memsetPvim>
  109a17:	48 8b 45 a8          	mov    -0x58(%rbp),%rax
  109a1b:	8b 40 30             	mov    0x30(%rax),%eax
  109a1e:	0f af 45 d4          	imul   -0x2c(%rbp),%eax
  109a22:	89 c1                	mov    %eax,%ecx
  109a24:	48 8b 55 b8          	mov    -0x48(%rbp),%rdx
  109a28:	8b 75 c4             	mov    -0x3c(%rbp),%esi
  109a2b:	48 8b 45 a8          	mov    -0x58(%rbp),%rax
  109a2f:	48 89 c7             	mov    %rax,%rdi
  109a32:	e8 0f ee ff ff       	callq  108846 <_ZN11FAT32Driver17WriteClusterChainEjPvj>
  109a37:	48 8b 45 c8          	mov    -0x38(%rbp),%rax
  109a3b:	0f b6 40 0b          	movzbl 0xb(%rax),%eax
  109a3f:	0f b6 c0             	movzbl %al,%eax
  109a42:	83 e0 10             	and    $0x10,%eax
  109a45:	85 c0                	test   %eax,%eax
  109a47:	74 11                	je     109a5a <_ZN11FAT32Driver12DirectoryAddEj8DirEntry+0x57e>
  109a49:	8b 55 c4             	mov    -0x3c(%rbp),%edx
  109a4c:	48 8b 45 a8          	mov    -0x58(%rbp),%rax
  109a50:	89 d6                	mov    %edx,%esi
  109a52:	48 89 c7             	mov    %rax,%rdi
  109a55:	e8 e0 f5 ff ff       	callq  10903a <_ZN11FAT32Driver21PrepareAddedDirectoryEj>
  109a5a:	8b 45 c4             	mov    -0x3c(%rbp),%eax
  109a5d:	89 c2                	mov    %eax,%edx
  109a5f:	48 8b 45 c8          	mov    -0x38(%rbp),%rax
  109a63:	66 89 50 1a          	mov    %dx,0x1a(%rax)
  109a67:	8b 45 c4             	mov    -0x3c(%rbp),%eax
  109a6a:	c1 e8 10             	shr    $0x10,%eax
  109a6d:	89 c2                	mov    %eax,%edx
  109a6f:	48 8b 45 c8          	mov    -0x38(%rbp),%rax
  109a73:	66 89 50 14          	mov    %dx,0x14(%rax)
  109a77:	8b 45 b4             	mov    -0x4c(%rbp),%eax
  109a7a:	83 c0 01             	add    $0x1,%eax
  109a7d:	89 c0                	mov    %eax,%eax
  109a7f:	48 c1 e0 05          	shl    $0x5,%rax
  109a83:	48 89 c2             	mov    %rax,%rdx
  109a86:	8b 45 b4             	mov    -0x4c(%rbp),%eax
  109a89:	89 c0                	mov    %eax,%eax
  109a8b:	48 c1 e0 05          	shl    $0x5,%rax
  109a8f:	48 f7 d8             	neg    %rax
  109a92:	48 89 c1             	mov    %rax,%rcx
  109a95:	48 8b 45 c8          	mov    -0x38(%rbp),%rax
  109a99:	48 01 c1             	add    %rax,%rcx
  109a9c:	8b 45 b4             	mov    -0x4c(%rbp),%eax
  109a9f:	89 c0                	mov    %eax,%eax
  109aa1:	48 c1 e0 05          	shl    $0x5,%rax
  109aa5:	48 f7 d8             	neg    %rax
  109aa8:	48 89 c6             	mov    %rax,%rsi
  109aab:	48 8b 45 e8          	mov    -0x18(%rbp),%rax
  109aaf:	48 01 f0             	add    %rsi,%rax
  109ab2:	48 89 ce             	mov    %rcx,%rsi
  109ab5:	48 89 c7             	mov    %rax,%rdi
  109ab8:	e8 6c 33 00 00       	callq  10ce29 <_Z6memcpyPvPKvm>
  109abd:	48 8b 45 a8          	mov    -0x58(%rbp),%rax
  109ac1:	48 8b 50 18          	mov    0x18(%rax),%rdx
  109ac5:	8b 4d a4             	mov    -0x5c(%rbp),%ecx
  109ac8:	48 8b 45 a8          	mov    -0x58(%rbp),%rax
  109acc:	89 ce                	mov    %ecx,%esi
  109ace:	48 89 c7             	mov    %rax,%rdi
  109ad1:	e8 96 e9 ff ff       	callq  10846c <_ZN11FAT32Driver12WriteClusterEjPv>
  109ad6:	b8 00 00 00 00       	mov    $0x0,%eax
  109adb:	eb 05                	jmp    109ae2 <_ZN11FAT32Driver12DirectoryAddEj8DirEntry+0x606>
  109add:	e9 54 fb ff ff       	jmpq   109636 <_ZN11FAT32Driver12DirectoryAddEj8DirEntry+0x15a>
  109ae2:	48 8b 5d f8          	mov    -0x8(%rbp),%rbx
  109ae6:	c9                   	leaveq 
  109ae7:	c3                   	retq   

0000000000109ae8 <_ZN11FAT32Driver8OpenFileEPKcP8DirEntry>:
  109ae8:	f3 0f 1e fa          	endbr64 
  109aec:	55                   	push   %rbp
  109aed:	48 89 e5             	mov    %rsp,%rbp
  109af0:	48 83 ec 20          	sub    $0x20,%rsp
  109af4:	48 89 7d f8          	mov    %rdi,-0x8(%rbp)
  109af8:	48 89 75 f0          	mov    %rsi,-0x10(%rbp)
  109afc:	48 89 55 e8          	mov    %rdx,-0x18(%rbp)
  109b00:	48 83 7d e8 00       	cmpq   $0x0,-0x18(%rbp)
  109b05:	75 07                	jne    109b0e <_ZN11FAT32Driver8OpenFileEPKcP8DirEntry+0x26>
  109b07:	b8 ff ff ff ff       	mov    $0xffffffff,%eax
  109b0c:	eb 1c                	jmp    109b2a <_ZN11FAT32Driver8OpenFileEPKcP8DirEntry+0x42>
  109b0e:	48 8b 55 e8          	mov    -0x18(%rbp),%rdx
  109b12:	48 8b 4d f0          	mov    -0x10(%rbp),%rcx
  109b16:	48 8b 45 f8          	mov    -0x8(%rbp),%rax
  109b1a:	48 89 ce             	mov    %rcx,%rsi
  109b1d:	48 89 c7             	mov    %rax,%rdi
  109b20:	e8 05 0a 00 00       	callq  10a52a <_ZN11FAT32Driver22GetClusterFromFilePathEPKcP8DirEntry>
  109b25:	b8 00 00 00 00       	mov    $0x0,%eax
  109b2a:	c9                   	leaveq 
  109b2b:	c3                   	retq   

0000000000109b2c <_ZN11FAT32Driver10CreateFileEPKcP8DirEntry>:
  109b2c:	f3 0f 1e fa          	endbr64 
  109b30:	55                   	push   %rbp
  109b31:	48 89 e5             	mov    %rsp,%rbp
  109b34:	53                   	push   %rbx
  109b35:	48 81 ec c8 00 00 00 	sub    $0xc8,%rsp
  109b3c:	48 89 bd 48 ff ff ff 	mov    %rdi,-0xb8(%rbp)
  109b43:	48 89 b5 40 ff ff ff 	mov    %rsi,-0xc0(%rbp)
  109b4a:	48 89 95 38 ff ff ff 	mov    %rdx,-0xc8(%rbp)
  109b51:	48 8d 95 50 ff ff ff 	lea    -0xb0(%rbp),%rdx
  109b58:	48 8b 8d 40 ff ff ff 	mov    -0xc0(%rbp),%rcx
  109b5f:	48 8b 85 48 ff ff ff 	mov    -0xb8(%rbp),%rax
  109b66:	48 89 ce             	mov    %rcx,%rsi
  109b69:	48 89 c7             	mov    %rax,%rdi
  109b6c:	e8 b9 09 00 00       	callq  10a52a <_ZN11FAT32Driver22GetClusterFromFilePathEPKcP8DirEntry>
  109b71:	89 45 ec             	mov    %eax,-0x14(%rbp)
  109b74:	48 8b 85 38 ff ff ff 	mov    -0xc8(%rbp),%rax
  109b7b:	8b 55 ec             	mov    -0x14(%rbp),%edx
  109b7e:	89 90 8c 00 00 00    	mov    %edx,0x8c(%rax)
  109b84:	48 8b 85 38 ff ff ff 	mov    -0xc8(%rbp),%rax
  109b8b:	c7 80 90 00 00 00 ff 	movl   $0xffffffff,0x90(%rax)
  109b92:	ff ff ff 
  109b95:	48 8b b5 38 ff ff ff 	mov    -0xc8(%rbp),%rsi
  109b9c:	8b 55 ec             	mov    -0x14(%rbp),%edx
  109b9f:	48 8b 85 48 ff ff ff 	mov    -0xb8(%rbp),%rax
  109ba6:	b9 00 00 00 00       	mov    $0x0,%ecx
  109bab:	48 89 c7             	mov    %rax,%rdi
  109bae:	e8 87 f7 ff ff       	callq  10933a <_ZN11FAT32Driver15DirectorySearchEPKcjP8DirEntry>
  109bb3:	89 45 e8             	mov    %eax,-0x18(%rbp)
  109bb6:	83 7d e8 fe          	cmpl   $0xfffffffe,-0x18(%rbp)
  109bba:	74 08                	je     109bc4 <_ZN11FAT32Driver10CreateFileEPKcP8DirEntry+0x98>
  109bbc:	8b 45 e8             	mov    -0x18(%rbp),%eax
  109bbf:	e9 0a 01 00 00       	jmpq   109cce <_ZN11FAT32Driver10CreateFileEPKcP8DirEntry+0x1a2>
  109bc4:	0f b6 45 d8          	movzbl -0x28(%rbp),%eax
  109bc8:	0f b6 c0             	movzbl %al,%eax
  109bcb:	83 e0 10             	and    $0x10,%eax
  109bce:	85 c0                	test   %eax,%eax
  109bd0:	75 0a                	jne    109bdc <_ZN11FAT32Driver10CreateFileEPKcP8DirEntry+0xb0>
  109bd2:	b8 fe ff ff ff       	mov    $0xfffffffe,%eax
  109bd7:	e9 f2 00 00 00       	jmpq   109cce <_ZN11FAT32Driver10CreateFileEPKcP8DirEntry+0x1a2>
  109bdc:	8b 75 ec             	mov    -0x14(%rbp),%esi
  109bdf:	48 8b bd 48 ff ff ff 	mov    -0xb8(%rbp),%rdi
  109be6:	48 83 ec 08          	sub    $0x8,%rsp
  109bea:	48 8b 85 38 ff ff ff 	mov    -0xc8(%rbp),%rax
  109bf1:	48 81 ec 98 00 00 00 	sub    $0x98,%rsp
  109bf8:	48 89 e2             	mov    %rsp,%rdx
  109bfb:	48 8b 08             	mov    (%rax),%rcx
  109bfe:	48 8b 58 08          	mov    0x8(%rax),%rbx
  109c02:	48 89 0a             	mov    %rcx,(%rdx)
  109c05:	48 89 5a 08          	mov    %rbx,0x8(%rdx)
  109c09:	48 8b 48 10          	mov    0x10(%rax),%rcx
  109c0d:	48 8b 58 18          	mov    0x18(%rax),%rbx
  109c11:	48 89 4a 10          	mov    %rcx,0x10(%rdx)
  109c15:	48 89 5a 18          	mov    %rbx,0x18(%rdx)
  109c19:	48 8b 48 20          	mov    0x20(%rax),%rcx
  109c1d:	48 8b 58 28          	mov    0x28(%rax),%rbx
  109c21:	48 89 4a 20          	mov    %rcx,0x20(%rdx)
  109c25:	48 89 5a 28          	mov    %rbx,0x28(%rdx)
  109c29:	48 8b 48 30          	mov    0x30(%rax),%rcx
  109c2d:	48 8b 58 38          	mov    0x38(%rax),%rbx
  109c31:	48 89 4a 30          	mov    %rcx,0x30(%rdx)
  109c35:	48 89 5a 38          	mov    %rbx,0x38(%rdx)
  109c39:	48 8b 48 40          	mov    0x40(%rax),%rcx
  109c3d:	48 8b 58 48          	mov    0x48(%rax),%rbx
  109c41:	48 89 4a 40          	mov    %rcx,0x40(%rdx)
  109c45:	48 89 5a 48          	mov    %rbx,0x48(%rdx)
  109c49:	48 8b 48 50          	mov    0x50(%rax),%rcx
  109c4d:	48 8b 58 58          	mov    0x58(%rax),%rbx
  109c51:	48 89 4a 50          	mov    %rcx,0x50(%rdx)
  109c55:	48 89 5a 58          	mov    %rbx,0x58(%rdx)
  109c59:	48 8b 48 60          	mov    0x60(%rax),%rcx
  109c5d:	48 8b 58 68          	mov    0x68(%rax),%rbx
  109c61:	48 89 4a 60          	mov    %rcx,0x60(%rdx)
  109c65:	48 89 5a 68          	mov    %rbx,0x68(%rdx)
  109c69:	48 8b 48 70          	mov    0x70(%rax),%rcx
  109c6d:	48 8b 58 78          	mov    0x78(%rax),%rbx
  109c71:	48 89 4a 70          	mov    %rcx,0x70(%rdx)
  109c75:	48 89 5a 78          	mov    %rbx,0x78(%rdx)
  109c79:	48 8b 88 80 00 00 00 	mov    0x80(%rax),%rcx
  109c80:	48 8b 98 88 00 00 00 	mov    0x88(%rax),%rbx
  109c87:	48 89 8a 80 00 00 00 	mov    %rcx,0x80(%rdx)
  109c8e:	48 89 9a 88 00 00 00 	mov    %rbx,0x88(%rdx)
  109c95:	8b 80 90 00 00 00    	mov    0x90(%rax),%eax
  109c9b:	89 82 90 00 00 00    	mov    %eax,0x90(%rdx)
  109ca1:	e8 36 f8 ff ff       	callq  1094dc <_ZN11FAT32Driver12DirectoryAddEj8DirEntry>
  109ca6:	48 81 c4 a0 00 00 00 	add    $0xa0,%rsp
  109cad:	48 8b b5 38 ff ff ff 	mov    -0xc8(%rbp),%rsi
  109cb4:	48 8b 8d 38 ff ff ff 	mov    -0xc8(%rbp),%rcx
  109cbb:	8b 55 ec             	mov    -0x14(%rbp),%edx
  109cbe:	48 8b 85 48 ff ff ff 	mov    -0xb8(%rbp),%rax
  109cc5:	48 89 c7             	mov    %rax,%rdi
  109cc8:	e8 6d f6 ff ff       	callq  10933a <_ZN11FAT32Driver15DirectorySearchEPKcjP8DirEntry>
  109ccd:	90                   	nop
  109cce:	48 8b 5d f8          	mov    -0x8(%rbp),%rbx
  109cd2:	c9                   	leaveq 
  109cd3:	c3                   	retq   

0000000000109cd4 <_ZN11FAT32Driver10DeleteFileE8DirEntry>:
  109cd4:	f3 0f 1e fa          	endbr64 
  109cd8:	55                   	push   %rbp
  109cd9:	48 89 e5             	mov    %rsp,%rbp
  109cdc:	53                   	push   %rbx
  109cdd:	48 83 ec 38          	sub    $0x38,%rsp
  109ce1:	48 89 7d c8          	mov    %rdi,-0x38(%rbp)
  109ce5:	0f b6 85 98 00 00 00 	movzbl 0x98(%rbp),%eax
  109cec:	0f b6 c0             	movzbl %al,%eax
  109cef:	83 e0 10             	and    $0x10,%eax
  109cf2:	85 c0                	test   %eax,%eax
  109cf4:	0f 84 57 01 00 00    	je     109e51 <_ZN11FAT32Driver10DeleteFileE8DirEntry+0x17d>
  109cfa:	8b 95 90 00 00 00    	mov    0x90(%rbp),%edx
  109d00:	48 8d 45 d0          	lea    -0x30(%rbp),%rax
  109d04:	48 8b 75 c8          	mov    -0x38(%rbp),%rsi
  109d08:	41 b8 00 00 00 00    	mov    $0x0,%r8d
  109d0e:	b9 00 00 00 00       	mov    $0x0,%ecx
  109d13:	48 89 c7             	mov    %rax,%rdi
  109d16:	e8 77 ee ff ff       	callq  108b92 <_ZN11FAT32Driver14GetDirectoriesEjjb>
  109d1b:	48 c7 45 e8 00 00 00 	movq   $0x0,-0x18(%rbp)
  109d22:	00 
  109d23:	48 8d 45 d0          	lea    -0x30(%rbp),%rax
  109d27:	48 89 c7             	mov    %rax,%rdi
  109d2a:	e8 9d 48 00 00       	callq  10e5cc <_ZNK6vectorI8DirEntryE4sizeEv>
  109d2f:	48 39 45 e8          	cmp    %rax,-0x18(%rbp)
  109d33:	0f 92 c0             	setb   %al
  109d36:	84 c0                	test   %al,%al
  109d38:	0f 84 07 01 00 00    	je     109e45 <_ZN11FAT32Driver10DeleteFileE8DirEntry+0x171>
  109d3e:	48 8b 55 e8          	mov    -0x18(%rbp),%rdx
  109d42:	48 8d 45 d0          	lea    -0x30(%rbp),%rax
  109d46:	48 89 d6             	mov    %rdx,%rsi
  109d49:	48 89 c7             	mov    %rax,%rdi
  109d4c:	e8 95 48 00 00       	callq  10e5e6 <_ZN6vectorI8DirEntryEixEm>
  109d51:	0f b6 00             	movzbl (%rax),%eax
  109d54:	3c 2e                	cmp    $0x2e,%al
  109d56:	0f 95 c0             	setne  %al
  109d59:	84 c0                	test   %al,%al
  109d5b:	0f 84 da 00 00 00    	je     109e3b <_ZN11FAT32Driver10DeleteFileE8DirEntry+0x167>
  109d61:	48 8b 55 e8          	mov    -0x18(%rbp),%rdx
  109d65:	48 8d 45 d0          	lea    -0x30(%rbp),%rax
  109d69:	48 89 d6             	mov    %rdx,%rsi
  109d6c:	48 89 c7             	mov    %rax,%rdi
  109d6f:	e8 72 48 00 00       	callq  10e5e6 <_ZN6vectorI8DirEntryEixEm>
  109d74:	48 8b 75 c8          	mov    -0x38(%rbp),%rsi
  109d78:	48 83 ec 08          	sub    $0x8,%rsp
  109d7c:	48 81 ec 98 00 00 00 	sub    $0x98,%rsp
  109d83:	48 89 e2             	mov    %rsp,%rdx
  109d86:	48 8b 08             	mov    (%rax),%rcx
  109d89:	48 8b 58 08          	mov    0x8(%rax),%rbx
  109d8d:	48 89 0a             	mov    %rcx,(%rdx)
  109d90:	48 89 5a 08          	mov    %rbx,0x8(%rdx)
  109d94:	48 8b 48 10          	mov    0x10(%rax),%rcx
  109d98:	48 8b 58 18          	mov    0x18(%rax),%rbx
  109d9c:	48 89 4a 10          	mov    %rcx,0x10(%rdx)
  109da0:	48 89 5a 18          	mov    %rbx,0x18(%rdx)
  109da4:	48 8b 48 20          	mov    0x20(%rax),%rcx
  109da8:	48 8b 58 28          	mov    0x28(%rax),%rbx
  109dac:	48 89 4a 20          	mov    %rcx,0x20(%rdx)
  109db0:	48 89 5a 28          	mov    %rbx,0x28(%rdx)
  109db4:	48 8b 48 30          	mov    0x30(%rax),%rcx
  109db8:	48 8b 58 38          	mov    0x38(%rax),%rbx
  109dbc:	48 89 4a 30          	mov    %rcx,0x30(%rdx)
  109dc0:	48 89 5a 38          	mov    %rbx,0x38(%rdx)
  109dc4:	48 8b 48 40          	mov    0x40(%rax),%rcx
  109dc8:	48 8b 58 48          	mov    0x48(%rax),%rbx
  109dcc:	48 89 4a 40          	mov    %rcx,0x40(%rdx)
  109dd0:	48 89 5a 48          	mov    %rbx,0x48(%rdx)
  109dd4:	48 8b 48 50          	mov    0x50(%rax),%rcx
  109dd8:	48 8b 58 58          	mov    0x58(%rax),%rbx
  109ddc:	48 89 4a 50          	mov    %rcx,0x50(%rdx)
  109de0:	48 89 5a 58          	mov    %rbx,0x58(%rdx)
  109de4:	48 8b 48 60          	mov    0x60(%rax),%rcx
  109de8:	48 8b 58 68          	mov    0x68(%rax),%rbx
  109dec:	48 89 4a 60          	mov    %rcx,0x60(%rdx)
  109df0:	48 89 5a 68          	mov    %rbx,0x68(%rdx)
  109df4:	48 8b 48 70          	mov    0x70(%rax),%rcx
  109df8:	48 8b 58 78          	mov    0x78(%rax),%rbx
  109dfc:	48 89 4a 70          	mov    %rcx,0x70(%rdx)
  109e00:	48 89 5a 78          	mov    %rbx,0x78(%rdx)
  109e04:	48 8b 88 80 00 00 00 	mov    0x80(%rax),%rcx
  109e0b:	48 8b 98 88 00 00 00 	mov    0x88(%rax),%rbx
  109e12:	48 89 8a 80 00 00 00 	mov    %rcx,0x80(%rdx)
  109e19:	48 89 9a 88 00 00 00 	mov    %rbx,0x88(%rdx)
  109e20:	8b 80 90 00 00 00    	mov    0x90(%rax),%eax
  109e26:	89 82 90 00 00 00    	mov    %eax,0x90(%rdx)
  109e2c:	48 89 f7             	mov    %rsi,%rdi
  109e2f:	e8 a0 fe ff ff       	callq  109cd4 <_ZN11FAT32Driver10DeleteFileE8DirEntry>
  109e34:	48 81 c4 a0 00 00 00 	add    $0xa0,%rsp
  109e3b:	48 83 45 e8 01       	addq   $0x1,-0x18(%rbp)
  109e40:	e9 de fe ff ff       	jmpq   109d23 <_ZN11FAT32Driver10DeleteFileE8DirEntry+0x4f>
  109e45:	48 8d 45 d0          	lea    -0x30(%rbp),%rax
  109e49:	48 89 c7             	mov    %rax,%rdi
  109e4c:	e8 4b 47 00 00       	callq  10e59c <_ZN6vectorI8DirEntryED1Ev>
  109e51:	8b 95 90 00 00 00    	mov    0x90(%rbp),%edx
  109e57:	48 8b 45 c8          	mov    -0x38(%rbp),%rax
  109e5b:	89 d6                	mov    %edx,%esi
  109e5d:	48 89 c7             	mov    %rax,%rdi
  109e60:	e8 6f e8 ff ff       	callq  1086d4 <_ZN11FAT32Driver16FreeClusterChainEj>
  109e65:	8b b5 9c 00 00 00    	mov    0x9c(%rbp),%esi
  109e6b:	48 8b 55 c8          	mov    -0x38(%rbp),%rdx
  109e6f:	48 83 ec 08          	sub    $0x8,%rsp
  109e73:	48 81 ec 98 00 00 00 	sub    $0x98,%rsp
  109e7a:	48 89 e0             	mov    %rsp,%rax
  109e7d:	48 8b 4d 10          	mov    0x10(%rbp),%rcx
  109e81:	48 8b 5d 18          	mov    0x18(%rbp),%rbx
  109e85:	48 89 08             	mov    %rcx,(%rax)
  109e88:	48 89 58 08          	mov    %rbx,0x8(%rax)
  109e8c:	48 8b 4d 20          	mov    0x20(%rbp),%rcx
  109e90:	48 8b 5d 28          	mov    0x28(%rbp),%rbx
  109e94:	48 89 48 10          	mov    %rcx,0x10(%rax)
  109e98:	48 89 58 18          	mov    %rbx,0x18(%rax)
  109e9c:	48 8b 4d 30          	mov    0x30(%rbp),%rcx
  109ea0:	48 8b 5d 38          	mov    0x38(%rbp),%rbx
  109ea4:	48 89 48 20          	mov    %rcx,0x20(%rax)
  109ea8:	48 89 58 28          	mov    %rbx,0x28(%rax)
  109eac:	48 8b 4d 40          	mov    0x40(%rbp),%rcx
  109eb0:	48 8b 5d 48          	mov    0x48(%rbp),%rbx
  109eb4:	48 89 48 30          	mov    %rcx,0x30(%rax)
  109eb8:	48 89 58 38          	mov    %rbx,0x38(%rax)
  109ebc:	48 8b 4d 50          	mov    0x50(%rbp),%rcx
  109ec0:	48 8b 5d 58          	mov    0x58(%rbp),%rbx
  109ec4:	48 89 48 40          	mov    %rcx,0x40(%rax)
  109ec8:	48 89 58 48          	mov    %rbx,0x48(%rax)
  109ecc:	48 8b 4d 60          	mov    0x60(%rbp),%rcx
  109ed0:	48 8b 5d 68          	mov    0x68(%rbp),%rbx
  109ed4:	48 89 48 50          	mov    %rcx,0x50(%rax)
  109ed8:	48 89 58 58          	mov    %rbx,0x58(%rax)
  109edc:	48 8b 4d 70          	mov    0x70(%rbp),%rcx
  109ee0:	48 8b 5d 78          	mov    0x78(%rbp),%rbx
  109ee4:	48 89 48 60          	mov    %rcx,0x60(%rax)
  109ee8:	48 89 58 68          	mov    %rbx,0x68(%rax)
  109eec:	48 8b 8d 80 00 00 00 	mov    0x80(%rbp),%rcx
  109ef3:	48 8b 9d 88 00 00 00 	mov    0x88(%rbp),%rbx
  109efa:	48 89 48 70          	mov    %rcx,0x70(%rax)
  109efe:	48 89 58 78          	mov    %rbx,0x78(%rax)
  109f02:	48 8b 8d 90 00 00 00 	mov    0x90(%rbp),%rcx
  109f09:	48 8b 9d 98 00 00 00 	mov    0x98(%rbp),%rbx
  109f10:	48 89 88 80 00 00 00 	mov    %rcx,0x80(%rax)
  109f17:	48 89 98 88 00 00 00 	mov    %rbx,0x88(%rax)
  109f1e:	8b 8d a0 00 00 00    	mov    0xa0(%rbp),%ecx
  109f24:	89 88 90 00 00 00    	mov    %ecx,0x90(%rax)
  109f2a:	48 89 d7             	mov    %rdx,%rdi
  109f2d:	e8 14 f3 ff ff       	callq  109246 <_ZN11FAT32Driver14CleanFileEntryEj8DirEntry>
  109f32:	48 81 c4 a0 00 00 00 	add    $0xa0,%rsp
  109f39:	b8 00 00 00 00       	mov    $0x0,%eax
  109f3e:	48 8b 5d f8          	mov    -0x8(%rbp),%rbx
  109f42:	c9                   	leaveq 
  109f43:	c3                   	retq   

0000000000109f44 <_ZN11FAT32Driver8ReadFileE8DirEntrymPvm>:
  109f44:	f3 0f 1e fa          	endbr64 
  109f48:	55                   	push   %rbp
  109f49:	48 89 e5             	mov    %rsp,%rbp
  109f4c:	53                   	push   %rbx
  109f4d:	48 83 ec 78          	sub    $0x78,%rsp
  109f51:	48 89 7d 98          	mov    %rdi,-0x68(%rbp)
  109f55:	48 89 75 90          	mov    %rsi,-0x70(%rbp)
  109f59:	48 89 55 88          	mov    %rdx,-0x78(%rbp)
  109f5d:	48 89 4d 80          	mov    %rcx,-0x80(%rbp)
  109f61:	0f b6 85 98 00 00 00 	movzbl 0x98(%rbp),%eax
  109f68:	0f b6 c0             	movzbl %al,%eax
  109f6b:	83 e0 10             	and    $0x10,%eax
  109f6e:	85 c0                	test   %eax,%eax
  109f70:	74 0a                	je     109f7c <_ZN11FAT32Driver8ReadFileE8DirEntrymPvm+0x38>
  109f72:	bb fd ff ff ff       	mov    $0xfffffffd,%ebx
  109f77:	e9 71 01 00 00       	jmpq   10a0ed <_ZN11FAT32Driver8ReadFileE8DirEntrymPvm+0x1a9>
  109f7c:	48 8b 55 80          	mov    -0x80(%rbp),%rdx
  109f80:	48 8b 45 90          	mov    -0x70(%rbp),%rax
  109f84:	48 01 d0             	add    %rdx,%rax
  109f87:	8b 95 94 00 00 00    	mov    0x94(%rbp),%edx
  109f8d:	89 d2                	mov    %edx,%edx
  109f8f:	48 39 d0             	cmp    %rdx,%rax
  109f92:	76 10                	jbe    109fa4 <_ZN11FAT32Driver8ReadFileE8DirEntrymPvm+0x60>
  109f94:	8b 85 94 00 00 00    	mov    0x94(%rbp),%eax
  109f9a:	89 c0                	mov    %eax,%eax
  109f9c:	48 2b 45 90          	sub    -0x70(%rbp),%rax
  109fa0:	48 89 45 80          	mov    %rax,-0x80(%rbp)
  109fa4:	8b 95 90 00 00 00    	mov    0x90(%rbp),%edx
  109faa:	48 8d 45 a0          	lea    -0x60(%rbp),%rax
  109fae:	48 8b 4d 98          	mov    -0x68(%rbp),%rcx
  109fb2:	48 89 ce             	mov    %rcx,%rsi
  109fb5:	48 89 c7             	mov    %rax,%rdi
  109fb8:	e8 59 e5 ff ff       	callq  108516 <_ZN11FAT32Driver15GetClusterChainEj>
  109fbd:	48 c7 45 e8 00 00 00 	movq   $0x0,-0x18(%rbp)
  109fc4:	00 
  109fc5:	48 8b 45 88          	mov    -0x78(%rbp),%rax
  109fc9:	48 89 45 e0          	mov    %rax,-0x20(%rbp)
  109fcd:	c7 45 dc 00 00 00 00 	movl   $0x0,-0x24(%rbp)
  109fd4:	8b 5d dc             	mov    -0x24(%rbp),%ebx
  109fd7:	48 8d 45 a0          	lea    -0x60(%rbp),%rax
  109fdb:	48 89 c7             	mov    %rax,%rdi
  109fde:	e8 c5 47 00 00       	callq  10e7a8 <_ZNK6vectorIjE4sizeEv>
  109fe3:	48 39 c3             	cmp    %rax,%rbx
  109fe6:	0f 92 c0             	setb   %al
  109fe9:	84 c0                	test   %al,%al
  109feb:	0f 84 eb 00 00 00    	je     10a0dc <_ZN11FAT32Driver8ReadFileE8DirEntrymPvm+0x198>
  109ff1:	8b 55 dc             	mov    -0x24(%rbp),%edx
  109ff4:	48 8d 45 a0          	lea    -0x60(%rbp),%rax
  109ff8:	48 89 d6             	mov    %rdx,%rsi
  109ffb:	48 89 c7             	mov    %rax,%rdi
  109ffe:	e8 bf 47 00 00       	callq  10e7c2 <_ZN6vectorIjEixEm>
  10a003:	8b 00                	mov    (%rax),%eax
  10a005:	89 45 cc             	mov    %eax,-0x34(%rbp)
  10a008:	48 8b 45 e8          	mov    -0x18(%rbp),%rax
  10a00c:	48 3b 45 90          	cmp    -0x70(%rbp),%rax
  10a010:	73 12                	jae    10a024 <_ZN11FAT32Driver8ReadFileE8DirEntrymPvm+0xe0>
  10a012:	48 8b 45 98          	mov    -0x68(%rbp),%rax
  10a016:	8b 40 30             	mov    0x30(%rax),%eax
  10a019:	89 c0                	mov    %eax,%eax
  10a01b:	48 01 45 e8          	add    %rax,-0x18(%rbp)
  10a01f:	e9 af 00 00 00       	jmpq   10a0d3 <_ZN11FAT32Driver8ReadFileE8DirEntrymPvm+0x18f>
  10a024:	48 8b 55 80          	mov    -0x80(%rbp),%rdx
  10a028:	48 8b 45 90          	mov    -0x70(%rbp),%rax
  10a02c:	48 01 d0             	add    %rdx,%rax
  10a02f:	48 2b 45 e8          	sub    -0x18(%rbp),%rax
  10a033:	48 89 45 d0          	mov    %rax,-0x30(%rbp)
  10a037:	48 8b 45 98          	mov    -0x68(%rbp),%rax
  10a03b:	8b 40 30             	mov    0x30(%rax),%eax
  10a03e:	89 c0                	mov    %eax,%eax
  10a040:	48 39 45 d0          	cmp    %rax,-0x30(%rbp)
  10a044:	76 24                	jbe    10a06a <_ZN11FAT32Driver8ReadFileE8DirEntrymPvm+0x126>
  10a046:	48 8b 45 98          	mov    -0x68(%rbp),%rax
  10a04a:	8b 40 30             	mov    0x30(%rax),%eax
  10a04d:	89 c0                	mov    %eax,%eax
  10a04f:	48 89 45 d0          	mov    %rax,-0x30(%rbp)
  10a053:	48 8b 55 e0          	mov    -0x20(%rbp),%rdx
  10a057:	8b 4d cc             	mov    -0x34(%rbp),%ecx
  10a05a:	48 8b 45 98          	mov    -0x68(%rbp),%rax
  10a05e:	89 ce                	mov    %ecx,%esi
  10a060:	48 89 c7             	mov    %rax,%rdi
  10a063:	e8 5a e3 ff ff       	callq  1083c2 <_ZN11FAT32Driver11ReadClusterEjPv>
  10a068:	eb 54                	jmp    10a0be <_ZN11FAT32Driver8ReadFileE8DirEntrymPvm+0x17a>
  10a06a:	48 8b 45 98          	mov    -0x68(%rbp),%rax
  10a06e:	8b 40 30             	mov    0x30(%rax),%eax
  10a071:	89 c0                	mov    %eax,%eax
  10a073:	48 89 c7             	mov    %rax,%rdi
  10a076:	e8 f2 99 ff ff       	callq  103a6d <_Znam>
  10a07b:	48 89 45 c0          	mov    %rax,-0x40(%rbp)
  10a07f:	48 8b 55 c0          	mov    -0x40(%rbp),%rdx
  10a083:	8b 4d cc             	mov    -0x34(%rbp),%ecx
  10a086:	48 8b 45 98          	mov    -0x68(%rbp),%rax
  10a08a:	89 ce                	mov    %ecx,%esi
  10a08c:	48 89 c7             	mov    %rax,%rdi
  10a08f:	e8 2e e3 ff ff       	callq  1083c2 <_ZN11FAT32Driver11ReadClusterEjPv>
  10a094:	48 8b 55 d0          	mov    -0x30(%rbp),%rdx
  10a098:	48 8b 4d c0          	mov    -0x40(%rbp),%rcx
  10a09c:	48 8b 45 e0          	mov    -0x20(%rbp),%rax
  10a0a0:	48 89 ce             	mov    %rcx,%rsi
  10a0a3:	48 89 c7             	mov    %rax,%rdi
  10a0a6:	e8 7e 2d 00 00       	callq  10ce29 <_Z6memcpyPvPKvm>
  10a0ab:	48 83 7d c0 00       	cmpq   $0x0,-0x40(%rbp)
  10a0b0:	74 0c                	je     10a0be <_ZN11FAT32Driver8ReadFileE8DirEntrymPvm+0x17a>
  10a0b2:	48 8b 45 c0          	mov    -0x40(%rbp),%rax
  10a0b6:	48 89 c7             	mov    %rax,%rdi
  10a0b9:	e8 ec 99 ff ff       	callq  103aaa <_ZdaPv>
  10a0be:	48 8b 45 98          	mov    -0x68(%rbp),%rax
  10a0c2:	8b 40 30             	mov    0x30(%rax),%eax
  10a0c5:	89 c0                	mov    %eax,%eax
  10a0c7:	48 01 45 e0          	add    %rax,-0x20(%rbp)
  10a0cb:	48 8b 45 d0          	mov    -0x30(%rbp),%rax
  10a0cf:	48 01 45 e8          	add    %rax,-0x18(%rbp)
  10a0d3:	83 45 dc 01          	addl   $0x1,-0x24(%rbp)
  10a0d7:	e9 f8 fe ff ff       	jmpq   109fd4 <_ZN11FAT32Driver8ReadFileE8DirEntrymPvm+0x90>
  10a0dc:	bb 00 00 00 00       	mov    $0x0,%ebx
  10a0e1:	48 8d 45 a0          	lea    -0x60(%rbp),%rax
  10a0e5:	48 89 c7             	mov    %rax,%rdi
  10a0e8:	e8 83 45 00 00       	callq  10e670 <_ZN6vectorIjED1Ev>
  10a0ed:	89 d8                	mov    %ebx,%eax
  10a0ef:	48 83 c4 78          	add    $0x78,%rsp
  10a0f3:	5b                   	pop    %rbx
  10a0f4:	5d                   	pop    %rbp
  10a0f5:	c3                   	retq   

000000000010a0f6 <_ZN11FAT32Driver9WriteFileE8DirEntrymPvm>:
  10a0f6:	f3 0f 1e fa          	endbr64 
  10a0fa:	55                   	push   %rbp
  10a0fb:	48 89 e5             	mov    %rsp,%rbp
  10a0fe:	53                   	push   %rbx
  10a0ff:	48 83 ec 78          	sub    $0x78,%rsp
  10a103:	48 89 7d 98          	mov    %rdi,-0x68(%rbp)
  10a107:	48 89 75 90          	mov    %rsi,-0x70(%rbp)
  10a10b:	48 89 55 88          	mov    %rdx,-0x78(%rbp)
  10a10f:	48 89 4d 80          	mov    %rcx,-0x80(%rbp)
  10a113:	0f b6 85 98 00 00 00 	movzbl 0x98(%rbp),%eax
  10a11a:	0f b6 c0             	movzbl %al,%eax
  10a11d:	83 e0 10             	and    $0x10,%eax
  10a120:	85 c0                	test   %eax,%eax
  10a122:	74 0a                	je     10a12e <_ZN11FAT32Driver9WriteFileE8DirEntrymPvm+0x38>
  10a124:	bb fd ff ff ff       	mov    $0xfffffffd,%ebx
  10a129:	e9 91 02 00 00       	jmpq   10a3bf <_ZN11FAT32Driver9WriteFileE8DirEntrymPvm+0x2c9>
  10a12e:	48 8b 55 80          	mov    -0x80(%rbp),%rdx
  10a132:	48 8b 45 90          	mov    -0x70(%rbp),%rax
  10a136:	48 01 d0             	add    %rdx,%rax
  10a139:	8b 95 94 00 00 00    	mov    0x94(%rbp),%edx
  10a13f:	89 d2                	mov    %edx,%edx
  10a141:	48 39 d0             	cmp    %rdx,%rax
  10a144:	76 5b                	jbe    10a1a1 <_ZN11FAT32Driver9WriteFileE8DirEntrymPvm+0xab>
  10a146:	48 8b 45 80          	mov    -0x80(%rbp),%rax
  10a14a:	89 c2                	mov    %eax,%edx
  10a14c:	48 8b 45 90          	mov    -0x70(%rbp),%rax
  10a150:	01 d0                	add    %edx,%eax
  10a152:	89 85 94 00 00 00    	mov    %eax,0x94(%rbp)
  10a158:	8b 85 94 00 00 00    	mov    0x94(%rbp),%eax
  10a15e:	48 8b 55 98          	mov    -0x68(%rbp),%rdx
  10a162:	8b 5a 30             	mov    0x30(%rdx),%ebx
  10a165:	ba 00 00 00 00       	mov    $0x0,%edx
  10a16a:	f7 f3                	div    %ebx
  10a16c:	89 45 ec             	mov    %eax,-0x14(%rbp)
  10a16f:	48 8b 45 98          	mov    -0x68(%rbp),%rax
  10a173:	8b 40 30             	mov    0x30(%rax),%eax
  10a176:	0f af 45 ec          	imul   -0x14(%rbp),%eax
  10a17a:	89 c2                	mov    %eax,%edx
  10a17c:	8b 85 94 00 00 00    	mov    0x94(%rbp),%eax
  10a182:	39 c2                	cmp    %eax,%edx
  10a184:	74 04                	je     10a18a <_ZN11FAT32Driver9WriteFileE8DirEntrymPvm+0x94>
  10a186:	83 45 ec 01          	addl   $0x1,-0x14(%rbp)
  10a18a:	8b 8d 90 00 00 00    	mov    0x90(%rbp),%ecx
  10a190:	8b 55 ec             	mov    -0x14(%rbp),%edx
  10a193:	48 8b 45 98          	mov    -0x68(%rbp),%rax
  10a197:	89 ce                	mov    %ecx,%esi
  10a199:	48 89 c7             	mov    %rax,%rdi
  10a19c:	e8 57 e7 ff ff       	callq  1088f8 <_ZN11FAT32Driver18ResizeClusterChainEjj>
  10a1a1:	8b 95 90 00 00 00    	mov    0x90(%rbp),%edx
  10a1a7:	48 8d 45 a0          	lea    -0x60(%rbp),%rax
  10a1ab:	48 8b 4d 98          	mov    -0x68(%rbp),%rcx
  10a1af:	48 89 ce             	mov    %rcx,%rsi
  10a1b2:	48 89 c7             	mov    %rax,%rdi
  10a1b5:	e8 5c e3 ff ff       	callq  108516 <_ZN11FAT32Driver15GetClusterChainEj>
  10a1ba:	48 c7 45 e0 00 00 00 	movq   $0x0,-0x20(%rbp)
  10a1c1:	00 
  10a1c2:	48 8b 45 88          	mov    -0x78(%rbp),%rax
  10a1c6:	48 89 45 d8          	mov    %rax,-0x28(%rbp)
  10a1ca:	c7 45 d4 00 00 00 00 	movl   $0x0,-0x2c(%rbp)
  10a1d1:	8b 5d d4             	mov    -0x2c(%rbp),%ebx
  10a1d4:	48 8d 45 a0          	lea    -0x60(%rbp),%rax
  10a1d8:	48 89 c7             	mov    %rax,%rdi
  10a1db:	e8 c8 45 00 00       	callq  10e7a8 <_ZNK6vectorIjE4sizeEv>
  10a1e0:	48 39 c3             	cmp    %rax,%rbx
  10a1e3:	0f 92 c0             	setb   %al
  10a1e6:	84 c0                	test   %al,%al
  10a1e8:	0f 84 eb 00 00 00    	je     10a2d9 <_ZN11FAT32Driver9WriteFileE8DirEntrymPvm+0x1e3>
  10a1ee:	8b 55 d4             	mov    -0x2c(%rbp),%edx
  10a1f1:	48 8d 45 a0          	lea    -0x60(%rbp),%rax
  10a1f5:	48 89 d6             	mov    %rdx,%rsi
  10a1f8:	48 89 c7             	mov    %rax,%rdi
  10a1fb:	e8 c2 45 00 00       	callq  10e7c2 <_ZN6vectorIjEixEm>
  10a200:	8b 00                	mov    (%rax),%eax
  10a202:	89 45 c4             	mov    %eax,-0x3c(%rbp)
  10a205:	48 8b 45 e0          	mov    -0x20(%rbp),%rax
  10a209:	48 3b 45 90          	cmp    -0x70(%rbp),%rax
  10a20d:	73 12                	jae    10a221 <_ZN11FAT32Driver9WriteFileE8DirEntrymPvm+0x12b>
  10a20f:	48 8b 45 98          	mov    -0x68(%rbp),%rax
  10a213:	8b 40 30             	mov    0x30(%rax),%eax
  10a216:	89 c0                	mov    %eax,%eax
  10a218:	48 01 45 e0          	add    %rax,-0x20(%rbp)
  10a21c:	e9 af 00 00 00       	jmpq   10a2d0 <_ZN11FAT32Driver9WriteFileE8DirEntrymPvm+0x1da>
  10a221:	48 8b 55 80          	mov    -0x80(%rbp),%rdx
  10a225:	48 8b 45 90          	mov    -0x70(%rbp),%rax
  10a229:	48 01 d0             	add    %rdx,%rax
  10a22c:	48 2b 45 e0          	sub    -0x20(%rbp),%rax
  10a230:	48 89 45 c8          	mov    %rax,-0x38(%rbp)
  10a234:	48 8b 45 98          	mov    -0x68(%rbp),%rax
  10a238:	8b 40 30             	mov    0x30(%rax),%eax
  10a23b:	89 c0                	mov    %eax,%eax
  10a23d:	48 39 45 c8          	cmp    %rax,-0x38(%rbp)
  10a241:	76 24                	jbe    10a267 <_ZN11FAT32Driver9WriteFileE8DirEntrymPvm+0x171>
  10a243:	48 8b 45 98          	mov    -0x68(%rbp),%rax
  10a247:	8b 40 30             	mov    0x30(%rax),%eax
  10a24a:	89 c0                	mov    %eax,%eax
  10a24c:	48 89 45 c8          	mov    %rax,-0x38(%rbp)
  10a250:	48 8b 55 d8          	mov    -0x28(%rbp),%rdx
  10a254:	8b 4d c4             	mov    -0x3c(%rbp),%ecx
  10a257:	48 8b 45 98          	mov    -0x68(%rbp),%rax
  10a25b:	89 ce                	mov    %ecx,%esi
  10a25d:	48 89 c7             	mov    %rax,%rdi
  10a260:	e8 07 e2 ff ff       	callq  10846c <_ZN11FAT32Driver12WriteClusterEjPv>
  10a265:	eb 54                	jmp    10a2bb <_ZN11FAT32Driver9WriteFileE8DirEntrymPvm+0x1c5>
  10a267:	48 8b 45 98          	mov    -0x68(%rbp),%rax
  10a26b:	8b 40 30             	mov    0x30(%rax),%eax
  10a26e:	89 c0                	mov    %eax,%eax
  10a270:	48 89 c7             	mov    %rax,%rdi
  10a273:	e8 f5 97 ff ff       	callq  103a6d <_Znam>
  10a278:	48 89 45 b8          	mov    %rax,-0x48(%rbp)
  10a27c:	48 8b 55 b8          	mov    -0x48(%rbp),%rdx
  10a280:	8b 4d c4             	mov    -0x3c(%rbp),%ecx
  10a283:	48 8b 45 98          	mov    -0x68(%rbp),%rax
  10a287:	89 ce                	mov    %ecx,%esi
  10a289:	48 89 c7             	mov    %rax,%rdi
  10a28c:	e8 db e1 ff ff       	callq  10846c <_ZN11FAT32Driver12WriteClusterEjPv>
  10a291:	48 8b 55 c8          	mov    -0x38(%rbp),%rdx
  10a295:	48 8b 4d b8          	mov    -0x48(%rbp),%rcx
  10a299:	48 8b 45 d8          	mov    -0x28(%rbp),%rax
  10a29d:	48 89 ce             	mov    %rcx,%rsi
  10a2a0:	48 89 c7             	mov    %rax,%rdi
  10a2a3:	e8 81 2b 00 00       	callq  10ce29 <_Z6memcpyPvPKvm>
  10a2a8:	48 83 7d b8 00       	cmpq   $0x0,-0x48(%rbp)
  10a2ad:	74 0c                	je     10a2bb <_ZN11FAT32Driver9WriteFileE8DirEntrymPvm+0x1c5>
  10a2af:	48 8b 45 b8          	mov    -0x48(%rbp),%rax
  10a2b3:	48 89 c7             	mov    %rax,%rdi
  10a2b6:	e8 ef 97 ff ff       	callq  103aaa <_ZdaPv>
  10a2bb:	48 8b 45 98          	mov    -0x68(%rbp),%rax
  10a2bf:	8b 40 30             	mov    0x30(%rax),%eax
  10a2c2:	89 c0                	mov    %eax,%eax
  10a2c4:	48 01 45 d8          	add    %rax,-0x28(%rbp)
  10a2c8:	48 8b 45 c8          	mov    -0x38(%rbp),%rax
  10a2cc:	48 01 45 e0          	add    %rax,-0x20(%rbp)
  10a2d0:	83 45 d4 01          	addl   $0x1,-0x2c(%rbp)
  10a2d4:	e9 f8 fe ff ff       	jmpq   10a1d1 <_ZN11FAT32Driver9WriteFileE8DirEntrymPvm+0xdb>
  10a2d9:	8b b5 9c 00 00 00    	mov    0x9c(%rbp),%esi
  10a2df:	48 8b 7d 98          	mov    -0x68(%rbp),%rdi
  10a2e3:	48 83 ec 08          	sub    $0x8,%rsp
  10a2e7:	48 81 ec 98 00 00 00 	sub    $0x98,%rsp
  10a2ee:	48 89 e0             	mov    %rsp,%rax
  10a2f1:	48 8b 4d 10          	mov    0x10(%rbp),%rcx
  10a2f5:	48 8b 5d 18          	mov    0x18(%rbp),%rbx
  10a2f9:	48 89 08             	mov    %rcx,(%rax)
  10a2fc:	48 89 58 08          	mov    %rbx,0x8(%rax)
  10a300:	48 8b 4d 20          	mov    0x20(%rbp),%rcx
  10a304:	48 8b 5d 28          	mov    0x28(%rbp),%rbx
  10a308:	48 89 48 10          	mov    %rcx,0x10(%rax)
  10a30c:	48 89 58 18          	mov    %rbx,0x18(%rax)
  10a310:	48 8b 4d 30          	mov    0x30(%rbp),%rcx
  10a314:	48 8b 5d 38          	mov    0x38(%rbp),%rbx
  10a318:	48 89 48 20          	mov    %rcx,0x20(%rax)
  10a31c:	48 89 58 28          	mov    %rbx,0x28(%rax)
  10a320:	48 8b 4d 40          	mov    0x40(%rbp),%rcx
  10a324:	48 8b 5d 48          	mov    0x48(%rbp),%rbx
  10a328:	48 89 48 30          	mov    %rcx,0x30(%rax)
  10a32c:	48 89 58 38          	mov    %rbx,0x38(%rax)
  10a330:	48 8b 4d 50          	mov    0x50(%rbp),%rcx
  10a334:	48 8b 5d 58          	mov    0x58(%rbp),%rbx
  10a338:	48 89 48 40          	mov    %rcx,0x40(%rax)
  10a33c:	48 89 58 48          	mov    %rbx,0x48(%rax)
  10a340:	48 8b 4d 60          	mov    0x60(%rbp),%rcx
  10a344:	48 8b 5d 68          	mov    0x68(%rbp),%rbx
  10a348:	48 89 48 50          	mov    %rcx,0x50(%rax)
  10a34c:	48 89 58 58          	mov    %rbx,0x58(%rax)
  10a350:	48 8b 4d 70          	mov    0x70(%rbp),%rcx
  10a354:	48 8b 5d 78          	mov    0x78(%rbp),%rbx
  10a358:	48 89 48 60          	mov    %rcx,0x60(%rax)
  10a35c:	48 89 58 68          	mov    %rbx,0x68(%rax)
  10a360:	48 8b 8d 80 00 00 00 	mov    0x80(%rbp),%rcx
  10a367:	48 8b 9d 88 00 00 00 	mov    0x88(%rbp),%rbx
  10a36e:	48 89 48 70          	mov    %rcx,0x70(%rax)
  10a372:	48 89 58 78          	mov    %rbx,0x78(%rax)
  10a376:	48 8b 8d 90 00 00 00 	mov    0x90(%rbp),%rcx
  10a37d:	48 8b 9d 98 00 00 00 	mov    0x98(%rbp),%rbx
  10a384:	48 89 88 80 00 00 00 	mov    %rcx,0x80(%rax)
  10a38b:	48 89 98 88 00 00 00 	mov    %rbx,0x88(%rax)
  10a392:	8b 95 a0 00 00 00    	mov    0xa0(%rbp),%edx
  10a398:	89 90 90 00 00 00    	mov    %edx,0x90(%rax)
  10a39e:	48 8d 55 10          	lea    0x10(%rbp),%rdx
  10a3a2:	e8 41 e9 ff ff       	callq  108ce8 <_ZN11FAT32Driver20ModifyDirectoryEntryEjPKc8DirEntry>
  10a3a7:	48 81 c4 a0 00 00 00 	add    $0xa0,%rsp
  10a3ae:	bb 00 00 00 00       	mov    $0x0,%ebx
  10a3b3:	48 8d 45 a0          	lea    -0x60(%rbp),%rax
  10a3b7:	48 89 c7             	mov    %rax,%rdi
  10a3ba:	e8 b1 42 00 00       	callq  10e670 <_ZN6vectorIjED1Ev>
  10a3bf:	89 d8                	mov    %ebx,%eax
  10a3c1:	48 8b 5d f8          	mov    -0x8(%rbp),%rbx
  10a3c5:	c9                   	leaveq 
  10a3c6:	c3                   	retq   
  10a3c7:	90                   	nop

000000000010a3c8 <_ZN11FAT32Driver10ResizeFileE8DirEntryj>:
  10a3c8:	f3 0f 1e fa          	endbr64 
  10a3cc:	55                   	push   %rbp
  10a3cd:	48 89 e5             	mov    %rsp,%rbp
  10a3d0:	53                   	push   %rbx
  10a3d1:	48 83 ec 28          	sub    $0x28,%rsp
  10a3d5:	48 89 7d d8          	mov    %rdi,-0x28(%rbp)
  10a3d9:	89 75 d4             	mov    %esi,-0x2c(%rbp)
  10a3dc:	0f b6 85 98 00 00 00 	movzbl 0x98(%rbp),%eax
  10a3e3:	0f b6 c0             	movzbl %al,%eax
  10a3e6:	83 e0 10             	and    $0x10,%eax
  10a3e9:	85 c0                	test   %eax,%eax
  10a3eb:	74 0a                	je     10a3f7 <_ZN11FAT32Driver10ResizeFileE8DirEntryj+0x2f>
  10a3ed:	b8 fd ff ff ff       	mov    $0xfffffffd,%eax
  10a3f2:	e9 2c 01 00 00       	jmpq   10a523 <_ZN11FAT32Driver10ResizeFileE8DirEntryj+0x15b>
  10a3f7:	8b 45 d4             	mov    -0x2c(%rbp),%eax
  10a3fa:	89 85 94 00 00 00    	mov    %eax,0x94(%rbp)
  10a400:	8b 85 94 00 00 00    	mov    0x94(%rbp),%eax
  10a406:	48 8b 55 d8          	mov    -0x28(%rbp),%rdx
  10a40a:	8b 5a 30             	mov    0x30(%rdx),%ebx
  10a40d:	ba 00 00 00 00       	mov    $0x0,%edx
  10a412:	f7 f3                	div    %ebx
  10a414:	89 45 ec             	mov    %eax,-0x14(%rbp)
  10a417:	48 8b 45 d8          	mov    -0x28(%rbp),%rax
  10a41b:	8b 40 30             	mov    0x30(%rax),%eax
  10a41e:	0f af 45 ec          	imul   -0x14(%rbp),%eax
  10a422:	89 c2                	mov    %eax,%edx
  10a424:	8b 85 94 00 00 00    	mov    0x94(%rbp),%eax
  10a42a:	39 c2                	cmp    %eax,%edx
  10a42c:	74 04                	je     10a432 <_ZN11FAT32Driver10ResizeFileE8DirEntryj+0x6a>
  10a42e:	83 45 ec 01          	addl   $0x1,-0x14(%rbp)
  10a432:	8b 8d 90 00 00 00    	mov    0x90(%rbp),%ecx
  10a438:	8b 55 ec             	mov    -0x14(%rbp),%edx
  10a43b:	48 8b 45 d8          	mov    -0x28(%rbp),%rax
  10a43f:	89 ce                	mov    %ecx,%esi
  10a441:	48 89 c7             	mov    %rax,%rdi
  10a444:	e8 af e4 ff ff       	callq  1088f8 <_ZN11FAT32Driver18ResizeClusterChainEjj>
  10a449:	8b b5 9c 00 00 00    	mov    0x9c(%rbp),%esi
  10a44f:	48 8b 7d d8          	mov    -0x28(%rbp),%rdi
  10a453:	48 83 ec 08          	sub    $0x8,%rsp
  10a457:	48 81 ec 98 00 00 00 	sub    $0x98,%rsp
  10a45e:	48 89 e0             	mov    %rsp,%rax
  10a461:	48 8b 4d 10          	mov    0x10(%rbp),%rcx
  10a465:	48 8b 5d 18          	mov    0x18(%rbp),%rbx
  10a469:	48 89 08             	mov    %rcx,(%rax)
  10a46c:	48 89 58 08          	mov    %rbx,0x8(%rax)
  10a470:	48 8b 4d 20          	mov    0x20(%rbp),%rcx
  10a474:	48 8b 5d 28          	mov    0x28(%rbp),%rbx
  10a478:	48 89 48 10          	mov    %rcx,0x10(%rax)
  10a47c:	48 89 58 18          	mov    %rbx,0x18(%rax)
  10a480:	48 8b 4d 30          	mov    0x30(%rbp),%rcx
  10a484:	48 8b 5d 38          	mov    0x38(%rbp),%rbx
  10a488:	48 89 48 20          	mov    %rcx,0x20(%rax)
  10a48c:	48 89 58 28          	mov    %rbx,0x28(%rax)
  10a490:	48 8b 4d 40          	mov    0x40(%rbp),%rcx
  10a494:	48 8b 5d 48          	mov    0x48(%rbp),%rbx
  10a498:	48 89 48 30          	mov    %rcx,0x30(%rax)
  10a49c:	48 89 58 38          	mov    %rbx,0x38(%rax)
  10a4a0:	48 8b 4d 50          	mov    0x50(%rbp),%rcx
  10a4a4:	48 8b 5d 58          	mov    0x58(%rbp),%rbx
  10a4a8:	48 89 48 40          	mov    %rcx,0x40(%rax)
  10a4ac:	48 89 58 48          	mov    %rbx,0x48(%rax)
  10a4b0:	48 8b 4d 60          	mov    0x60(%rbp),%rcx
  10a4b4:	48 8b 5d 68          	mov    0x68(%rbp),%rbx
  10a4b8:	48 89 48 50          	mov    %rcx,0x50(%rax)
  10a4bc:	48 89 58 58          	mov    %rbx,0x58(%rax)
  10a4c0:	48 8b 4d 70          	mov    0x70(%rbp),%rcx
  10a4c4:	48 8b 5d 78          	mov    0x78(%rbp),%rbx
  10a4c8:	48 89 48 60          	mov    %rcx,0x60(%rax)
  10a4cc:	48 89 58 68          	mov    %rbx,0x68(%rax)
  10a4d0:	48 8b 8d 80 00 00 00 	mov    0x80(%rbp),%rcx
  10a4d7:	48 8b 9d 88 00 00 00 	mov    0x88(%rbp),%rbx
  10a4de:	48 89 48 70          	mov    %rcx,0x70(%rax)
  10a4e2:	48 89 58 78          	mov    %rbx,0x78(%rax)
  10a4e6:	48 8b 8d 90 00 00 00 	mov    0x90(%rbp),%rcx
  10a4ed:	48 8b 9d 98 00 00 00 	mov    0x98(%rbp),%rbx
  10a4f4:	48 89 88 80 00 00 00 	mov    %rcx,0x80(%rax)
  10a4fb:	48 89 98 88 00 00 00 	mov    %rbx,0x88(%rax)
  10a502:	8b 95 a0 00 00 00    	mov    0xa0(%rbp),%edx
  10a508:	89 90 90 00 00 00    	mov    %edx,0x90(%rax)
  10a50e:	48 8d 55 10          	lea    0x10(%rbp),%rdx
  10a512:	e8 d1 e7 ff ff       	callq  108ce8 <_ZN11FAT32Driver20ModifyDirectoryEntryEjPKc8DirEntry>
  10a517:	48 81 c4 a0 00 00 00 	add    $0xa0,%rsp
  10a51e:	b8 00 00 00 00       	mov    $0x0,%eax
  10a523:	48 8b 5d f8          	mov    -0x8(%rbp),%rbx
  10a527:	c9                   	leaveq 
  10a528:	c3                   	retq   
  10a529:	90                   	nop

000000000010a52a <_ZN11FAT32Driver22GetClusterFromFilePathEPKcP8DirEntry>:
  10a52a:	f3 0f 1e fa          	endbr64 
  10a52e:	55                   	push   %rbp
  10a52f:	48 89 e5             	mov    %rsp,%rbp
  10a532:	53                   	push   %rbx
  10a533:	48 81 ec d8 01 00 00 	sub    $0x1d8,%rsp
  10a53a:	48 89 bd 38 fe ff ff 	mov    %rdi,-0x1c8(%rbp)
  10a541:	48 89 b5 30 fe ff ff 	mov    %rsi,-0x1d0(%rbp)
  10a548:	48 89 95 28 fe ff ff 	mov    %rdx,-0x1d8(%rbp)
  10a54f:	66 c7 45 ee 02 00    	movw   $0x2,-0x12(%rbp)
  10a555:	48 8b 85 38 fe ff ff 	mov    -0x1c8(%rbp),%rax
  10a55c:	8b 40 38             	mov    0x38(%rax),%eax
  10a55f:	89 45 e8             	mov    %eax,-0x18(%rbp)
  10a562:	c7 45 e4 02 00 00 00 	movl   $0x2,-0x1c(%rbp)
  10a569:	48 8b 85 30 fe ff ff 	mov    -0x1d0(%rbp),%rax
  10a570:	48 8d 35 09 6d 00 00 	lea    0x6d09(%rip),%rsi        # 111280 <_ZL8sc_ascii+0x1c0>
  10a577:	48 89 c7             	mov    %rax,%rdi
  10a57a:	e8 0b 21 00 00       	callq  10c68a <_Z6strcmpPcS_>
  10a57f:	85 c0                	test   %eax,%eax
  10a581:	0f 94 c0             	sete   %al
  10a584:	84 c0                	test   %al,%al
  10a586:	74 1f                	je     10a5a7 <_ZN11FAT32Driver22GetClusterFromFilePathEPKcP8DirEntry+0x7d>
  10a588:	c6 85 c8 fe ff ff 18 	movb   $0x18,-0x138(%rbp)
  10a58f:	c7 85 c4 fe ff ff 00 	movl   $0x0,-0x13c(%rbp)
  10a596:	00 00 00 
  10a599:	8b 45 e8             	mov    -0x18(%rbp),%eax
  10a59c:	89 85 c0 fe ff ff    	mov    %eax,-0x140(%rbp)
  10a5a2:	e9 e9 00 00 00       	jmpq   10a690 <_ZN11FAT32Driver22GetClusterFromFilePathEPKcP8DirEntry+0x166>
  10a5a7:	c7 45 e4 02 00 00 00 	movl   $0x2,-0x1c(%rbp)
  10a5ae:	8b 45 e4             	mov    -0x1c(%rbp),%eax
  10a5b1:	83 e8 01             	sub    $0x1,%eax
  10a5b4:	89 c2                	mov    %eax,%edx
  10a5b6:	48 8b 85 30 fe ff ff 	mov    -0x1d0(%rbp),%rax
  10a5bd:	48 01 d0             	add    %rdx,%rax
  10a5c0:	0f b6 00             	movzbl (%rax),%eax
  10a5c3:	84 c0                	test   %al,%al
  10a5c5:	0f 84 c5 00 00 00    	je     10a690 <_ZN11FAT32Driver22GetClusterFromFilePathEPKcP8DirEntry+0x166>
  10a5cb:	8b 55 e4             	mov    -0x1c(%rbp),%edx
  10a5ce:	48 8b 85 30 fe ff ff 	mov    -0x1d0(%rbp),%rax
  10a5d5:	48 01 d0             	add    %rdx,%rax
  10a5d8:	0f b6 00             	movzbl (%rax),%eax
  10a5db:	3c 2f                	cmp    $0x2f,%al
  10a5dd:	74 18                	je     10a5f7 <_ZN11FAT32Driver22GetClusterFromFilePathEPKcP8DirEntry+0xcd>
  10a5df:	8b 55 e4             	mov    -0x1c(%rbp),%edx
  10a5e2:	48 8b 85 30 fe ff ff 	mov    -0x1d0(%rbp),%rax
  10a5e9:	48 01 d0             	add    %rdx,%rax
  10a5ec:	0f b6 00             	movzbl (%rax),%eax
  10a5ef:	84 c0                	test   %al,%al
  10a5f1:	0f 85 90 00 00 00    	jne    10a687 <_ZN11FAT32Driver22GetClusterFromFilePathEPKcP8DirEntry+0x15d>
  10a5f7:	48 8d 85 e0 fe ff ff 	lea    -0x120(%rbp),%rax
  10a5fe:	ba 00 01 00 00       	mov    $0x100,%edx
  10a603:	be 00 00 00 00       	mov    $0x0,%esi
  10a608:	48 89 c7             	mov    %rax,%rdi
  10a60b:	e8 5b 28 00 00       	callq  10ce6b <_Z6memsetPvim>
  10a610:	0f b7 45 ee          	movzwl -0x12(%rbp),%eax
  10a614:	8b 55 e4             	mov    -0x1c(%rbp),%edx
  10a617:	29 c2                	sub    %eax,%edx
  10a619:	89 d0                	mov    %edx,%eax
  10a61b:	89 c6                	mov    %eax,%esi
  10a61d:	0f b7 55 ee          	movzwl -0x12(%rbp),%edx
  10a621:	48 8b 85 30 fe ff ff 	mov    -0x1d0(%rbp),%rax
  10a628:	48 01 d0             	add    %rdx,%rax
  10a62b:	48 89 c1             	mov    %rax,%rcx
  10a62e:	48 8d 85 e0 fe ff ff 	lea    -0x120(%rbp),%rax
  10a635:	48 89 f2             	mov    %rsi,%rdx
  10a638:	48 89 ce             	mov    %rcx,%rsi
  10a63b:	48 89 c7             	mov    %rax,%rdi
  10a63e:	e8 e6 27 00 00       	callq  10ce29 <_Z6memcpyPvPKvm>
  10a643:	48 8d 8d 40 fe ff ff 	lea    -0x1c0(%rbp),%rcx
  10a64a:	8b 55 e8             	mov    -0x18(%rbp),%edx
  10a64d:	48 8d b5 e0 fe ff ff 	lea    -0x120(%rbp),%rsi
  10a654:	48 8b 85 38 fe ff ff 	mov    -0x1c8(%rbp),%rax
  10a65b:	48 89 c7             	mov    %rax,%rdi
  10a65e:	e8 d7 ec ff ff       	callq  10933a <_ZN11FAT32Driver15DirectorySearchEPKcjP8DirEntry>
  10a663:	89 45 e0             	mov    %eax,-0x20(%rbp)
  10a666:	83 7d e0 00          	cmpl   $0x0,-0x20(%rbp)
  10a66a:	74 08                	je     10a674 <_ZN11FAT32Driver22GetClusterFromFilePathEPKcP8DirEntry+0x14a>
  10a66c:	8b 45 e0             	mov    -0x20(%rbp),%eax
  10a66f:	e9 0b 01 00 00       	jmpq   10a77f <_ZN11FAT32Driver22GetClusterFromFilePathEPKcP8DirEntry+0x255>
  10a674:	8b 45 e4             	mov    -0x1c(%rbp),%eax
  10a677:	83 c0 01             	add    $0x1,%eax
  10a67a:	66 89 45 ee          	mov    %ax,-0x12(%rbp)
  10a67e:	8b 85 c0 fe ff ff    	mov    -0x140(%rbp),%eax
  10a684:	89 45 e8             	mov    %eax,-0x18(%rbp)
  10a687:	83 45 e4 01          	addl   $0x1,-0x1c(%rbp)
  10a68b:	e9 1e ff ff ff       	jmpq   10a5ae <_ZN11FAT32Driver22GetClusterFromFilePathEPKcP8DirEntry+0x84>
  10a690:	48 83 bd 28 fe ff ff 	cmpq   $0x0,-0x1d8(%rbp)
  10a697:	00 
  10a698:	0f 84 de 00 00 00    	je     10a77c <_ZN11FAT32Driver22GetClusterFromFilePathEPKcP8DirEntry+0x252>
  10a69e:	48 8b 85 28 fe ff ff 	mov    -0x1d8(%rbp),%rax
  10a6a5:	48 8b 8d 40 fe ff ff 	mov    -0x1c0(%rbp),%rcx
  10a6ac:	48 8b 9d 48 fe ff ff 	mov    -0x1b8(%rbp),%rbx
  10a6b3:	48 89 08             	mov    %rcx,(%rax)
  10a6b6:	48 89 58 08          	mov    %rbx,0x8(%rax)
  10a6ba:	48 8b 8d 50 fe ff ff 	mov    -0x1b0(%rbp),%rcx
  10a6c1:	48 8b 9d 58 fe ff ff 	mov    -0x1a8(%rbp),%rbx
  10a6c8:	48 89 48 10          	mov    %rcx,0x10(%rax)
  10a6cc:	48 89 58 18          	mov    %rbx,0x18(%rax)
  10a6d0:	48 8b 8d 60 fe ff ff 	mov    -0x1a0(%rbp),%rcx
  10a6d7:	48 8b 9d 68 fe ff ff 	mov    -0x198(%rbp),%rbx
  10a6de:	48 89 48 20          	mov    %rcx,0x20(%rax)
  10a6e2:	48 89 58 28          	mov    %rbx,0x28(%rax)
  10a6e6:	48 8b 8d 70 fe ff ff 	mov    -0x190(%rbp),%rcx
  10a6ed:	48 8b 9d 78 fe ff ff 	mov    -0x188(%rbp),%rbx
  10a6f4:	48 89 48 30          	mov    %rcx,0x30(%rax)
  10a6f8:	48 89 58 38          	mov    %rbx,0x38(%rax)
  10a6fc:	48 8b 8d 80 fe ff ff 	mov    -0x180(%rbp),%rcx
  10a703:	48 8b 9d 88 fe ff ff 	mov    -0x178(%rbp),%rbx
  10a70a:	48 89 48 40          	mov    %rcx,0x40(%rax)
  10a70e:	48 89 58 48          	mov    %rbx,0x48(%rax)
  10a712:	48 8b 8d 90 fe ff ff 	mov    -0x170(%rbp),%rcx
  10a719:	48 8b 9d 98 fe ff ff 	mov    -0x168(%rbp),%rbx
  10a720:	48 89 48 50          	mov    %rcx,0x50(%rax)
  10a724:	48 89 58 58          	mov    %rbx,0x58(%rax)
  10a728:	48 8b 8d a0 fe ff ff 	mov    -0x160(%rbp),%rcx
  10a72f:	48 8b 9d a8 fe ff ff 	mov    -0x158(%rbp),%rbx
  10a736:	48 89 48 60          	mov    %rcx,0x60(%rax)
  10a73a:	48 89 58 68          	mov    %rbx,0x68(%rax)
  10a73e:	48 8b 8d b0 fe ff ff 	mov    -0x150(%rbp),%rcx
  10a745:	48 8b 9d b8 fe ff ff 	mov    -0x148(%rbp),%rbx
  10a74c:	48 89 48 70          	mov    %rcx,0x70(%rax)
  10a750:	48 89 58 78          	mov    %rbx,0x78(%rax)
  10a754:	48 8b 8d c0 fe ff ff 	mov    -0x140(%rbp),%rcx
  10a75b:	48 8b 9d c8 fe ff ff 	mov    -0x138(%rbp),%rbx
  10a762:	48 89 88 80 00 00 00 	mov    %rcx,0x80(%rax)
  10a769:	48 89 98 88 00 00 00 	mov    %rbx,0x88(%rax)
  10a770:	8b 95 d0 fe ff ff    	mov    -0x130(%rbp),%edx
  10a776:	89 90 90 00 00 00    	mov    %edx,0x90(%rax)
  10a77c:	8b 45 e8             	mov    -0x18(%rbp),%eax
  10a77f:	48 81 c4 d8 01 00 00 	add    $0x1d8,%rsp
  10a786:	5b                   	pop    %rbx
  10a787:	5d                   	pop    %rbp
  10a788:	c3                   	retq   
  10a789:	90                   	nop

000000000010a78a <_ZN11FAT32Driver12FromFATEntryEP14DirectoryEntryb>:
  10a78a:	f3 0f 1e fa          	endbr64 
  10a78e:	55                   	push   %rbp
  10a78f:	48 89 e5             	mov    %rsp,%rbp
  10a792:	48 81 ec d0 00 00 00 	sub    $0xd0,%rsp
  10a799:	48 89 bd 48 ff ff ff 	mov    %rdi,-0xb8(%rbp)
  10a7a0:	48 89 b5 40 ff ff ff 	mov    %rsi,-0xc0(%rbp)
  10a7a7:	48 89 95 38 ff ff ff 	mov    %rdx,-0xc8(%rbp)
  10a7ae:	89 c8                	mov    %ecx,%eax
  10a7b0:	88 85 34 ff ff ff    	mov    %al,-0xcc(%rbp)
  10a7b6:	80 bd 34 ff ff ff 00 	cmpb   $0x0,-0xcc(%rbp)
  10a7bd:	0f 84 fb 00 00 00    	je     10a8be <_ZN11FAT32Driver12FromFATEntryEP14DirectoryEntryb+0x134>
  10a7c3:	c7 45 fc 00 00 00 00 	movl   $0x0,-0x4(%rbp)
  10a7ca:	48 8b 85 38 ff ff ff 	mov    -0xc8(%rbp),%rax
  10a7d1:	48 83 e8 20          	sub    $0x20,%rax
  10a7d5:	48 89 45 f0          	mov    %rax,-0x10(%rbp)
  10a7d9:	c7 45 ec 00 00 00 00 	movl   $0x0,-0x14(%rbp)
  10a7e0:	83 7d ec 04          	cmpl   $0x4,-0x14(%rbp)
  10a7e4:	77 26                	ja     10a80c <_ZN11FAT32Driver12FromFATEntryEP14DirectoryEntryb+0x82>
  10a7e6:	48 8b 45 f0          	mov    -0x10(%rbp),%rax
  10a7ea:	8b 55 ec             	mov    -0x14(%rbp),%edx
  10a7ed:	0f b7 4c 50 01       	movzwl 0x1(%rax,%rdx,2),%ecx
  10a7f2:	8b 45 fc             	mov    -0x4(%rbp),%eax
  10a7f5:	8d 50 01             	lea    0x1(%rax),%edx
  10a7f8:	89 55 fc             	mov    %edx,-0x4(%rbp)
  10a7fb:	89 ca                	mov    %ecx,%edx
  10a7fd:	89 c0                	mov    %eax,%eax
  10a7ff:	88 94 05 50 ff ff ff 	mov    %dl,-0xb0(%rbp,%rax,1)
  10a806:	83 45 ec 01          	addl   $0x1,-0x14(%rbp)
  10a80a:	eb d4                	jmp    10a7e0 <_ZN11FAT32Driver12FromFATEntryEP14DirectoryEntryb+0x56>
  10a80c:	c7 45 e8 00 00 00 00 	movl   $0x0,-0x18(%rbp)
  10a813:	83 7d e8 05          	cmpl   $0x5,-0x18(%rbp)
  10a817:	77 26                	ja     10a83f <_ZN11FAT32Driver12FromFATEntryEP14DirectoryEntryb+0xb5>
  10a819:	48 8b 45 f0          	mov    -0x10(%rbp),%rax
  10a81d:	8b 55 e8             	mov    -0x18(%rbp),%edx
  10a820:	0f b7 4c 50 0e       	movzwl 0xe(%rax,%rdx,2),%ecx
  10a825:	8b 45 fc             	mov    -0x4(%rbp),%eax
  10a828:	8d 50 01             	lea    0x1(%rax),%edx
  10a82b:	89 55 fc             	mov    %edx,-0x4(%rbp)
  10a82e:	89 ca                	mov    %ecx,%edx
  10a830:	89 c0                	mov    %eax,%eax
  10a832:	88 94 05 50 ff ff ff 	mov    %dl,-0xb0(%rbp,%rax,1)
  10a839:	83 45 e8 01          	addl   $0x1,-0x18(%rbp)
  10a83d:	eb d4                	jmp    10a813 <_ZN11FAT32Driver12FromFATEntryEP14DirectoryEntryb+0x89>
  10a83f:	c7 45 e4 00 00 00 00 	movl   $0x0,-0x1c(%rbp)
  10a846:	83 7d e4 01          	cmpl   $0x1,-0x1c(%rbp)
  10a84a:	77 2a                	ja     10a876 <_ZN11FAT32Driver12FromFATEntryEP14DirectoryEntryb+0xec>
  10a84c:	48 8b 45 f0          	mov    -0x10(%rbp),%rax
  10a850:	8b 55 e4             	mov    -0x1c(%rbp),%edx
  10a853:	48 83 c2 08          	add    $0x8,%rdx
  10a857:	0f b7 4c 50 0c       	movzwl 0xc(%rax,%rdx,2),%ecx
  10a85c:	8b 45 fc             	mov    -0x4(%rbp),%eax
  10a85f:	8d 50 01             	lea    0x1(%rax),%edx
  10a862:	89 55 fc             	mov    %edx,-0x4(%rbp)
  10a865:	89 ca                	mov    %ecx,%edx
  10a867:	89 c0                	mov    %eax,%eax
  10a869:	88 94 05 50 ff ff ff 	mov    %dl,-0xb0(%rbp,%rax,1)
  10a870:	83 45 e4 01          	addl   $0x1,-0x1c(%rbp)
  10a874:	eb d0                	jmp    10a846 <_ZN11FAT32Driver12FromFATEntryEP14DirectoryEntryb+0xbc>
  10a876:	48 8b 45 f0          	mov    -0x10(%rbp),%rax
  10a87a:	0f b6 00             	movzbl (%rax),%eax
  10a87d:	0f b6 c0             	movzbl %al,%eax
  10a880:	83 e0 40             	and    $0x40,%eax
  10a883:	85 c0                	test   %eax,%eax
  10a885:	75 0a                	jne    10a891 <_ZN11FAT32Driver12FromFATEntryEP14DirectoryEntryb+0x107>
  10a887:	48 83 6d f0 20       	subq   $0x20,-0x10(%rbp)
  10a88c:	e9 48 ff ff ff       	jmpq   10a7d9 <_ZN11FAT32Driver12FromFATEntryEP14DirectoryEntryb+0x4f>
  10a891:	90                   	nop
  10a892:	8b 55 fc             	mov    -0x4(%rbp),%edx
  10a895:	48 8d 8d 50 ff ff ff 	lea    -0xb0(%rbp),%rcx
  10a89c:	48 8b 85 48 ff ff ff 	mov    -0xb8(%rbp),%rax
  10a8a3:	48 89 ce             	mov    %rcx,%rsi
  10a8a6:	48 89 c7             	mov    %rax,%rdi
  10a8a9:	e8 7b 25 00 00       	callq  10ce29 <_Z6memcpyPvPKvm>
  10a8ae:	48 8b 95 48 ff ff ff 	mov    -0xb8(%rbp),%rdx
  10a8b5:	8b 45 fc             	mov    -0x4(%rbp),%eax
  10a8b8:	c6 04 02 00          	movb   $0x0,(%rdx,%rax,1)
  10a8bc:	eb 61                	jmp    10a91f <_ZN11FAT32Driver12FromFATEntryEP14DirectoryEntryb+0x195>
  10a8be:	48 8b 8d 38 ff ff ff 	mov    -0xc8(%rbp),%rcx
  10a8c5:	48 8d 55 d3          	lea    -0x2d(%rbp),%rdx
  10a8c9:	48 8b 85 40 ff ff ff 	mov    -0xc0(%rbp),%rax
  10a8d0:	48 89 ce             	mov    %rcx,%rsi
  10a8d3:	48 89 c7             	mov    %rax,%rdi
  10a8d6:	e8 ef 09 00 00       	callq  10b2ca <_ZN11FAT32Driver20ConvertFromFATFormatEPcS0_>
  10a8db:	48 8d 55 d3          	lea    -0x2d(%rbp),%rdx
  10a8df:	48 8b 85 48 ff ff ff 	mov    -0xb8(%rbp),%rax
  10a8e6:	48 89 d6             	mov    %rdx,%rsi
  10a8e9:	48 89 c7             	mov    %rax,%rdi
  10a8ec:	e8 33 1e 00 00       	callq  10c724 <_Z6strcpyPcPKc>
  10a8f1:	c7 45 e0 0b 00 00 00 	movl   $0xb,-0x20(%rbp)
  10a8f8:	48 8b 95 48 ff ff ff 	mov    -0xb8(%rbp),%rdx
  10a8ff:	8b 45 e0             	mov    -0x20(%rbp),%eax
  10a902:	0f b6 04 02          	movzbl (%rdx,%rax,1),%eax
  10a906:	3c 20                	cmp    $0x20,%al
  10a908:	75 14                	jne    10a91e <_ZN11FAT32Driver12FromFATEntryEP14DirectoryEntryb+0x194>
  10a90a:	48 8b 95 48 ff ff ff 	mov    -0xb8(%rbp),%rdx
  10a911:	8b 45 e0             	mov    -0x20(%rbp),%eax
  10a914:	c6 04 02 00          	movb   $0x0,(%rdx,%rax,1)
  10a918:	83 6d e0 01          	subl   $0x1,-0x20(%rbp)
  10a91c:	eb da                	jmp    10a8f8 <_ZN11FAT32Driver12FromFATEntryEP14DirectoryEntryb+0x16e>
  10a91e:	90                   	nop
  10a91f:	48 8b 85 38 ff ff ff 	mov    -0xc8(%rbp),%rax
  10a926:	8b 50 1c             	mov    0x1c(%rax),%edx
  10a929:	48 8b 85 48 ff ff ff 	mov    -0xb8(%rbp),%rax
  10a930:	89 90 84 00 00 00    	mov    %edx,0x84(%rax)
  10a936:	48 8b 85 38 ff ff ff 	mov    -0xc8(%rbp),%rax
  10a93d:	0f b6 50 0b          	movzbl 0xb(%rax),%edx
  10a941:	48 8b 85 48 ff ff ff 	mov    -0xb8(%rbp),%rax
  10a948:	88 90 88 00 00 00    	mov    %dl,0x88(%rax)
  10a94e:	48 8b 85 38 ff ff ff 	mov    -0xc8(%rbp),%rax
  10a955:	0f b7 40 1a          	movzwl 0x1a(%rax),%eax
  10a959:	0f b7 d0             	movzwl %ax,%edx
  10a95c:	48 8b 85 38 ff ff ff 	mov    -0xc8(%rbp),%rax
  10a963:	0f b7 40 14          	movzwl 0x14(%rax),%eax
  10a967:	0f b7 c0             	movzwl %ax,%eax
  10a96a:	c1 e0 10             	shl    $0x10,%eax
  10a96d:	09 d0                	or     %edx,%eax
  10a96f:	89 c2                	mov    %eax,%edx
  10a971:	48 8b 85 48 ff ff ff 	mov    -0xb8(%rbp),%rax
  10a978:	89 90 80 00 00 00    	mov    %edx,0x80(%rax)
  10a97e:	90                   	nop
  10a97f:	48 8b 85 48 ff ff ff 	mov    -0xb8(%rbp),%rax
  10a986:	c9                   	leaveq 
  10a987:	c3                   	retq   

000000000010a988 <_ZN11FAT32Driver10ToFATEntryE8DirEntryRj>:
  10a988:	f3 0f 1e fa          	endbr64 
  10a98c:	55                   	push   %rbp
  10a98d:	48 89 e5             	mov    %rsp,%rbp
  10a990:	48 81 ec b0 00 00 00 	sub    $0xb0,%rsp
  10a997:	48 89 bd 58 ff ff ff 	mov    %rdi,-0xa8(%rbp)
  10a99e:	48 89 b5 50 ff ff ff 	mov    %rsi,-0xb0(%rbp)
  10a9a5:	48 8d 45 10          	lea    0x10(%rbp),%rax
  10a9a9:	48 89 45 a8          	mov    %rax,-0x58(%rbp)
  10a9ad:	48 8b 45 a8          	mov    -0x58(%rbp),%rax
  10a9b1:	48 89 c7             	mov    %rax,%rdi
  10a9b4:	e8 b3 1c 00 00       	callq  10c66c <_Z6strlenPc>
  10a9b9:	48 89 45 a0          	mov    %rax,-0x60(%rbp)
  10a9bd:	48 83 7d a0 0c       	cmpq   $0xc,-0x60(%rbp)
  10a9c2:	0f 87 3b 01 00 00    	ja     10ab03 <_ZN11FAT32Driver10ToFATEntryE8DirEntryRj+0x17b>
  10a9c8:	48 c7 45 f8 00 00 00 	movq   $0x0,-0x8(%rbp)
  10a9cf:	00 
  10a9d0:	48 8b 45 a8          	mov    -0x58(%rbp),%rax
  10a9d4:	ba 0b 00 00 00       	mov    $0xb,%edx
  10a9d9:	48 8d 35 88 68 00 00 	lea    0x6888(%rip),%rsi        # 111268 <_ZL8sc_ascii+0x1a8>
  10a9e0:	48 89 c7             	mov    %rax,%rdi
  10a9e3:	e8 02 1d 00 00       	callq  10c6ea <_Z7strncmpPcS_i>
  10a9e8:	85 c0                	test   %eax,%eax
  10a9ea:	74 1c                	je     10aa08 <_ZN11FAT32Driver10ToFATEntryE8DirEntryRj+0x80>
  10a9ec:	48 8b 45 a8          	mov    -0x58(%rbp),%rax
  10a9f0:	ba 0b 00 00 00       	mov    $0xb,%edx
  10a9f5:	48 8d 35 78 68 00 00 	lea    0x6878(%rip),%rsi        # 111274 <_ZL8sc_ascii+0x1b4>
  10a9fc:	48 89 c7             	mov    %rax,%rdi
  10a9ff:	e8 e6 1c 00 00       	callq  10c6ea <_Z7strncmpPcS_i>
  10aa04:	85 c0                	test   %eax,%eax
  10aa06:	75 07                	jne    10aa0f <_ZN11FAT32Driver10ToFATEntryE8DirEntryRj+0x87>
  10aa08:	b8 01 00 00 00       	mov    $0x1,%eax
  10aa0d:	eb 05                	jmp    10aa14 <_ZN11FAT32Driver10ToFATEntryE8DirEntryRj+0x8c>
  10aa0f:	b8 00 00 00 00       	mov    $0x0,%eax
  10aa14:	84 c0                	test   %al,%al
  10aa16:	74 0a                	je     10aa22 <_ZN11FAT32Driver10ToFATEntryE8DirEntryRj+0x9a>
  10aa18:	48 8b 45 a8          	mov    -0x58(%rbp),%rax
  10aa1c:	48 89 45 f8          	mov    %rax,-0x8(%rbp)
  10aa20:	eb 1a                	jmp    10aa3c <_ZN11FAT32Driver10ToFATEntryE8DirEntryRj+0xb4>
  10aa22:	48 8b 55 a8          	mov    -0x58(%rbp),%rdx
  10aa26:	48 8b 85 58 ff ff ff 	mov    -0xa8(%rbp),%rax
  10aa2d:	48 89 d6             	mov    %rdx,%rsi
  10aa30:	48 89 c7             	mov    %rax,%rdi
  10aa33:	e8 0a 07 00 00       	callq  10b142 <_ZN11FAT32Driver18ConvertToFATFormatEPc>
  10aa38:	48 89 45 f8          	mov    %rax,-0x8(%rbp)
  10aa3c:	48 8b 85 50 ff ff ff 	mov    -0xb0(%rbp),%rax
  10aa43:	c7 00 00 00 00 00    	movl   $0x0,(%rax)
  10aa49:	bf 20 00 00 00       	mov    $0x20,%edi
  10aa4e:	e8 fc 8f ff ff       	callq  103a4f <_Znwm>
  10aa53:	48 c7 00 00 00 00 00 	movq   $0x0,(%rax)
  10aa5a:	48 c7 40 08 00 00 00 	movq   $0x0,0x8(%rax)
  10aa61:	00 
  10aa62:	48 c7 40 10 00 00 00 	movq   $0x0,0x10(%rax)
  10aa69:	00 
  10aa6a:	48 c7 40 18 00 00 00 	movq   $0x0,0x18(%rax)
  10aa71:	00 
  10aa72:	48 89 85 78 ff ff ff 	mov    %rax,-0x88(%rbp)
  10aa79:	48 8b 85 78 ff ff ff 	mov    -0x88(%rbp),%rax
  10aa80:	ba 20 00 00 00       	mov    $0x20,%edx
  10aa85:	be 00 00 00 00       	mov    $0x0,%esi
  10aa8a:	48 89 c7             	mov    %rax,%rdi
  10aa8d:	e8 d9 23 00 00       	callq  10ce6b <_Z6memsetPvim>
  10aa92:	48 8b 85 78 ff ff ff 	mov    -0x88(%rbp),%rax
  10aa99:	48 8b 4d f8          	mov    -0x8(%rbp),%rcx
  10aa9d:	ba 0b 00 00 00       	mov    $0xb,%edx
  10aaa2:	48 89 ce             	mov    %rcx,%rsi
  10aaa5:	48 89 c7             	mov    %rax,%rdi
  10aaa8:	e8 7c 23 00 00       	callq  10ce29 <_Z6memcpyPvPKvm>
  10aaad:	0f b6 95 98 00 00 00 	movzbl 0x98(%rbp),%edx
  10aab4:	48 8b 85 78 ff ff ff 	mov    -0x88(%rbp),%rax
  10aabb:	88 50 0b             	mov    %dl,0xb(%rax)
  10aabe:	8b 95 94 00 00 00    	mov    0x94(%rbp),%edx
  10aac4:	48 8b 85 78 ff ff ff 	mov    -0x88(%rbp),%rax
  10aacb:	89 50 1c             	mov    %edx,0x1c(%rax)
  10aace:	8b 85 90 00 00 00    	mov    0x90(%rbp),%eax
  10aad4:	89 c2                	mov    %eax,%edx
  10aad6:	48 8b 85 78 ff ff ff 	mov    -0x88(%rbp),%rax
  10aadd:	66 89 50 1a          	mov    %dx,0x1a(%rax)
  10aae1:	8b 85 90 00 00 00    	mov    0x90(%rbp),%eax
  10aae7:	c1 e8 10             	shr    $0x10,%eax
  10aaea:	89 c2                	mov    %eax,%edx
  10aaec:	48 8b 85 78 ff ff ff 	mov    -0x88(%rbp),%rax
  10aaf3:	66 89 50 14          	mov    %dx,0x14(%rax)
  10aaf7:	48 8b 85 78 ff ff ff 	mov    -0x88(%rbp),%rax
  10aafe:	e9 c7 03 00 00       	jmpq   10aeca <_ZN11FAT32Driver10ToFATEntryE8DirEntryRj+0x542>
  10ab03:	48 8b 45 a0          	mov    -0x60(%rbp),%rax
  10ab07:	48 ba c5 4e ec c4 4e 	movabs $0x4ec4ec4ec4ec4ec5,%rdx
  10ab0e:	ec c4 4e 
  10ab11:	48 f7 e2             	mul    %rdx
  10ab14:	48 89 d0             	mov    %rdx,%rax
  10ab17:	48 c1 e8 02          	shr    $0x2,%rax
  10ab1b:	48 83 c0 01          	add    $0x1,%rax
  10ab1f:	48 89 45 98          	mov    %rax,-0x68(%rbp)
  10ab23:	48 8b 45 98          	mov    -0x68(%rbp),%rax
  10ab27:	89 c2                	mov    %eax,%edx
  10ab29:	48 8b 85 50 ff ff ff 	mov    -0xb0(%rbp),%rax
  10ab30:	89 10                	mov    %edx,(%rax)
  10ab32:	48 8b 45 98          	mov    -0x68(%rbp),%rax
  10ab36:	48 83 c0 01          	add    $0x1,%rax
  10ab3a:	48 ba ff ff ff ff ff 	movabs $0x3ffffffffffffff,%rdx
  10ab41:	ff ff 03 
  10ab44:	48 39 d0             	cmp    %rdx,%rax
  10ab47:	77 06                	ja     10ab4f <_ZN11FAT32Driver10ToFATEntryE8DirEntryRj+0x1c7>
  10ab49:	48 c1 e0 05          	shl    $0x5,%rax
  10ab4d:	eb 07                	jmp    10ab56 <_ZN11FAT32Driver10ToFATEntryE8DirEntryRj+0x1ce>
  10ab4f:	48 c7 c0 ff ff ff ff 	mov    $0xffffffffffffffff,%rax
  10ab56:	48 89 c7             	mov    %rax,%rdi
  10ab59:	e8 0f 8f ff ff       	callq  103a6d <_Znam>
  10ab5e:	48 89 45 90          	mov    %rax,-0x70(%rbp)
  10ab62:	48 8b 45 98          	mov    -0x68(%rbp),%rax
  10ab66:	48 c1 e0 05          	shl    $0x5,%rax
  10ab6a:	48 8d 50 e0          	lea    -0x20(%rax),%rdx
  10ab6e:	48 8b 45 90          	mov    -0x70(%rbp),%rax
  10ab72:	48 01 d0             	add    %rdx,%rax
  10ab75:	48 89 45 f0          	mov    %rax,-0x10(%rbp)
  10ab79:	c7 45 ec 00 00 00 00 	movl   $0x0,-0x14(%rbp)
  10ab80:	83 7d ec 05          	cmpl   $0x5,-0x14(%rbp)
  10ab84:	77 35                	ja     10abbb <_ZN11FAT32Driver10ToFATEntryE8DirEntryRj+0x233>
  10ab86:	8b 55 ec             	mov    -0x14(%rbp),%edx
  10ab89:	48 8b 45 a8          	mov    -0x58(%rbp),%rax
  10ab8d:	48 01 d0             	add    %rdx,%rax
  10ab90:	0f b6 00             	movzbl (%rax),%eax
  10ab93:	88 45 8f             	mov    %al,-0x71(%rbp)
  10ab96:	80 7d 8f 60          	cmpb   $0x60,-0x71(%rbp)
  10ab9a:	7e 19                	jle    10abb5 <_ZN11FAT32Driver10ToFATEntryE8DirEntryRj+0x22d>
  10ab9c:	80 7d 8f 7a          	cmpb   $0x7a,-0x71(%rbp)
  10aba0:	7f 13                	jg     10abb5 <_ZN11FAT32Driver10ToFATEntryE8DirEntryRj+0x22d>
  10aba2:	0f b6 45 8f          	movzbl -0x71(%rbp),%eax
  10aba6:	83 e8 20             	sub    $0x20,%eax
  10aba9:	89 c2                	mov    %eax,%edx
  10abab:	8b 45 ec             	mov    -0x14(%rbp),%eax
  10abae:	88 94 05 6d ff ff ff 	mov    %dl,-0x93(%rbp,%rax,1)
  10abb5:	83 45 ec 01          	addl   $0x1,-0x14(%rbp)
  10abb9:	eb c5                	jmp    10ab80 <_ZN11FAT32Driver10ToFATEntryE8DirEntryRj+0x1f8>
  10abbb:	c6 85 73 ff ff ff 7e 	movb   $0x7e,-0x8d(%rbp)
  10abc2:	c6 85 74 ff ff ff 31 	movb   $0x31,-0x8c(%rbp)
  10abc9:	c6 45 eb 00          	movb   $0x0,-0x15(%rbp)
  10abcd:	c7 45 e4 06 00 00 00 	movl   $0x6,-0x1c(%rbp)
  10abd4:	8b 45 e4             	mov    -0x1c(%rbp),%eax
  10abd7:	48 39 45 a0          	cmp    %rax,-0x60(%rbp)
  10abdb:	0f 86 82 00 00 00    	jbe    10ac63 <_ZN11FAT32Driver10ToFATEntryE8DirEntryRj+0x2db>
  10abe1:	8b 55 e4             	mov    -0x1c(%rbp),%edx
  10abe4:	48 8b 45 a8          	mov    -0x58(%rbp),%rax
  10abe8:	48 01 d0             	add    %rdx,%rax
  10abeb:	0f b6 00             	movzbl (%rax),%eax
  10abee:	3c 2e                	cmp    $0x2e,%al
  10abf0:	75 67                	jne    10ac59 <_ZN11FAT32Driver10ToFATEntryE8DirEntryRj+0x2d1>
  10abf2:	c6 45 eb 01          	movb   $0x1,-0x15(%rbp)
  10abf6:	c7 45 e0 00 00 00 00 	movl   $0x0,-0x20(%rbp)
  10abfd:	8b 45 e0             	mov    -0x20(%rbp),%eax
  10ac00:	8b 55 e4             	mov    -0x1c(%rbp),%edx
  10ac03:	83 c2 01             	add    $0x1,%edx
  10ac06:	89 d1                	mov    %edx,%ecx
  10ac08:	48 8b 55 a0          	mov    -0x60(%rbp),%rdx
  10ac0c:	48 29 ca             	sub    %rcx,%rdx
  10ac0f:	48 39 d0             	cmp    %rdx,%rax
  10ac12:	73 4e                	jae    10ac62 <_ZN11FAT32Driver10ToFATEntryE8DirEntryRj+0x2da>
  10ac14:	83 7d e0 02          	cmpl   $0x2,-0x20(%rbp)
  10ac18:	77 48                	ja     10ac62 <_ZN11FAT32Driver10ToFATEntryE8DirEntryRj+0x2da>
  10ac1a:	8b 55 e4             	mov    -0x1c(%rbp),%edx
  10ac1d:	8b 45 e0             	mov    -0x20(%rbp),%eax
  10ac20:	01 d0                	add    %edx,%eax
  10ac22:	83 c0 01             	add    $0x1,%eax
  10ac25:	89 c2                	mov    %eax,%edx
  10ac27:	48 8b 45 a8          	mov    -0x58(%rbp),%rax
  10ac2b:	48 01 d0             	add    %rdx,%rax
  10ac2e:	0f b6 00             	movzbl (%rax),%eax
  10ac31:	88 45 8e             	mov    %al,-0x72(%rbp)
  10ac34:	80 7d 8e 60          	cmpb   $0x60,-0x72(%rbp)
  10ac38:	7e 19                	jle    10ac53 <_ZN11FAT32Driver10ToFATEntryE8DirEntryRj+0x2cb>
  10ac3a:	80 7d 8e 7a          	cmpb   $0x7a,-0x72(%rbp)
  10ac3e:	7f 13                	jg     10ac53 <_ZN11FAT32Driver10ToFATEntryE8DirEntryRj+0x2cb>
  10ac40:	0f b6 45 8e          	movzbl -0x72(%rbp),%eax
  10ac44:	83 e8 20             	sub    $0x20,%eax
  10ac47:	89 c2                	mov    %eax,%edx
  10ac49:	8b 45 e4             	mov    -0x1c(%rbp),%eax
  10ac4c:	88 94 05 6d ff ff ff 	mov    %dl,-0x93(%rbp,%rax,1)
  10ac53:	83 45 e0 01          	addl   $0x1,-0x20(%rbp)
  10ac57:	eb a4                	jmp    10abfd <_ZN11FAT32Driver10ToFATEntryE8DirEntryRj+0x275>
  10ac59:	83 45 e4 01          	addl   $0x1,-0x1c(%rbp)
  10ac5d:	e9 72 ff ff ff       	jmpq   10abd4 <_ZN11FAT32Driver10ToFATEntryE8DirEntryRj+0x24c>
  10ac62:	90                   	nop
  10ac63:	0f b6 45 eb          	movzbl -0x15(%rbp),%eax
  10ac67:	83 f0 01             	xor    $0x1,%eax
  10ac6a:	84 c0                	test   %al,%al
  10ac6c:	74 15                	je     10ac83 <_ZN11FAT32Driver10ToFATEntryE8DirEntryRj+0x2fb>
  10ac6e:	c6 85 75 ff ff ff 20 	movb   $0x20,-0x8b(%rbp)
  10ac75:	c6 85 76 ff ff ff 20 	movb   $0x20,-0x8a(%rbp)
  10ac7c:	c6 85 77 ff ff ff 20 	movb   $0x20,-0x89(%rbp)
  10ac83:	c6 45 df 00          	movb   $0x0,-0x21(%rbp)
  10ac87:	48 c7 45 d0 0b 00 00 	movq   $0xb,-0x30(%rbp)
  10ac8e:	00 
  10ac8f:	48 83 7d d0 00       	cmpq   $0x0,-0x30(%rbp)
  10ac94:	74 2e                	je     10acc4 <_ZN11FAT32Driver10ToFATEntryE8DirEntryRj+0x33c>
  10ac96:	0f b6 45 df          	movzbl -0x21(%rbp),%eax
  10ac9a:	c1 e0 07             	shl    $0x7,%eax
  10ac9d:	89 c2                	mov    %eax,%edx
  10ac9f:	0f b6 45 df          	movzbl -0x21(%rbp),%eax
  10aca3:	d1 f8                	sar    %eax
  10aca5:	01 c2                	add    %eax,%edx
  10aca7:	b8 0b 00 00 00       	mov    $0xb,%eax
  10acac:	48 2b 45 d0          	sub    -0x30(%rbp),%rax
  10acb0:	0f b6 84 05 6d ff ff 	movzbl -0x93(%rbp,%rax,1),%eax
  10acb7:	ff 
  10acb8:	01 d0                	add    %edx,%eax
  10acba:	88 45 df             	mov    %al,-0x21(%rbp)
  10acbd:	48 83 6d d0 01       	subq   $0x1,-0x30(%rbp)
  10acc2:	eb cb                	jmp    10ac8f <_ZN11FAT32Driver10ToFATEntryE8DirEntryRj+0x307>
  10acc4:	c7 45 cc 00 00 00 00 	movl   $0x0,-0x34(%rbp)
  10accb:	48 c7 45 c0 00 00 00 	movq   $0x0,-0x40(%rbp)
  10acd2:	00 
  10acd3:	48 8b 45 c0          	mov    -0x40(%rbp),%rax
  10acd7:	48 3b 45 98          	cmp    -0x68(%rbp),%rax
  10acdb:	0f 83 60 01 00 00    	jae    10ae41 <_ZN11FAT32Driver10ToFATEntryE8DirEntryRj+0x4b9>
  10ace1:	48 8b 45 f0          	mov    -0x10(%rbp),%rax
  10ace5:	ba 20 00 00 00       	mov    $0x20,%edx
  10acea:	be 00 00 00 00       	mov    $0x0,%esi
  10acef:	48 89 c7             	mov    %rax,%rdi
  10acf2:	e8 74 21 00 00       	callq  10ce6b <_Z6memsetPvim>
  10acf7:	48 8b 45 c0          	mov    -0x40(%rbp),%rax
  10acfb:	8d 50 01             	lea    0x1(%rax),%edx
  10acfe:	48 8b 45 f0          	mov    -0x10(%rbp),%rax
  10ad02:	88 10                	mov    %dl,(%rax)
  10ad04:	48 8b 45 98          	mov    -0x68(%rbp),%rax
  10ad08:	48 83 e8 01          	sub    $0x1,%rax
  10ad0c:	48 39 45 c0          	cmp    %rax,-0x40(%rbp)
  10ad10:	75 12                	jne    10ad24 <_ZN11FAT32Driver10ToFATEntryE8DirEntryRj+0x39c>
  10ad12:	48 8b 45 f0          	mov    -0x10(%rbp),%rax
  10ad16:	0f b6 00             	movzbl (%rax),%eax
  10ad19:	83 c8 40             	or     $0x40,%eax
  10ad1c:	89 c2                	mov    %eax,%edx
  10ad1e:	48 8b 45 f0          	mov    -0x10(%rbp),%rax
  10ad22:	88 10                	mov    %dl,(%rax)
  10ad24:	48 8b 45 f0          	mov    -0x10(%rbp),%rax
  10ad28:	c6 40 0b 0f          	movb   $0xf,0xb(%rax)
  10ad2c:	48 8b 45 f0          	mov    -0x10(%rbp),%rax
  10ad30:	0f b6 55 df          	movzbl -0x21(%rbp),%edx
  10ad34:	88 50 0d             	mov    %dl,0xd(%rax)
  10ad37:	c7 45 bc 00 00 00 00 	movl   $0x0,-0x44(%rbp)
  10ad3e:	83 7d bc 04          	cmpl   $0x4,-0x44(%rbp)
  10ad42:	77 44                	ja     10ad88 <_ZN11FAT32Driver10ToFATEntryE8DirEntryRj+0x400>
  10ad44:	8b 45 cc             	mov    -0x34(%rbp),%eax
  10ad47:	48 39 45 a0          	cmp    %rax,-0x60(%rbp)
  10ad4b:	77 10                	ja     10ad5d <_ZN11FAT32Driver10ToFATEntryE8DirEntryRj+0x3d5>
  10ad4d:	48 8b 45 f0          	mov    -0x10(%rbp),%rax
  10ad51:	8b 55 bc             	mov    -0x44(%rbp),%edx
  10ad54:	66 c7 44 50 01 00 00 	movw   $0x0,0x1(%rax,%rdx,2)
  10ad5b:	eb 2b                	jmp    10ad88 <_ZN11FAT32Driver10ToFATEntryE8DirEntryRj+0x400>
  10ad5d:	8b 45 cc             	mov    -0x34(%rbp),%eax
  10ad60:	8d 50 01             	lea    0x1(%rax),%edx
  10ad63:	89 55 cc             	mov    %edx,-0x34(%rbp)
  10ad66:	89 c2                	mov    %eax,%edx
  10ad68:	48 8b 45 a8          	mov    -0x58(%rbp),%rax
  10ad6c:	48 01 d0             	add    %rdx,%rax
  10ad6f:	0f b6 00             	movzbl (%rax),%eax
  10ad72:	66 0f be c8          	movsbw %al,%cx
  10ad76:	48 8b 45 f0          	mov    -0x10(%rbp),%rax
  10ad7a:	8b 55 bc             	mov    -0x44(%rbp),%edx
  10ad7d:	66 89 4c 50 01       	mov    %cx,0x1(%rax,%rdx,2)
  10ad82:	83 45 bc 01          	addl   $0x1,-0x44(%rbp)
  10ad86:	eb b6                	jmp    10ad3e <_ZN11FAT32Driver10ToFATEntryE8DirEntryRj+0x3b6>
  10ad88:	c7 45 b8 00 00 00 00 	movl   $0x0,-0x48(%rbp)
  10ad8f:	83 7d b8 05          	cmpl   $0x5,-0x48(%rbp)
  10ad93:	77 44                	ja     10add9 <_ZN11FAT32Driver10ToFATEntryE8DirEntryRj+0x451>
  10ad95:	8b 45 cc             	mov    -0x34(%rbp),%eax
  10ad98:	48 39 45 a0          	cmp    %rax,-0x60(%rbp)
  10ad9c:	77 10                	ja     10adae <_ZN11FAT32Driver10ToFATEntryE8DirEntryRj+0x426>
  10ad9e:	48 8b 45 f0          	mov    -0x10(%rbp),%rax
  10ada2:	8b 55 b8             	mov    -0x48(%rbp),%edx
  10ada5:	66 c7 44 50 0e 00 00 	movw   $0x0,0xe(%rax,%rdx,2)
  10adac:	eb 2b                	jmp    10add9 <_ZN11FAT32Driver10ToFATEntryE8DirEntryRj+0x451>
  10adae:	8b 45 cc             	mov    -0x34(%rbp),%eax
  10adb1:	8d 50 01             	lea    0x1(%rax),%edx
  10adb4:	89 55 cc             	mov    %edx,-0x34(%rbp)
  10adb7:	89 c2                	mov    %eax,%edx
  10adb9:	48 8b 45 a8          	mov    -0x58(%rbp),%rax
  10adbd:	48 01 d0             	add    %rdx,%rax
  10adc0:	0f b6 00             	movzbl (%rax),%eax
  10adc3:	66 0f be c8          	movsbw %al,%cx
  10adc7:	48 8b 45 f0          	mov    -0x10(%rbp),%rax
  10adcb:	8b 55 b8             	mov    -0x48(%rbp),%edx
  10adce:	66 89 4c 50 0e       	mov    %cx,0xe(%rax,%rdx,2)
  10add3:	83 45 b8 01          	addl   $0x1,-0x48(%rbp)
  10add7:	eb b6                	jmp    10ad8f <_ZN11FAT32Driver10ToFATEntryE8DirEntryRj+0x407>
  10add9:	c7 45 b4 00 00 00 00 	movl   $0x0,-0x4c(%rbp)
  10ade0:	83 7d b4 01          	cmpl   $0x1,-0x4c(%rbp)
  10ade4:	77 4c                	ja     10ae32 <_ZN11FAT32Driver10ToFATEntryE8DirEntryRj+0x4aa>
  10ade6:	8b 45 cc             	mov    -0x34(%rbp),%eax
  10ade9:	48 39 45 a0          	cmp    %rax,-0x60(%rbp)
  10aded:	77 14                	ja     10ae03 <_ZN11FAT32Driver10ToFATEntryE8DirEntryRj+0x47b>
  10adef:	48 8b 45 f0          	mov    -0x10(%rbp),%rax
  10adf3:	8b 55 b4             	mov    -0x4c(%rbp),%edx
  10adf6:	48 83 c2 08          	add    $0x8,%rdx
  10adfa:	66 c7 44 50 0c 00 00 	movw   $0x0,0xc(%rax,%rdx,2)
  10ae01:	eb 2f                	jmp    10ae32 <_ZN11FAT32Driver10ToFATEntryE8DirEntryRj+0x4aa>
  10ae03:	8b 45 cc             	mov    -0x34(%rbp),%eax
  10ae06:	8d 50 01             	lea    0x1(%rax),%edx
  10ae09:	89 55 cc             	mov    %edx,-0x34(%rbp)
  10ae0c:	89 c2                	mov    %eax,%edx
  10ae0e:	48 8b 45 a8          	mov    -0x58(%rbp),%rax
  10ae12:	48 01 d0             	add    %rdx,%rax
  10ae15:	0f b6 00             	movzbl (%rax),%eax
  10ae18:	66 0f be d0          	movsbw %al,%dx
  10ae1c:	48 8b 45 f0          	mov    -0x10(%rbp),%rax
  10ae20:	8b 4d b4             	mov    -0x4c(%rbp),%ecx
  10ae23:	48 83 c1 08          	add    $0x8,%rcx
  10ae27:	66 89 54 48 0c       	mov    %dx,0xc(%rax,%rcx,2)
  10ae2c:	83 45 b4 01          	addl   $0x1,-0x4c(%rbp)
  10ae30:	eb ae                	jmp    10ade0 <_ZN11FAT32Driver10ToFATEntryE8DirEntryRj+0x458>
  10ae32:	48 83 6d f0 20       	subq   $0x20,-0x10(%rbp)
  10ae37:	48 83 45 c0 01       	addq   $0x1,-0x40(%rbp)
  10ae3c:	e9 92 fe ff ff       	jmpq   10acd3 <_ZN11FAT32Driver10ToFATEntryE8DirEntryRj+0x34b>
  10ae41:	48 8b 45 98          	mov    -0x68(%rbp),%rax
  10ae45:	48 c1 e0 05          	shl    $0x5,%rax
  10ae49:	48 89 c2             	mov    %rax,%rdx
  10ae4c:	48 8b 45 90          	mov    -0x70(%rbp),%rax
  10ae50:	48 01 d0             	add    %rdx,%rax
  10ae53:	48 89 45 80          	mov    %rax,-0x80(%rbp)
  10ae57:	48 8b 45 80          	mov    -0x80(%rbp),%rax
  10ae5b:	ba 20 00 00 00       	mov    $0x20,%edx
  10ae60:	be 00 00 00 00       	mov    $0x0,%esi
  10ae65:	48 89 c7             	mov    %rax,%rdi
  10ae68:	e8 fe 1f 00 00       	callq  10ce6b <_Z6memsetPvim>
  10ae6d:	48 8b 45 80          	mov    -0x80(%rbp),%rax
  10ae71:	48 8d 8d 6d ff ff ff 	lea    -0x93(%rbp),%rcx
  10ae78:	ba 0b 00 00 00       	mov    $0xb,%edx
  10ae7d:	48 89 ce             	mov    %rcx,%rsi
  10ae80:	48 89 c7             	mov    %rax,%rdi
  10ae83:	e8 a1 1f 00 00       	callq  10ce29 <_Z6memcpyPvPKvm>
  10ae88:	0f b6 95 98 00 00 00 	movzbl 0x98(%rbp),%edx
  10ae8f:	48 8b 45 80          	mov    -0x80(%rbp),%rax
  10ae93:	88 50 0b             	mov    %dl,0xb(%rax)
  10ae96:	8b 95 94 00 00 00    	mov    0x94(%rbp),%edx
  10ae9c:	48 8b 45 80          	mov    -0x80(%rbp),%rax
  10aea0:	89 50 1c             	mov    %edx,0x1c(%rax)
  10aea3:	8b 85 90 00 00 00    	mov    0x90(%rbp),%eax
  10aea9:	89 c2                	mov    %eax,%edx
  10aeab:	48 8b 45 80          	mov    -0x80(%rbp),%rax
  10aeaf:	66 89 50 1a          	mov    %dx,0x1a(%rax)
  10aeb3:	8b 85 90 00 00 00    	mov    0x90(%rbp),%eax
  10aeb9:	c1 e8 10             	shr    $0x10,%eax
  10aebc:	89 c2                	mov    %eax,%edx
  10aebe:	48 8b 45 80          	mov    -0x80(%rbp),%rax
  10aec2:	66 89 50 14          	mov    %dx,0x14(%rax)
  10aec6:	48 8b 45 80          	mov    -0x80(%rbp),%rax
  10aeca:	c9                   	leaveq 
  10aecb:	c3                   	retq   

000000000010aecc <_ZN11FAT32Driver7CompareEP14DirectoryEntryPKcb>:
  10aecc:	f3 0f 1e fa          	endbr64 
  10aed0:	55                   	push   %rbp
  10aed1:	48 89 e5             	mov    %rsp,%rbp
  10aed4:	48 81 ec c0 00 00 00 	sub    $0xc0,%rsp
  10aedb:	48 89 bd 58 ff ff ff 	mov    %rdi,-0xa8(%rbp)
  10aee2:	48 89 b5 50 ff ff ff 	mov    %rsi,-0xb0(%rbp)
  10aee9:	48 89 95 48 ff ff ff 	mov    %rdx,-0xb8(%rbp)
  10aef0:	89 c8                	mov    %ecx,%eax
  10aef2:	88 85 44 ff ff ff    	mov    %al,-0xbc(%rbp)
  10aef8:	0f b6 8d 44 ff ff ff 	movzbl -0xbc(%rbp),%ecx
  10aeff:	48 8d 85 60 ff ff ff 	lea    -0xa0(%rbp),%rax
  10af06:	48 8b 95 50 ff ff ff 	mov    -0xb0(%rbp),%rdx
  10af0d:	48 8b b5 58 ff ff ff 	mov    -0xa8(%rbp),%rsi
  10af14:	48 89 c7             	mov    %rax,%rdi
  10af17:	e8 6e f8 ff ff       	callq  10a78a <_ZN11FAT32Driver12FromFATEntryEP14DirectoryEntryb>
  10af1c:	48 8b 95 48 ff ff ff 	mov    -0xb8(%rbp),%rdx
  10af23:	48 8d 85 60 ff ff ff 	lea    -0xa0(%rbp),%rax
  10af2a:	48 89 d6             	mov    %rdx,%rsi
  10af2d:	48 89 c7             	mov    %rax,%rdi
  10af30:	e8 55 17 00 00       	callq  10c68a <_Z6strcmpPcS_>
  10af35:	85 c0                	test   %eax,%eax
  10af37:	0f 94 c0             	sete   %al
  10af3a:	c9                   	leaveq 
  10af3b:	c3                   	retq   

000000000010af3c <_ZNK11FAT32Driver15GetMillisecondsEv>:
  10af3c:	f3 0f 1e fa          	endbr64 
  10af40:	55                   	push   %rbp
  10af41:	48 89 e5             	mov    %rsp,%rbp
  10af44:	48 83 ec 08          	sub    $0x8,%rsp
  10af48:	48 89 7d f8          	mov    %rdi,-0x8(%rbp)
  10af4c:	b8 00 00 00 00       	mov    $0x0,%eax
  10af51:	c9                   	leaveq 
  10af52:	c3                   	retq   
  10af53:	90                   	nop

000000000010af54 <_ZNK11FAT32Driver7GetTimeEv>:
  10af54:	f3 0f 1e fa          	endbr64 
  10af58:	55                   	push   %rbp
  10af59:	48 89 e5             	mov    %rsp,%rbp
  10af5c:	48 83 ec 30          	sub    $0x30,%rsp
  10af60:	48 89 7d d8          	mov    %rdi,-0x28(%rbp)
  10af64:	48 8d 45 e0          	lea    -0x20(%rbp),%rax
  10af68:	48 89 c7             	mov    %rax,%rdi
  10af6b:	e8 b0 6a ff ff       	callq  101a20 <_Z10GetTimeRTCP2tm>
  10af70:	8b 45 f4             	mov    -0xc(%rbp),%eax
  10af73:	d1 e8                	shr    %eax
  10af75:	66 89 45 fe          	mov    %ax,-0x2(%rbp)
  10af79:	8b 45 f0             	mov    -0x10(%rbp),%eax
  10af7c:	66 89 45 fc          	mov    %ax,-0x4(%rbp)
  10af80:	8b 45 ec             	mov    -0x14(%rbp),%eax
  10af83:	66 89 45 fa          	mov    %ax,-0x6(%rbp)
  10af87:	0f b7 45 fc          	movzwl -0x4(%rbp),%eax
  10af8b:	c1 e0 05             	shl    $0x5,%eax
  10af8e:	89 c2                	mov    %eax,%edx
  10af90:	0f b7 45 fe          	movzwl -0x2(%rbp),%eax
  10af94:	09 c2                	or     %eax,%edx
  10af96:	0f b7 45 fa          	movzwl -0x6(%rbp),%eax
  10af9a:	c1 e0 0b             	shl    $0xb,%eax
  10af9d:	09 d0                	or     %edx,%eax
  10af9f:	c9                   	leaveq 
  10afa0:	c3                   	retq   
  10afa1:	90                   	nop

000000000010afa2 <_ZNK11FAT32Driver7GetDateEv>:
  10afa2:	f3 0f 1e fa          	endbr64 
  10afa6:	55                   	push   %rbp
  10afa7:	48 89 e5             	mov    %rsp,%rbp
  10afaa:	48 83 ec 30          	sub    $0x30,%rsp
  10afae:	48 89 7d d8          	mov    %rdi,-0x28(%rbp)
  10afb2:	48 8d 45 e0          	lea    -0x20(%rbp),%rax
  10afb6:	48 89 c7             	mov    %rax,%rdi
  10afb9:	e8 62 6a ff ff       	callq  101a20 <_Z10GetTimeRTCP2tm>
  10afbe:	8b 45 e8             	mov    -0x18(%rbp),%eax
  10afc1:	66 89 45 fe          	mov    %ax,-0x2(%rbp)
  10afc5:	8b 45 e4             	mov    -0x1c(%rbp),%eax
  10afc8:	83 c0 01             	add    $0x1,%eax
  10afcb:	66 89 45 fc          	mov    %ax,-0x4(%rbp)
  10afcf:	8b 45 e0             	mov    -0x20(%rbp),%eax
  10afd2:	66 05 6c 07          	add    $0x76c,%ax
  10afd6:	66 89 45 fa          	mov    %ax,-0x6(%rbp)
  10afda:	0f b7 45 fc          	movzwl -0x4(%rbp),%eax
  10afde:	c1 e0 05             	shl    $0x5,%eax
  10afe1:	89 c2                	mov    %eax,%edx
  10afe3:	0f b7 45 fe          	movzwl -0x2(%rbp),%eax
  10afe7:	09 c2                	or     %eax,%edx
  10afe9:	0f b7 45 fa          	movzwl -0x6(%rbp),%eax
  10afed:	2d bc 07 00 00       	sub    $0x7bc,%eax
  10aff2:	c1 e0 09             	shl    $0x9,%eax
  10aff5:	09 d0                	or     %edx,%eax
  10aff7:	c9                   	leaveq 
  10aff8:	c3                   	retq   
  10aff9:	90                   	nop

000000000010affa <_ZN11FAT32Driver11IsFATFormatEPc>:
  10affa:	f3 0f 1e fa          	endbr64 
  10affe:	55                   	push   %rbp
  10afff:	48 89 e5             	mov    %rsp,%rbp
  10b002:	48 83 ec 20          	sub    $0x20,%rsp
  10b006:	48 89 7d e8          	mov    %rdi,-0x18(%rbp)
  10b00a:	48 89 75 e0          	mov    %rsi,-0x20(%rbp)
  10b00e:	48 8b 45 e0          	mov    -0x20(%rbp),%rax
  10b012:	48 89 c7             	mov    %rax,%rdi
  10b015:	e8 52 16 00 00       	callq  10c66c <_Z6strlenPc>
  10b01a:	48 89 45 f0          	mov    %rax,-0x10(%rbp)
  10b01e:	48 83 7d f0 0b       	cmpq   $0xb,-0x10(%rbp)
  10b023:	74 0a                	je     10b02f <_ZN11FAT32Driver11IsFATFormatEPc+0x35>
  10b025:	b8 f7 ff ff ff       	mov    $0xfffffff7,%eax
  10b02a:	e9 10 01 00 00       	jmpq   10b13f <_ZN11FAT32Driver11IsFATFormatEPc+0x145>
  10b02f:	48 8b 45 e0          	mov    -0x20(%rbp),%rax
  10b033:	ba 0b 00 00 00       	mov    $0xb,%edx
  10b038:	48 8d 35 29 62 00 00 	lea    0x6229(%rip),%rsi        # 111268 <_ZL8sc_ascii+0x1a8>
  10b03f:	48 89 c7             	mov    %rax,%rdi
  10b042:	e8 a3 16 00 00       	callq  10c6ea <_Z7strncmpPcS_i>
  10b047:	85 c0                	test   %eax,%eax
  10b049:	74 1c                	je     10b067 <_ZN11FAT32Driver11IsFATFormatEPc+0x6d>
  10b04b:	48 8b 45 e0          	mov    -0x20(%rbp),%rax
  10b04f:	ba 0b 00 00 00       	mov    $0xb,%edx
  10b054:	48 8d 35 19 62 00 00 	lea    0x6219(%rip),%rsi        # 111274 <_ZL8sc_ascii+0x1b4>
  10b05b:	48 89 c7             	mov    %rax,%rdi
  10b05e:	e8 87 16 00 00       	callq  10c6ea <_Z7strncmpPcS_i>
  10b063:	85 c0                	test   %eax,%eax
  10b065:	75 07                	jne    10b06e <_ZN11FAT32Driver11IsFATFormatEPc+0x74>
  10b067:	b8 01 00 00 00       	mov    $0x1,%eax
  10b06c:	eb 05                	jmp    10b073 <_ZN11FAT32Driver11IsFATFormatEPc+0x79>
  10b06e:	b8 00 00 00 00       	mov    $0x0,%eax
  10b073:	84 c0                	test   %al,%al
  10b075:	74 0a                	je     10b081 <_ZN11FAT32Driver11IsFATFormatEPc+0x87>
  10b077:	b8 00 00 00 00       	mov    $0x0,%eax
  10b07c:	e9 be 00 00 00       	jmpq   10b13f <_ZN11FAT32Driver11IsFATFormatEPc+0x145>
  10b081:	c7 45 fc 00 00 00 00 	movl   $0x0,-0x4(%rbp)
  10b088:	c7 45 f8 00 00 00 00 	movl   $0x0,-0x8(%rbp)
  10b08f:	83 7d f8 0a          	cmpl   $0xa,-0x8(%rbp)
  10b093:	0f 87 a3 00 00 00    	ja     10b13c <_ZN11FAT32Driver11IsFATFormatEPc+0x142>
  10b099:	8b 55 f8             	mov    -0x8(%rbp),%edx
  10b09c:	48 8b 45 e0          	mov    -0x20(%rbp),%rax
  10b0a0:	48 01 d0             	add    %rdx,%rax
  10b0a3:	0f b6 00             	movzbl (%rax),%eax
  10b0a6:	3c 1f                	cmp    $0x1f,%al
  10b0a8:	7f 15                	jg     10b0bf <_ZN11FAT32Driver11IsFATFormatEPc+0xc5>
  10b0aa:	8b 55 f8             	mov    -0x8(%rbp),%edx
  10b0ad:	48 8b 45 e0          	mov    -0x20(%rbp),%rax
  10b0b1:	48 01 d0             	add    %rdx,%rax
  10b0b4:	0f b6 00             	movzbl (%rax),%eax
  10b0b7:	3c 05                	cmp    $0x5,%al
  10b0b9:	74 04                	je     10b0bf <_ZN11FAT32Driver11IsFATFormatEPc+0xc5>
  10b0bb:	83 4d fc f6          	orl    $0xfffffff6,-0x4(%rbp)
  10b0bf:	8b 55 f8             	mov    -0x8(%rbp),%edx
  10b0c2:	48 8b 45 e0          	mov    -0x20(%rbp),%rax
  10b0c6:	48 01 d0             	add    %rdx,%rax
  10b0c9:	0f b6 00             	movzbl (%rax),%eax
  10b0cc:	0f be c0             	movsbl %al,%eax
  10b0cf:	83 f8 5d             	cmp    $0x5d,%eax
  10b0d2:	7f 30                	jg     10b104 <_ZN11FAT32Driver11IsFATFormatEPc+0x10a>
  10b0d4:	83 f8 22             	cmp    $0x22,%eax
  10b0d7:	7c 34                	jl     10b10d <_ZN11FAT32Driver11IsFATFormatEPc+0x113>
  10b0d9:	83 e8 22             	sub    $0x22,%eax
  10b0dc:	83 f8 3b             	cmp    $0x3b,%eax
  10b0df:	77 2c                	ja     10b10d <_ZN11FAT32Driver11IsFATFormatEPc+0x113>
  10b0e1:	89 c0                	mov    %eax,%eax
  10b0e3:	48 8d 14 85 00 00 00 	lea    0x0(,%rax,4),%rdx
  10b0ea:	00 
  10b0eb:	48 8d 05 92 61 00 00 	lea    0x6192(%rip),%rax        # 111284 <_ZL8sc_ascii+0x1c4>
  10b0f2:	8b 04 02             	mov    (%rdx,%rax,1),%eax
  10b0f5:	48 98                	cltq   
  10b0f7:	48 8d 15 86 61 00 00 	lea    0x6186(%rip),%rdx        # 111284 <_ZL8sc_ascii+0x1c4>
  10b0fe:	48 01 d0             	add    %rdx,%rax
  10b101:	3e ff e0             	notrack jmpq *%rax
  10b104:	83 f8 7c             	cmp    $0x7c,%eax
  10b107:	75 04                	jne    10b10d <_ZN11FAT32Driver11IsFATFormatEPc+0x113>
  10b109:	83 4d fc f6          	orl    $0xfffffff6,-0x4(%rbp)
  10b10d:	8b 55 f8             	mov    -0x8(%rbp),%edx
  10b110:	48 8b 45 e0          	mov    -0x20(%rbp),%rax
  10b114:	48 01 d0             	add    %rdx,%rax
  10b117:	0f b6 00             	movzbl (%rax),%eax
  10b11a:	3c 60                	cmp    $0x60,%al
  10b11c:	7e 15                	jle    10b133 <_ZN11FAT32Driver11IsFATFormatEPc+0x139>
  10b11e:	8b 55 f8             	mov    -0x8(%rbp),%edx
  10b121:	48 8b 45 e0          	mov    -0x20(%rbp),%rax
  10b125:	48 01 d0             	add    %rdx,%rax
  10b128:	0f b6 00             	movzbl (%rax),%eax
  10b12b:	3c 7a                	cmp    $0x7a,%al
  10b12d:	7f 04                	jg     10b133 <_ZN11FAT32Driver11IsFATFormatEPc+0x139>
  10b12f:	83 4d fc f8          	orl    $0xfffffff8,-0x4(%rbp)
  10b133:	83 45 f8 01          	addl   $0x1,-0x8(%rbp)
  10b137:	e9 53 ff ff ff       	jmpq   10b08f <_ZN11FAT32Driver11IsFATFormatEPc+0x95>
  10b13c:	8b 45 fc             	mov    -0x4(%rbp),%eax
  10b13f:	c9                   	leaveq 
  10b140:	c3                   	retq   
  10b141:	90                   	nop

000000000010b142 <_ZN11FAT32Driver18ConvertToFATFormatEPc>:
  10b142:	f3 0f 1e fa          	endbr64 
  10b146:	55                   	push   %rbp
  10b147:	48 89 e5             	mov    %rsp,%rbp
  10b14a:	48 83 ec 30          	sub    $0x30,%rsp
  10b14e:	48 89 7d d8          	mov    %rdi,-0x28(%rbp)
  10b152:	48 89 75 d0          	mov    %rsi,-0x30(%rbp)
  10b156:	c7 45 fc 00 00 00 00 	movl   $0x0,-0x4(%rbp)
  10b15d:	c7 45 f8 00 00 00 00 	movl   $0x0,-0x8(%rbp)
  10b164:	83 7d f8 0b          	cmpl   $0xb,-0x8(%rbp)
  10b168:	77 37                	ja     10b1a1 <_ZN11FAT32Driver18ConvertToFATFormatEPc+0x5f>
  10b16a:	8b 55 f8             	mov    -0x8(%rbp),%edx
  10b16d:	48 8b 45 d0          	mov    -0x30(%rbp),%rax
  10b171:	48 01 d0             	add    %rdx,%rax
  10b174:	0f b6 00             	movzbl (%rax),%eax
  10b177:	88 45 f1             	mov    %al,-0xf(%rbp)
  10b17a:	80 7d f1 60          	cmpb   $0x60,-0xf(%rbp)
  10b17e:	7e 1b                	jle    10b19b <_ZN11FAT32Driver18ConvertToFATFormatEPc+0x59>
  10b180:	80 7d f1 7a          	cmpb   $0x7a,-0xf(%rbp)
  10b184:	7f 15                	jg     10b19b <_ZN11FAT32Driver18ConvertToFATFormatEPc+0x59>
  10b186:	0f b6 45 f1          	movzbl -0xf(%rbp),%eax
  10b18a:	8d 48 e0             	lea    -0x20(%rax),%ecx
  10b18d:	8b 55 f8             	mov    -0x8(%rbp),%edx
  10b190:	48 8b 45 d0          	mov    -0x30(%rbp),%rax
  10b194:	48 01 d0             	add    %rdx,%rax
  10b197:	89 ca                	mov    %ecx,%edx
  10b199:	88 10                	mov    %dl,(%rax)
  10b19b:	83 45 f8 01          	addl   $0x1,-0x8(%rbp)
  10b19f:	eb c3                	jmp    10b164 <_ZN11FAT32Driver18ConvertToFATFormatEPc+0x22>
  10b1a1:	48 c7 45 e4 00 00 00 	movq   $0x0,-0x1c(%rbp)
  10b1a8:	00 
  10b1a9:	c7 45 ec 00 00 00 00 	movl   $0x0,-0x14(%rbp)
  10b1b0:	c6 45 f0 00          	movb   $0x0,-0x10(%rbp)
  10b1b4:	66 c7 45 f6 00 00    	movw   $0x0,-0xa(%rbp)
  10b1ba:	c6 45 f5 00          	movb   $0x0,-0xb(%rbp)
  10b1be:	c7 45 fc 00 00 00 00 	movl   $0x0,-0x4(%rbp)
  10b1c5:	83 7d fc 08          	cmpl   $0x8,-0x4(%rbp)
  10b1c9:	77 5f                	ja     10b22a <_ZN11FAT32Driver18ConvertToFATFormatEPc+0xe8>
  10b1cb:	8b 55 fc             	mov    -0x4(%rbp),%edx
  10b1ce:	48 8b 45 d0          	mov    -0x30(%rbp),%rax
  10b1d2:	48 01 d0             	add    %rdx,%rax
  10b1d5:	0f b6 00             	movzbl (%rax),%eax
  10b1d8:	3c 2e                	cmp    $0x2e,%al
  10b1da:	74 11                	je     10b1ed <_ZN11FAT32Driver18ConvertToFATFormatEPc+0xab>
  10b1dc:	8b 55 fc             	mov    -0x4(%rbp),%edx
  10b1df:	48 8b 45 d0          	mov    -0x30(%rbp),%rax
  10b1e3:	48 01 d0             	add    %rdx,%rax
  10b1e6:	0f b6 00             	movzbl (%rax),%eax
  10b1e9:	84 c0                	test   %al,%al
  10b1eb:	75 22                	jne    10b20f <_ZN11FAT32Driver18ConvertToFATFormatEPc+0xcd>
  10b1ed:	8b 45 fc             	mov    -0x4(%rbp),%eax
  10b1f0:	66 89 45 f6          	mov    %ax,-0xa(%rbp)
  10b1f4:	8b 55 fc             	mov    -0x4(%rbp),%edx
  10b1f7:	48 8b 45 d0          	mov    -0x30(%rbp),%rax
  10b1fb:	48 01 d0             	add    %rdx,%rax
  10b1fe:	0f b6 00             	movzbl (%rax),%eax
  10b201:	3c 2e                	cmp    $0x2e,%al
  10b203:	75 24                	jne    10b229 <_ZN11FAT32Driver18ConvertToFATFormatEPc+0xe7>
  10b205:	83 45 fc 01          	addl   $0x1,-0x4(%rbp)
  10b209:	c6 45 f5 01          	movb   $0x1,-0xb(%rbp)
  10b20d:	eb 1a                	jmp    10b229 <_ZN11FAT32Driver18ConvertToFATFormatEPc+0xe7>
  10b20f:	8b 55 fc             	mov    -0x4(%rbp),%edx
  10b212:	48 8b 45 d0          	mov    -0x30(%rbp),%rax
  10b216:	48 01 d0             	add    %rdx,%rax
  10b219:	0f b6 10             	movzbl (%rax),%edx
  10b21c:	8b 45 fc             	mov    -0x4(%rbp),%eax
  10b21f:	88 54 05 e4          	mov    %dl,-0x1c(%rbp,%rax,1)
  10b223:	83 45 fc 01          	addl   $0x1,-0x4(%rbp)
  10b227:	eb 9c                	jmp    10b1c5 <_ZN11FAT32Driver18ConvertToFATFormatEPc+0x83>
  10b229:	90                   	nop
  10b22a:	83 7d fc 09          	cmpl   $0x9,-0x4(%rbp)
  10b22e:	76 0d                	jbe    10b23d <_ZN11FAT32Driver18ConvertToFATFormatEPc+0xfb>
  10b230:	c7 45 fc 08 00 00 00 	movl   $0x8,-0x4(%rbp)
  10b237:	66 c7 45 f6 08 00    	movw   $0x8,-0xa(%rbp)
  10b23d:	66 c7 45 f2 08 00    	movw   $0x8,-0xe(%rbp)
  10b243:	66 83 7d f2 0a       	cmpw   $0xa,-0xe(%rbp)
  10b248:	77 4c                	ja     10b296 <_ZN11FAT32Driver18ConvertToFATFormatEPc+0x154>
  10b24a:	8b 55 fc             	mov    -0x4(%rbp),%edx
  10b24d:	48 8b 45 d0          	mov    -0x30(%rbp),%rax
  10b251:	48 01 d0             	add    %rdx,%rax
  10b254:	0f b6 00             	movzbl (%rax),%eax
  10b257:	84 c0                	test   %al,%al
  10b259:	74 1f                	je     10b27a <_ZN11FAT32Driver18ConvertToFATFormatEPc+0x138>
  10b25b:	80 7d f5 00          	cmpb   $0x0,-0xb(%rbp)
  10b25f:	74 19                	je     10b27a <_ZN11FAT32Driver18ConvertToFATFormatEPc+0x138>
  10b261:	8b 55 fc             	mov    -0x4(%rbp),%edx
  10b264:	48 8b 45 d0          	mov    -0x30(%rbp),%rax
  10b268:	48 01 c2             	add    %rax,%rdx
  10b26b:	0f b7 45 f2          	movzwl -0xe(%rbp),%eax
  10b26f:	0f b6 12             	movzbl (%rdx),%edx
  10b272:	48 98                	cltq   
  10b274:	88 54 05 e4          	mov    %dl,-0x1c(%rbp,%rax,1)
  10b278:	eb 0b                	jmp    10b285 <_ZN11FAT32Driver18ConvertToFATFormatEPc+0x143>
  10b27a:	0f b7 45 f2          	movzwl -0xe(%rbp),%eax
  10b27e:	48 98                	cltq   
  10b280:	c6 44 05 e4 20       	movb   $0x20,-0x1c(%rbp,%rax,1)
  10b285:	83 45 fc 01          	addl   $0x1,-0x4(%rbp)
  10b289:	0f b7 45 f2          	movzwl -0xe(%rbp),%eax
  10b28d:	83 c0 01             	add    $0x1,%eax
  10b290:	66 89 45 f2          	mov    %ax,-0xe(%rbp)
  10b294:	eb ad                	jmp    10b243 <_ZN11FAT32Driver18ConvertToFATFormatEPc+0x101>
  10b296:	0f b7 45 f6          	movzwl -0xa(%rbp),%eax
  10b29a:	89 45 fc             	mov    %eax,-0x4(%rbp)
  10b29d:	83 7d fc 07          	cmpl   $0x7,-0x4(%rbp)
  10b2a1:	77 0e                	ja     10b2b1 <_ZN11FAT32Driver18ConvertToFATFormatEPc+0x16f>
  10b2a3:	8b 45 fc             	mov    -0x4(%rbp),%eax
  10b2a6:	c6 44 05 e4 20       	movb   $0x20,-0x1c(%rbp,%rax,1)
  10b2ab:	83 45 fc 01          	addl   $0x1,-0x4(%rbp)
  10b2af:	eb ec                	jmp    10b29d <_ZN11FAT32Driver18ConvertToFATFormatEPc+0x15b>
  10b2b1:	48 8d 55 e4          	lea    -0x1c(%rbp),%rdx
  10b2b5:	48 8b 45 d0          	mov    -0x30(%rbp),%rax
  10b2b9:	48 89 d6             	mov    %rdx,%rsi
  10b2bc:	48 89 c7             	mov    %rax,%rdi
  10b2bf:	e8 60 14 00 00       	callq  10c724 <_Z6strcpyPcPKc>
  10b2c4:	48 8b 45 d0          	mov    -0x30(%rbp),%rax
  10b2c8:	c9                   	leaveq 
  10b2c9:	c3                   	retq   

000000000010b2ca <_ZN11FAT32Driver20ConvertFromFATFormatEPcS0_>:
  10b2ca:	f3 0f 1e fa          	endbr64 
  10b2ce:	55                   	push   %rbp
  10b2cf:	48 89 e5             	mov    %rsp,%rbp
  10b2d2:	48 83 ec 30          	sub    $0x30,%rsp
  10b2d6:	48 89 7d e8          	mov    %rdi,-0x18(%rbp)
  10b2da:	48 89 75 e0          	mov    %rsi,-0x20(%rbp)
  10b2de:	48 89 55 d8          	mov    %rdx,-0x28(%rbp)
  10b2e2:	48 8b 45 e0          	mov    -0x20(%rbp),%rax
  10b2e6:	0f b6 00             	movzbl (%rax),%eax
  10b2e9:	3c 2e                	cmp    $0x2e,%al
  10b2eb:	75 3f                	jne    10b32c <_ZN11FAT32Driver20ConvertFromFATFormatEPcS0_+0x62>
  10b2ed:	48 8b 45 e0          	mov    -0x20(%rbp),%rax
  10b2f1:	48 83 c0 01          	add    $0x1,%rax
  10b2f5:	0f b6 00             	movzbl (%rax),%eax
  10b2f8:	3c 2e                	cmp    $0x2e,%al
  10b2fa:	75 18                	jne    10b314 <_ZN11FAT32Driver20ConvertFromFATFormatEPcS0_+0x4a>
  10b2fc:	48 8b 45 d8          	mov    -0x28(%rbp),%rax
  10b300:	48 8d 35 6d 60 00 00 	lea    0x606d(%rip),%rsi        # 111374 <_ZL8sc_ascii+0x2b4>
  10b307:	48 89 c7             	mov    %rax,%rdi
  10b30a:	e8 15 14 00 00       	callq  10c724 <_Z6strcpyPcPKc>
  10b30f:	e9 18 01 00 00       	jmpq   10b42c <_ZN11FAT32Driver20ConvertFromFATFormatEPcS0_+0x162>
  10b314:	48 8b 45 d8          	mov    -0x28(%rbp),%rax
  10b318:	48 8d 35 58 60 00 00 	lea    0x6058(%rip),%rsi        # 111377 <_ZL8sc_ascii+0x2b7>
  10b31f:	48 89 c7             	mov    %rax,%rdi
  10b322:	e8 fd 13 00 00       	callq  10c724 <_Z6strcpyPcPKc>
  10b327:	e9 00 01 00 00       	jmpq   10b42c <_ZN11FAT32Driver20ConvertFromFATFormatEPcS0_+0x162>
  10b32c:	66 c7 45 fe 00 00    	movw   $0x0,-0x2(%rbp)
  10b332:	66 c7 45 fe 00 00    	movw   $0x0,-0x2(%rbp)
  10b338:	66 83 7d fe 07       	cmpw   $0x7,-0x2(%rbp)
  10b33d:	77 4a                	ja     10b389 <_ZN11FAT32Driver20ConvertFromFATFormatEPcS0_+0xbf>
  10b33f:	0f b7 55 fe          	movzwl -0x2(%rbp),%edx
  10b343:	48 8b 45 e0          	mov    -0x20(%rbp),%rax
  10b347:	48 01 d0             	add    %rdx,%rax
  10b34a:	0f b6 00             	movzbl (%rax),%eax
  10b34d:	3c 20                	cmp    $0x20,%al
  10b34f:	75 10                	jne    10b361 <_ZN11FAT32Driver20ConvertFromFATFormatEPcS0_+0x97>
  10b351:	0f b7 55 fe          	movzwl -0x2(%rbp),%edx
  10b355:	48 8b 45 d8          	mov    -0x28(%rbp),%rax
  10b359:	48 01 d0             	add    %rdx,%rax
  10b35c:	c6 00 2e             	movb   $0x2e,(%rax)
  10b35f:	eb 28                	jmp    10b389 <_ZN11FAT32Driver20ConvertFromFATFormatEPcS0_+0xbf>
  10b361:	0f b7 55 fe          	movzwl -0x2(%rbp),%edx
  10b365:	48 8b 45 e0          	mov    -0x20(%rbp),%rax
  10b369:	48 01 d0             	add    %rdx,%rax
  10b36c:	0f b7 4d fe          	movzwl -0x2(%rbp),%ecx
  10b370:	48 8b 55 d8          	mov    -0x28(%rbp),%rdx
  10b374:	48 01 ca             	add    %rcx,%rdx
  10b377:	0f b6 00             	movzbl (%rax),%eax
  10b37a:	88 02                	mov    %al,(%rdx)
  10b37c:	0f b7 45 fe          	movzwl -0x2(%rbp),%eax
  10b380:	83 c0 01             	add    $0x1,%eax
  10b383:	66 89 45 fe          	mov    %ax,-0x2(%rbp)
  10b387:	eb af                	jmp    10b338 <_ZN11FAT32Driver20ConvertFromFATFormatEPcS0_+0x6e>
  10b389:	66 83 7d fe 08       	cmpw   $0x8,-0x2(%rbp)
  10b38e:	75 0e                	jne    10b39e <_ZN11FAT32Driver20ConvertFromFATFormatEPcS0_+0xd4>
  10b390:	0f b7 55 fe          	movzwl -0x2(%rbp),%edx
  10b394:	48 8b 45 d8          	mov    -0x28(%rbp),%rax
  10b398:	48 01 d0             	add    %rdx,%rax
  10b39b:	c6 00 2e             	movb   $0x2e,(%rax)
  10b39e:	66 c7 45 fc 08 00    	movw   $0x8,-0x4(%rbp)
  10b3a4:	66 c7 45 fc 08 00    	movw   $0x8,-0x4(%rbp)
  10b3aa:	66 83 7d fc 0a       	cmpw   $0xa,-0x4(%rbp)
  10b3af:	77 4e                	ja     10b3ff <_ZN11FAT32Driver20ConvertFromFATFormatEPcS0_+0x135>
  10b3b1:	66 83 45 fe 01       	addw   $0x1,-0x2(%rbp)
  10b3b6:	0f b7 55 fc          	movzwl -0x4(%rbp),%edx
  10b3ba:	48 8b 45 e0          	mov    -0x20(%rbp),%rax
  10b3be:	48 01 d0             	add    %rdx,%rax
  10b3c1:	0f b6 00             	movzbl (%rax),%eax
  10b3c4:	3c 20                	cmp    $0x20,%al
  10b3c6:	75 0e                	jne    10b3d6 <_ZN11FAT32Driver20ConvertFromFATFormatEPcS0_+0x10c>
  10b3c8:	66 83 7d fc 08       	cmpw   $0x8,-0x4(%rbp)
  10b3cd:	75 2f                	jne    10b3fe <_ZN11FAT32Driver20ConvertFromFATFormatEPcS0_+0x134>
  10b3cf:	66 83 6d fe 02       	subw   $0x2,-0x2(%rbp)
  10b3d4:	eb 28                	jmp    10b3fe <_ZN11FAT32Driver20ConvertFromFATFormatEPcS0_+0x134>
  10b3d6:	0f b7 55 fc          	movzwl -0x4(%rbp),%edx
  10b3da:	48 8b 45 e0          	mov    -0x20(%rbp),%rax
  10b3de:	48 01 d0             	add    %rdx,%rax
  10b3e1:	0f b7 4d fe          	movzwl -0x2(%rbp),%ecx
  10b3e5:	48 8b 55 d8          	mov    -0x28(%rbp),%rdx
  10b3e9:	48 01 ca             	add    %rcx,%rdx
  10b3ec:	0f b6 00             	movzbl (%rax),%eax
  10b3ef:	88 02                	mov    %al,(%rdx)
  10b3f1:	0f b7 45 fc          	movzwl -0x4(%rbp),%eax
  10b3f5:	83 c0 01             	add    $0x1,%eax
  10b3f8:	66 89 45 fc          	mov    %ax,-0x4(%rbp)
  10b3fc:	eb ac                	jmp    10b3aa <_ZN11FAT32Driver20ConvertFromFATFormatEPcS0_+0xe0>
  10b3fe:	90                   	nop
  10b3ff:	66 83 45 fe 01       	addw   $0x1,-0x2(%rbp)
  10b404:	66 83 7d fe 0b       	cmpw   $0xb,-0x2(%rbp)
  10b409:	77 15                	ja     10b420 <_ZN11FAT32Driver20ConvertFromFATFormatEPcS0_+0x156>
  10b40b:	0f b7 55 fe          	movzwl -0x2(%rbp),%edx
  10b40f:	48 8b 45 d8          	mov    -0x28(%rbp),%rax
  10b413:	48 01 d0             	add    %rdx,%rax
  10b416:	c6 00 20             	movb   $0x20,(%rax)
  10b419:	66 83 45 fe 01       	addw   $0x1,-0x2(%rbp)
  10b41e:	eb e4                	jmp    10b404 <_ZN11FAT32Driver20ConvertFromFATFormatEPcS0_+0x13a>
  10b420:	48 8b 45 d8          	mov    -0x28(%rbp),%rax
  10b424:	48 83 c0 0c          	add    $0xc,%rax
  10b428:	c6 00 00             	movb   $0x0,(%rax)
  10b42b:	90                   	nop
  10b42c:	c9                   	leaveq 
  10b42d:	c3                   	retq   

000000000010b42e <_Z21InitialiseFilesystemsv>:
  10b42e:	f3 0f 1e fa          	endbr64 
  10b432:	55                   	push   %rbp
  10b433:	48 89 e5             	mov    %rsp,%rbp
  10b436:	ba 00 02 00 00       	mov    $0x200,%edx
  10b43b:	be 00 00 00 00       	mov    $0x0,%esi
  10b440:	48 8d 3d f9 c2 00 00 	lea    0xc2f9(%rip),%rdi        # 117740 <filesystems>
  10b447:	e8 1f 1a 00 00       	callq  10ce6b <_Z6memsetPvim>
  10b44c:	90                   	nop
  10b44d:	5d                   	pop    %rbp
  10b44e:	c3                   	retq   

000000000010b44f <_Z18RegisterFilesystemP10Filesystem>:
  10b44f:	f3 0f 1e fa          	endbr64 
  10b453:	55                   	push   %rbp
  10b454:	48 89 e5             	mov    %rsp,%rbp
  10b457:	48 83 ec 20          	sub    $0x20,%rsp
  10b45b:	48 89 7d e8          	mov    %rdi,-0x18(%rbp)
  10b45f:	c7 45 fc 00 00 00 00 	movl   $0x0,-0x4(%rbp)
  10b466:	83 7d fc 3f          	cmpl   $0x3f,-0x4(%rbp)
  10b46a:	77 3d                	ja     10b4a9 <_Z18RegisterFilesystemP10Filesystem+0x5a>
  10b46c:	8b 45 fc             	mov    -0x4(%rbp),%eax
  10b46f:	48 8d 14 c5 00 00 00 	lea    0x0(,%rax,8),%rdx
  10b476:	00 
  10b477:	48 8d 05 c2 c2 00 00 	lea    0xc2c2(%rip),%rax        # 117740 <filesystems>
  10b47e:	48 8b 04 02          	mov    (%rdx,%rax,1),%rax
  10b482:	48 85 c0             	test   %rax,%rax
  10b485:	75 1c                	jne    10b4a3 <_Z18RegisterFilesystemP10Filesystem+0x54>
  10b487:	8b 45 fc             	mov    -0x4(%rbp),%eax
  10b48a:	48 8d 0c c5 00 00 00 	lea    0x0(,%rax,8),%rcx
  10b491:	00 
  10b492:	48 8d 15 a7 c2 00 00 	lea    0xc2a7(%rip),%rdx        # 117740 <filesystems>
  10b499:	48 8b 45 e8          	mov    -0x18(%rbp),%rax
  10b49d:	48 89 04 11          	mov    %rax,(%rcx,%rdx,1)
  10b4a1:	eb 18                	jmp    10b4bb <_Z18RegisterFilesystemP10Filesystem+0x6c>
  10b4a3:	83 45 fc 01          	addl   $0x1,-0x4(%rbp)
  10b4a7:	eb bd                	jmp    10b466 <_Z18RegisterFilesystemP10Filesystem+0x17>
  10b4a9:	48 8d 3d d0 5e 00 00 	lea    0x5ed0(%rip),%rdi        # 111380 <_ZL8sc_ascii+0x2c0>
  10b4b0:	b8 00 00 00 00       	mov    $0x0,%eax
  10b4b5:	e8 72 15 00 00       	callq  10ca2c <_Z7kprintfPKcz>
  10b4ba:	f4                   	hlt    
  10b4bb:	c9                   	leaveq 
  10b4bc:	c3                   	retq   

000000000010b4bd <_Z20UnregisterFilesystemP10Filesystem>:
  10b4bd:	f3 0f 1e fa          	endbr64 
  10b4c1:	55                   	push   %rbp
  10b4c2:	48 89 e5             	mov    %rsp,%rbp
  10b4c5:	48 83 ec 20          	sub    $0x20,%rsp
  10b4c9:	48 89 7d e8          	mov    %rdi,-0x18(%rbp)
  10b4cd:	c7 45 fc 00 00 00 00 	movl   $0x0,-0x4(%rbp)
  10b4d4:	83 7d fc 3f          	cmpl   $0x3f,-0x4(%rbp)
  10b4d8:	77 3e                	ja     10b518 <_Z20UnregisterFilesystemP10Filesystem+0x5b>
  10b4da:	8b 45 fc             	mov    -0x4(%rbp),%eax
  10b4dd:	48 8d 14 c5 00 00 00 	lea    0x0(,%rax,8),%rdx
  10b4e4:	00 
  10b4e5:	48 8d 05 54 c2 00 00 	lea    0xc254(%rip),%rax        # 117740 <filesystems>
  10b4ec:	48 8b 04 02          	mov    (%rdx,%rax,1),%rax
  10b4f0:	48 39 45 e8          	cmp    %rax,-0x18(%rbp)
  10b4f4:	75 1c                	jne    10b512 <_Z20UnregisterFilesystemP10Filesystem+0x55>
  10b4f6:	8b 45 fc             	mov    -0x4(%rbp),%eax
  10b4f9:	48 8d 14 c5 00 00 00 	lea    0x0(,%rax,8),%rdx
  10b500:	00 
  10b501:	48 8d 05 38 c2 00 00 	lea    0xc238(%rip),%rax        # 117740 <filesystems>
  10b508:	48 c7 04 02 00 00 00 	movq   $0x0,(%rdx,%rax,1)
  10b50f:	00 
  10b510:	eb 18                	jmp    10b52a <_Z20UnregisterFilesystemP10Filesystem+0x6d>
  10b512:	83 45 fc 01          	addl   $0x1,-0x4(%rbp)
  10b516:	eb bc                	jmp    10b4d4 <_Z20UnregisterFilesystemP10Filesystem+0x17>
  10b518:	48 8d 3d 91 5e 00 00 	lea    0x5e91(%rip),%rdi        # 1113b0 <_ZL8sc_ascii+0x2f0>
  10b51f:	b8 00 00 00 00       	mov    $0x0,%eax
  10b524:	e8 03 15 00 00       	callq  10ca2c <_Z7kprintfPKcz>
  10b529:	f4                   	hlt    
  10b52a:	c9                   	leaveq 
  10b52b:	c3                   	retq   

000000000010b52c <_ZL14elf_check_fileP10Elf64_Ehdr>:
  10b52c:	f3 0f 1e fa          	endbr64 
  10b530:	55                   	push   %rbp
  10b531:	48 89 e5             	mov    %rsp,%rbp
  10b534:	48 83 ec 10          	sub    $0x10,%rsp
  10b538:	48 89 7d f8          	mov    %rdi,-0x8(%rbp)
  10b53c:	48 83 7d f8 00       	cmpq   $0x0,-0x8(%rbp)
  10b541:	75 07                	jne    10b54a <_ZL14elf_check_fileP10Elf64_Ehdr+0x1e>
  10b543:	b8 00 00 00 00       	mov    $0x0,%eax
  10b548:	eb 78                	jmp    10b5c2 <_ZL14elf_check_fileP10Elf64_Ehdr+0x96>
  10b54a:	48 8b 45 f8          	mov    -0x8(%rbp),%rax
  10b54e:	ba 04 00 00 00       	mov    $0x4,%edx
  10b553:	48 8d 35 80 5e 00 00 	lea    0x5e80(%rip),%rsi        # 1113da <_ZL8sc_ascii+0x31a>
  10b55a:	48 89 c7             	mov    %rax,%rdi
  10b55d:	e8 48 19 00 00       	callq  10ceaa <_Z6memcmpPvS_m>
  10b562:	85 c0                	test   %eax,%eax
  10b564:	75 40                	jne    10b5a6 <_ZL14elf_check_fileP10Elf64_Ehdr+0x7a>
  10b566:	48 8b 45 f8          	mov    -0x8(%rbp),%rax
  10b56a:	0f b6 40 04          	movzbl 0x4(%rax),%eax
  10b56e:	3c 02                	cmp    $0x2,%al
  10b570:	75 34                	jne    10b5a6 <_ZL14elf_check_fileP10Elf64_Ehdr+0x7a>
  10b572:	48 8b 45 f8          	mov    -0x8(%rbp),%rax
  10b576:	0f b6 40 05          	movzbl 0x5(%rax),%eax
  10b57a:	3c 01                	cmp    $0x1,%al
  10b57c:	75 28                	jne    10b5a6 <_ZL14elf_check_fileP10Elf64_Ehdr+0x7a>
  10b57e:	48 8b 45 f8          	mov    -0x8(%rbp),%rax
  10b582:	0f b7 40 10          	movzwl 0x10(%rax),%eax
  10b586:	66 83 f8 02          	cmp    $0x2,%ax
  10b58a:	75 1a                	jne    10b5a6 <_ZL14elf_check_fileP10Elf64_Ehdr+0x7a>
  10b58c:	48 8b 45 f8          	mov    -0x8(%rbp),%rax
  10b590:	0f b7 40 12          	movzwl 0x12(%rax),%eax
  10b594:	66 83 f8 3e          	cmp    $0x3e,%ax
  10b598:	75 0c                	jne    10b5a6 <_ZL14elf_check_fileP10Elf64_Ehdr+0x7a>
  10b59a:	48 8b 45 f8          	mov    -0x8(%rbp),%rax
  10b59e:	8b 40 14             	mov    0x14(%rax),%eax
  10b5a1:	83 f8 01             	cmp    $0x1,%eax
  10b5a4:	74 07                	je     10b5ad <_ZL14elf_check_fileP10Elf64_Ehdr+0x81>
  10b5a6:	b8 01 00 00 00       	mov    $0x1,%eax
  10b5ab:	eb 05                	jmp    10b5b2 <_ZL14elf_check_fileP10Elf64_Ehdr+0x86>
  10b5ad:	b8 00 00 00 00       	mov    $0x0,%eax
  10b5b2:	84 c0                	test   %al,%al
  10b5b4:	74 07                	je     10b5bd <_ZL14elf_check_fileP10Elf64_Ehdr+0x91>
  10b5b6:	b8 00 00 00 00       	mov    $0x0,%eax
  10b5bb:	eb 05                	jmp    10b5c2 <_ZL14elf_check_fileP10Elf64_Ehdr+0x96>
  10b5bd:	b8 01 00 00 00       	mov    $0x1,%eax
  10b5c2:	c9                   	leaveq 
  10b5c3:	c3                   	retq   

000000000010b5c4 <_Z11LoadProgramPKcPm>:
  10b5c4:	f3 0f 1e fa          	endbr64 
  10b5c8:	55                   	push   %rbp
  10b5c9:	48 89 e5             	mov    %rsp,%rbp
  10b5cc:	48 83 ec 40          	sub    $0x40,%rsp
  10b5d0:	48 89 7d c8          	mov    %rdi,-0x38(%rbp)
  10b5d4:	48 89 75 c0          	mov    %rsi,-0x40(%rbp)
  10b5d8:	48 8b 05 61 c1 00 00 	mov    0xc161(%rip),%rax        # 117740 <filesystems>
  10b5df:	48 89 45 f8          	mov    %rax,-0x8(%rbp)
  10b5e3:	48 8b 45 f8          	mov    -0x8(%rbp),%rax
  10b5e7:	48 8b 00             	mov    (%rax),%rax
  10b5ea:	48 8b 08             	mov    (%rax),%rcx
  10b5ed:	48 8b 55 c8          	mov    -0x38(%rbp),%rdx
  10b5f1:	48 8b 45 f8          	mov    -0x8(%rbp),%rax
  10b5f5:	48 89 d6             	mov    %rdx,%rsi
  10b5f8:	48 89 c7             	mov    %rax,%rdi
  10b5fb:	ff d1                	callq  *%rcx
  10b5fd:	48 89 45 f0          	mov    %rax,-0x10(%rbp)
  10b601:	48 83 7d f0 00       	cmpq   $0x0,-0x10(%rbp)
  10b606:	75 22                	jne    10b62a <_Z11LoadProgramPKcPm+0x66>
  10b608:	48 8b 45 c8          	mov    -0x38(%rbp),%rax
  10b60c:	48 89 c6             	mov    %rax,%rsi
  10b60f:	48 8d 3d c9 5d 00 00 	lea    0x5dc9(%rip),%rdi        # 1113df <_ZL8sc_ascii+0x31f>
  10b616:	b8 00 00 00 00       	mov    $0x0,%eax
  10b61b:	e8 0c 14 00 00       	callq  10ca2c <_Z7kprintfPKcz>
  10b620:	b8 00 00 00 00       	mov    $0x0,%eax
  10b625:	e9 a8 00 00 00       	jmpq   10b6d2 <_Z11LoadProgramPKcPm+0x10e>
  10b62a:	48 8b 45 f0          	mov    -0x10(%rbp),%rax
  10b62e:	48 8b 00             	mov    (%rax),%rax
  10b631:	48 8b 10             	mov    (%rax),%rdx
  10b634:	48 8b 45 f0          	mov    -0x10(%rbp),%rax
  10b638:	48 89 c7             	mov    %rax,%rdi
  10b63b:	ff d2                	callq  *%rdx
  10b63d:	48 89 45 e8          	mov    %rax,-0x18(%rbp)
  10b641:	48 8b 45 e8          	mov    -0x18(%rbp),%rax
  10b645:	48 89 c7             	mov    %rax,%rdi
  10b648:	e8 35 1a 00 00       	callq  10d082 <_Z7kmallocm>
  10b64d:	48 89 45 e0          	mov    %rax,-0x20(%rbp)
  10b651:	48 8b 45 f8          	mov    -0x8(%rbp),%rax
  10b655:	48 8b 00             	mov    (%rax),%rax
  10b658:	48 83 c0 38          	add    $0x38,%rax
  10b65c:	4c 8b 00             	mov    (%rax),%r8
  10b65f:	48 8b 55 e0          	mov    -0x20(%rbp),%rdx
  10b663:	48 8b 4d e8          	mov    -0x18(%rbp),%rcx
  10b667:	48 8b 75 f0          	mov    -0x10(%rbp),%rsi
  10b66b:	48 8b 45 f8          	mov    -0x8(%rbp),%rax
  10b66f:	48 89 c7             	mov    %rax,%rdi
  10b672:	41 ff d0             	callq  *%r8
  10b675:	48 8b 45 f8          	mov    -0x8(%rbp),%rax
  10b679:	48 8b 00             	mov    (%rax),%rax
  10b67c:	48 83 c0 08          	add    $0x8,%rax
  10b680:	48 8b 08             	mov    (%rax),%rcx
  10b683:	48 8b 55 f0          	mov    -0x10(%rbp),%rdx
  10b687:	48 8b 45 f8          	mov    -0x8(%rbp),%rax
  10b68b:	48 89 d6             	mov    %rdx,%rsi
  10b68e:	48 89 c7             	mov    %rax,%rdi
  10b691:	ff d1                	callq  *%rcx
  10b693:	48 8b 45 c0          	mov    -0x40(%rbp),%rax
  10b697:	48 8b 55 e0          	mov    -0x20(%rbp),%rdx
  10b69b:	48 89 10             	mov    %rdx,(%rax)
  10b69e:	48 8b 45 e0          	mov    -0x20(%rbp),%rax
  10b6a2:	48 89 45 d8          	mov    %rax,-0x28(%rbp)
  10b6a6:	48 8b 45 d8          	mov    -0x28(%rbp),%rax
  10b6aa:	48 89 c7             	mov    %rax,%rdi
  10b6ad:	e8 7a fe ff ff       	callq  10b52c <_ZL14elf_check_fileP10Elf64_Ehdr>
  10b6b2:	84 c0                	test   %al,%al
  10b6b4:	0f 94 c0             	sete   %al
  10b6b7:	84 c0                	test   %al,%al
  10b6b9:	74 13                	je     10b6ce <_Z11LoadProgramPKcPm+0x10a>
  10b6bb:	48 8b 45 e0          	mov    -0x20(%rbp),%rax
  10b6bf:	48 89 c7             	mov    %rax,%rdi
  10b6c2:	e8 13 19 00 00       	callq  10cfda <_Z5kfreePv>
  10b6c7:	b8 00 00 00 00       	mov    $0x0,%eax
  10b6cc:	eb 04                	jmp    10b6d2 <_Z11LoadProgramPKcPm+0x10e>
  10b6ce:	48 8b 45 d8          	mov    -0x28(%rbp),%rax
  10b6d2:	c9                   	leaveq 
  10b6d3:	c3                   	retq   

000000000010b6d4 <_Z14PrepareProgramP10Elf64_Ehdrm>:
  10b6d4:	f3 0f 1e fa          	endbr64 
  10b6d8:	55                   	push   %rbp
  10b6d9:	48 89 e5             	mov    %rsp,%rbp
  10b6dc:	48 83 ec 50          	sub    $0x50,%rsp
  10b6e0:	48 89 7d b8          	mov    %rdi,-0x48(%rbp)
  10b6e4:	48 89 75 b0          	mov    %rsi,-0x50(%rbp)
  10b6e8:	48 8b 45 b8          	mov    -0x48(%rbp),%rax
  10b6ec:	48 8b 50 20          	mov    0x20(%rax),%rdx
  10b6f0:	48 8b 45 b0          	mov    -0x50(%rbp),%rax
  10b6f4:	48 01 d0             	add    %rdx,%rax
  10b6f7:	48 89 45 e8          	mov    %rax,-0x18(%rbp)
  10b6fb:	48 8b 45 e8          	mov    -0x18(%rbp),%rax
  10b6ff:	48 89 45 f8          	mov    %rax,-0x8(%rbp)
  10b703:	48 8b 45 b8          	mov    -0x48(%rbp),%rax
  10b707:	0f b7 40 38          	movzwl 0x38(%rax),%eax
  10b70b:	0f b7 d0             	movzwl %ax,%edx
  10b70e:	48 8b 45 b8          	mov    -0x48(%rbp),%rax
  10b712:	0f b7 40 36          	movzwl 0x36(%rax),%eax
  10b716:	0f b7 c0             	movzwl %ax,%eax
  10b719:	0f af c2             	imul   %edx,%eax
  10b71c:	48 63 d0             	movslq %eax,%rdx
  10b71f:	48 8b 45 e8          	mov    -0x18(%rbp),%rax
  10b723:	48 01 c2             	add    %rax,%rdx
  10b726:	48 8b 45 f8          	mov    -0x8(%rbp),%rax
  10b72a:	48 39 c2             	cmp    %rax,%rdx
  10b72d:	0f 86 da 00 00 00    	jbe    10b80d <_Z14PrepareProgramP10Elf64_Ehdrm+0x139>
  10b733:	48 8b 45 f8          	mov    -0x8(%rbp),%rax
  10b737:	8b 00                	mov    (%rax),%eax
  10b739:	83 f8 01             	cmp    $0x1,%eax
  10b73c:	0f 85 b0 00 00 00    	jne    10b7f2 <_Z14PrepareProgramP10Elf64_Ehdrm+0x11e>
  10b742:	48 8b 45 f8          	mov    -0x8(%rbp),%rax
  10b746:	48 8b 40 28          	mov    0x28(%rax),%rax
  10b74a:	48 05 ff 0f 00 00    	add    $0xfff,%rax
  10b750:	48 c1 e8 0c          	shr    $0xc,%rax
  10b754:	89 45 e4             	mov    %eax,-0x1c(%rbp)
  10b757:	48 8b 45 f8          	mov    -0x8(%rbp),%rax
  10b75b:	48 8b 40 18          	mov    0x18(%rax),%rax
  10b75f:	48 89 45 d8          	mov    %rax,-0x28(%rbp)
  10b763:	48 8b 45 d8          	mov    -0x28(%rbp),%rax
  10b767:	48 89 45 f0          	mov    %rax,-0x10(%rbp)
  10b76b:	8b 45 e4             	mov    -0x1c(%rbp),%eax
  10b76e:	c1 e0 0c             	shl    $0xc,%eax
  10b771:	89 c2                	mov    %eax,%edx
  10b773:	48 8b 45 d8          	mov    -0x28(%rbp),%rax
  10b777:	48 01 d0             	add    %rdx,%rax
  10b77a:	48 39 45 f0          	cmp    %rax,-0x10(%rbp)
  10b77e:	73 26                	jae    10b7a6 <_Z14PrepareProgramP10Elf64_Ehdrm+0xd2>
  10b780:	48 8b 55 f0          	mov    -0x10(%rbp),%rdx
  10b784:	48 8b 45 f0          	mov    -0x10(%rbp),%rax
  10b788:	b9 03 00 00 00       	mov    $0x3,%ecx
  10b78d:	48 89 c6             	mov    %rax,%rsi
  10b790:	48 8d 3d b1 98 00 00 	lea    0x98b1(%rip),%rdi        # 115048 <KernelDirectory>
  10b797:	e8 3a 49 ff ff       	callq  1000d6 <_ZN16PageTableManager9MapMemoryEmmm>
  10b79c:	48 81 45 f0 00 10 00 	addq   $0x1000,-0x10(%rbp)
  10b7a3:	00 
  10b7a4:	eb c5                	jmp    10b76b <_Z14PrepareProgramP10Elf64_Ehdrm+0x97>
  10b7a6:	48 8b 45 f8          	mov    -0x8(%rbp),%rax
  10b7aa:	48 8b 50 08          	mov    0x8(%rax),%rdx
  10b7ae:	48 8b 45 b0          	mov    -0x50(%rbp),%rax
  10b7b2:	48 01 d0             	add    %rdx,%rax
  10b7b5:	48 89 45 d0          	mov    %rax,-0x30(%rbp)
  10b7b9:	48 8b 45 f8          	mov    -0x8(%rbp),%rax
  10b7bd:	48 8b 40 20          	mov    0x20(%rax),%rax
  10b7c1:	48 89 45 c8          	mov    %rax,-0x38(%rbp)
  10b7c5:	48 8b 45 d8          	mov    -0x28(%rbp),%rax
  10b7c9:	48 8b 55 c8          	mov    -0x38(%rbp),%rdx
  10b7cd:	be 00 00 00 00       	mov    $0x0,%esi
  10b7d2:	48 89 c7             	mov    %rax,%rdi
  10b7d5:	e8 91 16 00 00       	callq  10ce6b <_Z6memsetPvim>
  10b7da:	48 8b 4d d0          	mov    -0x30(%rbp),%rcx
  10b7de:	48 8b 45 d8          	mov    -0x28(%rbp),%rax
  10b7e2:	48 8b 55 c8          	mov    -0x38(%rbp),%rdx
  10b7e6:	48 89 ce             	mov    %rcx,%rsi
  10b7e9:	48 89 c7             	mov    %rax,%rdi
  10b7ec:	e8 38 16 00 00       	callq  10ce29 <_Z6memcpyPvPKvm>
  10b7f1:	90                   	nop
  10b7f2:	48 8b 45 b8          	mov    -0x48(%rbp),%rax
  10b7f6:	0f b7 40 36          	movzwl 0x36(%rax),%eax
  10b7fa:	0f b7 d0             	movzwl %ax,%edx
  10b7fd:	48 8b 45 f8          	mov    -0x8(%rbp),%rax
  10b801:	48 01 d0             	add    %rdx,%rax
  10b804:	48 89 45 f8          	mov    %rax,-0x8(%rbp)
  10b808:	e9 f6 fe ff ff       	jmpq   10b703 <_Z14PrepareProgramP10Elf64_Ehdrm+0x2f>
  10b80d:	90                   	nop
  10b80e:	c9                   	leaveq 
  10b80f:	c3                   	retq   

000000000010b810 <_Z12task_confirmv>:
  10b810:	f3 0f 1e fa          	endbr64 
  10b814:	55                   	push   %rbp
  10b815:	48 89 e5             	mov    %rsp,%rbp
  10b818:	48 8d 3d d9 5b 00 00 	lea    0x5bd9(%rip),%rdi        # 1113f8 <_ZL8sc_ascii+0x338>
  10b81f:	b8 00 00 00 00       	mov    $0x0,%eax
  10b824:	e8 03 12 00 00       	callq  10ca2c <_Z7kprintfPKcz>
  10b829:	e8 33 05 00 00       	callq  10bd61 <_Z5_Killv>
  10b82e:	90                   	nop
  10b82f:	5d                   	pop    %rbp
  10b830:	c3                   	retq   

000000000010b831 <_Z11idle_threadv>:
  10b831:	f3 0f 1e fa          	endbr64 
  10b835:	55                   	push   %rbp
  10b836:	48 89 e5             	mov    %rsp,%rbp
  10b839:	e8 79 62 ff ff       	callq  101ab7 <_Z13EnableTaskingv>
  10b83e:	c6 05 13 c1 00 00 01 	movb   $0x1,0xc113(%rip)        # 117958 <__enabled>
  10b845:	f4                   	hlt    
  10b846:	eb fd                	jmp    10b845 <_Z11idle_threadv+0x14>

000000000010b848 <_ZN7ProcessC1EPKcPv>:
  10b848:	f3 0f 1e fa          	endbr64 
  10b84c:	55                   	push   %rbp
  10b84d:	48 89 e5             	mov    %rsp,%rbp
  10b850:	48 83 ec 30          	sub    $0x30,%rsp
  10b854:	48 89 7d e8          	mov    %rdi,-0x18(%rbp)
  10b858:	48 89 75 e0          	mov    %rsi,-0x20(%rbp)
  10b85c:	48 89 55 d8          	mov    %rdx,-0x28(%rbp)
  10b860:	48 8b 45 e8          	mov    -0x18(%rbp),%rax
  10b864:	48 8b 55 e0          	mov    -0x20(%rbp),%rdx
  10b868:	48 89 90 30 01 00 00 	mov    %rdx,0x130(%rax)
  10b86f:	48 8b 05 da c0 00 00 	mov    0xc0da(%rip),%rax        # 117950 <next_pid>
  10b876:	48 83 c0 01          	add    $0x1,%rax
  10b87a:	48 89 05 cf c0 00 00 	mov    %rax,0xc0cf(%rip)        # 117950 <next_pid>
  10b881:	48 8b 15 c8 c0 00 00 	mov    0xc0c8(%rip),%rdx        # 117950 <next_pid>
  10b888:	48 8b 45 e8          	mov    -0x18(%rbp),%rax
  10b88c:	48 89 50 08          	mov    %rdx,0x8(%rax)
  10b890:	48 8b 45 e8          	mov    -0x18(%rbp),%rax
  10b894:	48 c7 40 20 00 00 00 	movq   $0x0,0x20(%rax)
  10b89b:	00 
  10b89c:	48 8b 55 d8          	mov    -0x28(%rbp),%rdx
  10b8a0:	48 8b 45 e8          	mov    -0x18(%rbp),%rax
  10b8a4:	48 89 50 18          	mov    %rdx,0x18(%rax)
  10b8a8:	48 8b 45 e8          	mov    -0x18(%rbp),%rax
  10b8ac:	48 c7 80 38 01 00 00 	movq   $0x0,0x138(%rax)
  10b8b3:	00 00 00 00 
  10b8b7:	bf 00 10 00 00       	mov    $0x1000,%edi
  10b8bc:	e8 c1 17 00 00       	callq  10d082 <_Z7kmallocm>
  10b8c1:	48 89 c2             	mov    %rax,%rdx
  10b8c4:	48 8b 45 e8          	mov    -0x18(%rbp),%rax
  10b8c8:	48 89 50 28          	mov    %rdx,0x28(%rax)
  10b8cc:	48 8b 45 e8          	mov    -0x18(%rbp),%rax
  10b8d0:	48 8b 40 28          	mov    0x28(%rax),%rax
  10b8d4:	48 05 00 10 00 00    	add    $0x1000,%rax
  10b8da:	48 89 45 f8          	mov    %rax,-0x8(%rbp)
  10b8de:	48 8b 45 f8          	mov    -0x8(%rbp),%rax
  10b8e2:	48 89 45 f0          	mov    %rax,-0x10(%rbp)
  10b8e6:	48 83 6d f8 08       	subq   $0x8,-0x8(%rbp)
  10b8eb:	48 8b 45 f8          	mov    -0x8(%rbp),%rax
  10b8ef:	48 c7 00 10 00 00 00 	movq   $0x10,(%rax)
  10b8f6:	48 83 6d f8 08       	subq   $0x8,-0x8(%rbp)
  10b8fb:	48 8b 55 f8          	mov    -0x8(%rbp),%rdx
  10b8ff:	48 8b 45 f8          	mov    -0x8(%rbp),%rax
  10b903:	48 89 10             	mov    %rdx,(%rax)
  10b906:	48 83 6d f8 08       	subq   $0x8,-0x8(%rbp)
  10b90b:	48 8b 45 f8          	mov    -0x8(%rbp),%rax
  10b90f:	48 c7 00 02 02 00 00 	movq   $0x202,(%rax)
  10b916:	48 83 6d f8 08       	subq   $0x8,-0x8(%rbp)
  10b91b:	48 8b 45 f8          	mov    -0x8(%rbp),%rax
  10b91f:	48 c7 00 08 00 00 00 	movq   $0x8,(%rax)
  10b926:	48 83 6d f8 08       	subq   $0x8,-0x8(%rbp)
  10b92b:	48 8b 55 d8          	mov    -0x28(%rbp),%rdx
  10b92f:	48 8b 45 f8          	mov    -0x8(%rbp),%rax
  10b933:	48 89 10             	mov    %rdx,(%rax)
  10b936:	48 83 6d f8 08       	subq   $0x8,-0x8(%rbp)
  10b93b:	48 8b 45 f8          	mov    -0x8(%rbp),%rax
  10b93f:	48 c7 00 00 00 00 00 	movq   $0x0,(%rax)
  10b946:	48 83 6d f8 08       	subq   $0x8,-0x8(%rbp)
  10b94b:	48 8b 45 f8          	mov    -0x8(%rbp),%rax
  10b94f:	48 c7 00 00 00 00 00 	movq   $0x0,(%rax)
  10b956:	48 83 6d f8 08       	subq   $0x8,-0x8(%rbp)
  10b95b:	48 8b 45 f8          	mov    -0x8(%rbp),%rax
  10b95f:	48 c7 00 00 00 00 00 	movq   $0x0,(%rax)
  10b966:	48 83 6d f8 08       	subq   $0x8,-0x8(%rbp)
  10b96b:	48 8b 45 f8          	mov    -0x8(%rbp),%rax
  10b96f:	48 c7 00 00 00 00 00 	movq   $0x0,(%rax)
  10b976:	48 83 6d f8 08       	subq   $0x8,-0x8(%rbp)
  10b97b:	48 8b 45 f8          	mov    -0x8(%rbp),%rax
  10b97f:	48 c7 00 00 00 00 00 	movq   $0x0,(%rax)
  10b986:	48 83 6d f8 08       	subq   $0x8,-0x8(%rbp)
  10b98b:	48 8b 45 f8          	mov    -0x8(%rbp),%rax
  10b98f:	48 c7 00 00 00 00 00 	movq   $0x0,(%rax)
  10b996:	48 83 6d f8 08       	subq   $0x8,-0x8(%rbp)
  10b99b:	48 8b 45 f8          	mov    -0x8(%rbp),%rax
  10b99f:	48 c7 00 00 00 00 00 	movq   $0x0,(%rax)
  10b9a6:	48 83 6d f8 08       	subq   $0x8,-0x8(%rbp)
  10b9ab:	48 8b 45 f8          	mov    -0x8(%rbp),%rax
  10b9af:	48 c7 00 00 00 00 00 	movq   $0x0,(%rax)
  10b9b6:	48 83 6d f8 08       	subq   $0x8,-0x8(%rbp)
  10b9bb:	48 8b 45 f8          	mov    -0x8(%rbp),%rax
  10b9bf:	48 c7 00 00 00 00 00 	movq   $0x0,(%rax)
  10b9c6:	48 83 6d f8 08       	subq   $0x8,-0x8(%rbp)
  10b9cb:	48 8b 45 f8          	mov    -0x8(%rbp),%rax
  10b9cf:	48 c7 00 00 00 00 00 	movq   $0x0,(%rax)
  10b9d6:	48 83 6d f8 08       	subq   $0x8,-0x8(%rbp)
  10b9db:	48 8b 45 f8          	mov    -0x8(%rbp),%rax
  10b9df:	48 c7 00 00 00 00 00 	movq   $0x0,(%rax)
  10b9e6:	48 83 6d f8 08       	subq   $0x8,-0x8(%rbp)
  10b9eb:	48 8b 45 f8          	mov    -0x8(%rbp),%rax
  10b9ef:	48 c7 00 00 00 00 00 	movq   $0x0,(%rax)
  10b9f6:	48 83 6d f8 08       	subq   $0x8,-0x8(%rbp)
  10b9fb:	48 8b 45 f8          	mov    -0x8(%rbp),%rax
  10b9ff:	48 c7 00 00 00 00 00 	movq   $0x0,(%rax)
  10ba06:	48 83 6d f8 08       	subq   $0x8,-0x8(%rbp)
  10ba0b:	48 8b 45 f8          	mov    -0x8(%rbp),%rax
  10ba0f:	48 c7 00 00 00 00 00 	movq   $0x0,(%rax)
  10ba16:	48 83 6d f8 08       	subq   $0x8,-0x8(%rbp)
  10ba1b:	48 8b 45 f8          	mov    -0x8(%rbp),%rax
  10ba1f:	48 8b 55 f0          	mov    -0x10(%rbp),%rdx
  10ba23:	48 89 10             	mov    %rdx,(%rax)
  10ba26:	48 83 6d f8 08       	subq   $0x8,-0x8(%rbp)
  10ba2b:	48 8b 45 f8          	mov    -0x8(%rbp),%rax
  10ba2f:	48 c7 00 00 00 00 00 	movq   $0x0,(%rax)
  10ba36:	48 83 6d f8 08       	subq   $0x8,-0x8(%rbp)
  10ba3b:	48 8b 45 f8          	mov    -0x8(%rbp),%rax
  10ba3f:	48 c7 00 00 00 00 00 	movq   $0x0,(%rax)
  10ba46:	48 83 6d f8 08       	subq   $0x8,-0x8(%rbp)
  10ba4b:	48 8b 45 f8          	mov    -0x8(%rbp),%rax
  10ba4f:	48 c7 00 00 00 00 00 	movq   $0x0,(%rax)
  10ba56:	48 81 6d f8 00 01 00 	subq   $0x100,-0x8(%rbp)
  10ba5d:	00 
  10ba5e:	48 8b 45 f8          	mov    -0x8(%rbp),%rax
  10ba62:	ba 00 01 00 00       	mov    $0x100,%edx
  10ba67:	be 00 00 00 00       	mov    $0x0,%esi
  10ba6c:	48 89 c7             	mov    %rax,%rdi
  10ba6f:	e8 f7 13 00 00       	callq  10ce6b <_Z6memsetPvim>
  10ba74:	48 8b 55 f8          	mov    -0x8(%rbp),%rdx
  10ba78:	48 8b 45 e8          	mov    -0x18(%rbp),%rax
  10ba7c:	48 89 50 10          	mov    %rdx,0x10(%rax)
  10ba80:	48 8b 45 e8          	mov    -0x18(%rbp),%rax
  10ba84:	48 83 c0 30          	add    $0x30,%rax
  10ba88:	ba 00 01 00 00       	mov    $0x100,%edx
  10ba8d:	be 00 00 00 00       	mov    $0x0,%esi
  10ba92:	48 89 c7             	mov    %rax,%rdi
  10ba95:	e8 d1 13 00 00       	callq  10ce6b <_Z6memsetPvim>
  10ba9a:	48 8b 45 e8          	mov    -0x18(%rbp),%rax
  10ba9e:	48 83 c0 30          	add    $0x30,%rax
  10baa2:	48 8d 35 64 59 00 00 	lea    0x5964(%rip),%rsi        # 11140d <_ZL8sc_ascii+0x34d>
  10baa9:	48 89 c7             	mov    %rax,%rdi
  10baac:	e8 73 0c 00 00       	callq  10c724 <_Z6strcpyPcPKc>
  10bab1:	48 8b 05 98 95 00 00 	mov    0x9598(%rip),%rax        # 115050 <CurrentDirectory>
  10bab8:	48 89 c7             	mov    %rax,%rdi
  10babb:	e8 d2 49 ff ff       	callq  100492 <_ZN16PageTableManager5CloneEv>
  10bac0:	48 8b 55 e8          	mov    -0x18(%rbp),%rdx
  10bac4:	48 89 02             	mov    %rax,(%rdx)
  10bac7:	90                   	nop
  10bac8:	c9                   	leaveq 
  10bac9:	c3                   	retq   

000000000010baca <_ZN7ProcessD1Ev>:
  10baca:	f3 0f 1e fa          	endbr64 
  10bace:	55                   	push   %rbp
  10bacf:	48 89 e5             	mov    %rsp,%rbp
  10bad2:	48 83 ec 10          	sub    $0x10,%rsp
  10bad6:	48 89 7d f8          	mov    %rdi,-0x8(%rbp)
  10bada:	48 8b 45 f8          	mov    -0x8(%rbp),%rax
  10bade:	48 8b 00             	mov    (%rax),%rax
  10bae1:	48 85 c0             	test   %rax,%rax
  10bae4:	74 0d                	je     10baf3 <_ZN7ProcessD1Ev+0x29>
  10bae6:	be 08 00 00 00       	mov    $0x8,%esi
  10baeb:	48 89 c7             	mov    %rax,%rdi
  10baee:	e8 d6 7f ff ff       	callq  103ac9 <_ZdlPvm>
  10baf3:	48 8b 45 f8          	mov    -0x8(%rbp),%rax
  10baf7:	48 8b 40 28          	mov    0x28(%rax),%rax
  10bafb:	48 89 c7             	mov    %rax,%rdi
  10bafe:	e8 d7 14 00 00       	callq  10cfda <_Z5kfreePv>
  10bb03:	90                   	nop
  10bb04:	c9                   	leaveq 
  10bb05:	c3                   	retq   

000000000010bb06 <_ZN7Process6NotifyEi>:
  10bb06:	f3 0f 1e fa          	endbr64 
  10bb0a:	55                   	push   %rbp
  10bb0b:	48 89 e5             	mov    %rsp,%rbp
  10bb0e:	48 83 ec 10          	sub    $0x10,%rsp
  10bb12:	48 89 7d f8          	mov    %rdi,-0x8(%rbp)
  10bb16:	89 75 f4             	mov    %esi,-0xc(%rbp)
  10bb19:	83 7d f4 03          	cmpl   $0x3,-0xc(%rbp)
  10bb1d:	74 42                	je     10bb61 <_ZN7Process6NotifyEi+0x5b>
  10bb1f:	83 7d f4 03          	cmpl   $0x3,-0xc(%rbp)
  10bb23:	7f 52                	jg     10bb77 <_ZN7Process6NotifyEi+0x71>
  10bb25:	83 7d f4 01          	cmpl   $0x1,-0xc(%rbp)
  10bb29:	74 08                	je     10bb33 <_ZN7Process6NotifyEi+0x2d>
  10bb2b:	83 7d f4 02          	cmpl   $0x2,-0xc(%rbp)
  10bb2f:	74 1a                	je     10bb4b <_ZN7Process6NotifyEi+0x45>
  10bb31:	eb 44                	jmp    10bb77 <_ZN7Process6NotifyEi+0x71>
  10bb33:	48 8d 3d d6 58 00 00 	lea    0x58d6(%rip),%rdi        # 111410 <_ZL8sc_ascii+0x350>
  10bb3a:	b8 00 00 00 00       	mov    $0x0,%eax
  10bb3f:	e8 e8 0e 00 00       	callq  10ca2c <_Z7kprintfPKcz>
  10bb44:	e8 18 02 00 00       	callq  10bd61 <_Z5_Killv>
  10bb49:	eb 3e                	jmp    10bb89 <_ZN7Process6NotifyEi+0x83>
  10bb4b:	48 8d 3d de 58 00 00 	lea    0x58de(%rip),%rdi        # 111430 <_ZL8sc_ascii+0x370>
  10bb52:	b8 00 00 00 00       	mov    $0x0,%eax
  10bb57:	e8 d0 0e 00 00       	callq  10ca2c <_Z7kprintfPKcz>
  10bb5c:	e8 00 02 00 00       	callq  10bd61 <_Z5_Killv>
  10bb61:	48 8d 3d e8 58 00 00 	lea    0x58e8(%rip),%rdi        # 111450 <_ZL8sc_ascii+0x390>
  10bb68:	b8 00 00 00 00       	mov    $0x0,%eax
  10bb6d:	e8 ba 0e 00 00       	callq  10ca2c <_Z7kprintfPKcz>
  10bb72:	e8 ea 01 00 00       	callq  10bd61 <_Z5_Killv>
  10bb77:	48 8d 3d f2 58 00 00 	lea    0x58f2(%rip),%rdi        # 111470 <_ZL8sc_ascii+0x3b0>
  10bb7e:	b8 00 00 00 00       	mov    $0x0,%eax
  10bb83:	e8 a4 0e 00 00       	callq  10ca2c <_Z7kprintfPKcz>
  10bb88:	90                   	nop
  10bb89:	c9                   	leaveq 
  10bb8a:	c3                   	retq   

000000000010bb8b <_Z12__AddProcessP7Process>:
  10bb8b:	f3 0f 1e fa          	endbr64 
  10bb8f:	55                   	push   %rbp
  10bb90:	48 89 e5             	mov    %rsp,%rbp
  10bb93:	48 83 ec 18          	sub    $0x18,%rsp
  10bb97:	48 89 7d e8          	mov    %rdi,-0x18(%rbp)
  10bb9b:	48 8b 05 a6 bd 00 00 	mov    0xbda6(%rip),%rax        # 117948 <ready_queue>
  10bba2:	48 89 45 f8          	mov    %rax,-0x8(%rbp)
  10bba6:	48 8b 45 f8          	mov    -0x8(%rbp),%rax
  10bbaa:	48 8b 80 38 01 00 00 	mov    0x138(%rax),%rax
  10bbb1:	48 85 c0             	test   %rax,%rax
  10bbb4:	74 11                	je     10bbc7 <_Z12__AddProcessP7Process+0x3c>
  10bbb6:	48 8b 45 f8          	mov    -0x8(%rbp),%rax
  10bbba:	48 8b 80 38 01 00 00 	mov    0x138(%rax),%rax
  10bbc1:	48 89 45 f8          	mov    %rax,-0x8(%rbp)
  10bbc5:	eb df                	jmp    10bba6 <_Z12__AddProcessP7Process+0x1b>
  10bbc7:	48 8b 45 f8          	mov    -0x8(%rbp),%rax
  10bbcb:	48 8b 55 e8          	mov    -0x18(%rbp),%rdx
  10bbcf:	48 89 90 38 01 00 00 	mov    %rdx,0x138(%rax)
  10bbd6:	90                   	nop
  10bbd7:	c9                   	leaveq 
  10bbd8:	c3                   	retq   

000000000010bbd9 <_Z10AddProcessP7Process>:
  10bbd9:	f3 0f 1e fa          	endbr64 
  10bbdd:	55                   	push   %rbp
  10bbde:	48 89 e5             	mov    %rsp,%rbp
  10bbe1:	48 83 ec 10          	sub    $0x10,%rsp
  10bbe5:	48 89 7d f8          	mov    %rdi,-0x8(%rbp)
  10bbe9:	bf 00 00 00 00       	mov    $0x0,%edi
  10bbee:	e8 99 5e ff ff       	callq  101a8c <_Z9StartTaskm>
  10bbf3:	48 8b 45 f8          	mov    -0x8(%rbp),%rax
  10bbf7:	48 89 c7             	mov    %rax,%rdi
  10bbfa:	e8 8c ff ff ff       	callq  10bb8b <_Z12__AddProcessP7Process>
  10bbff:	bf 01 00 00 00       	mov    $0x1,%edi
  10bc04:	e8 83 5e ff ff       	callq  101a8c <_Z9StartTaskm>
  10bc09:	48 8b 45 f8          	mov    -0x8(%rbp),%rax
  10bc0d:	48 8b 40 08          	mov    0x8(%rax),%rax
  10bc11:	c9                   	leaveq 
  10bc12:	c3                   	retq   

000000000010bc13 <_Z9IsRunningm>:
  10bc13:	f3 0f 1e fa          	endbr64 
  10bc17:	55                   	push   %rbp
  10bc18:	48 89 e5             	mov    %rsp,%rbp
  10bc1b:	48 83 ec 30          	sub    $0x30,%rsp
  10bc1f:	48 89 7d d8          	mov    %rdi,-0x28(%rbp)
  10bc23:	bf 00 00 00 00       	mov    $0x0,%edi
  10bc28:	e8 5f 5e ff ff       	callq  101a8c <_Z9StartTaskm>
  10bc2d:	48 8b 05 0c bd 00 00 	mov    0xbd0c(%rip),%rax        # 117940 <current_process>
  10bc34:	48 89 45 f8          	mov    %rax,-0x8(%rbp)
  10bc38:	48 8b 05 01 bd 00 00 	mov    0xbd01(%rip),%rax        # 117940 <current_process>
  10bc3f:	48 89 45 e8          	mov    %rax,-0x18(%rbp)
  10bc43:	c6 45 f7 00          	movb   $0x0,-0x9(%rbp)
  10bc47:	48 8b 45 f8          	mov    -0x8(%rbp),%rax
  10bc4b:	48 8b 40 08          	mov    0x8(%rax),%rax
  10bc4f:	48 39 45 d8          	cmp    %rax,-0x28(%rbp)
  10bc53:	75 06                	jne    10bc5b <_Z9IsRunningm+0x48>
  10bc55:	c6 45 f7 01          	movb   $0x1,-0x9(%rbp)
  10bc59:	eb 1c                	jmp    10bc77 <_Z9IsRunningm+0x64>
  10bc5b:	48 8b 45 f8          	mov    -0x8(%rbp),%rax
  10bc5f:	48 8b 80 38 01 00 00 	mov    0x138(%rax),%rax
  10bc66:	48 89 45 f8          	mov    %rax,-0x8(%rbp)
  10bc6a:	48 8b 45 f8          	mov    -0x8(%rbp),%rax
  10bc6e:	48 3b 45 e8          	cmp    -0x18(%rbp),%rax
  10bc72:	74 02                	je     10bc76 <_Z9IsRunningm+0x63>
  10bc74:	eb d1                	jmp    10bc47 <_Z9IsRunningm+0x34>
  10bc76:	90                   	nop
  10bc77:	bf 01 00 00 00       	mov    $0x1,%edi
  10bc7c:	e8 0b 5e ff ff       	callq  101a8c <_Z9StartTaskm>
  10bc81:	0f b6 45 f7          	movzbl -0x9(%rbp),%eax
  10bc85:	c9                   	leaveq 
  10bc86:	c3                   	retq   

000000000010bc87 <_Z15IsTaskingOnlinev>:
  10bc87:	f3 0f 1e fa          	endbr64 
  10bc8b:	55                   	push   %rbp
  10bc8c:	48 89 e5             	mov    %rsp,%rbp
  10bc8f:	0f b6 05 c2 bc 00 00 	movzbl 0xbcc2(%rip),%eax        # 117958 <__enabled>
  10bc96:	84 c0                	test   %al,%al
  10bc98:	0f 95 c0             	setne  %al
  10bc9b:	5d                   	pop    %rbp
  10bc9c:	c3                   	retq   

000000000010bc9d <_Z17GetRunningProcessv>:
  10bc9d:	f3 0f 1e fa          	endbr64 
  10bca1:	55                   	push   %rbp
  10bca2:	48 89 e5             	mov    %rsp,%rbp
  10bca5:	48 8b 05 94 bc 00 00 	mov    0xbc94(%rip),%rax        # 117940 <current_process>
  10bcac:	5d                   	pop    %rbp
  10bcad:	c3                   	retq   

000000000010bcae <_Z10SendSignali>:
  10bcae:	f3 0f 1e fa          	endbr64 
  10bcb2:	55                   	push   %rbp
  10bcb3:	48 89 e5             	mov    %rsp,%rbp
  10bcb6:	48 83 ec 10          	sub    $0x10,%rsp
  10bcba:	89 7d fc             	mov    %edi,-0x4(%rbp)
  10bcbd:	48 8b 05 7c bc 00 00 	mov    0xbc7c(%rip),%rax        # 117940 <current_process>
  10bcc4:	8b 55 fc             	mov    -0x4(%rbp),%edx
  10bcc7:	89 d6                	mov    %edx,%esi
  10bcc9:	48 89 c7             	mov    %rax,%rdi
  10bccc:	e8 35 fe ff ff       	callq  10bb06 <_ZN7Process6NotifyEi>
  10bcd1:	90                   	nop
  10bcd2:	c9                   	leaveq 
  10bcd3:	c3                   	retq   

000000000010bcd4 <_Z8PrintAllv>:
  10bcd4:	f3 0f 1e fa          	endbr64 
  10bcd8:	55                   	push   %rbp
  10bcd9:	48 89 e5             	mov    %rsp,%rbp
  10bcdc:	48 83 ec 10          	sub    $0x10,%rsp
  10bce0:	48 8b 05 61 bc 00 00 	mov    0xbc61(%rip),%rax        # 117948 <ready_queue>
  10bce7:	48 89 45 f8          	mov    %rax,-0x8(%rbp)
  10bceb:	48 83 7d f8 00       	cmpq   $0x0,-0x8(%rbp)
  10bcf0:	74 6c                	je     10bd5e <_Z8PrintAllv+0x8a>
  10bcf2:	48 8b 45 f8          	mov    -0x8(%rbp),%rax
  10bcf6:	48 8b 40 20          	mov    0x20(%rax),%rax
  10bcfa:	48 83 f8 01          	cmp    $0x1,%rax
  10bcfe:	74 1f                	je     10bd1f <_Z8PrintAllv+0x4b>
  10bd00:	48 8b 45 f8          	mov    -0x8(%rbp),%rax
  10bd04:	48 8b 40 20          	mov    0x20(%rax),%rax
  10bd08:	48 85 c0             	test   %rax,%rax
  10bd0b:	75 09                	jne    10bd16 <_Z8PrintAllv+0x42>
  10bd0d:	48 8d 05 73 57 00 00 	lea    0x5773(%rip),%rax        # 111487 <_ZL8sc_ascii+0x3c7>
  10bd14:	eb 10                	jmp    10bd26 <_Z8PrintAllv+0x52>
  10bd16:	48 8d 05 70 57 00 00 	lea    0x5770(%rip),%rax        # 11148d <_ZL8sc_ascii+0x3cd>
  10bd1d:	eb 07                	jmp    10bd26 <_Z8PrintAllv+0x52>
  10bd1f:	48 8d 05 6c 57 00 00 	lea    0x576c(%rip),%rax        # 111492 <_ZL8sc_ascii+0x3d2>
  10bd26:	48 8b 55 f8          	mov    -0x8(%rbp),%rdx
  10bd2a:	48 8b 52 08          	mov    0x8(%rdx),%rdx
  10bd2e:	48 8b 4d f8          	mov    -0x8(%rbp),%rcx
  10bd32:	48 8b b1 30 01 00 00 	mov    0x130(%rcx),%rsi
  10bd39:	48 89 c1             	mov    %rax,%rcx
  10bd3c:	48 8d 3d 56 57 00 00 	lea    0x5756(%rip),%rdi        # 111499 <_ZL8sc_ascii+0x3d9>
  10bd43:	b8 00 00 00 00       	mov    $0x0,%eax
  10bd48:	e8 df 0c 00 00       	callq  10ca2c <_Z7kprintfPKcz>
  10bd4d:	48 8b 45 f8          	mov    -0x8(%rbp),%rax
  10bd51:	48 8b 80 38 01 00 00 	mov    0x138(%rax),%rax
  10bd58:	48 89 45 f8          	mov    %rax,-0x8(%rbp)
  10bd5c:	eb 8d                	jmp    10bceb <_Z8PrintAllv+0x17>
  10bd5e:	90                   	nop
  10bd5f:	c9                   	leaveq 
  10bd60:	c3                   	retq   

000000000010bd61 <_Z5_Killv>:
  10bd61:	f3 0f 1e fa          	endbr64 
  10bd65:	55                   	push   %rbp
  10bd66:	48 89 e5             	mov    %rsp,%rbp
  10bd69:	53                   	push   %rbx
  10bd6a:	48 83 ec 18          	sub    $0x18,%rsp
  10bd6e:	fa                   	cli    
  10bd6f:	48 8b 05 ca bb 00 00 	mov    0xbbca(%rip),%rax        # 117940 <current_process>
  10bd76:	48 8b 40 08          	mov    0x8(%rax),%rax
  10bd7a:	48 83 f8 01          	cmp    $0x1,%rax
  10bd7e:	75 1e                	jne    10bd9e <_Z5_Killv+0x3d>
  10bd80:	bf 00 00 00 00       	mov    $0x0,%edi
  10bd85:	e8 02 5d ff ff       	callq  101a8c <_Z9StartTaskm>
  10bd8a:	48 8d 3d 1d 57 00 00 	lea    0x571d(%rip),%rdi        # 1114ae <_ZL8sc_ascii+0x3ee>
  10bd91:	b8 00 00 00 00       	mov    $0x0,%eax
  10bd96:	e8 91 0c 00 00       	callq  10ca2c <_Z7kprintfPKcz>
  10bd9b:	f4                   	hlt    
  10bd9c:	eb fd                	jmp    10bd9b <_Z5_Killv+0x3a>
  10bd9e:	48 8b 05 9b bb 00 00 	mov    0xbb9b(%rip),%rax        # 117940 <current_process>
  10bda5:	48 8b 50 08          	mov    0x8(%rax),%rdx
  10bda9:	48 8b 05 90 bb 00 00 	mov    0xbb90(%rip),%rax        # 117940 <current_process>
  10bdb0:	48 8b 80 30 01 00 00 	mov    0x130(%rax),%rax
  10bdb7:	48 89 c6             	mov    %rax,%rsi
  10bdba:	48 8d 3d 04 57 00 00 	lea    0x5704(%rip),%rdi        # 1114c5 <_ZL8sc_ascii+0x405>
  10bdc1:	b8 00 00 00 00       	mov    $0x0,%eax
  10bdc6:	e8 61 0c 00 00       	callq  10ca2c <_Z7kprintfPKcz>
  10bdcb:	bf 00 00 00 00       	mov    $0x0,%edi
  10bdd0:	e8 b7 5c ff ff       	callq  101a8c <_Z9StartTaskm>
  10bdd5:	48 8b 05 64 bb 00 00 	mov    0xbb64(%rip),%rax        # 117940 <current_process>
  10bddc:	48 8b 00             	mov    (%rax),%rax
  10bddf:	48 89 c7             	mov    %rax,%rdi
  10bde2:	e8 f3 11 00 00       	callq  10cfda <_Z5kfreePv>
  10bde7:	48 8b 05 5a bb 00 00 	mov    0xbb5a(%rip),%rax        # 117948 <ready_queue>
  10bdee:	48 89 45 e8          	mov    %rax,-0x18(%rbp)
  10bdf2:	48 83 7d e8 00       	cmpq   $0x0,-0x18(%rbp)
  10bdf7:	74 41                	je     10be3a <_Z5_Killv+0xd9>
  10bdf9:	48 8b 45 e8          	mov    -0x18(%rbp),%rax
  10bdfd:	48 8b 90 38 01 00 00 	mov    0x138(%rax),%rdx
  10be04:	48 8b 05 35 bb 00 00 	mov    0xbb35(%rip),%rax        # 117940 <current_process>
  10be0b:	48 39 c2             	cmp    %rax,%rdx
  10be0e:	75 19                	jne    10be29 <_Z5_Killv+0xc8>
  10be10:	48 8b 05 29 bb 00 00 	mov    0xbb29(%rip),%rax        # 117940 <current_process>
  10be17:	48 8b 90 38 01 00 00 	mov    0x138(%rax),%rdx
  10be1e:	48 8b 45 e8          	mov    -0x18(%rbp),%rax
  10be22:	48 89 90 38 01 00 00 	mov    %rdx,0x138(%rax)
  10be29:	48 8b 45 e8          	mov    -0x18(%rbp),%rax
  10be2d:	48 8b 80 38 01 00 00 	mov    0x138(%rax),%rax
  10be34:	48 89 45 e8          	mov    %rax,-0x18(%rbp)
  10be38:	eb b8                	jmp    10bdf2 <_Z5_Killv+0x91>
  10be3a:	48 8b 1d ff ba 00 00 	mov    0xbaff(%rip),%rbx        # 117940 <current_process>
  10be41:	48 85 db             	test   %rbx,%rbx
  10be44:	74 15                	je     10be5b <_Z5_Killv+0xfa>
  10be46:	48 89 df             	mov    %rbx,%rdi
  10be49:	e8 7c fc ff ff       	callq  10baca <_ZN7ProcessD1Ev>
  10be4e:	be 40 01 00 00       	mov    $0x140,%esi
  10be53:	48 89 df             	mov    %rbx,%rdi
  10be56:	e8 6e 7c ff ff       	callq  103ac9 <_ZdlPvm>
  10be5b:	bf 01 00 00 00       	mov    $0x1,%edi
  10be60:	e8 27 5c ff ff       	callq  101a8c <_Z9StartTaskm>
  10be65:	fb                   	sti    
  10be66:	e8 3b 01 00 00       	callq  10bfa6 <_Z11ScheduleIRQv>
  10be6b:	90                   	nop
  10be6c:	48 83 c4 18          	add    $0x18,%rsp
  10be70:	5b                   	pop    %rbx
  10be71:	5d                   	pop    %rbp
  10be72:	c3                   	retq   

000000000010be73 <_Z4Killm>:
  10be73:	f3 0f 1e fa          	endbr64 
  10be77:	55                   	push   %rbp
  10be78:	48 89 e5             	mov    %rsp,%rbp
  10be7b:	48 83 ec 20          	sub    $0x20,%rsp
  10be7f:	48 89 7d e8          	mov    %rdi,-0x18(%rbp)
  10be83:	48 83 7d e8 01       	cmpq   $0x1,-0x18(%rbp)
  10be88:	75 11                	jne    10be9b <_Z4Killm+0x28>
  10be8a:	48 8d 3d 1d 56 00 00 	lea    0x561d(%rip),%rdi        # 1114ae <_ZL8sc_ascii+0x3ee>
  10be91:	b8 00 00 00 00       	mov    $0x0,%eax
  10be96:	e8 91 0b 00 00       	callq  10ca2c <_Z7kprintfPKcz>
  10be9b:	48 8b 05 9e ba 00 00 	mov    0xba9e(%rip),%rax        # 117940 <current_process>
  10bea2:	48 8b 40 08          	mov    0x8(%rax),%rax
  10bea6:	48 39 45 e8          	cmp    %rax,-0x18(%rbp)
  10beaa:	75 05                	jne    10beb1 <_Z4Killm+0x3e>
  10beac:	e8 b0 fe ff ff       	callq  10bd61 <_Z5_Killv>
  10beb1:	48 8b 05 88 ba 00 00 	mov    0xba88(%rip),%rax        # 117940 <current_process>
  10beb8:	48 89 45 f0          	mov    %rax,-0x10(%rbp)
  10bebc:	48 8b 45 f0          	mov    -0x10(%rbp),%rax
  10bec0:	48 89 45 f8          	mov    %rax,-0x8(%rbp)
  10bec4:	48 83 7d f8 00       	cmpq   $0x0,-0x8(%rbp)
  10bec9:	74 51                	je     10bf1c <_Z4Killm+0xa9>
  10becb:	48 8b 45 f8          	mov    -0x8(%rbp),%rax
  10becf:	48 8b 40 08          	mov    0x8(%rax),%rax
  10bed3:	48 39 45 e8          	cmp    %rax,-0x18(%rbp)
  10bed7:	75 32                	jne    10bf0b <_Z4Killm+0x98>
  10bed9:	48 8b 45 f8          	mov    -0x8(%rbp),%rax
  10bedd:	48 8b 80 30 01 00 00 	mov    0x130(%rax),%rax
  10bee4:	48 8b 55 e8          	mov    -0x18(%rbp),%rdx
  10bee8:	48 89 c6             	mov    %rax,%rsi
  10beeb:	48 8d 3d ee 55 00 00 	lea    0x55ee(%rip),%rdi        # 1114e0 <_ZL8sc_ascii+0x420>
  10bef2:	b8 00 00 00 00       	mov    $0x0,%eax
  10bef7:	e8 30 0b 00 00       	callq  10ca2c <_Z7kprintfPKcz>
  10befc:	48 8b 45 f8          	mov    -0x8(%rbp),%rax
  10bf00:	48 c7 40 20 01 00 00 	movq   $0x1,0x20(%rax)
  10bf07:	00 
  10bf08:	90                   	nop
  10bf09:	eb 11                	jmp    10bf1c <_Z4Killm+0xa9>
  10bf0b:	48 8b 45 f8          	mov    -0x8(%rbp),%rax
  10bf0f:	48 8b 80 38 01 00 00 	mov    0x138(%rax),%rax
  10bf16:	48 89 45 f8          	mov    %rax,-0x8(%rbp)
  10bf1a:	eb a8                	jmp    10bec4 <_Z4Killm+0x51>
  10bf1c:	90                   	nop
  10bf1d:	c9                   	leaveq 
  10bf1e:	c3                   	retq   

000000000010bf1f <_Z6__execv>:
  10bf1f:	f3 0f 1e fa          	endbr64 
  10bf23:	55                   	push   %rbp
  10bf24:	48 89 e5             	mov    %rsp,%rbp
  10bf27:	48 83 ec 10          	sub    $0x10,%rsp
  10bf2b:	48 8b 05 0e ba 00 00 	mov    0xba0e(%rip),%rax        # 117940 <current_process>
  10bf32:	48 8b 00             	mov    (%rax),%rax
  10bf35:	48 89 05 14 91 00 00 	mov    %rax,0x9114(%rip)        # 115050 <CurrentDirectory>
  10bf3c:	48 8b 05 0d 91 00 00 	mov    0x910d(%rip),%rax        # 115050 <CurrentDirectory>
  10bf43:	48 89 c7             	mov    %rax,%rdi
  10bf46:	e8 8d 21 00 00       	callq  10e0d8 <_ZN16PageTableManager7GetPML4Ev>
  10bf4b:	48 89 45 f8          	mov    %rax,-0x8(%rbp)
  10bf4f:	48 8b 05 ea b9 00 00 	mov    0xb9ea(%rip),%rax        # 117940 <current_process>
  10bf56:	48 8b 40 10          	mov    0x10(%rax),%rax
  10bf5a:	48 89 45 f0          	mov    %rax,-0x10(%rbp)
  10bf5e:	48 8b 05 db b9 00 00 	mov    0xb9db(%rip),%rax        # 117940 <current_process>
  10bf65:	48 8b 50 10          	mov    0x10(%rax),%rdx
  10bf69:	48 8b 05 d0 b9 00 00 	mov    0xb9d0(%rip),%rax        # 117940 <current_process>
  10bf70:	48 81 c2 b8 01 00 00 	add    $0x1b8,%rdx
  10bf77:	48 89 50 10          	mov    %rdx,0x10(%rax)
  10bf7b:	48 8b 05 ce 90 00 00 	mov    0x90ce(%rip),%rax        # 115050 <CurrentDirectory>
  10bf82:	48 8b 55 f8          	mov    -0x8(%rbp),%rdx
  10bf86:	48 89 d6             	mov    %rdx,%rsi
  10bf89:	48 89 c7             	mov    %rax,%rdi
  10bf8c:	e8 f7 43 ff ff       	callq  100388 <_ZN16PageTableManager15PhysicalAddressEm>
  10bf91:	48 89 c2             	mov    %rax,%rdx
  10bf94:	48 8b 45 f0          	mov    -0x10(%rbp),%rax
  10bf98:	48 89 d6             	mov    %rdx,%rsi
  10bf9b:	48 89 c7             	mov    %rax,%rdi
  10bf9e:	e8 5f 1f 00 00       	callq  10df02 <StartProcess_FirstTime>
  10bfa3:	90                   	nop
  10bfa4:	c9                   	leaveq 
  10bfa5:	c3                   	retq   

000000000010bfa6 <_Z11ScheduleIRQv>:
  10bfa6:	f3 0f 1e fa          	endbr64 
  10bfaa:	55                   	push   %rbp
  10bfab:	48 89 e5             	mov    %rsp,%rbp
  10bfae:	0f b6 05 a3 b9 00 00 	movzbl 0xb9a3(%rip),%eax        # 117958 <__enabled>
  10bfb5:	84 c0                	test   %al,%al
  10bfb7:	74 04                	je     10bfbd <_Z11ScheduleIRQv+0x17>
  10bfb9:	cd 20                	int    $0x20
  10bfbb:	eb 01                	jmp    10bfbe <_Z11ScheduleIRQv+0x18>
  10bfbd:	90                   	nop
  10bfbe:	5d                   	pop    %rbp
  10bfbf:	c3                   	retq   

000000000010bfc0 <_Z8Schedulev>:
  10bfc0:	f3 0f 1e fa          	endbr64 
  10bfc4:	55                   	push   %rbp
  10bfc5:	48 89 e5             	mov    %rsp,%rbp
  10bfc8:	48 83 ec 20          	sub    $0x20,%rsp
  10bfcc:	48 8b 05 75 b9 00 00 	mov    0xb975(%rip),%rax        # 117948 <ready_queue>
  10bfd3:	48 8b 80 38 01 00 00 	mov    0x138(%rax),%rax
  10bfda:	48 85 c0             	test   %rax,%rax
  10bfdd:	0f 84 bc 00 00 00    	je     10c09f <_Z8Schedulev+0xdf>
  10bfe3:	48 8b 05 56 b9 00 00 	mov    0xb956(%rip),%rax        # 117940 <current_process>
  10bfea:	48 83 c0 10          	add    $0x10,%rax
  10bfee:	48 89 45 f8          	mov    %rax,-0x8(%rbp)
  10bff2:	48 8b 05 47 b9 00 00 	mov    0xb947(%rip),%rax        # 117940 <current_process>
  10bff9:	48 8b 80 38 01 00 00 	mov    0x138(%rax),%rax
  10c000:	48 89 05 39 b9 00 00 	mov    %rax,0xb939(%rip)        # 117940 <current_process>
  10c007:	48 8b 05 32 b9 00 00 	mov    0xb932(%rip),%rax        # 117940 <current_process>
  10c00e:	48 85 c0             	test   %rax,%rax
  10c011:	75 0e                	jne    10c021 <_Z8Schedulev+0x61>
  10c013:	48 8b 05 2e b9 00 00 	mov    0xb92e(%rip),%rax        # 117948 <ready_queue>
  10c01a:	48 89 05 1f b9 00 00 	mov    %rax,0xb91f(%rip)        # 117940 <current_process>
  10c021:	48 8b 05 18 b9 00 00 	mov    0xb918(%rip),%rax        # 117940 <current_process>
  10c028:	48 8b 00             	mov    (%rax),%rax
  10c02b:	48 89 05 1e 90 00 00 	mov    %rax,0x901e(%rip)        # 115050 <CurrentDirectory>
  10c032:	48 8b 05 17 90 00 00 	mov    0x9017(%rip),%rax        # 115050 <CurrentDirectory>
  10c039:	48 89 c7             	mov    %rax,%rdi
  10c03c:	e8 97 20 00 00       	callq  10e0d8 <_ZN16PageTableManager7GetPML4Ev>
  10c041:	48 89 45 f0          	mov    %rax,-0x10(%rbp)
  10c045:	48 8b 05 f4 b8 00 00 	mov    0xb8f4(%rip),%rax        # 117940 <current_process>
  10c04c:	48 8b 40 10          	mov    0x10(%rax),%rax
  10c050:	48 89 45 e8          	mov    %rax,-0x18(%rbp)
  10c054:	48 8b 05 e5 b8 00 00 	mov    0xb8e5(%rip),%rax        # 117940 <current_process>
  10c05b:	48 8b 50 10          	mov    0x10(%rax),%rdx
  10c05f:	48 8b 05 da b8 00 00 	mov    0xb8da(%rip),%rax        # 117940 <current_process>
  10c066:	48 81 c2 b8 01 00 00 	add    $0x1b8,%rdx
  10c06d:	48 89 50 10          	mov    %rdx,0x10(%rax)
  10c071:	48 8b 05 d8 8f 00 00 	mov    0x8fd8(%rip),%rax        # 115050 <CurrentDirectory>
  10c078:	48 8b 55 f0          	mov    -0x10(%rbp),%rdx
  10c07c:	48 89 d6             	mov    %rdx,%rsi
  10c07f:	48 89 c7             	mov    %rax,%rdi
  10c082:	e8 01 43 ff ff       	callq  100388 <_ZN16PageTableManager15PhysicalAddressEm>
  10c087:	48 89 c2             	mov    %rax,%rdx
  10c08a:	48 8b 4d f8          	mov    -0x8(%rbp),%rcx
  10c08e:	48 8b 45 e8          	mov    -0x18(%rbp),%rax
  10c092:	48 89 ce             	mov    %rcx,%rsi
  10c095:	48 89 c7             	mov    %rax,%rdi
  10c098:	e8 a3 1d 00 00       	callq  10de40 <StartProcess>
  10c09d:	eb 01                	jmp    10c0a0 <_Z8Schedulev+0xe0>
  10c09f:	90                   	nop
  10c0a0:	c9                   	leaveq 
  10c0a1:	c3                   	retq   

000000000010c0a2 <_Z17InitialiseTaskingv>:
  10c0a2:	f3 0f 1e fa          	endbr64 
  10c0a6:	55                   	push   %rbp
  10c0a7:	48 89 e5             	mov    %rsp,%rbp
  10c0aa:	53                   	push   %rbx
  10c0ab:	48 83 ec 08          	sub    $0x8,%rsp
  10c0af:	bf 40 01 00 00       	mov    $0x140,%edi
  10c0b4:	e8 96 79 ff ff       	callq  103a4f <_Znwm>
  10c0b9:	48 89 c3             	mov    %rax,%rbx
  10c0bc:	48 8d 15 6e f7 ff ff 	lea    -0x892(%rip),%rdx        # 10b831 <_Z11idle_threadv>
  10c0c3:	48 8d 35 3a 54 00 00 	lea    0x543a(%rip),%rsi        # 111504 <_ZL8sc_ascii+0x444>
  10c0ca:	48 89 df             	mov    %rbx,%rdi
  10c0cd:	e8 76 f7 ff ff       	callq  10b848 <_ZN7ProcessC1EPKcPv>
  10c0d2:	48 89 1d 67 b8 00 00 	mov    %rbx,0xb867(%rip)        # 117940 <current_process>
  10c0d9:	48 8b 05 60 b8 00 00 	mov    0xb860(%rip),%rax        # 117940 <current_process>
  10c0e0:	48 89 05 61 b8 00 00 	mov    %rax,0xb861(%rip)        # 117948 <ready_queue>
  10c0e7:	bf 40 01 00 00       	mov    $0x140,%edi
  10c0ec:	e8 5e 79 ff ff       	callq  103a4f <_Znwm>
  10c0f1:	48 89 c3             	mov    %rax,%rbx
  10c0f4:	48 8d 15 15 f7 ff ff 	lea    -0x8eb(%rip),%rdx        # 10b810 <_Z12task_confirmv>
  10c0fb:	48 8d 35 0e 54 00 00 	lea    0x540e(%rip),%rsi        # 111510 <_ZL8sc_ascii+0x450>
  10c102:	48 89 df             	mov    %rbx,%rdi
  10c105:	e8 3e f7 ff ff       	callq  10b848 <_ZN7ProcessC1EPKcPv>
  10c10a:	48 89 df             	mov    %rbx,%rdi
  10c10d:	e8 79 fa ff ff       	callq  10bb8b <_Z12__AddProcessP7Process>
  10c112:	bf 40 01 00 00       	mov    $0x140,%edi
  10c117:	e8 33 79 ff ff       	callq  103a4f <_Znwm>
  10c11c:	48 89 c3             	mov    %rax,%rbx
  10c11f:	48 c7 c0 4e 33 10 00 	mov    $0x10334e,%rax
  10c126:	48 89 c2             	mov    %rax,%rdx
  10c129:	48 8d 35 ed 53 00 00 	lea    0x53ed(%rip),%rsi        # 11151d <_ZL8sc_ascii+0x45d>
  10c130:	48 89 df             	mov    %rbx,%rdi
  10c133:	e8 10 f7 ff ff       	callq  10b848 <_ZN7ProcessC1EPKcPv>
  10c138:	48 89 df             	mov    %rbx,%rdi
  10c13b:	e8 4b fa ff ff       	callq  10bb8b <_Z12__AddProcessP7Process>
  10c140:	e8 da fd ff ff       	callq  10bf1f <_Z6__execv>
  10c145:	48 8d 3d d8 53 00 00 	lea    0x53d8(%rip),%rdi        # 111524 <_ZL8sc_ascii+0x464>
  10c14c:	b8 00 00 00 00       	mov    $0x0,%eax
  10c151:	e8 d6 08 00 00       	callq  10ca2c <_Z7kprintfPKcz>
  10c156:	90                   	nop
  10c157:	48 83 c4 08          	add    $0x8,%rsp
  10c15b:	5b                   	pop    %rbx
  10c15c:	5d                   	pop    %rbp
  10c15d:	c3                   	retq   

000000000010c15e <_Z9MoveStackPvm>:
  10c15e:	f3 0f 1e fa          	endbr64 
  10c162:	55                   	push   %rbp
  10c163:	48 89 e5             	mov    %rsp,%rbp
  10c166:	48 83 ec 70          	sub    $0x70,%rsp
  10c16a:	48 89 7d 98          	mov    %rdi,-0x68(%rbp)
  10c16e:	48 89 75 90          	mov    %rsi,-0x70(%rbp)
  10c172:	48 8b 05 0f a9 00 00 	mov    0xa90f(%rip),%rax        # 116a88 <initial_rsp>
  10c179:	48 85 c0             	test   %rax,%rax
  10c17c:	0f 84 27 01 00 00    	je     10c2a9 <_Z9MoveStackPvm+0x14b>
  10c182:	48 8b 45 98          	mov    -0x68(%rbp),%rax
  10c186:	48 89 45 f8          	mov    %rax,-0x8(%rbp)
  10c18a:	48 8b 45 98          	mov    -0x68(%rbp),%rax
  10c18e:	48 2b 45 90          	sub    -0x70(%rbp),%rax
  10c192:	48 39 45 f8          	cmp    %rax,-0x8(%rbp)
  10c196:	72 37                	jb     10c1cf <_Z9MoveStackPvm+0x71>
  10c198:	e8 85 53 ff ff       	callq  101522 <_ZN18PageFrameAllocator15SharedAllocatorEv>
  10c19d:	48 89 c7             	mov    %rax,%rdi
  10c1a0:	e8 d1 50 ff ff       	callq  101276 <_ZN18PageFrameAllocator11RequestPageEv>
  10c1a5:	48 89 45 e8          	mov    %rax,-0x18(%rbp)
  10c1a9:	48 8b 05 a0 8e 00 00 	mov    0x8ea0(%rip),%rax        # 115050 <CurrentDirectory>
  10c1b0:	48 8b 55 e8          	mov    -0x18(%rbp),%rdx
  10c1b4:	48 8b 75 f8          	mov    -0x8(%rbp),%rsi
  10c1b8:	b9 03 00 00 00       	mov    $0x3,%ecx
  10c1bd:	48 89 c7             	mov    %rax,%rdi
  10c1c0:	e8 11 3f ff ff       	callq  1000d6 <_ZN16PageTableManager9MapMemoryEmmm>
  10c1c5:	48 81 6d f8 00 10 00 	subq   $0x1000,-0x8(%rbp)
  10c1cc:	00 
  10c1cd:	eb bb                	jmp    10c18a <_Z9MoveStackPvm+0x2c>
  10c1cf:	0f 20 d8             	mov    %cr3,%rax
  10c1d2:	48 89 45 e0          	mov    %rax,-0x20(%rbp)
  10c1d6:	48 8b 45 e0          	mov    -0x20(%rbp),%rax
  10c1da:	0f 22 d8             	mov    %rax,%cr3
  10c1dd:	48 89 e0             	mov    %rsp,%rax
  10c1e0:	48 89 45 d8          	mov    %rax,-0x28(%rbp)
  10c1e4:	48 89 e8             	mov    %rbp,%rax
  10c1e7:	48 89 45 d0          	mov    %rax,-0x30(%rbp)
  10c1eb:	48 8b 55 98          	mov    -0x68(%rbp),%rdx
  10c1ef:	48 8b 05 92 a8 00 00 	mov    0xa892(%rip),%rax        # 116a88 <initial_rsp>
  10c1f6:	48 29 c2             	sub    %rax,%rdx
  10c1f9:	48 89 d0             	mov    %rdx,%rax
  10c1fc:	48 89 45 c8          	mov    %rax,-0x38(%rbp)
  10c200:	48 8b 55 d8          	mov    -0x28(%rbp),%rdx
  10c204:	48 8b 45 c8          	mov    -0x38(%rbp),%rax
  10c208:	48 01 d0             	add    %rdx,%rax
  10c20b:	48 89 45 c0          	mov    %rax,-0x40(%rbp)
  10c20f:	48 8b 55 d0          	mov    -0x30(%rbp),%rdx
  10c213:	48 8b 45 c8          	mov    -0x38(%rbp),%rax
  10c217:	48 01 d0             	add    %rdx,%rax
  10c21a:	48 89 45 b8          	mov    %rax,-0x48(%rbp)
  10c21e:	48 8b 05 63 a8 00 00 	mov    0xa863(%rip),%rax        # 116a88 <initial_rsp>
  10c225:	48 2b 45 d8          	sub    -0x28(%rbp),%rax
  10c229:	48 89 c2             	mov    %rax,%rdx
  10c22c:	48 8b 4d d8          	mov    -0x28(%rbp),%rcx
  10c230:	48 8b 45 c0          	mov    -0x40(%rbp),%rax
  10c234:	48 89 ce             	mov    %rcx,%rsi
  10c237:	48 89 c7             	mov    %rax,%rdi
  10c23a:	e8 ea 0b 00 00       	callq  10ce29 <_Z6memcpyPvPKvm>
  10c23f:	48 8b 45 98          	mov    -0x68(%rbp),%rax
  10c243:	48 89 45 f0          	mov    %rax,-0x10(%rbp)
  10c247:	48 8b 45 98          	mov    -0x68(%rbp),%rax
  10c24b:	48 2b 45 90          	sub    -0x70(%rbp),%rax
  10c24f:	48 39 45 f0          	cmp    %rax,-0x10(%rbp)
  10c253:	76 44                	jbe    10c299 <_Z9MoveStackPvm+0x13b>
  10c255:	48 8b 45 f0          	mov    -0x10(%rbp),%rax
  10c259:	48 8b 00             	mov    (%rax),%rax
  10c25c:	48 89 45 b0          	mov    %rax,-0x50(%rbp)
  10c260:	48 8b 45 d8          	mov    -0x28(%rbp),%rax
  10c264:	48 3b 45 b0          	cmp    -0x50(%rbp),%rax
  10c268:	73 28                	jae    10c292 <_Z9MoveStackPvm+0x134>
  10c26a:	48 8b 05 17 a8 00 00 	mov    0xa817(%rip),%rax        # 116a88 <initial_rsp>
  10c271:	48 39 45 b0          	cmp    %rax,-0x50(%rbp)
  10c275:	73 1b                	jae    10c292 <_Z9MoveStackPvm+0x134>
  10c277:	48 8b 45 c8          	mov    -0x38(%rbp),%rax
  10c27b:	48 01 45 b0          	add    %rax,-0x50(%rbp)
  10c27f:	48 8b 45 f0          	mov    -0x10(%rbp),%rax
  10c283:	48 89 45 a8          	mov    %rax,-0x58(%rbp)
  10c287:	48 8b 45 a8          	mov    -0x58(%rbp),%rax
  10c28b:	48 8b 55 b0          	mov    -0x50(%rbp),%rdx
  10c28f:	48 89 10             	mov    %rdx,(%rax)
  10c292:	48 83 6d f0 08       	subq   $0x8,-0x10(%rbp)
  10c297:	eb ae                	jmp    10c247 <_Z9MoveStackPvm+0xe9>
  10c299:	48 8b 45 c0          	mov    -0x40(%rbp),%rax
  10c29d:	48 89 c4             	mov    %rax,%rsp
  10c2a0:	48 8b 45 b8          	mov    -0x48(%rbp),%rax
  10c2a4:	48 89 c5             	mov    %rax,%rbp
  10c2a7:	eb 01                	jmp    10c2aa <_Z9MoveStackPvm+0x14c>
  10c2a9:	90                   	nop
  10c2aa:	c9                   	leaveq 
  10c2ab:	c3                   	retq   

000000000010c2ac <_ZN6Bitmap3GetEm>:
  10c2ac:	f3 0f 1e fa          	endbr64 
  10c2b0:	55                   	push   %rbp
  10c2b1:	48 89 e5             	mov    %rsp,%rbp
  10c2b4:	48 83 ec 20          	sub    $0x20,%rsp
  10c2b8:	48 89 7d e8          	mov    %rdi,-0x18(%rbp)
  10c2bc:	48 89 75 e0          	mov    %rsi,-0x20(%rbp)
  10c2c0:	48 8b 45 e0          	mov    -0x20(%rbp),%rax
  10c2c4:	48 c1 e8 06          	shr    $0x6,%rax
  10c2c8:	48 89 45 f8          	mov    %rax,-0x8(%rbp)
  10c2cc:	48 8b 45 e0          	mov    -0x20(%rbp),%rax
  10c2d0:	83 e0 3f             	and    $0x3f,%eax
  10c2d3:	48 89 45 f0          	mov    %rax,-0x10(%rbp)
  10c2d7:	48 8b 45 e8          	mov    -0x18(%rbp),%rax
  10c2db:	48 8b 40 08          	mov    0x8(%rax),%rax
  10c2df:	48 8b 55 f8          	mov    -0x8(%rbp),%rdx
  10c2e3:	48 c1 e2 03          	shl    $0x3,%rdx
  10c2e7:	48 01 d0             	add    %rdx,%rax
  10c2ea:	48 8b 10             	mov    (%rax),%rdx
  10c2ed:	48 8b 45 f0          	mov    -0x10(%rbp),%rax
  10c2f1:	be 01 00 00 00       	mov    $0x1,%esi
  10c2f6:	89 c1                	mov    %eax,%ecx
  10c2f8:	d3 e6                	shl    %cl,%esi
  10c2fa:	89 f0                	mov    %esi,%eax
  10c2fc:	48 98                	cltq   
  10c2fe:	48 21 d0             	and    %rdx,%rax
  10c301:	48 85 c0             	test   %rax,%rax
  10c304:	0f 95 c0             	setne  %al
  10c307:	c9                   	leaveq 
  10c308:	c3                   	retq   
  10c309:	90                   	nop

000000000010c30a <_ZN6Bitmap3SetEmb>:
  10c30a:	f3 0f 1e fa          	endbr64 
  10c30e:	55                   	push   %rbp
  10c30f:	48 89 e5             	mov    %rsp,%rbp
  10c312:	48 83 ec 28          	sub    $0x28,%rsp
  10c316:	48 89 7d e8          	mov    %rdi,-0x18(%rbp)
  10c31a:	48 89 75 e0          	mov    %rsi,-0x20(%rbp)
  10c31e:	89 d0                	mov    %edx,%eax
  10c320:	88 45 dc             	mov    %al,-0x24(%rbp)
  10c323:	48 8b 45 e0          	mov    -0x20(%rbp),%rax
  10c327:	48 c1 e8 06          	shr    $0x6,%rax
  10c32b:	48 89 45 f8          	mov    %rax,-0x8(%rbp)
  10c32f:	48 8b 45 e0          	mov    -0x20(%rbp),%rax
  10c333:	83 e0 3f             	and    $0x3f,%eax
  10c336:	48 89 45 f0          	mov    %rax,-0x10(%rbp)
  10c33a:	80 7d dc 00          	cmpb   $0x0,-0x24(%rbp)
  10c33e:	74 43                	je     10c383 <_ZN6Bitmap3SetEmb+0x79>
  10c340:	48 8b 45 e8          	mov    -0x18(%rbp),%rax
  10c344:	48 8b 40 08          	mov    0x8(%rax),%rax
  10c348:	48 8b 55 f8          	mov    -0x8(%rbp),%rdx
  10c34c:	48 c1 e2 03          	shl    $0x3,%rdx
  10c350:	48 01 d0             	add    %rdx,%rax
  10c353:	48 8b 30             	mov    (%rax),%rsi
  10c356:	48 8b 45 f0          	mov    -0x10(%rbp),%rax
  10c35a:	ba 01 00 00 00       	mov    $0x1,%edx
  10c35f:	89 c1                	mov    %eax,%ecx
  10c361:	d3 e2                	shl    %cl,%edx
  10c363:	89 d0                	mov    %edx,%eax
  10c365:	48 63 d0             	movslq %eax,%rdx
  10c368:	48 8b 45 e8          	mov    -0x18(%rbp),%rax
  10c36c:	48 8b 40 08          	mov    0x8(%rax),%rax
  10c370:	48 8b 4d f8          	mov    -0x8(%rbp),%rcx
  10c374:	48 c1 e1 03          	shl    $0x3,%rcx
  10c378:	48 01 c8             	add    %rcx,%rax
  10c37b:	48 09 f2             	or     %rsi,%rdx
  10c37e:	48 89 10             	mov    %rdx,(%rax)
  10c381:	eb 43                	jmp    10c3c6 <_ZN6Bitmap3SetEmb+0xbc>
  10c383:	48 8b 45 e8          	mov    -0x18(%rbp),%rax
  10c387:	48 8b 40 08          	mov    0x8(%rax),%rax
  10c38b:	48 8b 55 f8          	mov    -0x8(%rbp),%rdx
  10c38f:	48 c1 e2 03          	shl    $0x3,%rdx
  10c393:	48 01 d0             	add    %rdx,%rax
  10c396:	48 8b 30             	mov    (%rax),%rsi
  10c399:	48 8b 45 f0          	mov    -0x10(%rbp),%rax
  10c39d:	ba 01 00 00 00       	mov    $0x1,%edx
  10c3a2:	89 c1                	mov    %eax,%ecx
  10c3a4:	d3 e2                	shl    %cl,%edx
  10c3a6:	89 d0                	mov    %edx,%eax
  10c3a8:	f7 d0                	not    %eax
  10c3aa:	48 63 d0             	movslq %eax,%rdx
  10c3ad:	48 8b 45 e8          	mov    -0x18(%rbp),%rax
  10c3b1:	48 8b 40 08          	mov    0x8(%rax),%rax
  10c3b5:	48 8b 4d f8          	mov    -0x8(%rbp),%rcx
  10c3b9:	48 c1 e1 03          	shl    $0x3,%rcx
  10c3bd:	48 01 c8             	add    %rcx,%rax
  10c3c0:	48 21 f2             	and    %rsi,%rdx
  10c3c3:	48 89 10             	mov    %rdx,(%rax)
  10c3c6:	90                   	nop
  10c3c7:	c9                   	leaveq 
  10c3c8:	c3                   	retq   
  10c3c9:	90                   	nop

000000000010c3ca <_ZN6Bitmap5FirstEv>:
  10c3ca:	f3 0f 1e fa          	endbr64 
  10c3ce:	55                   	push   %rbp
  10c3cf:	48 89 e5             	mov    %rsp,%rbp
  10c3d2:	48 83 ec 28          	sub    $0x28,%rsp
  10c3d6:	48 89 7d d8          	mov    %rdi,-0x28(%rbp)
  10c3da:	48 c7 45 f8 00 00 00 	movq   $0x0,-0x8(%rbp)
  10c3e1:	00 
  10c3e2:	48 8b 45 d8          	mov    -0x28(%rbp),%rax
  10c3e6:	48 8b 00             	mov    (%rax),%rax
  10c3e9:	48 39 45 f8          	cmp    %rax,-0x8(%rbp)
  10c3ed:	0f 83 84 00 00 00    	jae    10c477 <_ZN6Bitmap5FirstEv+0xad>
  10c3f3:	48 8b 45 d8          	mov    -0x28(%rbp),%rax
  10c3f7:	48 8b 40 08          	mov    0x8(%rax),%rax
  10c3fb:	48 8b 55 f8          	mov    -0x8(%rbp),%rdx
  10c3ff:	48 c1 e2 03          	shl    $0x3,%rdx
  10c403:	48 01 d0             	add    %rdx,%rax
  10c406:	48 8b 00             	mov    (%rax),%rax
  10c409:	48 83 f8 ff          	cmp    $0xffffffffffffffff,%rax
  10c40d:	74 5e                	je     10c46d <_ZN6Bitmap5FirstEv+0xa3>
  10c40f:	48 c7 45 f0 00 00 00 	movq   $0x0,-0x10(%rbp)
  10c416:	00 
  10c417:	48 83 7d f0 3f       	cmpq   $0x3f,-0x10(%rbp)
  10c41c:	77 4f                	ja     10c46d <_ZN6Bitmap5FirstEv+0xa3>
  10c41e:	48 8b 45 f0          	mov    -0x10(%rbp),%rax
  10c422:	ba 01 00 00 00       	mov    $0x1,%edx
  10c427:	89 c1                	mov    %eax,%ecx
  10c429:	d3 e2                	shl    %cl,%edx
  10c42b:	89 d0                	mov    %edx,%eax
  10c42d:	48 98                	cltq   
  10c42f:	48 89 45 e8          	mov    %rax,-0x18(%rbp)
  10c433:	48 8b 45 d8          	mov    -0x28(%rbp),%rax
  10c437:	48 8b 40 08          	mov    0x8(%rax),%rax
  10c43b:	48 8b 55 f8          	mov    -0x8(%rbp),%rdx
  10c43f:	48 c1 e2 03          	shl    $0x3,%rdx
  10c443:	48 01 d0             	add    %rdx,%rax
  10c446:	48 8b 00             	mov    (%rax),%rax
  10c449:	48 23 45 e8          	and    -0x18(%rbp),%rax
  10c44d:	48 85 c0             	test   %rax,%rax
  10c450:	75 14                	jne    10c466 <_ZN6Bitmap5FirstEv+0x9c>
  10c452:	48 8b 45 f8          	mov    -0x8(%rbp),%rax
  10c456:	48 c1 e0 06          	shl    $0x6,%rax
  10c45a:	48 89 c2             	mov    %rax,%rdx
  10c45d:	48 8b 45 f0          	mov    -0x10(%rbp),%rax
  10c461:	48 01 d0             	add    %rdx,%rax
  10c464:	eb 18                	jmp    10c47e <_ZN6Bitmap5FirstEv+0xb4>
  10c466:	48 83 45 f0 01       	addq   $0x1,-0x10(%rbp)
  10c46b:	eb aa                	jmp    10c417 <_ZN6Bitmap5FirstEv+0x4d>
  10c46d:	48 83 45 f8 01       	addq   $0x1,-0x8(%rbp)
  10c472:	e9 6b ff ff ff       	jmpq   10c3e2 <_ZN6Bitmap5FirstEv+0x18>
  10c477:	48 c7 c0 ff ff ff ff 	mov    $0xffffffffffffffff,%rax
  10c47e:	c9                   	leaveq 
  10c47f:	c3                   	retq   

000000000010c480 <_Z4itoaPhjm>:
  10c480:	f3 0f 1e fa          	endbr64 
  10c484:	55                   	push   %rbp
  10c485:	48 89 e5             	mov    %rsp,%rbp
  10c488:	48 83 ec 58          	sub    $0x58,%rsp
  10c48c:	48 89 7d b8          	mov    %rdi,-0x48(%rbp)
  10c490:	89 75 b4             	mov    %esi,-0x4c(%rbp)
  10c493:	48 89 55 a8          	mov    %rdx,-0x58(%rbp)
  10c497:	48 8b 45 b8          	mov    -0x48(%rbp),%rax
  10c49b:	48 89 45 f8          	mov    %rax,-0x8(%rbp)
  10c49f:	48 8b 45 a8          	mov    -0x58(%rbp),%rax
  10c4a3:	48 89 45 e0          	mov    %rax,-0x20(%rbp)
  10c4a7:	48 c7 45 d8 0a 00 00 	movq   $0xa,-0x28(%rbp)
  10c4ae:	00 
  10c4af:	83 7d b4 78          	cmpl   $0x78,-0x4c(%rbp)
  10c4b3:	75 08                	jne    10c4bd <_Z4itoaPhjm+0x3d>
  10c4b5:	48 c7 45 d8 10 00 00 	movq   $0x10,-0x28(%rbp)
  10c4bc:	00 
  10c4bd:	48 8b 45 e0          	mov    -0x20(%rbp),%rax
  10c4c1:	ba 00 00 00 00       	mov    $0x0,%edx
  10c4c6:	48 f7 75 d8          	divq   -0x28(%rbp)
  10c4ca:	48 89 55 d0          	mov    %rdx,-0x30(%rbp)
  10c4ce:	48 83 7d d0 09       	cmpq   $0x9,-0x30(%rbp)
  10c4d3:	77 09                	ja     10c4de <_Z4itoaPhjm+0x5e>
  10c4d5:	48 8b 45 d0          	mov    -0x30(%rbp),%rax
  10c4d9:	8d 50 30             	lea    0x30(%rax),%edx
  10c4dc:	eb 07                	jmp    10c4e5 <_Z4itoaPhjm+0x65>
  10c4de:	48 8b 45 d0          	mov    -0x30(%rbp),%rax
  10c4e2:	8d 50 37             	lea    0x37(%rax),%edx
  10c4e5:	48 8b 45 f8          	mov    -0x8(%rbp),%rax
  10c4e9:	48 8d 48 01          	lea    0x1(%rax),%rcx
  10c4ed:	48 89 4d f8          	mov    %rcx,-0x8(%rbp)
  10c4f1:	88 10                	mov    %dl,(%rax)
  10c4f3:	48 8b 45 e0          	mov    -0x20(%rbp),%rax
  10c4f7:	ba 00 00 00 00       	mov    $0x0,%edx
  10c4fc:	48 f7 75 d8          	divq   -0x28(%rbp)
  10c500:	48 89 45 e0          	mov    %rax,-0x20(%rbp)
  10c504:	48 83 7d e0 00       	cmpq   $0x0,-0x20(%rbp)
  10c509:	0f 95 c0             	setne  %al
  10c50c:	84 c0                	test   %al,%al
  10c50e:	74 02                	je     10c512 <_Z4itoaPhjm+0x92>
  10c510:	eb ab                	jmp    10c4bd <_Z4itoaPhjm+0x3d>
  10c512:	48 8b 45 f8          	mov    -0x8(%rbp),%rax
  10c516:	c6 00 00             	movb   $0x0,(%rax)
  10c519:	48 8b 45 b8          	mov    -0x48(%rbp),%rax
  10c51d:	48 89 45 f0          	mov    %rax,-0x10(%rbp)
  10c521:	48 8b 45 f8          	mov    -0x8(%rbp),%rax
  10c525:	48 83 e8 01          	sub    $0x1,%rax
  10c529:	48 89 45 e8          	mov    %rax,-0x18(%rbp)
  10c52d:	48 8b 45 f0          	mov    -0x10(%rbp),%rax
  10c531:	48 3b 45 e8          	cmp    -0x18(%rbp),%rax
  10c535:	73 2d                	jae    10c564 <_Z4itoaPhjm+0xe4>
  10c537:	48 8b 45 f0          	mov    -0x10(%rbp),%rax
  10c53b:	0f b6 00             	movzbl (%rax),%eax
  10c53e:	88 45 cf             	mov    %al,-0x31(%rbp)
  10c541:	48 8b 45 e8          	mov    -0x18(%rbp),%rax
  10c545:	0f b6 10             	movzbl (%rax),%edx
  10c548:	48 8b 45 f0          	mov    -0x10(%rbp),%rax
  10c54c:	88 10                	mov    %dl,(%rax)
  10c54e:	48 8b 45 e8          	mov    -0x18(%rbp),%rax
  10c552:	0f b6 55 cf          	movzbl -0x31(%rbp),%edx
  10c556:	88 10                	mov    %dl,(%rax)
  10c558:	48 83 45 f0 01       	addq   $0x1,-0x10(%rbp)
  10c55d:	48 83 6d e8 01       	subq   $0x1,-0x18(%rbp)
  10c562:	eb c9                	jmp    10c52d <_Z4itoaPhjm+0xad>
  10c564:	90                   	nop
  10c565:	c9                   	leaveq 
  10c566:	c3                   	retq   

000000000010c567 <_Z7reversePc>:
  10c567:	f3 0f 1e fa          	endbr64 
  10c56b:	55                   	push   %rbp
  10c56c:	48 89 e5             	mov    %rsp,%rbp
  10c56f:	48 83 ec 20          	sub    $0x20,%rsp
  10c573:	48 89 7d e8          	mov    %rdi,-0x18(%rbp)
  10c577:	c7 45 fc 00 00 00 00 	movl   $0x0,-0x4(%rbp)
  10c57e:	48 8b 45 e8          	mov    -0x18(%rbp),%rax
  10c582:	48 89 c7             	mov    %rax,%rdi
  10c585:	e8 e2 00 00 00       	callq  10c66c <_Z6strlenPc>
  10c58a:	83 e8 01             	sub    $0x1,%eax
  10c58d:	89 45 f8             	mov    %eax,-0x8(%rbp)
  10c590:	8b 45 fc             	mov    -0x4(%rbp),%eax
  10c593:	3b 45 f8             	cmp    -0x8(%rbp),%eax
  10c596:	7d 51                	jge    10c5e9 <_Z7reversePc+0x82>
  10c598:	8b 45 fc             	mov    -0x4(%rbp),%eax
  10c59b:	48 63 d0             	movslq %eax,%rdx
  10c59e:	48 8b 45 e8          	mov    -0x18(%rbp),%rax
  10c5a2:	48 01 d0             	add    %rdx,%rax
  10c5a5:	0f b6 00             	movzbl (%rax),%eax
  10c5a8:	0f be c0             	movsbl %al,%eax
  10c5ab:	89 45 f4             	mov    %eax,-0xc(%rbp)
  10c5ae:	8b 45 f8             	mov    -0x8(%rbp),%eax
  10c5b1:	48 63 d0             	movslq %eax,%rdx
  10c5b4:	48 8b 45 e8          	mov    -0x18(%rbp),%rax
  10c5b8:	48 01 d0             	add    %rdx,%rax
  10c5bb:	8b 55 fc             	mov    -0x4(%rbp),%edx
  10c5be:	48 63 ca             	movslq %edx,%rcx
  10c5c1:	48 8b 55 e8          	mov    -0x18(%rbp),%rdx
  10c5c5:	48 01 ca             	add    %rcx,%rdx
  10c5c8:	0f b6 00             	movzbl (%rax),%eax
  10c5cb:	88 02                	mov    %al,(%rdx)
  10c5cd:	8b 45 f8             	mov    -0x8(%rbp),%eax
  10c5d0:	48 63 d0             	movslq %eax,%rdx
  10c5d3:	48 8b 45 e8          	mov    -0x18(%rbp),%rax
  10c5d7:	48 01 d0             	add    %rdx,%rax
  10c5da:	8b 55 f4             	mov    -0xc(%rbp),%edx
  10c5dd:	88 10                	mov    %dl,(%rax)
  10c5df:	83 45 fc 01          	addl   $0x1,-0x4(%rbp)
  10c5e3:	83 6d f8 01          	subl   $0x1,-0x8(%rbp)
  10c5e7:	eb a7                	jmp    10c590 <_Z7reversePc+0x29>
  10c5e9:	90                   	nop
  10c5ea:	c9                   	leaveq 
  10c5eb:	c3                   	retq   

000000000010c5ec <_Z6appendPcc>:
  10c5ec:	f3 0f 1e fa          	endbr64 
  10c5f0:	55                   	push   %rbp
  10c5f1:	48 89 e5             	mov    %rsp,%rbp
  10c5f4:	48 83 ec 20          	sub    $0x20,%rsp
  10c5f8:	48 89 7d e8          	mov    %rdi,-0x18(%rbp)
  10c5fc:	89 f0                	mov    %esi,%eax
  10c5fe:	88 45 e4             	mov    %al,-0x1c(%rbp)
  10c601:	48 8b 45 e8          	mov    -0x18(%rbp),%rax
  10c605:	48 89 c7             	mov    %rax,%rdi
  10c608:	e8 5f 00 00 00       	callq  10c66c <_Z6strlenPc>
  10c60d:	48 89 45 f8          	mov    %rax,-0x8(%rbp)
  10c611:	48 8b 55 e8          	mov    -0x18(%rbp),%rdx
  10c615:	48 8b 45 f8          	mov    -0x8(%rbp),%rax
  10c619:	48 01 c2             	add    %rax,%rdx
  10c61c:	0f b6 45 e4          	movzbl -0x1c(%rbp),%eax
  10c620:	88 02                	mov    %al,(%rdx)
  10c622:	48 8b 45 f8          	mov    -0x8(%rbp),%rax
  10c626:	48 8d 50 01          	lea    0x1(%rax),%rdx
  10c62a:	48 8b 45 e8          	mov    -0x18(%rbp),%rax
  10c62e:	48 01 d0             	add    %rdx,%rax
  10c631:	c6 00 00             	movb   $0x0,(%rax)
  10c634:	90                   	nop
  10c635:	c9                   	leaveq 
  10c636:	c3                   	retq   

000000000010c637 <_Z9backspacePc>:
  10c637:	f3 0f 1e fa          	endbr64 
  10c63b:	55                   	push   %rbp
  10c63c:	48 89 e5             	mov    %rsp,%rbp
  10c63f:	48 83 ec 20          	sub    $0x20,%rsp
  10c643:	48 89 7d e8          	mov    %rdi,-0x18(%rbp)
  10c647:	48 8b 45 e8          	mov    -0x18(%rbp),%rax
  10c64b:	48 89 c7             	mov    %rax,%rdi
  10c64e:	e8 19 00 00 00       	callq  10c66c <_Z6strlenPc>
  10c653:	48 89 45 f8          	mov    %rax,-0x8(%rbp)
  10c657:	48 8b 45 f8          	mov    -0x8(%rbp),%rax
  10c65b:	48 8d 50 ff          	lea    -0x1(%rax),%rdx
  10c65f:	48 8b 45 e8          	mov    -0x18(%rbp),%rax
  10c663:	48 01 d0             	add    %rdx,%rax
  10c666:	c6 00 00             	movb   $0x0,(%rax)
  10c669:	90                   	nop
  10c66a:	c9                   	leaveq 
  10c66b:	c3                   	retq   

000000000010c66c <_Z6strlenPc>:
  10c66c:	f3 0f 1e fa          	endbr64 
  10c670:	55                   	push   %rbp
  10c671:	48 89 e5             	mov    %rsp,%rbp
  10c674:	48 83 ec 10          	sub    $0x10,%rsp
  10c678:	48 89 7d f8          	mov    %rdi,-0x8(%rbp)
  10c67c:	48 8b 45 f8          	mov    -0x8(%rbp),%rax
  10c680:	48 89 c7             	mov    %rax,%rdi
  10c683:	e8 28 19 00 00       	callq  10dfb0 <__strlen>
  10c688:	c9                   	leaveq 
  10c689:	c3                   	retq   

000000000010c68a <_Z6strcmpPcS_>:
  10c68a:	f3 0f 1e fa          	endbr64 
  10c68e:	55                   	push   %rbp
  10c68f:	48 89 e5             	mov    %rsp,%rbp
  10c692:	48 83 ec 20          	sub    $0x20,%rsp
  10c696:	48 89 7d e8          	mov    %rdi,-0x18(%rbp)
  10c69a:	48 89 75 e0          	mov    %rsi,-0x20(%rbp)
  10c69e:	48 c7 45 f8 00 00 00 	movq   $0x0,-0x8(%rbp)
  10c6a5:	00 
  10c6a6:	48 8b 45 e8          	mov    -0x18(%rbp),%rax
  10c6aa:	0f b6 00             	movzbl (%rax),%eax
  10c6ad:	84 c0                	test   %al,%al
  10c6af:	74 1f                	je     10c6d0 <_Z6strcmpPcS_+0x46>
  10c6b1:	48 8b 45 e8          	mov    -0x18(%rbp),%rax
  10c6b5:	0f b6 10             	movzbl (%rax),%edx
  10c6b8:	48 8b 45 e0          	mov    -0x20(%rbp),%rax
  10c6bc:	0f b6 00             	movzbl (%rax),%eax
  10c6bf:	38 c2                	cmp    %al,%dl
  10c6c1:	75 0c                	jne    10c6cf <_Z6strcmpPcS_+0x45>
  10c6c3:	48 83 45 e8 01       	addq   $0x1,-0x18(%rbp)
  10c6c8:	48 83 45 e0 01       	addq   $0x1,-0x20(%rbp)
  10c6cd:	eb d7                	jmp    10c6a6 <_Z6strcmpPcS_+0x1c>
  10c6cf:	90                   	nop
  10c6d0:	48 8b 45 e8          	mov    -0x18(%rbp),%rax
  10c6d4:	0f b6 00             	movzbl (%rax),%eax
  10c6d7:	0f be d0             	movsbl %al,%edx
  10c6da:	48 8b 45 e0          	mov    -0x20(%rbp),%rax
  10c6de:	0f b6 00             	movzbl (%rax),%eax
  10c6e1:	0f be c0             	movsbl %al,%eax
  10c6e4:	29 c2                	sub    %eax,%edx
  10c6e6:	89 d0                	mov    %edx,%eax
  10c6e8:	c9                   	leaveq 
  10c6e9:	c3                   	retq   

000000000010c6ea <_Z7strncmpPcS_i>:
  10c6ea:	f3 0f 1e fa          	endbr64 
  10c6ee:	55                   	push   %rbp
  10c6ef:	48 89 e5             	mov    %rsp,%rbp
  10c6f2:	48 83 ec 20          	sub    $0x20,%rsp
  10c6f6:	48 89 7d f8          	mov    %rdi,-0x8(%rbp)
  10c6fa:	48 89 75 f0          	mov    %rsi,-0x10(%rbp)
  10c6fe:	89 55 ec             	mov    %edx,-0x14(%rbp)
  10c701:	8b 45 ec             	mov    -0x14(%rbp),%eax
  10c704:	48 63 d0             	movslq %eax,%rdx
  10c707:	48 8b 4d f0          	mov    -0x10(%rbp),%rcx
  10c70b:	48 8b 45 f8          	mov    -0x8(%rbp),%rax
  10c70f:	48 89 ce             	mov    %rcx,%rsi
  10c712:	48 89 c7             	mov    %rax,%rdi
  10c715:	e8 dd 18 00 00       	callq  10dff7 <__strncmp>
  10c71a:	85 c0                	test   %eax,%eax
  10c71c:	0f 94 c0             	sete   %al
  10c71f:	0f b6 c0             	movzbl %al,%eax
  10c722:	c9                   	leaveq 
  10c723:	c3                   	retq   

000000000010c724 <_Z6strcpyPcPKc>:
  10c724:	f3 0f 1e fa          	endbr64 
  10c728:	55                   	push   %rbp
  10c729:	48 89 e5             	mov    %rsp,%rbp
  10c72c:	48 83 ec 10          	sub    $0x10,%rsp
  10c730:	48 89 7d f8          	mov    %rdi,-0x8(%rbp)
  10c734:	48 89 75 f0          	mov    %rsi,-0x10(%rbp)
  10c738:	48 8b 55 f0          	mov    -0x10(%rbp),%rdx
  10c73c:	48 8b 45 f8          	mov    -0x8(%rbp),%rax
  10c740:	48 89 d6             	mov    %rdx,%rsi
  10c743:	48 89 c7             	mov    %rax,%rdi
  10c746:	e8 b9 18 00 00       	callq  10e004 <__strcpy>
  10c74b:	c9                   	leaveq 
  10c74c:	c3                   	retq   

000000000010c74d <_Z5splitPKccPi>:
  10c74d:	f3 0f 1e fa          	endbr64 
  10c751:	55                   	push   %rbp
  10c752:	48 89 e5             	mov    %rsp,%rbp
  10c755:	48 83 ec 60          	sub    $0x60,%rsp
  10c759:	48 89 7d b8          	mov    %rdi,-0x48(%rbp)
  10c75d:	89 f0                	mov    %esi,%eax
  10c75f:	48 89 55 a8          	mov    %rdx,-0x58(%rbp)
  10c763:	88 45 b4             	mov    %al,-0x4c(%rbp)
  10c766:	48 8b 45 b8          	mov    -0x48(%rbp),%rax
  10c76a:	48 89 c7             	mov    %rax,%rdi
  10c76d:	e8 fa fe ff ff       	callq  10c66c <_Z6strlenPc>
  10c772:	48 89 45 d0          	mov    %rax,-0x30(%rbp)
  10c776:	48 c7 45 f8 00 00 00 	movq   $0x0,-0x8(%rbp)
  10c77d:	00 
  10c77e:	48 c7 45 f0 00 00 00 	movq   $0x0,-0x10(%rbp)
  10c785:	00 
  10c786:	48 8b 45 f0          	mov    -0x10(%rbp),%rax
  10c78a:	48 3b 45 d0          	cmp    -0x30(%rbp),%rax
  10c78e:	73 1f                	jae    10c7af <_Z5splitPKccPi+0x62>
  10c790:	48 8b 55 b8          	mov    -0x48(%rbp),%rdx
  10c794:	48 8b 45 f0          	mov    -0x10(%rbp),%rax
  10c798:	48 01 d0             	add    %rdx,%rax
  10c79b:	0f b6 00             	movzbl (%rax),%eax
  10c79e:	38 45 b4             	cmp    %al,-0x4c(%rbp)
  10c7a1:	75 05                	jne    10c7a8 <_Z5splitPKccPi+0x5b>
  10c7a3:	48 83 45 f8 01       	addq   $0x1,-0x8(%rbp)
  10c7a8:	48 83 45 f0 01       	addq   $0x1,-0x10(%rbp)
  10c7ad:	eb d7                	jmp    10c786 <_Z5splitPKccPi+0x39>
  10c7af:	48 8b 45 f8          	mov    -0x8(%rbp),%rax
  10c7b3:	48 c1 e0 03          	shl    $0x3,%rax
  10c7b7:	48 89 c7             	mov    %rax,%rdi
  10c7ba:	e8 c3 08 00 00       	callq  10d082 <_Z7kmallocm>
  10c7bf:	48 89 45 c8          	mov    %rax,-0x38(%rbp)
  10c7c3:	48 8b 45 f8          	mov    -0x8(%rbp),%rax
  10c7c7:	89 c2                	mov    %eax,%edx
  10c7c9:	48 8b 45 a8          	mov    -0x58(%rbp),%rax
  10c7cd:	89 10                	mov    %edx,(%rax)
  10c7cf:	48 c7 45 e8 00 00 00 	movq   $0x0,-0x18(%rbp)
  10c7d6:	00 
  10c7d7:	48 c7 45 e0 00 00 00 	movq   $0x0,-0x20(%rbp)
  10c7de:	00 
  10c7df:	48 c7 45 d8 00 00 00 	movq   $0x0,-0x28(%rbp)
  10c7e6:	00 
  10c7e7:	48 8b 45 d8          	mov    -0x28(%rbp),%rax
  10c7eb:	48 3b 45 d0          	cmp    -0x30(%rbp),%rax
  10c7ef:	0f 83 87 00 00 00    	jae    10c87c <_Z5splitPKccPi+0x12f>
  10c7f5:	48 8b 55 b8          	mov    -0x48(%rbp),%rdx
  10c7f9:	48 8b 45 d8          	mov    -0x28(%rbp),%rax
  10c7fd:	48 01 d0             	add    %rdx,%rax
  10c800:	0f b6 00             	movzbl (%rax),%eax
  10c803:	38 45 b4             	cmp    %al,-0x4c(%rbp)
  10c806:	75 6a                	jne    10c872 <_Z5splitPKccPi+0x125>
  10c808:	48 8b 45 d8          	mov    -0x28(%rbp),%rax
  10c80c:	48 2b 45 e0          	sub    -0x20(%rbp),%rax
  10c810:	48 89 45 c0          	mov    %rax,-0x40(%rbp)
  10c814:	48 8b 45 c0          	mov    -0x40(%rbp),%rax
  10c818:	48 89 c7             	mov    %rax,%rdi
  10c81b:	e8 62 08 00 00       	callq  10d082 <_Z7kmallocm>
  10c820:	48 8b 55 e8          	mov    -0x18(%rbp),%rdx
  10c824:	48 8d 0c d5 00 00 00 	lea    0x0(,%rdx,8),%rcx
  10c82b:	00 
  10c82c:	48 8b 55 c8          	mov    -0x38(%rbp),%rdx
  10c830:	48 01 ca             	add    %rcx,%rdx
  10c833:	48 89 02             	mov    %rax,(%rdx)
  10c836:	48 8b 55 b8          	mov    -0x48(%rbp),%rdx
  10c83a:	48 8b 45 e0          	mov    -0x20(%rbp),%rax
  10c83e:	48 8d 34 02          	lea    (%rdx,%rax,1),%rsi
  10c842:	48 8b 45 e8          	mov    -0x18(%rbp),%rax
  10c846:	48 8d 14 c5 00 00 00 	lea    0x0(,%rax,8),%rdx
  10c84d:	00 
  10c84e:	48 8b 45 c8          	mov    -0x38(%rbp),%rax
  10c852:	48 8d 0c 02          	lea    (%rdx,%rax,1),%rcx
  10c856:	48 8b 45 c0          	mov    -0x40(%rbp),%rax
  10c85a:	48 89 c2             	mov    %rax,%rdx
  10c85d:	48 89 cf             	mov    %rcx,%rdi
  10c860:	e8 c4 05 00 00       	callq  10ce29 <_Z6memcpyPvPKvm>
  10c865:	48 8b 45 e8          	mov    -0x18(%rbp),%rax
  10c869:	48 89 45 e0          	mov    %rax,-0x20(%rbp)
  10c86d:	48 83 45 e8 01       	addq   $0x1,-0x18(%rbp)
  10c872:	48 83 45 d8 01       	addq   $0x1,-0x28(%rbp)
  10c877:	e9 6b ff ff ff       	jmpq   10c7e7 <_Z5splitPKccPi+0x9a>
  10c87c:	48 8b 45 c8          	mov    -0x38(%rbp),%rax
  10c880:	c9                   	leaveq 
  10c881:	c3                   	retq   

000000000010c882 <_Z18string_from_doubledh>:
  10c882:	f3 0f 1e fa          	endbr64 
  10c886:	55                   	push   %rbp
  10c887:	48 89 e5             	mov    %rsp,%rbp
  10c88a:	48 83 ec 40          	sub    $0x40,%rsp
  10c88e:	f2 0f 11 45 c8       	movsd  %xmm0,-0x38(%rbp)
  10c893:	89 f8                	mov    %edi,%eax
  10c895:	88 45 c4             	mov    %al,-0x3c(%rbp)
  10c898:	80 7d c4 14          	cmpb   $0x14,-0x3c(%rbp)
  10c89c:	76 04                	jbe    10c8a2 <_Z18string_from_doubledh+0x20>
  10c89e:	c6 45 c4 14          	movb   $0x14,-0x3c(%rbp)
  10c8a2:	48 8d 05 37 b1 00 00 	lea    0xb137(%rip),%rax        # 1179e0 <intBuffer>
  10c8a9:	48 89 45 f8          	mov    %rax,-0x8(%rbp)
  10c8ad:	f2 0f 10 45 c8       	movsd  -0x38(%rbp),%xmm0
  10c8b2:	f2 48 0f 2c c0       	cvttsd2si %xmm0,%rax
  10c8b7:	48 89 45 d8          	mov    %rax,-0x28(%rbp)
  10c8bb:	48 83 7d d8 00       	cmpq   $0x0,-0x28(%rbp)
  10c8c0:	79 2e                	jns    10c8f0 <_Z18string_from_doubledh+0x6e>
  10c8c2:	48 8b 45 f8          	mov    -0x8(%rbp),%rax
  10c8c6:	c6 00 2d             	movb   $0x2d,(%rax)
  10c8c9:	f2 0f 10 45 c8       	movsd  -0x38(%rbp),%xmm0
  10c8ce:	f2 48 0f 2c c0       	cvttsd2si %xmm0,%rax
  10c8d3:	48 f7 d8             	neg    %rax
  10c8d6:	48 89 c2             	mov    %rax,%rdx
  10c8d9:	48 8b 45 f8          	mov    -0x8(%rbp),%rax
  10c8dd:	48 83 c0 01          	add    $0x1,%rax
  10c8e1:	be 64 00 00 00       	mov    $0x64,%esi
  10c8e6:	48 89 c7             	mov    %rax,%rdi
  10c8e9:	e8 92 fb ff ff       	callq  10c480 <_Z4itoaPhjm>
  10c8ee:	eb 52                	jmp    10c942 <_Z18string_from_doubledh+0xc0>
  10c8f0:	f2 0f 10 45 c8       	movsd  -0x38(%rbp),%xmm0
  10c8f5:	66 0f 2f 05 9b 4c 00 	comisd 0x4c9b(%rip),%xmm0        # 111598 <_ZL8sc_ascii+0x4d8>
  10c8fc:	00 
  10c8fd:	73 0c                	jae    10c90b <_Z18string_from_doubledh+0x89>
  10c8ff:	f2 0f 10 45 c8       	movsd  -0x38(%rbp),%xmm0
  10c904:	f2 48 0f 2c c0       	cvttsd2si %xmm0,%rax
  10c909:	eb 23                	jmp    10c92e <_Z18string_from_doubledh+0xac>
  10c90b:	f2 0f 10 45 c8       	movsd  -0x38(%rbp),%xmm0
  10c910:	f2 0f 10 0d 80 4c 00 	movsd  0x4c80(%rip),%xmm1        # 111598 <_ZL8sc_ascii+0x4d8>
  10c917:	00 
  10c918:	f2 0f 5c c1          	subsd  %xmm1,%xmm0
  10c91c:	f2 48 0f 2c c0       	cvttsd2si %xmm0,%rax
  10c921:	48 ba 00 00 00 00 00 	movabs $0x8000000000000000,%rdx
  10c928:	00 00 80 
  10c92b:	48 31 d0             	xor    %rdx,%rax
  10c92e:	48 8b 4d f8          	mov    -0x8(%rbp),%rcx
  10c932:	48 89 c2             	mov    %rax,%rdx
  10c935:	be 64 00 00 00       	mov    $0x64,%esi
  10c93a:	48 89 cf             	mov    %rcx,%rdi
  10c93d:	e8 3e fb ff ff       	callq  10c480 <_Z4itoaPhjm>
  10c942:	48 8d 05 17 b0 00 00 	lea    0xb017(%rip),%rax        # 117960 <doubleTo_StringOutput>
  10c949:	48 89 45 f0          	mov    %rax,-0x10(%rbp)
  10c94d:	66 0f ef c0          	pxor   %xmm0,%xmm0
  10c951:	66 0f 2f 45 c8       	comisd -0x38(%rbp),%xmm0
  10c956:	76 16                	jbe    10c96e <_Z18string_from_doubledh+0xec>
  10c958:	f2 0f 10 45 c8       	movsd  -0x38(%rbp),%xmm0
  10c95d:	f3 0f 7e 0d 3b 4c 00 	movq   0x4c3b(%rip),%xmm1        # 1115a0 <_ZL8sc_ascii+0x4e0>
  10c964:	00 
  10c965:	66 0f 57 c1          	xorpd  %xmm1,%xmm0
  10c969:	f2 0f 11 45 c8       	movsd  %xmm0,-0x38(%rbp)
  10c96e:	48 8b 45 f8          	mov    -0x8(%rbp),%rax
  10c972:	0f b6 00             	movzbl (%rax),%eax
  10c975:	84 c0                	test   %al,%al
  10c977:	74 19                	je     10c992 <_Z18string_from_doubledh+0x110>
  10c979:	48 8b 45 f8          	mov    -0x8(%rbp),%rax
  10c97d:	0f b6 10             	movzbl (%rax),%edx
  10c980:	48 8b 45 f0          	mov    -0x10(%rbp),%rax
  10c984:	88 10                	mov    %dl,(%rax)
  10c986:	48 83 45 f8 01       	addq   $0x1,-0x8(%rbp)
  10c98b:	48 83 45 f0 01       	addq   $0x1,-0x10(%rbp)
  10c990:	eb dc                	jmp    10c96e <_Z18string_from_doubledh+0xec>
  10c992:	48 8b 45 f0          	mov    -0x10(%rbp),%rax
  10c996:	c6 00 2e             	movb   $0x2e,(%rax)
  10c999:	48 83 45 f0 01       	addq   $0x1,-0x10(%rbp)
  10c99e:	f2 0f 10 45 c8       	movsd  -0x38(%rbp),%xmm0
  10c9a3:	f2 0f 2c c0          	cvttsd2si %xmm0,%eax
  10c9a7:	f2 0f 2a c8          	cvtsi2sd %eax,%xmm1
  10c9ab:	f2 0f 10 45 c8       	movsd  -0x38(%rbp),%xmm0
  10c9b0:	f2 0f 5c c1          	subsd  %xmm1,%xmm0
  10c9b4:	f2 0f 11 45 e8       	movsd  %xmm0,-0x18(%rbp)
  10c9b9:	c6 45 e7 00          	movb   $0x0,-0x19(%rbp)
  10c9bd:	0f b6 45 e7          	movzbl -0x19(%rbp),%eax
  10c9c1:	3a 45 c4             	cmp    -0x3c(%rbp),%al
  10c9c4:	73 56                	jae    10ca1c <_Z18string_from_doubledh+0x19a>
  10c9c6:	f2 0f 10 4d e8       	movsd  -0x18(%rbp),%xmm1
  10c9cb:	f2 0f 10 05 dd 4b 00 	movsd  0x4bdd(%rip),%xmm0        # 1115b0 <_ZL8sc_ascii+0x4f0>
  10c9d2:	00 
  10c9d3:	f2 0f 59 c1          	mulsd  %xmm1,%xmm0
  10c9d7:	f2 0f 11 45 e8       	movsd  %xmm0,-0x18(%rbp)
  10c9dc:	f2 0f 10 45 e8       	movsd  -0x18(%rbp),%xmm0
  10c9e1:	f2 0f 2c c0          	cvttsd2si %xmm0,%eax
  10c9e5:	83 c0 30             	add    $0x30,%eax
  10c9e8:	89 c2                	mov    %eax,%edx
  10c9ea:	48 8b 45 f0          	mov    -0x10(%rbp),%rax
  10c9ee:	88 10                	mov    %dl,(%rax)
  10c9f0:	f2 0f 10 45 e8       	movsd  -0x18(%rbp),%xmm0
  10c9f5:	f2 0f 2c c0          	cvttsd2si %xmm0,%eax
  10c9f9:	f2 0f 2a c8          	cvtsi2sd %eax,%xmm1
  10c9fd:	f2 0f 10 45 e8       	movsd  -0x18(%rbp),%xmm0
  10ca02:	f2 0f 5c c1          	subsd  %xmm1,%xmm0
  10ca06:	f2 0f 11 45 e8       	movsd  %xmm0,-0x18(%rbp)
  10ca0b:	48 83 45 f0 01       	addq   $0x1,-0x10(%rbp)
  10ca10:	0f b6 45 e7          	movzbl -0x19(%rbp),%eax
  10ca14:	83 c0 01             	add    $0x1,%eax
  10ca17:	88 45 e7             	mov    %al,-0x19(%rbp)
  10ca1a:	eb a1                	jmp    10c9bd <_Z18string_from_doubledh+0x13b>
  10ca1c:	48 8b 45 f0          	mov    -0x10(%rbp),%rax
  10ca20:	c6 00 00             	movb   $0x0,(%rax)
  10ca23:	48 8d 05 36 af 00 00 	lea    0xaf36(%rip),%rax        # 117960 <doubleTo_StringOutput>
  10ca2a:	c9                   	leaveq 
  10ca2b:	c3                   	retq   

000000000010ca2c <_Z7kprintfPKcz>:
  10ca2c:	f3 0f 1e fa          	endbr64 
  10ca30:	55                   	push   %rbp
  10ca31:	48 89 e5             	mov    %rsp,%rbp
  10ca34:	48 81 ec 30 01 00 00 	sub    $0x130,%rsp
  10ca3b:	48 89 bd d8 fe ff ff 	mov    %rdi,-0x128(%rbp)
  10ca42:	48 89 b5 58 ff ff ff 	mov    %rsi,-0xa8(%rbp)
  10ca49:	48 89 95 60 ff ff ff 	mov    %rdx,-0xa0(%rbp)
  10ca50:	48 89 8d 68 ff ff ff 	mov    %rcx,-0x98(%rbp)
  10ca57:	4c 89 85 70 ff ff ff 	mov    %r8,-0x90(%rbp)
  10ca5e:	4c 89 8d 78 ff ff ff 	mov    %r9,-0x88(%rbp)
  10ca65:	84 c0                	test   %al,%al
  10ca67:	74 20                	je     10ca89 <_Z7kprintfPKcz+0x5d>
  10ca69:	0f 29 45 80          	movaps %xmm0,-0x80(%rbp)
  10ca6d:	0f 29 4d 90          	movaps %xmm1,-0x70(%rbp)
  10ca71:	0f 29 55 a0          	movaps %xmm2,-0x60(%rbp)
  10ca75:	0f 29 5d b0          	movaps %xmm3,-0x50(%rbp)
  10ca79:	0f 29 65 c0          	movaps %xmm4,-0x40(%rbp)
  10ca7d:	0f 29 6d d0          	movaps %xmm5,-0x30(%rbp)
  10ca81:	0f 29 75 e0          	movaps %xmm6,-0x20(%rbp)
  10ca85:	0f 29 7d f0          	movaps %xmm7,-0x10(%rbp)
  10ca89:	e8 5e 88 ff ff       	callq  1052ec <_ZN7Display13SharedDisplayEv>
  10ca8e:	48 89 85 40 ff ff ff 	mov    %rax,-0xc0(%rbp)
  10ca95:	c7 85 e8 fe ff ff 08 	movl   $0x8,-0x118(%rbp)
  10ca9c:	00 00 00 
  10ca9f:	c7 85 ec fe ff ff 30 	movl   $0x30,-0x114(%rbp)
  10caa6:	00 00 00 
  10caa9:	48 8d 45 10          	lea    0x10(%rbp),%rax
  10caad:	48 89 85 f0 fe ff ff 	mov    %rax,-0x110(%rbp)
  10cab4:	48 8d 85 50 ff ff ff 	lea    -0xb0(%rbp),%rax
  10cabb:	48 89 85 f8 fe ff ff 	mov    %rax,-0x108(%rbp)
  10cac2:	48 8b 85 d8 fe ff ff 	mov    -0x128(%rbp),%rax
  10cac9:	48 89 85 48 ff ff ff 	mov    %rax,-0xb8(%rbp)
  10cad0:	48 8b 85 48 ff ff ff 	mov    -0xb8(%rbp),%rax
  10cad7:	0f b6 00             	movzbl (%rax),%eax
  10cada:	84 c0                	test   %al,%al
  10cadc:	0f 84 1c 03 00 00    	je     10cdfe <_Z7kprintfPKcz+0x3d2>
  10cae2:	48 8b 85 48 ff ff ff 	mov    -0xb8(%rbp),%rax
  10cae9:	0f b6 00             	movzbl (%rax),%eax
  10caec:	3c 25                	cmp    $0x25,%al
  10caee:	74 3a                	je     10cb2a <_Z7kprintfPKcz+0xfe>
  10caf0:	48 8b 85 48 ff ff ff 	mov    -0xb8(%rbp),%rax
  10caf7:	0f b6 00             	movzbl (%rax),%eax
  10cafa:	84 c0                	test   %al,%al
  10cafc:	0f 84 ff 02 00 00    	je     10ce01 <_Z7kprintfPKcz+0x3d5>
  10cb02:	48 8b 85 48 ff ff ff 	mov    -0xb8(%rbp),%rax
  10cb09:	0f b6 00             	movzbl (%rax),%eax
  10cb0c:	0f be d0             	movsbl %al,%edx
  10cb0f:	48 8b 85 40 ff ff ff 	mov    -0xc0(%rbp),%rax
  10cb16:	89 d6                	mov    %edx,%esi
  10cb18:	48 89 c7             	mov    %rax,%rdi
  10cb1b:	e8 ba 8c ff ff       	callq  1057da <_ZN7Display4putcEc>
  10cb20:	48 83 85 48 ff ff ff 	addq   $0x1,-0xb8(%rbp)
  10cb27:	01 
  10cb28:	eb b8                	jmp    10cae2 <_Z7kprintfPKcz+0xb6>
  10cb2a:	48 83 85 48 ff ff ff 	addq   $0x1,-0xb8(%rbp)
  10cb31:	01 
  10cb32:	48 8b 85 48 ff ff ff 	mov    -0xb8(%rbp),%rax
  10cb39:	0f b6 00             	movzbl (%rax),%eax
  10cb3c:	0f be c0             	movsbl %al,%eax
  10cb3f:	83 e8 63             	sub    $0x63,%eax
  10cb42:	83 f8 15             	cmp    $0x15,%eax
  10cb45:	0f 87 a5 02 00 00    	ja     10cdf0 <_Z7kprintfPKcz+0x3c4>
  10cb4b:	89 c0                	mov    %eax,%eax
  10cb4d:	48 8d 14 85 00 00 00 	lea    0x0(,%rax,4),%rdx
  10cb54:	00 
  10cb55:	48 8d 05 e4 49 00 00 	lea    0x49e4(%rip),%rax        # 111540 <_ZL8sc_ascii+0x480>
  10cb5c:	8b 04 02             	mov    (%rdx,%rax,1),%eax
  10cb5f:	48 98                	cltq   
  10cb61:	48 8d 15 d8 49 00 00 	lea    0x49d8(%rip),%rdx        # 111540 <_ZL8sc_ascii+0x480>
  10cb68:	48 01 d0             	add    %rdx,%rax
  10cb6b:	3e ff e0             	notrack jmpq *%rax
  10cb6e:	8b 85 e8 fe ff ff    	mov    -0x118(%rbp),%eax
  10cb74:	83 f8 2f             	cmp    $0x2f,%eax
  10cb77:	77 23                	ja     10cb9c <_Z7kprintfPKcz+0x170>
  10cb79:	48 8b 85 f8 fe ff ff 	mov    -0x108(%rbp),%rax
  10cb80:	8b 95 e8 fe ff ff    	mov    -0x118(%rbp),%edx
  10cb86:	89 d2                	mov    %edx,%edx
  10cb88:	48 01 d0             	add    %rdx,%rax
  10cb8b:	8b 95 e8 fe ff ff    	mov    -0x118(%rbp),%edx
  10cb91:	83 c2 08             	add    $0x8,%edx
  10cb94:	89 95 e8 fe ff ff    	mov    %edx,-0x118(%rbp)
  10cb9a:	eb 12                	jmp    10cbae <_Z7kprintfPKcz+0x182>
  10cb9c:	48 8b 85 f0 fe ff ff 	mov    -0x110(%rbp),%rax
  10cba3:	48 8d 50 08          	lea    0x8(%rax),%rdx
  10cba7:	48 89 95 f0 fe ff ff 	mov    %rdx,-0x110(%rbp)
  10cbae:	48 8b 00             	mov    (%rax),%rax
  10cbb1:	48 89 85 38 ff ff ff 	mov    %rax,-0xc8(%rbp)
  10cbb8:	48 8b 85 38 ff ff ff 	mov    -0xc8(%rbp),%rax
  10cbbf:	0f be d0             	movsbl %al,%edx
  10cbc2:	48 8b 85 40 ff ff ff 	mov    -0xc0(%rbp),%rax
  10cbc9:	89 d6                	mov    %edx,%esi
  10cbcb:	48 89 c7             	mov    %rax,%rdi
  10cbce:	e8 07 8c ff ff       	callq  1057da <_ZN7Display4putcEc>
  10cbd3:	e9 19 02 00 00       	jmpq   10cdf1 <_Z7kprintfPKcz+0x3c5>
  10cbd8:	8b 85 e8 fe ff ff    	mov    -0x118(%rbp),%eax
  10cbde:	83 f8 2f             	cmp    $0x2f,%eax
  10cbe1:	77 23                	ja     10cc06 <_Z7kprintfPKcz+0x1da>
  10cbe3:	48 8b 85 f8 fe ff ff 	mov    -0x108(%rbp),%rax
  10cbea:	8b 95 e8 fe ff ff    	mov    -0x118(%rbp),%edx
  10cbf0:	89 d2                	mov    %edx,%edx
  10cbf2:	48 01 d0             	add    %rdx,%rax
  10cbf5:	8b 95 e8 fe ff ff    	mov    -0x118(%rbp),%edx
  10cbfb:	83 c2 08             	add    $0x8,%edx
  10cbfe:	89 95 e8 fe ff ff    	mov    %edx,-0x118(%rbp)
  10cc04:	eb 12                	jmp    10cc18 <_Z7kprintfPKcz+0x1ec>
  10cc06:	48 8b 85 f0 fe ff ff 	mov    -0x110(%rbp),%rax
  10cc0d:	48 8d 50 08          	lea    0x8(%rax),%rdx
  10cc11:	48 89 95 f0 fe ff ff 	mov    %rdx,-0x110(%rbp)
  10cc18:	48 8b 00             	mov    (%rax),%rax
  10cc1b:	48 89 85 30 ff ff ff 	mov    %rax,-0xd0(%rbp)
  10cc22:	48 8b 95 30 ff ff ff 	mov    -0xd0(%rbp),%rdx
  10cc29:	48 8b 85 40 ff ff ff 	mov    -0xc0(%rbp),%rax
  10cc30:	48 89 d6             	mov    %rdx,%rsi
  10cc33:	48 89 c7             	mov    %rax,%rdi
  10cc36:	e8 a3 88 ff ff       	callq  1054de <_ZN7Display4putsEPKc>
  10cc3b:	e9 b1 01 00 00       	jmpq   10cdf1 <_Z7kprintfPKcz+0x3c5>
  10cc40:	8b 85 e8 fe ff ff    	mov    -0x118(%rbp),%eax
  10cc46:	83 f8 2f             	cmp    $0x2f,%eax
  10cc49:	77 23                	ja     10cc6e <_Z7kprintfPKcz+0x242>
  10cc4b:	48 8b 85 f8 fe ff ff 	mov    -0x108(%rbp),%rax
  10cc52:	8b 95 e8 fe ff ff    	mov    -0x118(%rbp),%edx
  10cc58:	89 d2                	mov    %edx,%edx
  10cc5a:	48 01 d0             	add    %rdx,%rax
  10cc5d:	8b 95 e8 fe ff ff    	mov    -0x118(%rbp),%edx
  10cc63:	83 c2 08             	add    $0x8,%edx
  10cc66:	89 95 e8 fe ff ff    	mov    %edx,-0x118(%rbp)
  10cc6c:	eb 12                	jmp    10cc80 <_Z7kprintfPKcz+0x254>
  10cc6e:	48 8b 85 f0 fe ff ff 	mov    -0x110(%rbp),%rax
  10cc75:	48 8d 50 08          	lea    0x8(%rax),%rdx
  10cc79:	48 89 95 f0 fe ff ff 	mov    %rdx,-0x110(%rbp)
  10cc80:	48 8b 00             	mov    (%rax),%rax
  10cc83:	48 89 85 38 ff ff ff 	mov    %rax,-0xc8(%rbp)
  10cc8a:	48 8d 85 00 ff ff ff 	lea    -0x100(%rbp),%rax
  10cc91:	ba 1e 00 00 00       	mov    $0x1e,%edx
  10cc96:	be 00 00 00 00       	mov    $0x0,%esi
  10cc9b:	48 89 c7             	mov    %rax,%rdi
  10cc9e:	e8 c8 01 00 00       	callq  10ce6b <_Z6memsetPvim>
  10cca3:	48 8b 95 38 ff ff ff 	mov    -0xc8(%rbp),%rdx
  10ccaa:	48 8d 85 00 ff ff ff 	lea    -0x100(%rbp),%rax
  10ccb1:	be 64 00 00 00       	mov    $0x64,%esi
  10ccb6:	48 89 c7             	mov    %rax,%rdi
  10ccb9:	e8 c2 f7 ff ff       	callq  10c480 <_Z4itoaPhjm>
  10ccbe:	48 8d 95 00 ff ff ff 	lea    -0x100(%rbp),%rdx
  10ccc5:	48 8b 85 40 ff ff ff 	mov    -0xc0(%rbp),%rax
  10cccc:	48 89 d6             	mov    %rdx,%rsi
  10cccf:	48 89 c7             	mov    %rax,%rdi
  10ccd2:	e8 07 88 ff ff       	callq  1054de <_ZN7Display4putsEPKc>
  10ccd7:	e9 15 01 00 00       	jmpq   10cdf1 <_Z7kprintfPKcz+0x3c5>
  10ccdc:	8b 85 e8 fe ff ff    	mov    -0x118(%rbp),%eax
  10cce2:	83 f8 2f             	cmp    $0x2f,%eax
  10cce5:	77 23                	ja     10cd0a <_Z7kprintfPKcz+0x2de>
  10cce7:	48 8b 85 f8 fe ff ff 	mov    -0x108(%rbp),%rax
  10ccee:	8b 95 e8 fe ff ff    	mov    -0x118(%rbp),%edx
  10ccf4:	89 d2                	mov    %edx,%edx
  10ccf6:	48 01 d0             	add    %rdx,%rax
  10ccf9:	8b 95 e8 fe ff ff    	mov    -0x118(%rbp),%edx
  10ccff:	83 c2 08             	add    $0x8,%edx
  10cd02:	89 95 e8 fe ff ff    	mov    %edx,-0x118(%rbp)
  10cd08:	eb 12                	jmp    10cd1c <_Z7kprintfPKcz+0x2f0>
  10cd0a:	48 8b 85 f0 fe ff ff 	mov    -0x110(%rbp),%rax
  10cd11:	48 8d 50 08          	lea    0x8(%rax),%rdx
  10cd15:	48 89 95 f0 fe ff ff 	mov    %rdx,-0x110(%rbp)
  10cd1c:	48 8b 00             	mov    (%rax),%rax
  10cd1f:	48 89 85 38 ff ff ff 	mov    %rax,-0xc8(%rbp)
  10cd26:	48 8d 85 00 ff ff ff 	lea    -0x100(%rbp),%rax
  10cd2d:	ba 1e 00 00 00       	mov    $0x1e,%edx
  10cd32:	be 00 00 00 00       	mov    $0x0,%esi
  10cd37:	48 89 c7             	mov    %rax,%rdi
  10cd3a:	e8 2c 01 00 00       	callq  10ce6b <_Z6memsetPvim>
  10cd3f:	48 8b 95 38 ff ff ff 	mov    -0xc8(%rbp),%rdx
  10cd46:	48 8d 85 00 ff ff ff 	lea    -0x100(%rbp),%rax
  10cd4d:	be 78 00 00 00       	mov    $0x78,%esi
  10cd52:	48 89 c7             	mov    %rax,%rdi
  10cd55:	e8 26 f7 ff ff       	callq  10c480 <_Z4itoaPhjm>
  10cd5a:	48 8d 95 00 ff ff ff 	lea    -0x100(%rbp),%rdx
  10cd61:	48 8b 85 40 ff ff ff 	mov    -0xc0(%rbp),%rax
  10cd68:	48 89 d6             	mov    %rdx,%rsi
  10cd6b:	48 89 c7             	mov    %rax,%rdi
  10cd6e:	e8 6b 87 ff ff       	callq  1054de <_ZN7Display4putsEPKc>
  10cd73:	eb 7c                	jmp    10cdf1 <_Z7kprintfPKcz+0x3c5>
  10cd75:	8b 85 ec fe ff ff    	mov    -0x114(%rbp),%eax
  10cd7b:	3d af 00 00 00       	cmp    $0xaf,%eax
  10cd80:	77 23                	ja     10cda5 <_Z7kprintfPKcz+0x379>
  10cd82:	48 8b 85 f8 fe ff ff 	mov    -0x108(%rbp),%rax
  10cd89:	8b 95 ec fe ff ff    	mov    -0x114(%rbp),%edx
  10cd8f:	89 d2                	mov    %edx,%edx
  10cd91:	48 01 d0             	add    %rdx,%rax
  10cd94:	8b 95 ec fe ff ff    	mov    -0x114(%rbp),%edx
  10cd9a:	83 c2 10             	add    $0x10,%edx
  10cd9d:	89 95 ec fe ff ff    	mov    %edx,-0x114(%rbp)
  10cda3:	eb 12                	jmp    10cdb7 <_Z7kprintfPKcz+0x38b>
  10cda5:	48 8b 85 f0 fe ff ff 	mov    -0x110(%rbp),%rax
  10cdac:	48 8d 50 08          	lea    0x8(%rax),%rdx
  10cdb0:	48 89 95 f0 fe ff ff 	mov    %rdx,-0x110(%rbp)
  10cdb7:	f2 0f 10 00          	movsd  (%rax),%xmm0
  10cdbb:	f2 0f 11 85 28 ff ff 	movsd  %xmm0,-0xd8(%rbp)
  10cdc2:	ff 
  10cdc3:	48 8b 85 28 ff ff ff 	mov    -0xd8(%rbp),%rax
  10cdca:	bf 08 00 00 00       	mov    $0x8,%edi
  10cdcf:	66 48 0f 6e c0       	movq   %rax,%xmm0
  10cdd4:	e8 a9 fa ff ff       	callq  10c882 <_Z18string_from_doubledh>
  10cdd9:	48 89 c2             	mov    %rax,%rdx
  10cddc:	48 8b 85 40 ff ff ff 	mov    -0xc0(%rbp),%rax
  10cde3:	48 89 d6             	mov    %rdx,%rsi
  10cde6:	48 89 c7             	mov    %rax,%rdi
  10cde9:	e8 f0 86 ff ff       	callq  1054de <_ZN7Display4putsEPKc>
  10cdee:	eb 01                	jmp    10cdf1 <_Z7kprintfPKcz+0x3c5>
  10cdf0:	90                   	nop
  10cdf1:	48 83 85 48 ff ff ff 	addq   $0x1,-0xb8(%rbp)
  10cdf8:	01 
  10cdf9:	e9 d2 fc ff ff       	jmpq   10cad0 <_Z7kprintfPKcz+0xa4>
  10cdfe:	90                   	nop
  10cdff:	eb 01                	jmp    10ce02 <_Z7kprintfPKcz+0x3d6>
  10ce01:	90                   	nop
  10ce02:	90                   	nop
  10ce03:	c9                   	leaveq 
  10ce04:	c3                   	retq   

000000000010ce05 <_Z17kprintf_backspacev>:
  10ce05:	f3 0f 1e fa          	endbr64 
  10ce09:	55                   	push   %rbp
  10ce0a:	48 89 e5             	mov    %rsp,%rbp
  10ce0d:	48 83 ec 10          	sub    $0x10,%rsp
  10ce11:	e8 d6 84 ff ff       	callq  1052ec <_ZN7Display13SharedDisplayEv>
  10ce16:	48 89 45 f8          	mov    %rax,-0x8(%rbp)
  10ce1a:	48 8b 45 f8          	mov    -0x8(%rbp),%rax
  10ce1e:	48 89 c7             	mov    %rax,%rdi
  10ce21:	e8 94 86 ff ff       	callq  1054ba <_ZN7Display13put_backspaceEv>
  10ce26:	90                   	nop
  10ce27:	c9                   	leaveq 
  10ce28:	c3                   	retq   

000000000010ce29 <_Z6memcpyPvPKvm>:
  10ce29:	f3 0f 1e fa          	endbr64 
  10ce2d:	55                   	push   %rbp
  10ce2e:	48 89 e5             	mov    %rsp,%rbp
  10ce31:	48 83 ec 20          	sub    $0x20,%rsp
  10ce35:	48 89 7d f8          	mov    %rdi,-0x8(%rbp)
  10ce39:	48 89 75 f0          	mov    %rsi,-0x10(%rbp)
  10ce3d:	48 89 55 e8          	mov    %rdx,-0x18(%rbp)
  10ce41:	48 83 7d e8 00       	cmpq   $0x0,-0x18(%rbp)
  10ce46:	75 06                	jne    10ce4e <_Z6memcpyPvPKvm+0x25>
  10ce48:	48 8b 45 f8          	mov    -0x8(%rbp),%rax
  10ce4c:	eb 1b                	jmp    10ce69 <_Z6memcpyPvPKvm+0x40>
  10ce4e:	48 8b 55 e8          	mov    -0x18(%rbp),%rdx
  10ce52:	48 8b 4d f0          	mov    -0x10(%rbp),%rcx
  10ce56:	48 8b 45 f8          	mov    -0x8(%rbp),%rax
  10ce5a:	48 89 ce             	mov    %rcx,%rsi
  10ce5d:	48 89 c7             	mov    %rax,%rdi
  10ce60:	e8 c4 11 00 00       	callq  10e029 <__memcpy>
  10ce65:	48 8b 45 f8          	mov    -0x8(%rbp),%rax
  10ce69:	c9                   	leaveq 
  10ce6a:	c3                   	retq   

000000000010ce6b <_Z6memsetPvim>:
  10ce6b:	f3 0f 1e fa          	endbr64 
  10ce6f:	55                   	push   %rbp
  10ce70:	48 89 e5             	mov    %rsp,%rbp
  10ce73:	48 83 ec 20          	sub    $0x20,%rsp
  10ce77:	48 89 7d f8          	mov    %rdi,-0x8(%rbp)
  10ce7b:	89 75 f4             	mov    %esi,-0xc(%rbp)
  10ce7e:	48 89 55 e8          	mov    %rdx,-0x18(%rbp)
  10ce82:	48 83 7d e8 00       	cmpq   $0x0,-0x18(%rbp)
  10ce87:	75 06                	jne    10ce8f <_Z6memsetPvim+0x24>
  10ce89:	48 8b 45 f8          	mov    -0x8(%rbp),%rax
  10ce8d:	eb 19                	jmp    10cea8 <_Z6memsetPvim+0x3d>
  10ce8f:	48 8b 55 e8          	mov    -0x18(%rbp),%rdx
  10ce93:	8b 4d f4             	mov    -0xc(%rbp),%ecx
  10ce96:	48 8b 45 f8          	mov    -0x8(%rbp),%rax
  10ce9a:	89 ce                	mov    %ecx,%esi
  10ce9c:	48 89 c7             	mov    %rax,%rdi
  10ce9f:	e8 7c 11 00 00       	callq  10e020 <__memset>
  10cea4:	48 8b 45 f8          	mov    -0x8(%rbp),%rax
  10cea8:	c9                   	leaveq 
  10cea9:	c3                   	retq   

000000000010ceaa <_Z6memcmpPvS_m>:
  10ceaa:	f3 0f 1e fa          	endbr64 
  10ceae:	55                   	push   %rbp
  10ceaf:	48 89 e5             	mov    %rsp,%rbp
  10ceb2:	48 83 ec 20          	sub    $0x20,%rsp
  10ceb6:	48 89 7d f8          	mov    %rdi,-0x8(%rbp)
  10ceba:	48 89 75 f0          	mov    %rsi,-0x10(%rbp)
  10cebe:	48 89 55 e8          	mov    %rdx,-0x18(%rbp)
  10cec2:	48 83 7d e8 00       	cmpq   $0x0,-0x18(%rbp)
  10cec7:	75 07                	jne    10ced0 <_Z6memcmpPvS_m+0x26>
  10cec9:	b8 ff ff ff ff       	mov    $0xffffffff,%eax
  10cece:	eb 1f                	jmp    10ceef <_Z6memcmpPvS_m+0x45>
  10ced0:	48 8b 55 e8          	mov    -0x18(%rbp),%rdx
  10ced4:	48 8b 4d f0          	mov    -0x10(%rbp),%rcx
  10ced8:	48 8b 45 f8          	mov    -0x8(%rbp),%rax
  10cedc:	48 89 ce             	mov    %rcx,%rsi
  10cedf:	48 89 c7             	mov    %rax,%rdi
  10cee2:	e8 48 11 00 00       	callq  10e02f <__memcmp>
  10cee7:	85 c0                	test   %eax,%eax
  10cee9:	0f 94 c0             	sete   %al
  10ceec:	0f b6 c0             	movzbl %al,%eax
  10ceef:	c9                   	leaveq 
  10cef0:	c3                   	retq   

000000000010cef1 <_Z11kmalloc_intmiPm>:
  10cef1:	f3 0f 1e fa          	endbr64 
  10cef5:	55                   	push   %rbp
  10cef6:	48 89 e5             	mov    %rsp,%rbp
  10cef9:	48 83 ec 40          	sub    $0x40,%rsp
  10cefd:	48 89 7d d8          	mov    %rdi,-0x28(%rbp)
  10cf01:	89 75 d4             	mov    %esi,-0x2c(%rbp)
  10cf04:	48 89 55 c8          	mov    %rdx,-0x38(%rbp)
  10cf08:	0f b6 05 49 ab 00 00 	movzbl 0xab49(%rip),%eax        # 117a58 <heap_init>
  10cf0f:	84 c0                	test   %al,%al
  10cf11:	75 79                	jne    10cf8c <_Z11kmalloc_intmiPm+0x9b>
  10cf13:	83 7d d4 01          	cmpl   $0x1,-0x2c(%rbp)
  10cf17:	75 38                	jne    10cf51 <_Z11kmalloc_intmiPm+0x60>
  10cf19:	48 8b 05 70 25 00 00 	mov    0x2570(%rip),%rax        # 10f490 <free_mem_addr>
  10cf20:	25 ff 0f 00 00       	and    $0xfff,%eax
  10cf25:	48 85 c0             	test   %rax,%rax
  10cf28:	74 27                	je     10cf51 <_Z11kmalloc_intmiPm+0x60>
  10cf2a:	48 8b 05 5f 25 00 00 	mov    0x255f(%rip),%rax        # 10f490 <free_mem_addr>
  10cf31:	25 00 f0 ff ff       	and    $0xfffff000,%eax
  10cf36:	48 89 05 53 25 00 00 	mov    %rax,0x2553(%rip)        # 10f490 <free_mem_addr>
  10cf3d:	48 8b 05 4c 25 00 00 	mov    0x254c(%rip),%rax        # 10f490 <free_mem_addr>
  10cf44:	48 05 00 10 00 00    	add    $0x1000,%rax
  10cf4a:	48 89 05 3f 25 00 00 	mov    %rax,0x253f(%rip)        # 10f490 <free_mem_addr>
  10cf51:	48 83 7d c8 00       	cmpq   $0x0,-0x38(%rbp)
  10cf56:	74 0e                	je     10cf66 <_Z11kmalloc_intmiPm+0x75>
  10cf58:	48 8b 15 31 25 00 00 	mov    0x2531(%rip),%rdx        # 10f490 <free_mem_addr>
  10cf5f:	48 8b 45 c8          	mov    -0x38(%rbp),%rax
  10cf63:	48 89 10             	mov    %rdx,(%rax)
  10cf66:	48 8b 05 23 25 00 00 	mov    0x2523(%rip),%rax        # 10f490 <free_mem_addr>
  10cf6d:	48 89 45 e8          	mov    %rax,-0x18(%rbp)
  10cf71:	48 8b 15 18 25 00 00 	mov    0x2518(%rip),%rdx        # 10f490 <free_mem_addr>
  10cf78:	48 8b 45 d8          	mov    -0x28(%rbp),%rax
  10cf7c:	48 01 d0             	add    %rdx,%rax
  10cf7f:	48 89 05 0a 25 00 00 	mov    %rax,0x250a(%rip)        # 10f490 <free_mem_addr>
  10cf86:	48 8b 45 e8          	mov    -0x18(%rbp),%rax
  10cf8a:	eb 4c                	jmp    10cfd8 <_Z11kmalloc_intmiPm+0xe7>
  10cf8c:	48 8b 45 d8          	mov    -0x28(%rbp),%rax
  10cf90:	48 89 c7             	mov    %rax,%rdi
  10cf93:	e8 72 66 ff ff       	callq  10360a <_Z5allocm>
  10cf98:	48 89 45 f8          	mov    %rax,-0x8(%rbp)
  10cf9c:	48 83 7d c8 00       	cmpq   $0x0,-0x38(%rbp)
  10cfa1:	74 31                	je     10cfd4 <_Z11kmalloc_intmiPm+0xe3>
  10cfa3:	48 8b 45 f8          	mov    -0x8(%rbp),%rax
  10cfa7:	48 89 c6             	mov    %rax,%rsi
  10cfaa:	48 8d 3d 97 80 00 00 	lea    0x8097(%rip),%rdi        # 115048 <KernelDirectory>
  10cfb1:	e8 d2 33 ff ff       	callq  100388 <_ZN16PageTableManager15PhysicalAddressEm>
  10cfb6:	48 89 45 f0          	mov    %rax,-0x10(%rbp)
  10cfba:	48 8b 55 f8          	mov    -0x8(%rbp),%rdx
  10cfbe:	48 8b 45 f0          	mov    -0x10(%rbp),%rax
  10cfc2:	48 01 d0             	add    %rdx,%rax
  10cfc5:	25 ff 0f 00 00       	and    $0xfff,%eax
  10cfca:	48 89 c2             	mov    %rax,%rdx
  10cfcd:	48 8b 45 c8          	mov    -0x38(%rbp),%rax
  10cfd1:	48 89 10             	mov    %rdx,(%rax)
  10cfd4:	48 8b 45 f8          	mov    -0x8(%rbp),%rax
  10cfd8:	c9                   	leaveq 
  10cfd9:	c3                   	retq   

000000000010cfda <_Z5kfreePv>:
  10cfda:	f3 0f 1e fa          	endbr64 
  10cfde:	55                   	push   %rbp
  10cfdf:	48 89 e5             	mov    %rsp,%rbp
  10cfe2:	48 83 ec 10          	sub    $0x10,%rsp
  10cfe6:	48 89 7d f8          	mov    %rdi,-0x8(%rbp)
  10cfea:	0f b6 05 67 aa 00 00 	movzbl 0xaa67(%rip),%eax        # 117a58 <heap_init>
  10cff1:	3c 01                	cmp    $0x1,%al
  10cff3:	75 0c                	jne    10d001 <_Z5kfreePv+0x27>
  10cff5:	48 8b 45 f8          	mov    -0x8(%rbp),%rax
  10cff9:	48 89 c7             	mov    %rax,%rdi
  10cffc:	e8 f2 66 ff ff       	callq  1036f3 <_Z4freePv>
  10d001:	90                   	nop
  10d002:	c9                   	leaveq 
  10d003:	c3                   	retq   

000000000010d004 <_Z9kmalloc_am>:
  10d004:	f3 0f 1e fa          	endbr64 
  10d008:	55                   	push   %rbp
  10d009:	48 89 e5             	mov    %rsp,%rbp
  10d00c:	48 83 ec 10          	sub    $0x10,%rsp
  10d010:	48 89 7d f8          	mov    %rdi,-0x8(%rbp)
  10d014:	48 8b 45 f8          	mov    -0x8(%rbp),%rax
  10d018:	ba 00 00 00 00       	mov    $0x0,%edx
  10d01d:	be 01 00 00 00       	mov    $0x1,%esi
  10d022:	48 89 c7             	mov    %rax,%rdi
  10d025:	e8 c7 fe ff ff       	callq  10cef1 <_Z11kmalloc_intmiPm>
  10d02a:	c9                   	leaveq 
  10d02b:	c3                   	retq   

000000000010d02c <_Z9kmalloc_pmPm>:
  10d02c:	f3 0f 1e fa          	endbr64 
  10d030:	55                   	push   %rbp
  10d031:	48 89 e5             	mov    %rsp,%rbp
  10d034:	48 83 ec 10          	sub    $0x10,%rsp
  10d038:	48 89 7d f8          	mov    %rdi,-0x8(%rbp)
  10d03c:	48 89 75 f0          	mov    %rsi,-0x10(%rbp)
  10d040:	48 8b 55 f0          	mov    -0x10(%rbp),%rdx
  10d044:	48 8b 45 f8          	mov    -0x8(%rbp),%rax
  10d048:	be 00 00 00 00       	mov    $0x0,%esi
  10d04d:	48 89 c7             	mov    %rax,%rdi
  10d050:	e8 9c fe ff ff       	callq  10cef1 <_Z11kmalloc_intmiPm>
  10d055:	c9                   	leaveq 
  10d056:	c3                   	retq   

000000000010d057 <_Z10kmalloc_apmPm>:
  10d057:	f3 0f 1e fa          	endbr64 
  10d05b:	55                   	push   %rbp
  10d05c:	48 89 e5             	mov    %rsp,%rbp
  10d05f:	48 83 ec 10          	sub    $0x10,%rsp
  10d063:	48 89 7d f8          	mov    %rdi,-0x8(%rbp)
  10d067:	48 89 75 f0          	mov    %rsi,-0x10(%rbp)
  10d06b:	48 8b 55 f0          	mov    -0x10(%rbp),%rdx
  10d06f:	48 8b 45 f8          	mov    -0x8(%rbp),%rax
  10d073:	be 01 00 00 00       	mov    $0x1,%esi
  10d078:	48 89 c7             	mov    %rax,%rdi
  10d07b:	e8 71 fe ff ff       	callq  10cef1 <_Z11kmalloc_intmiPm>
  10d080:	c9                   	leaveq 
  10d081:	c3                   	retq   

000000000010d082 <_Z7kmallocm>:
  10d082:	f3 0f 1e fa          	endbr64 
  10d086:	55                   	push   %rbp
  10d087:	48 89 e5             	mov    %rsp,%rbp
  10d08a:	48 83 ec 10          	sub    $0x10,%rsp
  10d08e:	48 89 7d f8          	mov    %rdi,-0x8(%rbp)
  10d092:	48 8b 45 f8          	mov    -0x8(%rbp),%rax
  10d096:	ba 00 00 00 00       	mov    $0x0,%edx
  10d09b:	be 00 00 00 00       	mov    $0x0,%esi
  10d0a0:	48 89 c7             	mov    %rax,%rdi
  10d0a3:	e8 49 fe ff ff       	callq  10cef1 <_Z11kmalloc_intmiPm>
  10d0a8:	c9                   	leaveq 
  10d0a9:	c3                   	retq   

000000000010d0aa <_Z14InitialiseRSDPP10KernelInfo>:
  10d0aa:	f3 0f 1e fa          	endbr64 
  10d0ae:	55                   	push   %rbp
  10d0af:	48 89 e5             	mov    %rsp,%rbp
  10d0b2:	48 81 ec c0 03 00 00 	sub    $0x3c0,%rsp
  10d0b9:	48 89 bd 48 fc ff ff 	mov    %rdi,-0x3b8(%rbp)
  10d0c0:	48 8b 85 48 fc ff ff 	mov    -0x3b8(%rbp),%rax
  10d0c7:	48 8b 40 30          	mov    0x30(%rax),%rax
  10d0cb:	48 89 45 d8          	mov    %rax,-0x28(%rbp)
  10d0cf:	48 8b 45 d8          	mov    -0x28(%rbp),%rax
  10d0d3:	48 89 c7             	mov    %rax,%rdi
  10d0d6:	e8 61 77 ff ff       	callq  10483c <_ZN4ACPI4RSDP8is_validEv>
  10d0db:	83 f0 01             	xor    $0x1,%eax
  10d0de:	84 c0                	test   %al,%al
  10d0e0:	74 14                	je     10d0f6 <_Z14InitialiseRSDPP10KernelInfo+0x4c>
  10d0e2:	48 8d 3d cf 44 00 00 	lea    0x44cf(%rip),%rdi        # 1115b8 <_ZL8sc_ascii+0x4f8>
  10d0e9:	b8 00 00 00 00       	mov    $0x0,%eax
  10d0ee:	e8 39 f9 ff ff       	callq  10ca2c <_Z7kprintfPKcz>
  10d0f3:	f4                   	hlt    
  10d0f4:	eb fd                	jmp    10d0f3 <_Z14InitialiseRSDPP10KernelInfo+0x49>
  10d0f6:	48 8d 3d d3 44 00 00 	lea    0x44d3(%rip),%rdi        # 1115d0 <_ZL8sc_ascii+0x510>
  10d0fd:	b8 00 00 00 00       	mov    $0x0,%eax
  10d102:	e8 25 f9 ff ff       	callq  10ca2c <_Z7kprintfPKcz>
  10d107:	48 8b 45 d8          	mov    -0x28(%rbp),%rax
  10d10b:	48 89 c6             	mov    %rax,%rsi
  10d10e:	48 8d 3d cf 44 00 00 	lea    0x44cf(%rip),%rdi        # 1115e4 <_ZL8sc_ascii+0x524>
  10d115:	b8 00 00 00 00       	mov    $0x0,%eax
  10d11a:	e8 0d f9 ff ff       	callq  10ca2c <_Z7kprintfPKcz>
  10d11f:	48 8d 3d cf 44 00 00 	lea    0x44cf(%rip),%rdi        # 1115f5 <_ZL8sc_ascii+0x535>
  10d126:	b8 00 00 00 00       	mov    $0x0,%eax
  10d12b:	e8 fc f8 ff ff       	callq  10ca2c <_Z7kprintfPKcz>
  10d130:	48 c7 45 f8 00 00 00 	movq   $0x0,-0x8(%rbp)
  10d137:	00 
  10d138:	48 83 7d f8 07       	cmpq   $0x7,-0x8(%rbp)
  10d13d:	77 2b                	ja     10d16a <_Z14InitialiseRSDPP10KernelInfo+0xc0>
  10d13f:	48 8b 55 d8          	mov    -0x28(%rbp),%rdx
  10d143:	48 8b 45 f8          	mov    -0x8(%rbp),%rax
  10d147:	48 01 d0             	add    %rdx,%rax
  10d14a:	0f b6 00             	movzbl (%rax),%eax
  10d14d:	0f be c0             	movsbl %al,%eax
  10d150:	89 c6                	mov    %eax,%esi
  10d152:	48 8d 3d a9 44 00 00 	lea    0x44a9(%rip),%rdi        # 111602 <_ZL8sc_ascii+0x542>
  10d159:	b8 00 00 00 00       	mov    $0x0,%eax
  10d15e:	e8 c9 f8 ff ff       	callq  10ca2c <_Z7kprintfPKcz>
  10d163:	48 83 45 f8 01       	addq   $0x1,-0x8(%rbp)
  10d168:	eb ce                	jmp    10d138 <_Z14InitialiseRSDPP10KernelInfo+0x8e>
  10d16a:	48 8d 3d 94 44 00 00 	lea    0x4494(%rip),%rdi        # 111605 <_ZL8sc_ascii+0x545>
  10d171:	b8 00 00 00 00       	mov    $0x0,%eax
  10d176:	e8 b1 f8 ff ff       	callq  10ca2c <_Z7kprintfPKcz>
  10d17b:	48 8b 45 d8          	mov    -0x28(%rbp),%rax
  10d17f:	0f b6 40 08          	movzbl 0x8(%rax),%eax
  10d183:	0f b6 c0             	movzbl %al,%eax
  10d186:	89 c6                	mov    %eax,%esi
  10d188:	48 8d 3d 78 44 00 00 	lea    0x4478(%rip),%rdi        # 111607 <_ZL8sc_ascii+0x547>
  10d18f:	b8 00 00 00 00       	mov    $0x0,%eax
  10d194:	e8 93 f8 ff ff       	callq  10ca2c <_Z7kprintfPKcz>
  10d199:	48 8d 3d 76 44 00 00 	lea    0x4476(%rip),%rdi        # 111616 <_ZL8sc_ascii+0x556>
  10d1a0:	b8 00 00 00 00       	mov    $0x0,%eax
  10d1a5:	e8 82 f8 ff ff       	callq  10ca2c <_Z7kprintfPKcz>
  10d1aa:	48 c7 45 f0 00 00 00 	movq   $0x0,-0x10(%rbp)
  10d1b1:	00 
  10d1b2:	48 83 7d f0 05       	cmpq   $0x5,-0x10(%rbp)
  10d1b7:	77 2f                	ja     10d1e8 <_Z14InitialiseRSDPP10KernelInfo+0x13e>
  10d1b9:	48 8b 55 d8          	mov    -0x28(%rbp),%rdx
  10d1bd:	48 8b 45 f0          	mov    -0x10(%rbp),%rax
  10d1c1:	48 01 d0             	add    %rdx,%rax
  10d1c4:	48 83 c0 09          	add    $0x9,%rax
  10d1c8:	0f b6 00             	movzbl (%rax),%eax
  10d1cb:	0f be c0             	movsbl %al,%eax
  10d1ce:	89 c6                	mov    %eax,%esi
  10d1d0:	48 8d 3d 2b 44 00 00 	lea    0x442b(%rip),%rdi        # 111602 <_ZL8sc_ascii+0x542>
  10d1d7:	b8 00 00 00 00       	mov    $0x0,%eax
  10d1dc:	e8 4b f8 ff ff       	callq  10ca2c <_Z7kprintfPKcz>
  10d1e1:	48 83 45 f0 01       	addq   $0x1,-0x10(%rbp)
  10d1e6:	eb ca                	jmp    10d1b2 <_Z14InitialiseRSDPP10KernelInfo+0x108>
  10d1e8:	48 8d 3d 16 44 00 00 	lea    0x4416(%rip),%rdi        # 111605 <_ZL8sc_ascii+0x545>
  10d1ef:	b8 00 00 00 00       	mov    $0x0,%eax
  10d1f4:	e8 33 f8 ff ff       	callq  10ca2c <_Z7kprintfPKcz>
  10d1f9:	48 8b 45 d8          	mov    -0x28(%rbp),%rax
  10d1fd:	0f b6 40 0f          	movzbl 0xf(%rax),%eax
  10d201:	0f b6 c0             	movzbl %al,%eax
  10d204:	89 c6                	mov    %eax,%esi
  10d206:	48 8d 3d 12 44 00 00 	lea    0x4412(%rip),%rdi        # 11161f <_ZL8sc_ascii+0x55f>
  10d20d:	b8 00 00 00 00       	mov    $0x0,%eax
  10d212:	e8 15 f8 ff ff       	callq  10ca2c <_Z7kprintfPKcz>
  10d217:	48 8b 45 d8          	mov    -0x28(%rbp),%rax
  10d21b:	8b 40 10             	mov    0x10(%rax),%eax
  10d21e:	89 c6                	mov    %eax,%esi
  10d220:	48 8d 3d 07 44 00 00 	lea    0x4407(%rip),%rdi        # 11162e <_ZL8sc_ascii+0x56e>
  10d227:	b8 00 00 00 00       	mov    $0x0,%eax
  10d22c:	e8 fb f7 ff ff       	callq  10ca2c <_Z7kprintfPKcz>
  10d231:	48 8b 45 d8          	mov    -0x28(%rbp),%rax
  10d235:	8b 40 14             	mov    0x14(%rax),%eax
  10d238:	89 c6                	mov    %eax,%esi
  10d23a:	48 8d 3d 02 44 00 00 	lea    0x4402(%rip),%rdi        # 111643 <_ZL8sc_ascii+0x583>
  10d241:	b8 00 00 00 00       	mov    $0x0,%eax
  10d246:	e8 e1 f7 ff ff       	callq  10ca2c <_Z7kprintfPKcz>
  10d24b:	48 8b 45 d8          	mov    -0x28(%rbp),%rax
  10d24f:	48 8b 40 18          	mov    0x18(%rax),%rax
  10d253:	48 89 c6             	mov    %rax,%rsi
  10d256:	48 8d 3d f3 43 00 00 	lea    0x43f3(%rip),%rdi        # 111650 <_ZL8sc_ascii+0x590>
  10d25d:	b8 00 00 00 00       	mov    $0x0,%eax
  10d262:	e8 c5 f7 ff ff       	callq  10ca2c <_Z7kprintfPKcz>
  10d267:	48 8b 45 d8          	mov    -0x28(%rbp),%rax
  10d26b:	0f b6 40 20          	movzbl 0x20(%rax),%eax
  10d26f:	0f b6 c0             	movzbl %al,%eax
  10d272:	89 c6                	mov    %eax,%esi
  10d274:	48 8d 3d ea 43 00 00 	lea    0x43ea(%rip),%rdi        # 111665 <_ZL8sc_ascii+0x5a5>
  10d27b:	b8 00 00 00 00       	mov    $0x0,%eax
  10d280:	e8 a7 f7 ff ff       	callq  10ca2c <_Z7kprintfPKcz>
  10d285:	48 8b 45 d8          	mov    -0x28(%rbp),%rax
  10d289:	48 89 c7             	mov    %rax,%rdi
  10d28c:	e8 6d 75 ff ff       	callq  1047fe <_ZN4ACPI4RSDP18GetRootSystemTableEv>
  10d291:	48 89 45 d0          	mov    %rax,-0x30(%rbp)
  10d295:	48 8b 45 d8          	mov    -0x28(%rbp),%rax
  10d299:	48 89 c7             	mov    %rax,%rdi
  10d29c:	e8 09 76 ff ff       	callq  1048aa <_ZN4ACPI4RSDP13GetTableCountEv>
  10d2a1:	48 89 45 c8          	mov    %rax,-0x38(%rbp)
  10d2a5:	48 8b 45 c8          	mov    -0x38(%rbp),%rax
  10d2a9:	48 89 c6             	mov    %rax,%rsi
  10d2ac:	48 8d 3d cb 43 00 00 	lea    0x43cb(%rip),%rdi        # 11167e <_ZL8sc_ascii+0x5be>
  10d2b3:	b8 00 00 00 00       	mov    $0x0,%eax
  10d2b8:	e8 6f f7 ff ff       	callq  10ca2c <_Z7kprintfPKcz>
  10d2bd:	48 8d 3d c5 43 00 00 	lea    0x43c5(%rip),%rdi        # 111689 <_ZL8sc_ascii+0x5c9>
  10d2c4:	b8 00 00 00 00       	mov    $0x0,%eax
  10d2c9:	e8 5e f7 ff ff       	callq  10ca2c <_Z7kprintfPKcz>
  10d2ce:	48 c7 45 e8 00 00 00 	movq   $0x0,-0x18(%rbp)
  10d2d5:	00 
  10d2d6:	48 8b 45 e8          	mov    -0x18(%rbp),%rax
  10d2da:	48 3b 45 c8          	cmp    -0x38(%rbp),%rax
  10d2de:	73 65                	jae    10d345 <_Z14InitialiseRSDPP10KernelInfo+0x29b>
  10d2e0:	48 8b 55 e8          	mov    -0x18(%rbp),%rdx
  10d2e4:	48 8b 45 d8          	mov    -0x28(%rbp),%rax
  10d2e8:	48 89 d6             	mov    %rdx,%rsi
  10d2eb:	48 89 c7             	mov    %rax,%rdi
  10d2ee:	e8 0b 76 ff ff       	callq  1048fe <_ZN4ACPI4RSDP3GetEm>
  10d2f3:	48 89 45 c0          	mov    %rax,-0x40(%rbp)
  10d2f7:	c7 45 e4 00 00 00 00 	movl   $0x0,-0x1c(%rbp)
  10d2fe:	83 7d e4 03          	cmpl   $0x3,-0x1c(%rbp)
  10d302:	7f 29                	jg     10d32d <_Z14InitialiseRSDPP10KernelInfo+0x283>
  10d304:	48 8b 55 c0          	mov    -0x40(%rbp),%rdx
  10d308:	8b 45 e4             	mov    -0x1c(%rbp),%eax
  10d30b:	48 98                	cltq   
  10d30d:	0f b6 04 02          	movzbl (%rdx,%rax,1),%eax
  10d311:	0f be c0             	movsbl %al,%eax
  10d314:	89 c6                	mov    %eax,%esi
  10d316:	48 8d 3d e5 42 00 00 	lea    0x42e5(%rip),%rdi        # 111602 <_ZL8sc_ascii+0x542>
  10d31d:	b8 00 00 00 00       	mov    $0x0,%eax
  10d322:	e8 05 f7 ff ff       	callq  10ca2c <_Z7kprintfPKcz>
  10d327:	83 45 e4 01          	addl   $0x1,-0x1c(%rbp)
  10d32b:	eb d1                	jmp    10d2fe <_Z14InitialiseRSDPP10KernelInfo+0x254>
  10d32d:	48 8d 3d 65 43 00 00 	lea    0x4365(%rip),%rdi        # 111699 <_ZL8sc_ascii+0x5d9>
  10d334:	b8 00 00 00 00       	mov    $0x0,%eax
  10d339:	e8 ee f6 ff ff       	callq  10ca2c <_Z7kprintfPKcz>
  10d33e:	48 83 45 e8 01       	addq   $0x1,-0x18(%rbp)
  10d343:	eb 91                	jmp    10d2d6 <_Z14InitialiseRSDPP10KernelInfo+0x22c>
  10d345:	48 8d 3d 4f 43 00 00 	lea    0x434f(%rip),%rdi        # 11169b <_ZL8sc_ascii+0x5db>
  10d34c:	b8 00 00 00 00       	mov    $0x0,%eax
  10d351:	e8 d6 f6 ff ff       	callq  10ca2c <_Z7kprintfPKcz>
  10d356:	48 8b 45 d8          	mov    -0x28(%rbp),%rax
  10d35a:	48 8d 35 3d 43 00 00 	lea    0x433d(%rip),%rsi        # 11169e <_ZL8sc_ascii+0x5de>
  10d361:	48 89 c7             	mov    %rax,%rdi
  10d364:	e8 35 76 ff ff       	callq  10499e <_ZN4ACPI4RSDP14GetSystemTableEPKc>
  10d369:	48 89 45 b8          	mov    %rax,-0x48(%rbp)
  10d36d:	48 8b 45 b8          	mov    -0x48(%rbp),%rax
  10d371:	48 89 c6             	mov    %rax,%rsi
  10d374:	48 8d 3d 28 43 00 00 	lea    0x4328(%rip),%rdi        # 1116a3 <_ZL8sc_ascii+0x5e3>
  10d37b:	b8 00 00 00 00       	mov    $0x0,%eax
  10d380:	e8 a7 f6 ff ff       	callq  10ca2c <_Z7kprintfPKcz>
  10d385:	48 8b 45 d8          	mov    -0x28(%rbp),%rax
  10d389:	48 8d 35 26 43 00 00 	lea    0x4326(%rip),%rsi        # 1116b6 <_ZL8sc_ascii+0x5f6>
  10d390:	48 89 c7             	mov    %rax,%rdi
  10d393:	e8 06 76 ff ff       	callq  10499e <_ZN4ACPI4RSDP14GetSystemTableEPKc>
  10d398:	48 89 45 b0          	mov    %rax,-0x50(%rbp)
  10d39c:	48 8b 45 b0          	mov    -0x50(%rbp),%rax
  10d3a0:	48 89 c6             	mov    %rax,%rsi
  10d3a3:	48 8d 3d 11 43 00 00 	lea    0x4311(%rip),%rdi        # 1116bb <_ZL8sc_ascii+0x5fb>
  10d3aa:	b8 00 00 00 00       	mov    $0x0,%eax
  10d3af:	e8 78 f6 ff ff       	callq  10ca2c <_Z7kprintfPKcz>
  10d3b4:	48 8b 45 d8          	mov    -0x28(%rbp),%rax
  10d3b8:	48 8d 35 0f 43 00 00 	lea    0x430f(%rip),%rsi        # 1116ce <_ZL8sc_ascii+0x60e>
  10d3bf:	48 89 c7             	mov    %rax,%rdi
  10d3c2:	e8 d7 75 ff ff       	callq  10499e <_ZN4ACPI4RSDP14GetSystemTableEPKc>
  10d3c7:	48 89 45 a8          	mov    %rax,-0x58(%rbp)
  10d3cb:	48 8b 45 a8          	mov    -0x58(%rbp),%rax
  10d3cf:	48 89 c6             	mov    %rax,%rsi
  10d3d2:	48 8d 3d fa 42 00 00 	lea    0x42fa(%rip),%rdi        # 1116d3 <_ZL8sc_ascii+0x613>
  10d3d9:	b8 00 00 00 00       	mov    $0x0,%eax
  10d3de:	e8 49 f6 ff ff       	callq  10ca2c <_Z7kprintfPKcz>
  10d3e3:	48 8b 45 d8          	mov    -0x28(%rbp),%rax
  10d3e7:	48 8d 35 f8 42 00 00 	lea    0x42f8(%rip),%rsi        # 1116e6 <_ZL8sc_ascii+0x626>
  10d3ee:	48 89 c7             	mov    %rax,%rdi
  10d3f1:	e8 a8 75 ff ff       	callq  10499e <_ZN4ACPI4RSDP14GetSystemTableEPKc>
  10d3f6:	48 89 45 a0          	mov    %rax,-0x60(%rbp)
  10d3fa:	48 8b 45 a0          	mov    -0x60(%rbp),%rax
  10d3fe:	48 89 c6             	mov    %rax,%rsi
  10d401:	48 8d 3d e3 42 00 00 	lea    0x42e3(%rip),%rdi        # 1116eb <_ZL8sc_ascii+0x62b>
  10d408:	b8 00 00 00 00       	mov    $0x0,%eax
  10d40d:	e8 1a f6 ff ff       	callq  10ca2c <_Z7kprintfPKcz>
  10d412:	48 83 7d a0 00       	cmpq   $0x0,-0x60(%rbp)
  10d417:	74 0c                	je     10d425 <_Z14InitialiseRSDPP10KernelInfo+0x37b>
  10d419:	48 8b 45 a0          	mov    -0x60(%rbp),%rax
  10d41d:	48 89 c7             	mov    %rax,%rdi
  10d420:	e8 09 77 ff ff       	callq  104b2e <_ZN4ACPI4FADT10ACPIEnableEv>
  10d425:	48 8d 3d d3 42 00 00 	lea    0x42d3(%rip),%rdi        # 1116ff <_ZL8sc_ascii+0x63f>
  10d42c:	b8 00 00 00 00       	mov    $0x0,%eax
  10d431:	e8 f6 f5 ff ff       	callq  10ca2c <_Z7kprintfPKcz>
  10d436:	48 83 7d a0 00       	cmpq   $0x0,-0x60(%rbp)
  10d43b:	0f 84 91 00 00 00    	je     10d4d2 <_Z14InitialiseRSDPP10KernelInfo+0x428>
  10d441:	48 8d 85 50 fc ff ff 	lea    -0x3b0(%rbp),%rax
  10d448:	48 8b 55 a0          	mov    -0x60(%rbp),%rdx
  10d44c:	48 89 d6             	mov    %rdx,%rsi
  10d44f:	48 89 c7             	mov    %rax,%rdi
  10d452:	e8 f3 16 00 00       	callq  10eb4a <_ZN4ACPI4FADT7GetFADTEv>
  10d457:	0f b6 85 bc fc ff ff 	movzbl -0x344(%rbp),%eax
  10d45e:	0f b6 c0             	movzbl %al,%eax
  10d461:	89 c6                	mov    %eax,%esi
  10d463:	48 8d 3d a6 42 00 00 	lea    0x42a6(%rip),%rdi        # 111710 <_ZL8sc_ascii+0x650>
  10d46a:	b8 00 00 00 00       	mov    $0x0,%eax
  10d46f:	e8 b8 f5 ff ff       	callq  10ca2c <_Z7kprintfPKcz>
  10d474:	48 8d 85 50 fd ff ff 	lea    -0x2b0(%rbp),%rax
  10d47b:	48 8b 55 a0          	mov    -0x60(%rbp),%rdx
  10d47f:	48 89 d6             	mov    %rdx,%rsi
  10d482:	48 89 c7             	mov    %rax,%rdi
  10d485:	e8 c0 16 00 00       	callq  10eb4a <_ZN4ACPI4FADT7GetFADTEv>
  10d48a:	8b 85 74 fd ff ff    	mov    -0x28c(%rbp),%eax
  10d490:	89 c6                	mov    %eax,%esi
  10d492:	48 8d 3d 8e 42 00 00 	lea    0x428e(%rip),%rdi        # 111727 <_ZL8sc_ascii+0x667>
  10d499:	b8 00 00 00 00       	mov    $0x0,%eax
  10d49e:	e8 89 f5 ff ff       	callq  10ca2c <_Z7kprintfPKcz>
  10d4a3:	48 8d 85 50 fe ff ff 	lea    -0x1b0(%rbp),%rax
  10d4aa:	48 8b 55 a0          	mov    -0x60(%rbp),%rdx
  10d4ae:	48 89 d6             	mov    %rdx,%rsi
  10d4b1:	48 89 c7             	mov    %rax,%rdi
  10d4b4:	e8 91 16 00 00       	callq  10eb4a <_ZN4ACPI4FADT7GetFADTEv>
  10d4b9:	8b 85 78 fe ff ff    	mov    -0x188(%rbp),%eax
  10d4bf:	89 c6                	mov    %eax,%esi
  10d4c1:	48 8d 3d 78 42 00 00 	lea    0x4278(%rip),%rdi        # 111740 <_ZL8sc_ascii+0x680>
  10d4c8:	b8 00 00 00 00       	mov    $0x0,%eax
  10d4cd:	e8 5a f5 ff ff       	callq  10ca2c <_Z7kprintfPKcz>
  10d4d2:	e8 4b 40 ff ff       	callq  101522 <_ZN18PageFrameAllocator15SharedAllocatorEv>
  10d4d7:	48 89 c7             	mov    %rax,%rdi
  10d4da:	e8 37 16 00 00       	callq  10eb16 <_ZNK18PageFrameAllocator10GetUsedRAMEv>
  10d4df:	48 89 45 98          	mov    %rax,-0x68(%rbp)
  10d4e3:	e8 3a 40 ff ff       	callq  101522 <_ZN18PageFrameAllocator15SharedAllocatorEv>
  10d4e8:	48 89 c7             	mov    %rax,%rdi
  10d4eb:	e8 0c 16 00 00       	callq  10eafc <_ZNK18PageFrameAllocator10GetFreeRAMEv>
  10d4f0:	48 89 45 90          	mov    %rax,-0x70(%rbp)
  10d4f4:	e8 29 40 ff ff       	callq  101522 <_ZN18PageFrameAllocator15SharedAllocatorEv>
  10d4f9:	48 89 c7             	mov    %rax,%rdi
  10d4fc:	e8 2f 16 00 00       	callq  10eb30 <_ZNK18PageFrameAllocator14GetReservedRAMEv>
  10d501:	48 89 45 88          	mov    %rax,-0x78(%rbp)
  10d505:	48 8b 45 98          	mov    -0x68(%rbp),%rax
  10d509:	48 85 c0             	test   %rax,%rax
  10d50c:	78 07                	js     10d515 <_Z14InitialiseRSDPP10KernelInfo+0x46b>
  10d50e:	f2 48 0f 2a c0       	cvtsi2sd %rax,%xmm0
  10d513:	eb 15                	jmp    10d52a <_Z14InitialiseRSDPP10KernelInfo+0x480>
  10d515:	48 89 c2             	mov    %rax,%rdx
  10d518:	48 d1 ea             	shr    %rdx
  10d51b:	83 e0 01             	and    $0x1,%eax
  10d51e:	48 09 c2             	or     %rax,%rdx
  10d521:	f2 48 0f 2a c2       	cvtsi2sd %rdx,%xmm0
  10d526:	f2 0f 58 c0          	addsd  %xmm0,%xmm0
  10d52a:	f2 0f 10 0d ee 43 00 	movsd  0x43ee(%rip),%xmm1        # 111920 <_ZL8sc_ascii+0x860>
  10d531:	00 
  10d532:	f2 0f 5e c1          	divsd  %xmm1,%xmm0
  10d536:	f2 0f 11 45 80       	movsd  %xmm0,-0x80(%rbp)
  10d53b:	48 8b 45 98          	mov    -0x68(%rbp),%rax
  10d53f:	48 85 c0             	test   %rax,%rax
  10d542:	78 07                	js     10d54b <_Z14InitialiseRSDPP10KernelInfo+0x4a1>
  10d544:	f2 48 0f 2a c0       	cvtsi2sd %rax,%xmm0
  10d549:	eb 15                	jmp    10d560 <_Z14InitialiseRSDPP10KernelInfo+0x4b6>
  10d54b:	48 89 c2             	mov    %rax,%rdx
  10d54e:	48 d1 ea             	shr    %rdx
  10d551:	83 e0 01             	and    $0x1,%eax
  10d554:	48 09 c2             	or     %rax,%rdx
  10d557:	f2 48 0f 2a c2       	cvtsi2sd %rdx,%xmm0
  10d55c:	f2 0f 58 c0          	addsd  %xmm0,%xmm0
  10d560:	f2 0f 10 0d c0 43 00 	movsd  0x43c0(%rip),%xmm1        # 111928 <_ZL8sc_ascii+0x868>
  10d567:	00 
  10d568:	f2 0f 5e c1          	divsd  %xmm1,%xmm0
  10d56c:	f2 0f 11 85 78 ff ff 	movsd  %xmm0,-0x88(%rbp)
  10d573:	ff 
  10d574:	48 8b 45 90          	mov    -0x70(%rbp),%rax
  10d578:	48 85 c0             	test   %rax,%rax
  10d57b:	78 07                	js     10d584 <_Z14InitialiseRSDPP10KernelInfo+0x4da>
  10d57d:	f2 48 0f 2a c0       	cvtsi2sd %rax,%xmm0
  10d582:	eb 15                	jmp    10d599 <_Z14InitialiseRSDPP10KernelInfo+0x4ef>
  10d584:	48 89 c2             	mov    %rax,%rdx
  10d587:	48 d1 ea             	shr    %rdx
  10d58a:	83 e0 01             	and    $0x1,%eax
  10d58d:	48 09 c2             	or     %rax,%rdx
  10d590:	f2 48 0f 2a c2       	cvtsi2sd %rdx,%xmm0
  10d595:	f2 0f 58 c0          	addsd  %xmm0,%xmm0
  10d599:	f2 0f 10 0d 7f 43 00 	movsd  0x437f(%rip),%xmm1        # 111920 <_ZL8sc_ascii+0x860>
  10d5a0:	00 
  10d5a1:	f2 0f 5e c1          	divsd  %xmm1,%xmm0
  10d5a5:	f2 0f 11 85 70 ff ff 	movsd  %xmm0,-0x90(%rbp)
  10d5ac:	ff 
  10d5ad:	48 8b 45 90          	mov    -0x70(%rbp),%rax
  10d5b1:	48 85 c0             	test   %rax,%rax
  10d5b4:	78 07                	js     10d5bd <_Z14InitialiseRSDPP10KernelInfo+0x513>
  10d5b6:	f2 48 0f 2a c0       	cvtsi2sd %rax,%xmm0
  10d5bb:	eb 15                	jmp    10d5d2 <_Z14InitialiseRSDPP10KernelInfo+0x528>
  10d5bd:	48 89 c2             	mov    %rax,%rdx
  10d5c0:	48 d1 ea             	shr    %rdx
  10d5c3:	83 e0 01             	and    $0x1,%eax
  10d5c6:	48 09 c2             	or     %rax,%rdx
  10d5c9:	f2 48 0f 2a c2       	cvtsi2sd %rdx,%xmm0
  10d5ce:	f2 0f 58 c0          	addsd  %xmm0,%xmm0
  10d5d2:	f2 0f 10 0d 4e 43 00 	movsd  0x434e(%rip),%xmm1        # 111928 <_ZL8sc_ascii+0x868>
  10d5d9:	00 
  10d5da:	f2 0f 5e c1          	divsd  %xmm1,%xmm0
  10d5de:	f2 0f 11 85 68 ff ff 	movsd  %xmm0,-0x98(%rbp)
  10d5e5:	ff 
  10d5e6:	48 8b 45 88          	mov    -0x78(%rbp),%rax
  10d5ea:	48 85 c0             	test   %rax,%rax
  10d5ed:	78 07                	js     10d5f6 <_Z14InitialiseRSDPP10KernelInfo+0x54c>
  10d5ef:	f2 48 0f 2a c0       	cvtsi2sd %rax,%xmm0
  10d5f4:	eb 15                	jmp    10d60b <_Z14InitialiseRSDPP10KernelInfo+0x561>
  10d5f6:	48 89 c2             	mov    %rax,%rdx
  10d5f9:	48 d1 ea             	shr    %rdx
  10d5fc:	83 e0 01             	and    $0x1,%eax
  10d5ff:	48 09 c2             	or     %rax,%rdx
  10d602:	f2 48 0f 2a c2       	cvtsi2sd %rdx,%xmm0
  10d607:	f2 0f 58 c0          	addsd  %xmm0,%xmm0
  10d60b:	f2 0f 10 0d 0d 43 00 	movsd  0x430d(%rip),%xmm1        # 111920 <_ZL8sc_ascii+0x860>
  10d612:	00 
  10d613:	f2 0f 5e c1          	divsd  %xmm1,%xmm0
  10d617:	f2 0f 11 85 60 ff ff 	movsd  %xmm0,-0xa0(%rbp)
  10d61e:	ff 
  10d61f:	48 8b 45 88          	mov    -0x78(%rbp),%rax
  10d623:	48 85 c0             	test   %rax,%rax
  10d626:	78 07                	js     10d62f <_Z14InitialiseRSDPP10KernelInfo+0x585>
  10d628:	f2 48 0f 2a c0       	cvtsi2sd %rax,%xmm0
  10d62d:	eb 15                	jmp    10d644 <_Z14InitialiseRSDPP10KernelInfo+0x59a>
  10d62f:	48 89 c2             	mov    %rax,%rdx
  10d632:	48 d1 ea             	shr    %rdx
  10d635:	83 e0 01             	and    $0x1,%eax
  10d638:	48 09 c2             	or     %rax,%rdx
  10d63b:	f2 48 0f 2a c2       	cvtsi2sd %rdx,%xmm0
  10d640:	f2 0f 58 c0          	addsd  %xmm0,%xmm0
  10d644:	f2 0f 10 0d dc 42 00 	movsd  0x42dc(%rip),%xmm1        # 111928 <_ZL8sc_ascii+0x868>
  10d64b:	00 
  10d64c:	f2 0f 5e c1          	divsd  %xmm1,%xmm0
  10d650:	f2 0f 11 85 58 ff ff 	movsd  %xmm0,-0xa8(%rbp)
  10d657:	ff 
  10d658:	f2 0f 10 45 80       	movsd  -0x80(%rbp),%xmm0
  10d65d:	f2 0f 58 85 70 ff ff 	addsd  -0x90(%rbp),%xmm0
  10d664:	ff 
  10d665:	f2 0f 10 8d 60 ff ff 	movsd  -0xa0(%rbp),%xmm1
  10d66c:	ff 
  10d66d:	f2 0f 58 c1          	addsd  %xmm1,%xmm0
  10d671:	f2 0f 11 85 50 ff ff 	movsd  %xmm0,-0xb0(%rbp)
  10d678:	ff 
  10d679:	48 8d 3d d6 40 00 00 	lea    0x40d6(%rip),%rdi        # 111756 <_ZL8sc_ascii+0x696>
  10d680:	b8 00 00 00 00       	mov    $0x0,%eax
  10d685:	e8 a2 f3 ff ff       	callq  10ca2c <_Z7kprintfPKcz>
  10d68a:	48 8b 45 98          	mov    -0x68(%rbp),%rax
  10d68e:	48 c1 e8 0a          	shr    $0xa,%rax
  10d692:	48 89 c1             	mov    %rax,%rcx
  10d695:	f2 0f 10 85 78 ff ff 	movsd  -0x88(%rbp),%xmm0
  10d69c:	ff 
  10d69d:	48 8b 55 80          	mov    -0x80(%rbp),%rdx
  10d6a1:	48 8b 45 98          	mov    -0x68(%rbp),%rax
  10d6a5:	66 0f 28 c8          	movapd %xmm0,%xmm1
  10d6a9:	66 48 0f 6e c2       	movq   %rdx,%xmm0
  10d6ae:	48 89 ca             	mov    %rcx,%rdx
  10d6b1:	48 89 c6             	mov    %rax,%rsi
  10d6b4:	48 8d 3d ad 40 00 00 	lea    0x40ad(%rip),%rdi        # 111768 <_ZL8sc_ascii+0x6a8>
  10d6bb:	b8 02 00 00 00       	mov    $0x2,%eax
  10d6c0:	e8 67 f3 ff ff       	callq  10ca2c <_Z7kprintfPKcz>
  10d6c5:	48 8b 45 90          	mov    -0x70(%rbp),%rax
  10d6c9:	48 c1 e8 0a          	shr    $0xa,%rax
  10d6cd:	48 89 c1             	mov    %rax,%rcx
  10d6d0:	f2 0f 10 85 68 ff ff 	movsd  -0x98(%rbp),%xmm0
  10d6d7:	ff 
  10d6d8:	48 8b 95 70 ff ff ff 	mov    -0x90(%rbp),%rdx
  10d6df:	48 8b 45 90          	mov    -0x70(%rbp),%rax
  10d6e3:	66 0f 28 c8          	movapd %xmm0,%xmm1
  10d6e7:	66 48 0f 6e c2       	movq   %rdx,%xmm0
  10d6ec:	48 89 ca             	mov    %rcx,%rdx
  10d6ef:	48 89 c6             	mov    %rax,%rsi
  10d6f2:	48 8d 3d b7 40 00 00 	lea    0x40b7(%rip),%rdi        # 1117b0 <_ZL8sc_ascii+0x6f0>
  10d6f9:	b8 02 00 00 00       	mov    $0x2,%eax
  10d6fe:	e8 29 f3 ff ff       	callq  10ca2c <_Z7kprintfPKcz>
  10d703:	48 8b 45 88          	mov    -0x78(%rbp),%rax
  10d707:	48 c1 e8 0a          	shr    $0xa,%rax
  10d70b:	48 89 c1             	mov    %rax,%rcx
  10d70e:	f2 0f 10 85 58 ff ff 	movsd  -0xa8(%rbp),%xmm0
  10d715:	ff 
  10d716:	48 8b 95 60 ff ff ff 	mov    -0xa0(%rbp),%rdx
  10d71d:	48 8b 45 88          	mov    -0x78(%rbp),%rax
  10d721:	66 0f 28 c8          	movapd %xmm0,%xmm1
  10d725:	66 48 0f 6e c2       	movq   %rdx,%xmm0
  10d72a:	48 89 ca             	mov    %rcx,%rdx
  10d72d:	48 89 c6             	mov    %rax,%rsi
  10d730:	48 8d 3d c1 40 00 00 	lea    0x40c1(%rip),%rdi        # 1117f8 <_ZL8sc_ascii+0x738>
  10d737:	b8 02 00 00 00       	mov    $0x2,%eax
  10d73c:	e8 eb f2 ff ff       	callq  10ca2c <_Z7kprintfPKcz>
  10d741:	48 8b 85 50 ff ff ff 	mov    -0xb0(%rbp),%rax
  10d748:	66 48 0f 6e c0       	movq   %rax,%xmm0
  10d74d:	48 8d 3d f4 40 00 00 	lea    0x40f4(%rip),%rdi        # 111848 <_ZL8sc_ascii+0x788>
  10d754:	b8 01 00 00 00       	mov    $0x1,%eax
  10d759:	e8 ce f2 ff ff       	callq  10ca2c <_Z7kprintfPKcz>
  10d75e:	48 83 7d b8 00       	cmpq   $0x0,-0x48(%rbp)
  10d763:	74 2e                	je     10d793 <_Z14InitialiseRSDPP10KernelInfo+0x6e9>
  10d765:	48 8d 3d 02 41 00 00 	lea    0x4102(%rip),%rdi        # 11186e <_ZL8sc_ascii+0x7ae>
  10d76c:	b8 00 00 00 00       	mov    $0x0,%eax
  10d771:	e8 b6 f2 ff ff       	callq  10ca2c <_Z7kprintfPKcz>
  10d776:	48 8b 45 b8          	mov    -0x48(%rbp),%rax
  10d77a:	48 89 c7             	mov    %rax,%rdi
  10d77d:	e8 f0 69 ff ff       	callq  104172 <_ZN3PCI12EnumeratePCIEPN4ACPI10MCFGHeaderE>
  10d782:	48 8d 3d 7c 3e 00 00 	lea    0x3e7c(%rip),%rdi        # 111605 <_ZL8sc_ascii+0x545>
  10d789:	b8 00 00 00 00       	mov    $0x0,%eax
  10d78e:	e8 99 f2 ff ff       	callq  10ca2c <_Z7kprintfPKcz>
  10d793:	48 83 7d b0 00       	cmpq   $0x0,-0x50(%rbp)
  10d798:	74 1a                	je     10d7b4 <_Z14InitialiseRSDPP10KernelInfo+0x70a>
  10d79a:	48 8b 45 b0          	mov    -0x50(%rbp),%rax
  10d79e:	48 89 85 48 ff ff ff 	mov    %rax,-0xb8(%rbp)
  10d7a5:	48 8b 85 48 ff ff ff 	mov    -0xb8(%rbp),%rax
  10d7ac:	48 89 c7             	mov    %rax,%rdi
  10d7af:	e8 7a 65 ff ff       	callq  103d2e <_ZN4ACPI4MADT11DetectCoresEv>
  10d7b4:	90                   	nop
  10d7b5:	c9                   	leaveq 
  10d7b6:	c3                   	retq   

000000000010d7b7 <_Z17InitialiseDisplayP10KernelInfo>:
  10d7b7:	f3 0f 1e fa          	endbr64 
  10d7bb:	55                   	push   %rbp
  10d7bc:	48 89 e5             	mov    %rsp,%rbp
  10d7bf:	48 83 ec 20          	sub    $0x20,%rsp
  10d7c3:	48 89 7d e8          	mov    %rdi,-0x18(%rbp)
  10d7c7:	48 8b 45 e8          	mov    -0x18(%rbp),%rax
  10d7cb:	0f b6 40 3a          	movzbl 0x3a(%rax),%eax
  10d7cf:	3c 01                	cmp    $0x1,%al
  10d7d1:	0f 95 c0             	setne  %al
  10d7d4:	88 05 86 a2 00 00    	mov    %al,0xa286(%rip)        # 117a60 <fromUEFI>
  10d7da:	fa                   	cli    
  10d7db:	e8 cb 45 ff ff       	callq  101dab <_Z13InitialiseGDTv>
  10d7e0:	48 8b 45 e8          	mov    -0x18(%rbp),%rax
  10d7e4:	0f b6 40 38          	movzbl 0x38(%rax),%eax
  10d7e8:	0f b6 d0             	movzbl %al,%edx
  10d7eb:	48 8b 45 e8          	mov    -0x18(%rbp),%rax
  10d7ef:	48 8b 48 20          	mov    0x20(%rax),%rcx
  10d7f3:	48 8d 45 f0          	lea    -0x10(%rbp),%rax
  10d7f7:	48 89 ce             	mov    %rcx,%rsi
  10d7fa:	48 89 c7             	mov    %rax,%rdi
  10d7fd:	e8 c8 12 00 00       	callq  10eaca <_ZN9MemoryMapC1EP14MemoryMapEntrym>
  10d802:	48 8b 45 f0          	mov    -0x10(%rbp),%rax
  10d806:	48 8b 55 f8          	mov    -0x8(%rbp),%rdx
  10d80a:	48 89 05 5f a2 00 00 	mov    %rax,0xa25f(%rip)        # 117a70 <_map>
  10d811:	48 89 15 60 a2 00 00 	mov    %rdx,0xa260(%rip)        # 117a78 <_map+0x8>
  10d818:	e8 98 48 ff ff       	callq  1020b5 <_Z13InitialiseIDTv>
  10d81d:	48 8b 05 54 1c 00 00 	mov    0x1c54(%rip),%rax        # 10f478 <map>
  10d824:	48 89 c7             	mov    %rax,%rdi
  10d827:	e8 21 3d ff ff       	callq  10154d <_Z10InitPagingP9MemoryMap>
  10d82c:	48 8b 45 e8          	mov    -0x18(%rbp),%rax
  10d830:	48 8b 50 18          	mov    0x18(%rax),%rdx
  10d834:	48 83 ec 08          	sub    $0x8,%rsp
  10d838:	48 8b 45 e8          	mov    -0x18(%rbp),%rax
  10d83c:	ff 70 10             	pushq  0x10(%rax)
  10d83f:	ff 70 08             	pushq  0x8(%rax)
  10d842:	ff 30                	pushq  (%rax)
  10d844:	48 89 d7             	mov    %rdx,%rdi
  10d847:	e8 cb 7a ff ff       	callq  105317 <_Z17InitialiseDisplay11FramebufferP9psf1_font>
  10d84c:	48 83 c4 20          	add    $0x20,%rsp
  10d850:	e8 ce 7b ff ff       	callq  105423 <_Z6clrscrv>
  10d855:	48 8d 3d 2c 40 00 00 	lea    0x402c(%rip),%rdi        # 111888 <_ZL8sc_ascii+0x7c8>
  10d85c:	b8 00 00 00 00       	mov    $0x0,%eax
  10d861:	e8 c6 f1 ff ff       	callq  10ca2c <_Z7kprintfPKcz>
  10d866:	48 8b 45 e8          	mov    -0x18(%rbp),%rax
  10d86a:	8b 50 0c             	mov    0xc(%rax),%edx
  10d86d:	48 8b 45 e8          	mov    -0x18(%rbp),%rax
  10d871:	8b 40 08             	mov    0x8(%rax),%eax
  10d874:	89 c6                	mov    %eax,%esi
  10d876:	48 8d 3d 2a 40 00 00 	lea    0x402a(%rip),%rdi        # 1118a7 <_ZL8sc_ascii+0x7e7>
  10d87d:	b8 00 00 00 00       	mov    $0x0,%eax
  10d882:	e8 a5 f1 ff ff       	callq  10ca2c <_Z7kprintfPKcz>
  10d887:	90                   	nop
  10d888:	c9                   	leaveq 
  10d889:	c3                   	retq   

000000000010d88a <_Z20InitialiseFilesystemv>:
  10d88a:	f3 0f 1e fa          	endbr64 
  10d88e:	55                   	push   %rbp
  10d88f:	48 89 e5             	mov    %rsp,%rbp
  10d892:	48 83 ec 20          	sub    $0x20,%rsp
  10d896:	48 8d 45 e0          	lea    -0x20(%rbp),%rax
  10d89a:	48 89 c6             	mov    %rax,%rsi
  10d89d:	48 8d 3d 21 40 00 00 	lea    0x4021(%rip),%rdi        # 1118c5 <_ZL8sc_ascii+0x805>
  10d8a4:	e8 1b dd ff ff       	callq  10b5c4 <_Z11LoadProgramPKcPm>
  10d8a9:	48 89 45 f8          	mov    %rax,-0x8(%rbp)
  10d8ad:	48 83 7d f8 00       	cmpq   $0x0,-0x8(%rbp)
  10d8b2:	74 40                	je     10d8f4 <_Z20InitialiseFilesystemv+0x6a>
  10d8b4:	48 8b 55 e0          	mov    -0x20(%rbp),%rdx
  10d8b8:	48 8b 45 f8          	mov    -0x8(%rbp),%rax
  10d8bc:	48 89 d6             	mov    %rdx,%rsi
  10d8bf:	48 89 c7             	mov    %rax,%rdi
  10d8c2:	e8 0d de ff ff       	callq  10b6d4 <_Z14PrepareProgramP10Elf64_Ehdrm>
  10d8c7:	48 8b 45 f8          	mov    -0x8(%rbp),%rax
  10d8cb:	48 8b 40 18          	mov    0x18(%rax),%rax
  10d8cf:	48 89 45 f0          	mov    %rax,-0x10(%rbp)
  10d8d3:	48 8b 45 f0          	mov    -0x10(%rbp),%rax
  10d8d7:	ff d0                	callq  *%rax
  10d8d9:	89 45 ec             	mov    %eax,-0x14(%rbp)
  10d8dc:	8b 45 ec             	mov    -0x14(%rbp),%eax
  10d8df:	89 c6                	mov    %eax,%esi
  10d8e1:	48 8d 3d f8 3f 00 00 	lea    0x3ff8(%rip),%rdi        # 1118e0 <_ZL8sc_ascii+0x820>
  10d8e8:	b8 00 00 00 00       	mov    $0x0,%eax
  10d8ed:	e8 3a f1 ff ff       	callq  10ca2c <_Z7kprintfPKcz>
  10d8f2:	eb 01                	jmp    10d8f5 <_Z20InitialiseFilesystemv+0x6b>
  10d8f4:	90                   	nop
  10d8f5:	c9                   	leaveq 
  10d8f6:	c3                   	retq   

000000000010d8f7 <_Z16InitialiseKernelP10KernelInfo>:
  10d8f7:	f3 0f 1e fa          	endbr64 
  10d8fb:	55                   	push   %rbp
  10d8fc:	48 89 e5             	mov    %rsp,%rbp
  10d8ff:	53                   	push   %rbx
  10d900:	48 83 ec 18          	sub    $0x18,%rsp
  10d904:	48 89 7d e8          	mov    %rdi,-0x18(%rbp)
  10d908:	48 8d 3d f1 3f 00 00 	lea    0x3ff1(%rip),%rdi        # 111900 <_ZL8sc_ascii+0x840>
  10d90f:	b8 00 00 00 00       	mov    $0x0,%eax
  10d914:	e8 13 f1 ff ff       	callq  10ca2c <_Z7kprintfPKcz>
  10d919:	be 10 00 00 00       	mov    $0x10,%esi
  10d91e:	48 bf 00 00 00 00 00 	movabs $0x100000000000,%rdi
  10d925:	10 00 00 
  10d928:	e8 e7 5b ff ff       	callq  103514 <_Z14InitialiseHeapPvm>
  10d92d:	e8 d5 95 ff ff       	callq  106f07 <_Z17InitialiseDevicesv>
  10d932:	e8 f7 da ff ff       	callq  10b42e <_Z21InitialiseFilesystemsv>
  10d937:	48 8b 45 e8          	mov    -0x18(%rbp),%rax
  10d93b:	48 89 c7             	mov    %rax,%rdi
  10d93e:	e8 67 f7 ff ff       	callq  10d0aa <_Z14InitialiseRSDPP10KernelInfo>
  10d943:	bf 08 00 00 00       	mov    $0x8,%edi
  10d948:	e8 02 61 ff ff       	callq  103a4f <_Znwm>
  10d94d:	48 89 c3             	mov    %rax,%rbx
  10d950:	48 89 df             	mov    %rbx,%rdi
  10d953:	e8 68 13 00 00       	callq  10ecc0 <_ZN9ATADeviceC1Ev>
  10d958:	48 89 df             	mov    %rbx,%rdi
  10d95b:	e8 c8 95 ff ff       	callq  106f28 <_Z14RegisterDeviceP6Device>
  10d960:	48 8b 05 59 9d 00 00 	mov    0x9d59(%rip),%rax        # 1176c0 <devices>
  10d967:	48 89 c7             	mov    %rax,%rdi
  10d96a:	e8 97 96 ff ff       	callq  107006 <_Z22LocateFilesystemsFAT32P6Device>
  10d96f:	e8 16 ff ff ff       	callq  10d88a <_Z20InitialiseFilesystemv>
  10d974:	e8 48 50 ff ff       	callq  1029c1 <_Z15InitialiseShellv>
  10d979:	e8 7a 4e ff ff       	callq  1027f8 <_Z13InitialiseIRQv>
  10d97e:	e8 1f e7 ff ff       	callq  10c0a2 <_Z17InitialiseTaskingv>
  10d983:	90                   	nop
  10d984:	48 83 c4 18          	add    $0x18,%rsp
  10d988:	5b                   	pop    %rbx
  10d989:	5d                   	pop    %rbp
  10d98a:	c3                   	retq   

000000000010d98b <_Z41__static_initialization_and_destruction_0ii>:
  10d98b:	f3 0f 1e fa          	endbr64 
  10d98f:	55                   	push   %rbp
  10d990:	48 89 e5             	mov    %rsp,%rbp
  10d993:	48 83 ec 10          	sub    $0x10,%rsp
  10d997:	89 7d fc             	mov    %edi,-0x4(%rbp)
  10d99a:	89 75 f8             	mov    %esi,-0x8(%rbp)
  10d99d:	83 7d fc 01          	cmpl   $0x1,-0x4(%rbp)
  10d9a1:	75 1f                	jne    10d9c2 <_Z41__static_initialization_and_destruction_0ii+0x37>
  10d9a3:	81 7d f8 ff ff 00 00 	cmpl   $0xffff,-0x8(%rbp)
  10d9aa:	75 16                	jne    10d9c2 <_Z41__static_initialization_and_destruction_0ii+0x37>
  10d9ac:	ba 00 00 00 00       	mov    $0x0,%edx
  10d9b1:	be 00 00 00 00       	mov    $0x0,%esi
  10d9b6:	48 8d 3d b3 a0 00 00 	lea    0xa0b3(%rip),%rdi        # 117a70 <_map>
  10d9bd:	e8 08 11 00 00       	callq  10eaca <_ZN9MemoryMapC1EP14MemoryMapEntrym>
  10d9c2:	90                   	nop
  10d9c3:	c9                   	leaveq 
  10d9c4:	c3                   	retq   

000000000010d9c5 <_GLOBAL__sub_I_fromUEFI>:
  10d9c5:	f3 0f 1e fa          	endbr64 
  10d9c9:	55                   	push   %rbp
  10d9ca:	48 89 e5             	mov    %rsp,%rbp
  10d9cd:	be ff ff 00 00       	mov    $0xffff,%esi
  10d9d2:	bf 01 00 00 00       	mov    $0x1,%edi
  10d9d7:	e8 af ff ff ff       	callq  10d98b <_Z41__static_initialization_and_destruction_0ii>
  10d9dc:	5d                   	pop    %rbp
  10d9dd:	c3                   	retq   
  10d9de:	66 90                	xchg   %ax,%ax

000000000010d9e0 <__gdt_flush>:
  10d9e0:	0f 01 17             	lgdt   (%rdi)
  10d9e3:	66 b8 10 00          	mov    $0x10,%ax
  10d9e7:	8e d8                	mov    %eax,%ds
  10d9e9:	8e c0                	mov    %eax,%es
  10d9eb:	8e e0                	mov    %eax,%fs
  10d9ed:	8e e8                	mov    %eax,%gs
  10d9ef:	8e d0                	mov    %eax,%ss
  10d9f1:	5f                   	pop    %rdi
  10d9f2:	b8 08 00 00 00       	mov    $0x8,%eax
  10d9f7:	50                   	push   %rax
  10d9f8:	57                   	push   %rdi
  10d9f9:	48 cb                	lretq  

000000000010d9fb <__tss_flush>:
  10d9fb:	0f 00 df             	ltr    %di
  10d9fe:	c3                   	retq   
  10d9ff:	90                   	nop

000000000010da00 <__set_idt>:
  10da00:	48 89 f8             	mov    %rdi,%rax
  10da03:	0f 01 18             	lidt   (%rax)
  10da06:	c3                   	retq   

000000000010da07 <isr_common_stub>:
  10da07:	41 57                	push   %r15
  10da09:	41 56                	push   %r14
  10da0b:	41 55                	push   %r13
  10da0d:	41 54                	push   %r12
  10da0f:	41 53                	push   %r11
  10da11:	41 52                	push   %r10
  10da13:	41 51                	push   %r9
  10da15:	41 50                	push   %r8
  10da17:	50                   	push   %rax
  10da18:	51                   	push   %rcx
  10da19:	52                   	push   %rdx
  10da1a:	53                   	push   %rbx
  10da1b:	54                   	push   %rsp
  10da1c:	55                   	push   %rbp
  10da1d:	56                   	push   %rsi
  10da1e:	57                   	push   %rdi
  10da1f:	48 81 ec 00 01 00 00 	sub    $0x100,%rsp
  10da26:	66 44 0f 7f bc 24 f0 	movdqa %xmm15,0xf0(%rsp)
  10da2d:	00 00 00 
  10da30:	66 44 0f 7f b4 24 e0 	movdqa %xmm14,0xe0(%rsp)
  10da37:	00 00 00 
  10da3a:	66 44 0f 7f ac 24 d0 	movdqa %xmm13,0xd0(%rsp)
  10da41:	00 00 00 
  10da44:	66 44 0f 7f a4 24 c0 	movdqa %xmm12,0xc0(%rsp)
  10da4b:	00 00 00 
  10da4e:	66 44 0f 7f 9c 24 b0 	movdqa %xmm11,0xb0(%rsp)
  10da55:	00 00 00 
  10da58:	66 44 0f 7f 94 24 a0 	movdqa %xmm10,0xa0(%rsp)
  10da5f:	00 00 00 
  10da62:	66 44 0f 7f 8c 24 90 	movdqa %xmm9,0x90(%rsp)
  10da69:	00 00 00 
  10da6c:	66 44 0f 7f 84 24 80 	movdqa %xmm8,0x80(%rsp)
  10da73:	00 00 00 
  10da76:	66 0f 7f 7c 24 70    	movdqa %xmm7,0x70(%rsp)
  10da7c:	66 0f 7f 74 24 60    	movdqa %xmm6,0x60(%rsp)
  10da82:	66 0f 7f 6c 24 50    	movdqa %xmm5,0x50(%rsp)
  10da88:	66 0f 7f 64 24 40    	movdqa %xmm4,0x40(%rsp)
  10da8e:	66 0f 7f 5c 24 30    	movdqa %xmm3,0x30(%rsp)
  10da94:	66 0f 7f 54 24 20    	movdqa %xmm2,0x20(%rsp)
  10da9a:	66 0f 7f 4c 24 10    	movdqa %xmm1,0x10(%rsp)
  10daa0:	66 0f 7f 04 24       	movdqa %xmm0,(%rsp)
  10daa5:	48 89 e7             	mov    %rsp,%rdi
  10daa8:	48 83 ec 28          	sub    $0x28,%rsp
  10daac:	fc                   	cld    
  10daad:	e8 a2 4d ff ff       	callq  102854 <ISRHandler>
  10dab2:	48 83 c4 28          	add    $0x28,%rsp
  10dab6:	66 44 0f 6f bc 24 f0 	movdqa 0xf0(%rsp),%xmm15
  10dabd:	00 00 00 
  10dac0:	66 44 0f 6f b4 24 e0 	movdqa 0xe0(%rsp),%xmm14
  10dac7:	00 00 00 
  10daca:	66 44 0f 6f ac 24 d0 	movdqa 0xd0(%rsp),%xmm13
  10dad1:	00 00 00 
  10dad4:	66 44 0f 6f a4 24 c0 	movdqa 0xc0(%rsp),%xmm12
  10dadb:	00 00 00 
  10dade:	66 44 0f 6f a4 24 b0 	movdqa 0xb0(%rsp),%xmm12
  10dae5:	00 00 00 
  10dae8:	66 44 0f 6f 94 24 a0 	movdqa 0xa0(%rsp),%xmm10
  10daef:	00 00 00 
  10daf2:	66 44 0f 6f 8c 24 90 	movdqa 0x90(%rsp),%xmm9
  10daf9:	00 00 00 
  10dafc:	66 44 0f 6f 84 24 80 	movdqa 0x80(%rsp),%xmm8
  10db03:	00 00 00 
  10db06:	66 0f 6f 7c 24 70    	movdqa 0x70(%rsp),%xmm7
  10db0c:	66 0f 6f 74 24 60    	movdqa 0x60(%rsp),%xmm6
  10db12:	66 0f 6f 6c 24 50    	movdqa 0x50(%rsp),%xmm5
  10db18:	66 0f 6f 64 24 40    	movdqa 0x40(%rsp),%xmm4
  10db1e:	66 0f 6f 5c 24 30    	movdqa 0x30(%rsp),%xmm3
  10db24:	66 0f 6f 54 24 20    	movdqa 0x20(%rsp),%xmm2
  10db2a:	66 0f 6f 4c 24 10    	movdqa 0x10(%rsp),%xmm1
  10db30:	66 0f 6f 04 24       	movdqa (%rsp),%xmm0
  10db35:	48 81 c4 00 01 00 00 	add    $0x100,%rsp
  10db3c:	5f                   	pop    %rdi
  10db3d:	5e                   	pop    %rsi
  10db3e:	5d                   	pop    %rbp
  10db3f:	48 83 c4 08          	add    $0x8,%rsp
  10db43:	5b                   	pop    %rbx
  10db44:	5a                   	pop    %rdx
  10db45:	59                   	pop    %rcx
  10db46:	58                   	pop    %rax
  10db47:	41 58                	pop    %r8
  10db49:	41 59                	pop    %r9
  10db4b:	41 5a                	pop    %r10
  10db4d:	41 5b                	pop    %r11
  10db4f:	41 5c                	pop    %r12
  10db51:	41 5d                	pop    %r13
  10db53:	41 5e                	pop    %r14
  10db55:	41 5f                	pop    %r15
  10db57:	48 83 c4 10          	add    $0x10,%rsp
  10db5b:	48 cf                	iretq  

000000000010db5d <irq_common_stub>:
  10db5d:	41 57                	push   %r15
  10db5f:	41 56                	push   %r14
  10db61:	41 55                	push   %r13
  10db63:	41 54                	push   %r12
  10db65:	41 53                	push   %r11
  10db67:	41 52                	push   %r10
  10db69:	41 51                	push   %r9
  10db6b:	41 50                	push   %r8
  10db6d:	50                   	push   %rax
  10db6e:	51                   	push   %rcx
  10db6f:	52                   	push   %rdx
  10db70:	53                   	push   %rbx
  10db71:	54                   	push   %rsp
  10db72:	55                   	push   %rbp
  10db73:	56                   	push   %rsi
  10db74:	57                   	push   %rdi
  10db75:	48 81 ec 00 01 00 00 	sub    $0x100,%rsp
  10db7c:	66 44 0f 7f bc 24 f0 	movdqa %xmm15,0xf0(%rsp)
  10db83:	00 00 00 
  10db86:	66 44 0f 7f b4 24 e0 	movdqa %xmm14,0xe0(%rsp)
  10db8d:	00 00 00 
  10db90:	66 44 0f 7f ac 24 d0 	movdqa %xmm13,0xd0(%rsp)
  10db97:	00 00 00 
  10db9a:	66 44 0f 7f a4 24 c0 	movdqa %xmm12,0xc0(%rsp)
  10dba1:	00 00 00 
  10dba4:	66 44 0f 7f 9c 24 b0 	movdqa %xmm11,0xb0(%rsp)
  10dbab:	00 00 00 
  10dbae:	66 44 0f 7f 94 24 a0 	movdqa %xmm10,0xa0(%rsp)
  10dbb5:	00 00 00 
  10dbb8:	66 44 0f 7f 8c 24 90 	movdqa %xmm9,0x90(%rsp)
  10dbbf:	00 00 00 
  10dbc2:	66 44 0f 7f 84 24 80 	movdqa %xmm8,0x80(%rsp)
  10dbc9:	00 00 00 
  10dbcc:	66 0f 7f 7c 24 70    	movdqa %xmm7,0x70(%rsp)
  10dbd2:	66 0f 7f 74 24 60    	movdqa %xmm6,0x60(%rsp)
  10dbd8:	66 0f 7f 6c 24 50    	movdqa %xmm5,0x50(%rsp)
  10dbde:	66 0f 7f 64 24 40    	movdqa %xmm4,0x40(%rsp)
  10dbe4:	66 0f 7f 5c 24 30    	movdqa %xmm3,0x30(%rsp)
  10dbea:	66 0f 7f 54 24 20    	movdqa %xmm2,0x20(%rsp)
  10dbf0:	66 0f 7f 4c 24 10    	movdqa %xmm1,0x10(%rsp)
  10dbf6:	66 0f 7f 04 24       	movdqa %xmm0,(%rsp)
  10dbfb:	48 89 e7             	mov    %rsp,%rdi
  10dbfe:	48 83 ec 28          	sub    $0x28,%rsp
  10dc02:	fc                   	cld    
  10dc03:	e8 d4 4c ff ff       	callq  1028dc <IRQHandler>
  10dc08:	48 83 c4 28          	add    $0x28,%rsp
  10dc0c:	66 44 0f 6f bc 24 f0 	movdqa 0xf0(%rsp),%xmm15
  10dc13:	00 00 00 
  10dc16:	66 44 0f 6f b4 24 e0 	movdqa 0xe0(%rsp),%xmm14
  10dc1d:	00 00 00 
  10dc20:	66 44 0f 6f ac 24 d0 	movdqa 0xd0(%rsp),%xmm13
  10dc27:	00 00 00 
  10dc2a:	66 44 0f 6f a4 24 c0 	movdqa 0xc0(%rsp),%xmm12
  10dc31:	00 00 00 
  10dc34:	66 44 0f 6f a4 24 b0 	movdqa 0xb0(%rsp),%xmm12
  10dc3b:	00 00 00 
  10dc3e:	66 44 0f 6f 94 24 a0 	movdqa 0xa0(%rsp),%xmm10
  10dc45:	00 00 00 
  10dc48:	66 44 0f 6f 8c 24 90 	movdqa 0x90(%rsp),%xmm9
  10dc4f:	00 00 00 
  10dc52:	66 44 0f 6f 84 24 80 	movdqa 0x80(%rsp),%xmm8
  10dc59:	00 00 00 
  10dc5c:	66 0f 6f 7c 24 70    	movdqa 0x70(%rsp),%xmm7
  10dc62:	66 0f 6f 74 24 60    	movdqa 0x60(%rsp),%xmm6
  10dc68:	66 0f 6f 6c 24 50    	movdqa 0x50(%rsp),%xmm5
  10dc6e:	66 0f 6f 64 24 40    	movdqa 0x40(%rsp),%xmm4
  10dc74:	66 0f 6f 5c 24 30    	movdqa 0x30(%rsp),%xmm3
  10dc7a:	66 0f 6f 54 24 20    	movdqa 0x20(%rsp),%xmm2
  10dc80:	66 0f 6f 4c 24 10    	movdqa 0x10(%rsp),%xmm1
  10dc86:	66 0f 6f 04 24       	movdqa (%rsp),%xmm0
  10dc8b:	48 81 c4 00 01 00 00 	add    $0x100,%rsp
  10dc92:	5f                   	pop    %rdi
  10dc93:	5e                   	pop    %rsi
  10dc94:	5d                   	pop    %rbp
  10dc95:	48 83 c4 08          	add    $0x8,%rsp
  10dc99:	5b                   	pop    %rbx
  10dc9a:	5a                   	pop    %rdx
  10dc9b:	59                   	pop    %rcx
  10dc9c:	58                   	pop    %rax
  10dc9d:	41 58                	pop    %r8
  10dc9f:	41 59                	pop    %r9
  10dca1:	41 5a                	pop    %r10
  10dca3:	41 5b                	pop    %r11
  10dca5:	41 5c                	pop    %r12
  10dca7:	41 5d                	pop    %r13
  10dca9:	41 5e                	pop    %r14
  10dcab:	41 5f                	pop    %r15
  10dcad:	48 83 c4 10          	add    $0x10,%rsp
  10dcb1:	48 cf                	iretq  

000000000010dcb3 <isr0>:
  10dcb3:	6a 00                	pushq  $0x0
  10dcb5:	6a 00                	pushq  $0x0
  10dcb7:	e9 4b fd ff ff       	jmpq   10da07 <isr_common_stub>

000000000010dcbc <isr1>:
  10dcbc:	6a 00                	pushq  $0x0
  10dcbe:	6a 01                	pushq  $0x1
  10dcc0:	e9 42 fd ff ff       	jmpq   10da07 <isr_common_stub>

000000000010dcc5 <isr2>:
  10dcc5:	6a 00                	pushq  $0x0
  10dcc7:	6a 02                	pushq  $0x2
  10dcc9:	e9 39 fd ff ff       	jmpq   10da07 <isr_common_stub>

000000000010dcce <isr3>:
  10dcce:	6a 00                	pushq  $0x0
  10dcd0:	6a 03                	pushq  $0x3
  10dcd2:	e9 30 fd ff ff       	jmpq   10da07 <isr_common_stub>

000000000010dcd7 <isr4>:
  10dcd7:	6a 00                	pushq  $0x0
  10dcd9:	6a 04                	pushq  $0x4
  10dcdb:	e9 27 fd ff ff       	jmpq   10da07 <isr_common_stub>

000000000010dce0 <isr5>:
  10dce0:	6a 00                	pushq  $0x0
  10dce2:	6a 05                	pushq  $0x5
  10dce4:	e9 1e fd ff ff       	jmpq   10da07 <isr_common_stub>

000000000010dce9 <isr6>:
  10dce9:	6a 00                	pushq  $0x0
  10dceb:	6a 06                	pushq  $0x6
  10dced:	e9 15 fd ff ff       	jmpq   10da07 <isr_common_stub>

000000000010dcf2 <isr7>:
  10dcf2:	6a 00                	pushq  $0x0
  10dcf4:	6a 07                	pushq  $0x7
  10dcf6:	e9 0c fd ff ff       	jmpq   10da07 <isr_common_stub>

000000000010dcfb <isr8>:
  10dcfb:	6a 08                	pushq  $0x8
  10dcfd:	e9 05 fd ff ff       	jmpq   10da07 <isr_common_stub>

000000000010dd02 <isr9>:
  10dd02:	6a 00                	pushq  $0x0
  10dd04:	6a 09                	pushq  $0x9
  10dd06:	e9 fc fc ff ff       	jmpq   10da07 <isr_common_stub>

000000000010dd0b <isr10>:
  10dd0b:	6a 0a                	pushq  $0xa
  10dd0d:	e9 f5 fc ff ff       	jmpq   10da07 <isr_common_stub>

000000000010dd12 <isr11>:
  10dd12:	6a 0b                	pushq  $0xb
  10dd14:	e9 ee fc ff ff       	jmpq   10da07 <isr_common_stub>

000000000010dd19 <isr12>:
  10dd19:	6a 0c                	pushq  $0xc
  10dd1b:	e9 e7 fc ff ff       	jmpq   10da07 <isr_common_stub>

000000000010dd20 <isr13>:
  10dd20:	6a 0d                	pushq  $0xd
  10dd22:	e9 e0 fc ff ff       	jmpq   10da07 <isr_common_stub>

000000000010dd27 <isr14>:
  10dd27:	6a 0e                	pushq  $0xe
  10dd29:	e9 d9 fc ff ff       	jmpq   10da07 <isr_common_stub>

000000000010dd2e <isr15>:
  10dd2e:	6a 0f                	pushq  $0xf
  10dd30:	e9 d2 fc ff ff       	jmpq   10da07 <isr_common_stub>

000000000010dd35 <isr16>:
  10dd35:	6a 10                	pushq  $0x10
  10dd37:	e9 cb fc ff ff       	jmpq   10da07 <isr_common_stub>

000000000010dd3c <isr17>:
  10dd3c:	6a 11                	pushq  $0x11
  10dd3e:	e9 c4 fc ff ff       	jmpq   10da07 <isr_common_stub>

000000000010dd43 <isr18>:
  10dd43:	6a 12                	pushq  $0x12
  10dd45:	e9 bd fc ff ff       	jmpq   10da07 <isr_common_stub>

000000000010dd4a <isr19>:
  10dd4a:	6a 13                	pushq  $0x13
  10dd4c:	e9 b6 fc ff ff       	jmpq   10da07 <isr_common_stub>

000000000010dd51 <isr20>:
  10dd51:	6a 14                	pushq  $0x14
  10dd53:	e9 af fc ff ff       	jmpq   10da07 <isr_common_stub>

000000000010dd58 <isr21>:
  10dd58:	6a 15                	pushq  $0x15
  10dd5a:	e9 a8 fc ff ff       	jmpq   10da07 <isr_common_stub>

000000000010dd5f <isr22>:
  10dd5f:	6a 16                	pushq  $0x16
  10dd61:	e9 a1 fc ff ff       	jmpq   10da07 <isr_common_stub>

000000000010dd66 <isr23>:
  10dd66:	6a 17                	pushq  $0x17
  10dd68:	e9 9a fc ff ff       	jmpq   10da07 <isr_common_stub>

000000000010dd6d <isr24>:
  10dd6d:	6a 18                	pushq  $0x18
  10dd6f:	e9 93 fc ff ff       	jmpq   10da07 <isr_common_stub>

000000000010dd74 <isr25>:
  10dd74:	6a 19                	pushq  $0x19
  10dd76:	e9 8c fc ff ff       	jmpq   10da07 <isr_common_stub>

000000000010dd7b <isr26>:
  10dd7b:	6a 1a                	pushq  $0x1a
  10dd7d:	e9 85 fc ff ff       	jmpq   10da07 <isr_common_stub>

000000000010dd82 <isr27>:
  10dd82:	6a 1b                	pushq  $0x1b
  10dd84:	e9 7e fc ff ff       	jmpq   10da07 <isr_common_stub>

000000000010dd89 <isr28>:
  10dd89:	6a 1c                	pushq  $0x1c
  10dd8b:	e9 77 fc ff ff       	jmpq   10da07 <isr_common_stub>

000000000010dd90 <isr29>:
  10dd90:	6a 1d                	pushq  $0x1d
  10dd92:	e9 70 fc ff ff       	jmpq   10da07 <isr_common_stub>

000000000010dd97 <isr30>:
  10dd97:	6a 1e                	pushq  $0x1e
  10dd99:	e9 69 fc ff ff       	jmpq   10da07 <isr_common_stub>

000000000010dd9e <isr31>:
  10dd9e:	6a 1f                	pushq  $0x1f
  10dda0:	e9 62 fc ff ff       	jmpq   10da07 <isr_common_stub>

000000000010dda5 <irq0>:
  10dda5:	6a 00                	pushq  $0x0
  10dda7:	6a 20                	pushq  $0x20
  10dda9:	e9 af fd ff ff       	jmpq   10db5d <irq_common_stub>

000000000010ddae <irq1>:
  10ddae:	6a 00                	pushq  $0x0
  10ddb0:	6a 21                	pushq  $0x21
  10ddb2:	e9 a6 fd ff ff       	jmpq   10db5d <irq_common_stub>

000000000010ddb7 <irq2>:
  10ddb7:	6a 00                	pushq  $0x0
  10ddb9:	6a 22                	pushq  $0x22
  10ddbb:	e9 9d fd ff ff       	jmpq   10db5d <irq_common_stub>

000000000010ddc0 <irq3>:
  10ddc0:	6a 00                	pushq  $0x0
  10ddc2:	6a 23                	pushq  $0x23
  10ddc4:	e9 94 fd ff ff       	jmpq   10db5d <irq_common_stub>

000000000010ddc9 <irq4>:
  10ddc9:	6a 00                	pushq  $0x0
  10ddcb:	6a 24                	pushq  $0x24
  10ddcd:	e9 8b fd ff ff       	jmpq   10db5d <irq_common_stub>

000000000010ddd2 <irq5>:
  10ddd2:	6a 00                	pushq  $0x0
  10ddd4:	6a 25                	pushq  $0x25
  10ddd6:	e9 82 fd ff ff       	jmpq   10db5d <irq_common_stub>

000000000010dddb <irq6>:
  10dddb:	6a 00                	pushq  $0x0
  10dddd:	6a 26                	pushq  $0x26
  10dddf:	e9 79 fd ff ff       	jmpq   10db5d <irq_common_stub>

000000000010dde4 <irq7>:
  10dde4:	6a 00                	pushq  $0x0
  10dde6:	6a 27                	pushq  $0x27
  10dde8:	e9 70 fd ff ff       	jmpq   10db5d <irq_common_stub>

000000000010dded <irq8>:
  10dded:	6a 00                	pushq  $0x0
  10ddef:	6a 28                	pushq  $0x28
  10ddf1:	e9 67 fd ff ff       	jmpq   10db5d <irq_common_stub>

000000000010ddf6 <irq9>:
  10ddf6:	6a 00                	pushq  $0x0
  10ddf8:	6a 29                	pushq  $0x29
  10ddfa:	e9 5e fd ff ff       	jmpq   10db5d <irq_common_stub>

000000000010ddff <irq10>:
  10ddff:	6a 00                	pushq  $0x0
  10de01:	6a 2a                	pushq  $0x2a
  10de03:	e9 55 fd ff ff       	jmpq   10db5d <irq_common_stub>

000000000010de08 <irq11>:
  10de08:	6a 00                	pushq  $0x0
  10de0a:	6a 2b                	pushq  $0x2b
  10de0c:	e9 4c fd ff ff       	jmpq   10db5d <irq_common_stub>

000000000010de11 <irq12>:
  10de11:	6a 00                	pushq  $0x0
  10de13:	6a 2c                	pushq  $0x2c
  10de15:	e9 43 fd ff ff       	jmpq   10db5d <irq_common_stub>

000000000010de1a <irq13>:
  10de1a:	6a 00                	pushq  $0x0
  10de1c:	6a 2d                	pushq  $0x2d
  10de1e:	e9 3a fd ff ff       	jmpq   10db5d <irq_common_stub>

000000000010de23 <irq14>:
  10de23:	6a 00                	pushq  $0x0
  10de25:	6a 2e                	pushq  $0x2e
  10de27:	e9 31 fd ff ff       	jmpq   10db5d <irq_common_stub>

000000000010de2c <irq15>:
  10de2c:	6a 00                	pushq  $0x0
  10de2e:	6a 2f                	pushq  $0x2f
  10de30:	e9 28 fd ff ff       	jmpq   10db5d <irq_common_stub>
  10de35:	66 2e 0f 1f 84 00 00 	nopw   %cs:0x0(%rax,%rax,1)
  10de3c:	00 00 00 
  10de3f:	90                   	nop

000000000010de40 <StartProcess>:
  10de40:	48 89 ec             	mov    %rbp,%rsp
  10de43:	5d                   	pop    %rbp
  10de44:	48 89 ec             	mov    %rbp,%rsp
  10de47:	5d                   	pop    %rbp
  10de48:	48 89 ec             	mov    %rbp,%rsp
  10de4b:	5d                   	pop    %rbp
  10de4c:	58                   	pop    %rax
  10de4d:	48 83 c4 28          	add    $0x28,%rsp
  10de51:	48 89 26             	mov    %rsp,(%rsi)
  10de54:	0f 22 da             	mov    %rdx,%cr3
  10de57:	48 89 fc             	mov    %rdi,%rsp
  10de5a:	66 44 0f 6f bc 24 f0 	movdqa 0xf0(%rsp),%xmm15
  10de61:	00 00 00 
  10de64:	66 44 0f 6f b4 24 e0 	movdqa 0xe0(%rsp),%xmm14
  10de6b:	00 00 00 
  10de6e:	66 44 0f 6f ac 24 d0 	movdqa 0xd0(%rsp),%xmm13
  10de75:	00 00 00 
  10de78:	66 44 0f 6f a4 24 c0 	movdqa 0xc0(%rsp),%xmm12
  10de7f:	00 00 00 
  10de82:	66 44 0f 6f a4 24 b0 	movdqa 0xb0(%rsp),%xmm12
  10de89:	00 00 00 
  10de8c:	66 44 0f 6f 94 24 a0 	movdqa 0xa0(%rsp),%xmm10
  10de93:	00 00 00 
  10de96:	66 44 0f 6f 8c 24 90 	movdqa 0x90(%rsp),%xmm9
  10de9d:	00 00 00 
  10dea0:	66 44 0f 6f 84 24 80 	movdqa 0x80(%rsp),%xmm8
  10dea7:	00 00 00 
  10deaa:	66 0f 6f 7c 24 70    	movdqa 0x70(%rsp),%xmm7
  10deb0:	66 0f 6f 74 24 60    	movdqa 0x60(%rsp),%xmm6
  10deb6:	66 0f 6f 6c 24 50    	movdqa 0x50(%rsp),%xmm5
  10debc:	66 0f 6f 64 24 40    	movdqa 0x40(%rsp),%xmm4
  10dec2:	66 0f 6f 5c 24 30    	movdqa 0x30(%rsp),%xmm3
  10dec8:	66 0f 6f 54 24 20    	movdqa 0x20(%rsp),%xmm2
  10dece:	66 0f 6f 4c 24 10    	movdqa 0x10(%rsp),%xmm1
  10ded4:	66 0f 6f 04 24       	movdqa (%rsp),%xmm0
  10ded9:	48 81 c4 00 01 00 00 	add    $0x100,%rsp
  10dee0:	5f                   	pop    %rdi
  10dee1:	5e                   	pop    %rsi
  10dee2:	5d                   	pop    %rbp
  10dee3:	48 83 c4 08          	add    $0x8,%rsp
  10dee7:	5b                   	pop    %rbx
  10dee8:	5a                   	pop    %rdx
  10dee9:	59                   	pop    %rcx
  10deea:	58                   	pop    %rax
  10deeb:	41 58                	pop    %r8
  10deed:	41 59                	pop    %r9
  10deef:	41 5a                	pop    %r10
  10def1:	41 5b                	pop    %r11
  10def3:	41 5c                	pop    %r12
  10def5:	41 5d                	pop    %r13
  10def7:	41 5e                	pop    %r14
  10def9:	41 5f                	pop    %r15
  10defb:	48 83 c4 10          	add    $0x10,%rsp
  10deff:	fb                   	sti    
  10df00:	48 cf                	iretq  

000000000010df02 <StartProcess_FirstTime>:
  10df02:	0f 22 de             	mov    %rsi,%cr3
  10df05:	48 89 fc             	mov    %rdi,%rsp
  10df08:	66 44 0f 6f bc 24 f0 	movdqa 0xf0(%rsp),%xmm15
  10df0f:	00 00 00 
  10df12:	66 44 0f 6f b4 24 e0 	movdqa 0xe0(%rsp),%xmm14
  10df19:	00 00 00 
  10df1c:	66 44 0f 6f ac 24 d0 	movdqa 0xd0(%rsp),%xmm13
  10df23:	00 00 00 
  10df26:	66 44 0f 6f a4 24 c0 	movdqa 0xc0(%rsp),%xmm12
  10df2d:	00 00 00 
  10df30:	66 44 0f 6f a4 24 b0 	movdqa 0xb0(%rsp),%xmm12
  10df37:	00 00 00 
  10df3a:	66 44 0f 6f 94 24 a0 	movdqa 0xa0(%rsp),%xmm10
  10df41:	00 00 00 
  10df44:	66 44 0f 6f 8c 24 90 	movdqa 0x90(%rsp),%xmm9
  10df4b:	00 00 00 
  10df4e:	66 44 0f 6f 84 24 80 	movdqa 0x80(%rsp),%xmm8
  10df55:	00 00 00 
  10df58:	66 0f 6f 7c 24 70    	movdqa 0x70(%rsp),%xmm7
  10df5e:	66 0f 6f 74 24 60    	movdqa 0x60(%rsp),%xmm6
  10df64:	66 0f 6f 6c 24 50    	movdqa 0x50(%rsp),%xmm5
  10df6a:	66 0f 6f 64 24 40    	movdqa 0x40(%rsp),%xmm4
  10df70:	66 0f 6f 5c 24 30    	movdqa 0x30(%rsp),%xmm3
  10df76:	66 0f 6f 54 24 20    	movdqa 0x20(%rsp),%xmm2
  10df7c:	66 0f 6f 4c 24 10    	movdqa 0x10(%rsp),%xmm1
  10df82:	66 0f 6f 04 24       	movdqa (%rsp),%xmm0
  10df87:	48 81 c4 00 01 00 00 	add    $0x100,%rsp
  10df8e:	5f                   	pop    %rdi
  10df8f:	5e                   	pop    %rsi
  10df90:	5d                   	pop    %rbp
  10df91:	48 83 c4 08          	add    $0x8,%rsp
  10df95:	5b                   	pop    %rbx
  10df96:	5a                   	pop    %rdx
  10df97:	59                   	pop    %rcx
  10df98:	58                   	pop    %rax
  10df99:	41 58                	pop    %r8
  10df9b:	41 59                	pop    %r9
  10df9d:	41 5a                	pop    %r10
  10df9f:	41 5b                	pop    %r11
  10dfa1:	41 5c                	pop    %r12
  10dfa3:	41 5d                	pop    %r13
  10dfa5:	41 5e                	pop    %r14
  10dfa7:	41 5f                	pop    %r15
  10dfa9:	48 83 c4 10          	add    $0x10,%rsp
  10dfad:	fb                   	sti    
  10dfae:	48 cf                	iretq  

000000000010dfb0 <__strlen>:
  10dfb0:	53                   	push   %rbx
  10dfb1:	51                   	push   %rcx
  10dfb2:	48 89 fb             	mov    %rdi,%rbx
  10dfb5:	30 c0                	xor    %al,%al
  10dfb7:	b9 ff ff ff ff       	mov    $0xffffffff,%ecx
  10dfbc:	f2 ae                	repnz scas %es:(%rdi),%al
  10dfbe:	48 29 df             	sub    %rbx,%rdi
  10dfc1:	48 89 f8             	mov    %rdi,%rax
  10dfc4:	48 ff c8             	dec    %rax
  10dfc7:	59                   	pop    %rcx
  10dfc8:	5b                   	pop    %rbx
  10dfc9:	c3                   	retq   

000000000010dfca <__strcmp>:
  10dfca:	57                   	push   %rdi
  10dfcb:	56                   	push   %rsi
  10dfcc:	e8 df ff ff ff       	callq  10dfb0 <__strlen>
  10dfd1:	48 89 c1             	mov    %rax,%rcx
  10dfd4:	48 89 f7             	mov    %rsi,%rdi
  10dfd7:	e8 d4 ff ff ff       	callq  10dfb0 <__strlen>
  10dfdc:	48 89 c2             	mov    %rax,%rdx
  10dfdf:	5e                   	pop    %rsi
  10dfe0:	5f                   	pop    %rdi
  10dfe1:	48 31 c0             	xor    %rax,%rax
  10dfe4:	48 39 d1             	cmp    %rdx,%rcx
  10dfe7:	74 07                	je     10dff0 <compare>
  10dfe9:	48 89 d0             	mov    %rdx,%rax
  10dfec:	48 29 c8             	sub    %rcx,%rax
  10dfef:	c3                   	retq   

000000000010dff0 <compare>:
  10dff0:	fc                   	cld    
  10dff1:	f3 a6                	repz cmpsb %es:(%rdi),%ds:(%rsi)
  10dff3:	0f 94 c0             	sete   %al
  10dff6:	c3                   	retq   

000000000010dff7 <__strncmp>:
  10dff7:	48 31 c0             	xor    %rax,%rax
  10dffa:	48 89 d1             	mov    %rdx,%rcx
  10dffd:	fc                   	cld    
  10dffe:	f3 a6                	repz cmpsb %es:(%rdi),%ds:(%rsi)
  10e000:	0f 94 c0             	sete   %al
  10e003:	c3                   	retq   

000000000010e004 <__strcpy>:
  10e004:	57                   	push   %rdi
  10e005:	48 89 f7             	mov    %rsi,%rdi
  10e008:	e8 a3 ff ff ff       	callq  10dfb0 <__strlen>
  10e00d:	48 89 c2             	mov    %rax,%rdx
  10e010:	48 ff c2             	inc    %rdx
  10e013:	5f                   	pop    %rdi
  10e014:	e8 10 00 00 00       	callq  10e029 <__memcpy>
  10e019:	48 89 f8             	mov    %rdi,%rax
  10e01c:	c3                   	retq   
  10e01d:	0f 1f 00             	nopl   (%rax)

000000000010e020 <__memset>:
  10e020:	48 89 d1             	mov    %rdx,%rcx
  10e023:	48 89 f0             	mov    %rsi,%rax
  10e026:	f3 aa                	rep stos %al,%es:(%rdi)
  10e028:	c3                   	retq   

000000000010e029 <__memcpy>:
  10e029:	48 89 d1             	mov    %rdx,%rcx
  10e02c:	f3 a4                	rep movsb %ds:(%rsi),%es:(%rdi)
  10e02e:	c3                   	retq   

000000000010e02f <__memcmp>:
  10e02f:	48 31 c0             	xor    %rax,%rax
  10e032:	48 89 d1             	mov    %rdx,%rcx
  10e035:	fc                   	cld    
  10e036:	f3 a6                	repz cmpsb %es:(%rdi),%ds:(%rsi)
  10e038:	0f 94 c0             	sete   %al
  10e03b:	c3                   	retq   

Disassembly of section .text._ZN14PageMapIndexerC2Em:

000000000010e03c <_ZN14PageMapIndexerC1Em>:
  10e03c:	f3 0f 1e fa          	endbr64 
  10e040:	55                   	push   %rbp
  10e041:	48 89 e5             	mov    %rsp,%rbp
  10e044:	48 83 ec 10          	sub    $0x10,%rsp
  10e048:	48 89 7d f8          	mov    %rdi,-0x8(%rbp)
  10e04c:	48 89 75 f0          	mov    %rsi,-0x10(%rbp)
  10e050:	48 c1 6d f0 0c       	shrq   $0xc,-0x10(%rbp)
  10e055:	48 8b 45 f0          	mov    -0x10(%rbp),%rax
  10e059:	25 ff 01 00 00       	and    $0x1ff,%eax
  10e05e:	48 89 c2             	mov    %rax,%rdx
  10e061:	48 8b 45 f8          	mov    -0x8(%rbp),%rax
  10e065:	48 89 50 18          	mov    %rdx,0x18(%rax)
  10e069:	48 c1 6d f0 09       	shrq   $0x9,-0x10(%rbp)
  10e06e:	48 8b 45 f0          	mov    -0x10(%rbp),%rax
  10e072:	25 ff 01 00 00       	and    $0x1ff,%eax
  10e077:	48 89 c2             	mov    %rax,%rdx
  10e07a:	48 8b 45 f8          	mov    -0x8(%rbp),%rax
  10e07e:	48 89 50 10          	mov    %rdx,0x10(%rax)
  10e082:	48 c1 6d f0 09       	shrq   $0x9,-0x10(%rbp)
  10e087:	48 8b 45 f0          	mov    -0x10(%rbp),%rax
  10e08b:	25 ff 01 00 00       	and    $0x1ff,%eax
  10e090:	48 89 c2             	mov    %rax,%rdx
  10e093:	48 8b 45 f8          	mov    -0x8(%rbp),%rax
  10e097:	48 89 50 08          	mov    %rdx,0x8(%rax)
  10e09b:	48 c1 6d f0 09       	shrq   $0x9,-0x10(%rbp)
  10e0a0:	48 8b 45 f0          	mov    -0x10(%rbp),%rax
  10e0a4:	25 ff 01 00 00       	and    $0x1ff,%eax
  10e0a9:	48 89 c2             	mov    %rax,%rdx
  10e0ac:	48 8b 45 f8          	mov    -0x8(%rbp),%rax
  10e0b0:	48 89 10             	mov    %rdx,(%rax)
  10e0b3:	90                   	nop
  10e0b4:	c9                   	leaveq 
  10e0b5:	c3                   	retq   

Disassembly of section .text._ZN16PageTableManagerC2EP9PageTable:

000000000010e0b6 <_ZN16PageTableManagerC1EP9PageTable>:
  10e0b6:	f3 0f 1e fa          	endbr64 
  10e0ba:	55                   	push   %rbp
  10e0bb:	48 89 e5             	mov    %rsp,%rbp
  10e0be:	48 83 ec 10          	sub    $0x10,%rsp
  10e0c2:	48 89 7d f8          	mov    %rdi,-0x8(%rbp)
  10e0c6:	48 89 75 f0          	mov    %rsi,-0x10(%rbp)
  10e0ca:	48 8b 45 f8          	mov    -0x8(%rbp),%rax
  10e0ce:	48 8b 55 f0          	mov    -0x10(%rbp),%rdx
  10e0d2:	48 89 10             	mov    %rdx,(%rax)
  10e0d5:	90                   	nop
  10e0d6:	c9                   	leaveq 
  10e0d7:	c3                   	retq   

Disassembly of section .text._ZN16PageTableManager7GetPML4Ev:

000000000010e0d8 <_ZN16PageTableManager7GetPML4Ev>:
  10e0d8:	f3 0f 1e fa          	endbr64 
  10e0dc:	55                   	push   %rbp
  10e0dd:	48 89 e5             	mov    %rsp,%rbp
  10e0e0:	48 83 ec 08          	sub    $0x8,%rsp
  10e0e4:	48 89 7d f8          	mov    %rdi,-0x8(%rbp)
  10e0e8:	48 8b 45 f8          	mov    -0x8(%rbp),%rax
  10e0ec:	48 8b 00             	mov    (%rax),%rax
  10e0ef:	c9                   	leaveq 
  10e0f0:	c3                   	retq   

Disassembly of section .text._ZN6Bitmap7SetSizeEm:

000000000010e0f2 <_ZN6Bitmap7SetSizeEm>:
  10e0f2:	f3 0f 1e fa          	endbr64 
  10e0f6:	55                   	push   %rbp
  10e0f7:	48 89 e5             	mov    %rsp,%rbp
  10e0fa:	48 83 ec 10          	sub    $0x10,%rsp
  10e0fe:	48 89 7d f8          	mov    %rdi,-0x8(%rbp)
  10e102:	48 89 75 f0          	mov    %rsi,-0x10(%rbp)
  10e106:	48 8b 45 f8          	mov    -0x8(%rbp),%rax
  10e10a:	48 8b 55 f0          	mov    -0x10(%rbp),%rdx
  10e10e:	48 89 10             	mov    %rdx,(%rax)
  10e111:	90                   	nop
  10e112:	c9                   	leaveq 
  10e113:	c3                   	retq   

Disassembly of section .text._ZN6Bitmap9SetBufferEPm:

000000000010e114 <_ZN6Bitmap9SetBufferEPm>:
  10e114:	f3 0f 1e fa          	endbr64 
  10e118:	55                   	push   %rbp
  10e119:	48 89 e5             	mov    %rsp,%rbp
  10e11c:	48 83 ec 10          	sub    $0x10,%rsp
  10e120:	48 89 7d f8          	mov    %rdi,-0x8(%rbp)
  10e124:	48 89 75 f0          	mov    %rsi,-0x10(%rbp)
  10e128:	48 8b 45 f8          	mov    -0x8(%rbp),%rax
  10e12c:	48 8b 55 f0          	mov    -0x10(%rbp),%rdx
  10e130:	48 89 50 08          	mov    %rdx,0x8(%rax)
  10e134:	90                   	nop
  10e135:	c9                   	leaveq 
  10e136:	c3                   	retq   

Disassembly of section .text._ZNK9MemoryMap13GetEntryCountEv:

000000000010e138 <_ZNK9MemoryMap13GetEntryCountEv>:
  10e138:	f3 0f 1e fa          	endbr64 
  10e13c:	55                   	push   %rbp
  10e13d:	48 89 e5             	mov    %rsp,%rbp
  10e140:	48 83 ec 08          	sub    $0x8,%rsp
  10e144:	48 89 7d f8          	mov    %rdi,-0x8(%rbp)
  10e148:	48 8b 45 f8          	mov    -0x8(%rbp),%rax
  10e14c:	48 8b 40 08          	mov    0x8(%rax),%rax
  10e150:	c9                   	leaveq 
  10e151:	c3                   	retq   

Disassembly of section .text._ZNK9MemoryMap8GetEntryEm:

000000000010e152 <_ZNK9MemoryMap8GetEntryEm>:
  10e152:	f3 0f 1e fa          	endbr64 
  10e156:	55                   	push   %rbp
  10e157:	48 89 e5             	mov    %rsp,%rbp
  10e15a:	48 83 ec 10          	sub    $0x10,%rsp
  10e15e:	48 89 7d f8          	mov    %rdi,-0x8(%rbp)
  10e162:	48 89 75 f0          	mov    %rsi,-0x10(%rbp)
  10e166:	48 8b 45 f8          	mov    -0x8(%rbp),%rax
  10e16a:	48 8b 08             	mov    (%rax),%rcx
  10e16d:	48 8b 55 f0          	mov    -0x10(%rbp),%rdx
  10e171:	48 89 d0             	mov    %rdx,%rax
  10e174:	48 01 c0             	add    %rax,%rax
  10e177:	48 01 d0             	add    %rdx,%rax
  10e17a:	48 c1 e0 03          	shl    $0x3,%rax
  10e17e:	48 01 c8             	add    %rcx,%rax
  10e181:	c9                   	leaveq 
  10e182:	c3                   	retq   

Disassembly of section .text._ZN6vectorIPN4AHCI10AHCIDeviceEED2Ev:

000000000010e184 <_ZN6vectorIPN4AHCI10AHCIDeviceEED1Ev>:
  10e184:	f3 0f 1e fa          	endbr64 
  10e188:	55                   	push   %rbp
  10e189:	48 89 e5             	mov    %rsp,%rbp
  10e18c:	48 83 ec 10          	sub    $0x10,%rsp
  10e190:	48 89 7d f8          	mov    %rdi,-0x8(%rbp)
  10e194:	48 8b 45 f8          	mov    -0x8(%rbp),%rax
  10e198:	48 8b 40 10          	mov    0x10(%rax),%rax
  10e19c:	48 85 c0             	test   %rax,%rax
  10e19f:	74 10                	je     10e1b1 <_ZN6vectorIPN4AHCI10AHCIDeviceEED1Ev+0x2d>
  10e1a1:	48 8b 45 f8          	mov    -0x8(%rbp),%rax
  10e1a5:	48 8b 40 10          	mov    0x10(%rax),%rax
  10e1a9:	48 89 c7             	mov    %rax,%rdi
  10e1ac:	e8 f9 58 ff ff       	callq  103aaa <_ZdaPv>
  10e1b1:	90                   	nop
  10e1b2:	c9                   	leaveq 
  10e1b3:	c3                   	retq   

Disassembly of section .text._ZNK6vectorIPN4AHCI10AHCIDeviceEE4sizeEv:

000000000010e1b4 <_ZNK6vectorIPN4AHCI10AHCIDeviceEE4sizeEv>:
  10e1b4:	f3 0f 1e fa          	endbr64 
  10e1b8:	55                   	push   %rbp
  10e1b9:	48 89 e5             	mov    %rsp,%rbp
  10e1bc:	48 83 ec 08          	sub    $0x8,%rsp
  10e1c0:	48 89 7d f8          	mov    %rdi,-0x8(%rbp)
  10e1c4:	48 8b 45 f8          	mov    -0x8(%rbp),%rax
  10e1c8:	48 8b 40 08          	mov    0x8(%rax),%rax
  10e1cc:	c9                   	leaveq 
  10e1cd:	c3                   	retq   

Disassembly of section .text._ZN6vectorIPN4AHCI10AHCIDeviceEEixEm:

000000000010e1ce <_ZN6vectorIPN4AHCI10AHCIDeviceEEixEm>:
  10e1ce:	f3 0f 1e fa          	endbr64 
  10e1d2:	55                   	push   %rbp
  10e1d3:	48 89 e5             	mov    %rsp,%rbp
  10e1d6:	48 83 ec 10          	sub    $0x10,%rsp
  10e1da:	48 89 7d f8          	mov    %rdi,-0x8(%rbp)
  10e1de:	48 89 75 f0          	mov    %rsi,-0x10(%rbp)
  10e1e2:	48 8b 45 f8          	mov    -0x8(%rbp),%rax
  10e1e6:	48 8b 40 08          	mov    0x8(%rax),%rax
  10e1ea:	48 39 45 f0          	cmp    %rax,-0x10(%rbp)
  10e1ee:	73 15                	jae    10e205 <_ZN6vectorIPN4AHCI10AHCIDeviceEEixEm+0x37>
  10e1f0:	48 8b 45 f8          	mov    -0x8(%rbp),%rax
  10e1f4:	48 8b 40 10          	mov    0x10(%rax),%rax
  10e1f8:	48 8b 55 f0          	mov    -0x10(%rbp),%rdx
  10e1fc:	48 c1 e2 03          	shl    $0x3,%rdx
  10e200:	48 01 d0             	add    %rdx,%rax
  10e203:	eb 00                	jmp    10e205 <_ZN6vectorIPN4AHCI10AHCIDeviceEEixEm+0x37>
  10e205:	c9                   	leaveq 
  10e206:	c3                   	retq   

Disassembly of section .text._ZN6DeviceD2Ev:

000000000010e208 <_ZN6DeviceD1Ev>:
  10e208:	f3 0f 1e fa          	endbr64 
  10e20c:	55                   	push   %rbp
  10e20d:	48 89 e5             	mov    %rsp,%rbp
  10e210:	48 83 ec 08          	sub    $0x8,%rsp
  10e214:	48 89 7d f8          	mov    %rdi,-0x8(%rbp)
  10e218:	48 8d 15 c1 12 00 00 	lea    0x12c1(%rip),%rdx        # 10f4e0 <_ZTV6Device+0x10>
  10e21f:	48 8b 45 f8          	mov    -0x8(%rbp),%rax
  10e223:	48 89 10             	mov    %rdx,(%rax)
  10e226:	90                   	nop
  10e227:	c9                   	leaveq 
  10e228:	c3                   	retq   

Disassembly of section .text._ZN6DeviceD0Ev:

000000000010e22a <_ZN6DeviceD0Ev>:
  10e22a:	f3 0f 1e fa          	endbr64 
  10e22e:	55                   	push   %rbp
  10e22f:	48 89 e5             	mov    %rsp,%rbp
  10e232:	48 83 ec 10          	sub    $0x10,%rsp
  10e236:	48 89 7d f8          	mov    %rdi,-0x8(%rbp)
  10e23a:	48 8b 45 f8          	mov    -0x8(%rbp),%rax
  10e23e:	48 89 c7             	mov    %rax,%rdi
  10e241:	e8 c2 ff ff ff       	callq  10e208 <_ZN6DeviceD1Ev>
  10e246:	48 8b 45 f8          	mov    -0x8(%rbp),%rax
  10e24a:	be 08 00 00 00       	mov    $0x8,%esi
  10e24f:	48 89 c7             	mov    %rax,%rdi
  10e252:	e8 72 58 ff ff       	callq  103ac9 <_ZdlPvm>
  10e257:	c9                   	leaveq 
  10e258:	c3                   	retq   

Disassembly of section .text._ZN9ATADeviceD2Ev:

000000000010e25a <_ZN9ATADeviceD1Ev>:
  10e25a:	f3 0f 1e fa          	endbr64 
  10e25e:	55                   	push   %rbp
  10e25f:	48 89 e5             	mov    %rsp,%rbp
  10e262:	48 83 ec 10          	sub    $0x10,%rsp
  10e266:	48 89 7d f8          	mov    %rdi,-0x8(%rbp)
  10e26a:	48 8d 15 37 12 00 00 	lea    0x1237(%rip),%rdx        # 10f4a8 <_ZTV9ATADevice+0x10>
  10e271:	48 8b 45 f8          	mov    -0x8(%rbp),%rax
  10e275:	48 89 10             	mov    %rdx,(%rax)
  10e278:	48 8b 45 f8          	mov    -0x8(%rbp),%rax
  10e27c:	48 89 c7             	mov    %rax,%rdi
  10e27f:	e8 84 ff ff ff       	callq  10e208 <_ZN6DeviceD1Ev>
  10e284:	90                   	nop
  10e285:	c9                   	leaveq 
  10e286:	c3                   	retq   

Disassembly of section .text._ZN9ATADeviceD0Ev:

000000000010e288 <_ZN9ATADeviceD0Ev>:
  10e288:	f3 0f 1e fa          	endbr64 
  10e28c:	55                   	push   %rbp
  10e28d:	48 89 e5             	mov    %rsp,%rbp
  10e290:	48 83 ec 10          	sub    $0x10,%rsp
  10e294:	48 89 7d f8          	mov    %rdi,-0x8(%rbp)
  10e298:	48 8b 45 f8          	mov    -0x8(%rbp),%rax
  10e29c:	48 89 c7             	mov    %rax,%rdi
  10e29f:	e8 b6 ff ff ff       	callq  10e25a <_ZN9ATADeviceD1Ev>
  10e2a4:	48 8b 45 f8          	mov    -0x8(%rbp),%rax
  10e2a8:	be 08 00 00 00       	mov    $0x8,%esi
  10e2ad:	48 89 c7             	mov    %rax,%rdi
  10e2b0:	e8 14 58 ff ff       	callq  103ac9 <_ZdlPvm>
  10e2b5:	c9                   	leaveq 
  10e2b6:	c3                   	retq   

Disassembly of section .text._ZN9ATADevice7GetTypeEv:

000000000010e2b8 <_ZN9ATADevice7GetTypeEv>:
  10e2b8:	f3 0f 1e fa          	endbr64 
  10e2bc:	55                   	push   %rbp
  10e2bd:	48 89 e5             	mov    %rsp,%rbp
  10e2c0:	48 83 ec 08          	sub    $0x8,%rsp
  10e2c4:	48 89 7d f8          	mov    %rdi,-0x8(%rbp)
  10e2c8:	b8 01 00 00 00       	mov    $0x1,%eax
  10e2cd:	c9                   	leaveq 
  10e2ce:	c3                   	retq   

Disassembly of section .text._ZN6DeviceC2Ev:

000000000010e2d0 <_ZN6DeviceC1Ev>:
  10e2d0:	f3 0f 1e fa          	endbr64 
  10e2d4:	55                   	push   %rbp
  10e2d5:	48 89 e5             	mov    %rsp,%rbp
  10e2d8:	48 83 ec 08          	sub    $0x8,%rsp
  10e2dc:	48 89 7d f8          	mov    %rdi,-0x8(%rbp)
  10e2e0:	48 8d 15 f9 11 00 00 	lea    0x11f9(%rip),%rdx        # 10f4e0 <_ZTV6Device+0x10>
  10e2e7:	48 8b 45 f8          	mov    -0x8(%rbp),%rax
  10e2eb:	48 89 10             	mov    %rdx,(%rax)
  10e2ee:	90                   	nop
  10e2ef:	c9                   	leaveq 
  10e2f0:	c3                   	retq   

Disassembly of section .text._ZN4AHCI10AHCIDevice7GetTypeEv:

000000000010e2f2 <_ZN4AHCI10AHCIDevice7GetTypeEv>:
  10e2f2:	f3 0f 1e fa          	endbr64 
  10e2f6:	55                   	push   %rbp
  10e2f7:	48 89 e5             	mov    %rsp,%rbp
  10e2fa:	48 83 ec 08          	sub    $0x8,%rsp
  10e2fe:	48 89 7d f8          	mov    %rdi,-0x8(%rbp)
  10e302:	b8 02 00 00 00       	mov    $0x2,%eax
  10e307:	c9                   	leaveq 
  10e308:	c3                   	retq   

Disassembly of section .text._ZN6vectorIPN4AHCI10AHCIDeviceEEC2Ev:

000000000010e30a <_ZN6vectorIPN4AHCI10AHCIDeviceEEC1Ev>:
  10e30a:	f3 0f 1e fa          	endbr64 
  10e30e:	55                   	push   %rbp
  10e30f:	48 89 e5             	mov    %rsp,%rbp
  10e312:	48 83 ec 10          	sub    $0x10,%rsp
  10e316:	48 89 7d f8          	mov    %rdi,-0x8(%rbp)
  10e31a:	bf 10 00 00 00       	mov    $0x10,%edi
  10e31f:	e8 49 57 ff ff       	callq  103a6d <_Znam>
  10e324:	48 89 c2             	mov    %rax,%rdx
  10e327:	48 8b 45 f8          	mov    -0x8(%rbp),%rax
  10e32b:	48 89 50 10          	mov    %rdx,0x10(%rax)
  10e32f:	48 8b 45 f8          	mov    -0x8(%rbp),%rax
  10e333:	48 c7 40 08 00 00 00 	movq   $0x0,0x8(%rax)
  10e33a:	00 
  10e33b:	48 8b 45 f8          	mov    -0x8(%rbp),%rax
  10e33f:	48 c7 00 02 00 00 00 	movq   $0x2,(%rax)
  10e346:	90                   	nop
  10e347:	c9                   	leaveq 
  10e348:	c3                   	retq   

Disassembly of section .text._ZN6vectorIPN4AHCI10AHCIDeviceEE9push_backERKS2_:

000000000010e34a <_ZN6vectorIPN4AHCI10AHCIDeviceEE9push_backERKS2_>:
  10e34a:	f3 0f 1e fa          	endbr64 
  10e34e:	55                   	push   %rbp
  10e34f:	48 89 e5             	mov    %rsp,%rbp
  10e352:	48 83 ec 10          	sub    $0x10,%rsp
  10e356:	48 89 7d f8          	mov    %rdi,-0x8(%rbp)
  10e35a:	48 89 75 f0          	mov    %rsi,-0x10(%rbp)
  10e35e:	48 8b 45 f8          	mov    -0x8(%rbp),%rax
  10e362:	48 8b 50 08          	mov    0x8(%rax),%rdx
  10e366:	48 8b 45 f8          	mov    -0x8(%rbp),%rax
  10e36a:	48 8b 00             	mov    (%rax),%rax
  10e36d:	48 39 c2             	cmp    %rax,%rdx
  10e370:	75 1a                	jne    10e38c <_ZN6vectorIPN4AHCI10AHCIDeviceEE9push_backERKS2_+0x42>
  10e372:	48 8b 45 f8          	mov    -0x8(%rbp),%rax
  10e376:	48 8b 00             	mov    (%rax),%rax
  10e379:	48 8d 14 00          	lea    (%rax,%rax,1),%rdx
  10e37d:	48 8b 45 f8          	mov    -0x8(%rbp),%rax
  10e381:	48 89 d6             	mov    %rdx,%rsi
  10e384:	48 89 c7             	mov    %rax,%rdi
  10e387:	e8 32 00 00 00       	callq  10e3be <_ZN6vectorIPN4AHCI10AHCIDeviceEE6resizeEm>
  10e38c:	48 8b 45 f8          	mov    -0x8(%rbp),%rax
  10e390:	48 8b 70 10          	mov    0x10(%rax),%rsi
  10e394:	48 8b 45 f8          	mov    -0x8(%rbp),%rax
  10e398:	48 8b 40 08          	mov    0x8(%rax),%rax
  10e39c:	48 8d 48 01          	lea    0x1(%rax),%rcx
  10e3a0:	48 8b 55 f8          	mov    -0x8(%rbp),%rdx
  10e3a4:	48 89 4a 08          	mov    %rcx,0x8(%rdx)
  10e3a8:	48 c1 e0 03          	shl    $0x3,%rax
  10e3ac:	48 8d 14 06          	lea    (%rsi,%rax,1),%rdx
  10e3b0:	48 8b 45 f0          	mov    -0x10(%rbp),%rax
  10e3b4:	48 8b 00             	mov    (%rax),%rax
  10e3b7:	48 89 02             	mov    %rax,(%rdx)
  10e3ba:	90                   	nop
  10e3bb:	c9                   	leaveq 
  10e3bc:	c3                   	retq   

Disassembly of section .text._ZN6vectorIPN4AHCI10AHCIDeviceEE6resizeEm:

000000000010e3be <_ZN6vectorIPN4AHCI10AHCIDeviceEE6resizeEm>:
  10e3be:	f3 0f 1e fa          	endbr64 
  10e3c2:	55                   	push   %rbp
  10e3c3:	48 89 e5             	mov    %rsp,%rbp
  10e3c6:	48 83 ec 20          	sub    $0x20,%rsp
  10e3ca:	48 89 7d e8          	mov    %rdi,-0x18(%rbp)
  10e3ce:	48 89 75 e0          	mov    %rsi,-0x20(%rbp)
  10e3d2:	48 8b 45 e8          	mov    -0x18(%rbp),%rax
  10e3d6:	48 8b 55 e0          	mov    -0x20(%rbp),%rdx
  10e3da:	48 89 10             	mov    %rdx,(%rax)
  10e3dd:	48 8b 45 e8          	mov    -0x18(%rbp),%rax
  10e3e1:	48 8b 00             	mov    (%rax),%rax
  10e3e4:	48 ba ff ff ff ff ff 	movabs $0xfffffffffffffff,%rdx
  10e3eb:	ff ff 0f 
  10e3ee:	48 39 d0             	cmp    %rdx,%rax
  10e3f1:	77 06                	ja     10e3f9 <_ZN6vectorIPN4AHCI10AHCIDeviceEE6resizeEm+0x3b>
  10e3f3:	48 c1 e0 03          	shl    $0x3,%rax
  10e3f7:	eb 07                	jmp    10e400 <_ZN6vectorIPN4AHCI10AHCIDeviceEE6resizeEm+0x42>
  10e3f9:	48 c7 c0 ff ff ff ff 	mov    $0xffffffffffffffff,%rax
  10e400:	48 89 c7             	mov    %rax,%rdi
  10e403:	e8 65 56 ff ff       	callq  103a6d <_Znam>
  10e408:	48 89 45 f8          	mov    %rax,-0x8(%rbp)
  10e40c:	48 8b 45 e8          	mov    -0x18(%rbp),%rax
  10e410:	48 8b 40 08          	mov    0x8(%rax),%rax
  10e414:	48 8d 14 c5 00 00 00 	lea    0x0(,%rax,8),%rdx
  10e41b:	00 
  10e41c:	48 8b 45 e8          	mov    -0x18(%rbp),%rax
  10e420:	48 8b 48 10          	mov    0x10(%rax),%rcx
  10e424:	48 8b 45 f8          	mov    -0x8(%rbp),%rax
  10e428:	48 89 ce             	mov    %rcx,%rsi
  10e42b:	48 89 c7             	mov    %rax,%rdi
  10e42e:	e8 f6 e9 ff ff       	callq  10ce29 <_Z6memcpyPvPKvm>
  10e433:	48 8b 45 e8          	mov    -0x18(%rbp),%rax
  10e437:	48 8b 40 10          	mov    0x10(%rax),%rax
  10e43b:	48 85 c0             	test   %rax,%rax
  10e43e:	74 10                	je     10e450 <_ZN6vectorIPN4AHCI10AHCIDeviceEE6resizeEm+0x92>
  10e440:	48 8b 45 e8          	mov    -0x18(%rbp),%rax
  10e444:	48 8b 40 10          	mov    0x10(%rax),%rax
  10e448:	48 89 c7             	mov    %rax,%rdi
  10e44b:	e8 5a 56 ff ff       	callq  103aaa <_ZdaPv>
  10e450:	48 8b 45 e8          	mov    -0x18(%rbp),%rax
  10e454:	48 8b 55 f8          	mov    -0x8(%rbp),%rdx
  10e458:	48 89 50 10          	mov    %rdx,0x10(%rax)
  10e45c:	90                   	nop
  10e45d:	c9                   	leaveq 
  10e45e:	c3                   	retq   

Disassembly of section .text._ZN4AHCI10AHCIDeviceD2Ev:

000000000010e460 <_ZN4AHCI10AHCIDeviceD1Ev>:
  10e460:	f3 0f 1e fa          	endbr64 
  10e464:	55                   	push   %rbp
  10e465:	48 89 e5             	mov    %rsp,%rbp
  10e468:	48 83 ec 10          	sub    $0x10,%rsp
  10e46c:	48 89 7d f8          	mov    %rdi,-0x8(%rbp)
  10e470:	48 8d 15 a1 10 00 00 	lea    0x10a1(%rip),%rdx        # 10f518 <_ZTVN4AHCI10AHCIDeviceE+0x10>
  10e477:	48 8b 45 f8          	mov    -0x8(%rbp),%rax
  10e47b:	48 89 10             	mov    %rdx,(%rax)
  10e47e:	48 8b 45 f8          	mov    -0x8(%rbp),%rax
  10e482:	48 89 c7             	mov    %rax,%rdi
  10e485:	e8 7e fd ff ff       	callq  10e208 <_ZN6DeviceD1Ev>
  10e48a:	90                   	nop
  10e48b:	c9                   	leaveq 
  10e48c:	c3                   	retq   

Disassembly of section .text._ZN4AHCI10AHCIDeviceD0Ev:

000000000010e48e <_ZN4AHCI10AHCIDeviceD0Ev>:
  10e48e:	f3 0f 1e fa          	endbr64 
  10e492:	55                   	push   %rbp
  10e493:	48 89 e5             	mov    %rsp,%rbp
  10e496:	48 83 ec 10          	sub    $0x10,%rsp
  10e49a:	48 89 7d f8          	mov    %rdi,-0x8(%rbp)
  10e49e:	48 8b 45 f8          	mov    -0x8(%rbp),%rax
  10e4a2:	48 89 c7             	mov    %rax,%rdi
  10e4a5:	e8 b6 ff ff ff       	callq  10e460 <_ZN4AHCI10AHCIDeviceD1Ev>
  10e4aa:	48 8b 45 f8          	mov    -0x8(%rbp),%rax
  10e4ae:	be 10 00 00 00       	mov    $0x10,%esi
  10e4b3:	48 89 c7             	mov    %rax,%rdi
  10e4b6:	e8 0e 56 ff ff       	callq  103ac9 <_ZdlPvm>
  10e4bb:	c9                   	leaveq 
  10e4bc:	c3                   	retq   

Disassembly of section .text._ZN10ActiveFileC2Ev:

000000000010e4be <_ZN10ActiveFileC1Ev>:
  10e4be:	f3 0f 1e fa          	endbr64 
  10e4c2:	55                   	push   %rbp
  10e4c3:	48 89 e5             	mov    %rsp,%rbp
  10e4c6:	48 83 ec 08          	sub    $0x8,%rsp
  10e4ca:	48 89 7d f8          	mov    %rdi,-0x8(%rbp)
  10e4ce:	48 8d 15 5b 11 00 00 	lea    0x115b(%rip),%rdx        # 10f630 <_ZTV10ActiveFile+0x10>
  10e4d5:	48 8b 45 f8          	mov    -0x8(%rbp),%rax
  10e4d9:	48 89 10             	mov    %rdx,(%rax)
  10e4dc:	48 8b 45 f8          	mov    -0x8(%rbp),%rax
  10e4e0:	48 c7 40 08 00 00 00 	movq   $0x0,0x8(%rax)
  10e4e7:	00 
  10e4e8:	90                   	nop
  10e4e9:	c9                   	leaveq 
  10e4ea:	c3                   	retq   

Disassembly of section .text._ZN10ActiveFileD2Ev:

000000000010e4ec <_ZN10ActiveFileD1Ev>:
  10e4ec:	f3 0f 1e fa          	endbr64 
  10e4f0:	55                   	push   %rbp
  10e4f1:	48 89 e5             	mov    %rsp,%rbp
  10e4f4:	48 83 ec 08          	sub    $0x8,%rsp
  10e4f8:	48 89 7d f8          	mov    %rdi,-0x8(%rbp)
  10e4fc:	48 8d 15 2d 11 00 00 	lea    0x112d(%rip),%rdx        # 10f630 <_ZTV10ActiveFile+0x10>
  10e503:	48 8b 45 f8          	mov    -0x8(%rbp),%rax
  10e507:	48 89 10             	mov    %rdx,(%rax)
  10e50a:	90                   	nop
  10e50b:	c9                   	leaveq 
  10e50c:	c3                   	retq   

Disassembly of section .text._ZN10FilesystemC2EP6Devicej:

000000000010e50e <_ZN10FilesystemC1EP6Devicej>:
  10e50e:	f3 0f 1e fa          	endbr64 
  10e512:	55                   	push   %rbp
  10e513:	48 89 e5             	mov    %rsp,%rbp
  10e516:	48 83 ec 18          	sub    $0x18,%rsp
  10e51a:	48 89 7d f8          	mov    %rdi,-0x8(%rbp)
  10e51e:	48 89 75 f0          	mov    %rsi,-0x10(%rbp)
  10e522:	89 55 ec             	mov    %edx,-0x14(%rbp)
  10e525:	48 8d 15 ac 10 00 00 	lea    0x10ac(%rip),%rdx        # 10f5d8 <_ZTV10Filesystem+0x10>
  10e52c:	48 8b 45 f8          	mov    -0x8(%rbp),%rax
  10e530:	48 89 10             	mov    %rdx,(%rax)
  10e533:	48 8b 45 f8          	mov    -0x8(%rbp),%rax
  10e537:	48 8b 55 f0          	mov    -0x10(%rbp),%rdx
  10e53b:	48 89 50 08          	mov    %rdx,0x8(%rax)
  10e53f:	48 8b 45 f8          	mov    -0x8(%rbp),%rax
  10e543:	8b 55 ec             	mov    -0x14(%rbp),%edx
  10e546:	89 50 10             	mov    %edx,0x10(%rax)
  10e549:	90                   	nop
  10e54a:	c9                   	leaveq 
  10e54b:	c3                   	retq   

Disassembly of section .text._ZN10FilesystemD2Ev:

000000000010e54c <_ZN10FilesystemD1Ev>:
  10e54c:	f3 0f 1e fa          	endbr64 
  10e550:	55                   	push   %rbp
  10e551:	48 89 e5             	mov    %rsp,%rbp
  10e554:	48 83 ec 08          	sub    $0x8,%rsp
  10e558:	48 89 7d f8          	mov    %rdi,-0x8(%rbp)
  10e55c:	48 8d 15 75 10 00 00 	lea    0x1075(%rip),%rdx        # 10f5d8 <_ZTV10Filesystem+0x10>
  10e563:	48 8b 45 f8          	mov    -0x8(%rbp),%rax
  10e567:	48 89 10             	mov    %rdx,(%rax)
  10e56a:	90                   	nop
  10e56b:	c9                   	leaveq 
  10e56c:	c3                   	retq   

Disassembly of section .text._ZN16FAT32_ActiveFileC2Ev:

000000000010e56e <_ZN16FAT32_ActiveFileC1Ev>:
  10e56e:	f3 0f 1e fa          	endbr64 
  10e572:	55                   	push   %rbp
  10e573:	48 89 e5             	mov    %rsp,%rbp
  10e576:	48 83 ec 10          	sub    $0x10,%rsp
  10e57a:	48 89 7d f8          	mov    %rdi,-0x8(%rbp)
  10e57e:	48 8b 45 f8          	mov    -0x8(%rbp),%rax
  10e582:	48 89 c7             	mov    %rax,%rdi
  10e585:	e8 34 ff ff ff       	callq  10e4be <_ZN10ActiveFileC1Ev>
  10e58a:	48 8d 15 17 10 00 00 	lea    0x1017(%rip),%rdx        # 10f5a8 <_ZTV16FAT32_ActiveFile+0x10>
  10e591:	48 8b 45 f8          	mov    -0x8(%rbp),%rax
  10e595:	48 89 10             	mov    %rdx,(%rax)
  10e598:	90                   	nop
  10e599:	c9                   	leaveq 
  10e59a:	c3                   	retq   

Disassembly of section .text._ZN6vectorI8DirEntryED2Ev:

000000000010e59c <_ZN6vectorI8DirEntryED1Ev>:
  10e59c:	f3 0f 1e fa          	endbr64 
  10e5a0:	55                   	push   %rbp
  10e5a1:	48 89 e5             	mov    %rsp,%rbp
  10e5a4:	48 83 ec 10          	sub    $0x10,%rsp
  10e5a8:	48 89 7d f8          	mov    %rdi,-0x8(%rbp)
  10e5ac:	48 8b 45 f8          	mov    -0x8(%rbp),%rax
  10e5b0:	48 8b 40 10          	mov    0x10(%rax),%rax
  10e5b4:	48 85 c0             	test   %rax,%rax
  10e5b7:	74 10                	je     10e5c9 <_ZN6vectorI8DirEntryED1Ev+0x2d>
  10e5b9:	48 8b 45 f8          	mov    -0x8(%rbp),%rax
  10e5bd:	48 8b 40 10          	mov    0x10(%rax),%rax
  10e5c1:	48 89 c7             	mov    %rax,%rdi
  10e5c4:	e8 e1 54 ff ff       	callq  103aaa <_ZdaPv>
  10e5c9:	90                   	nop
  10e5ca:	c9                   	leaveq 
  10e5cb:	c3                   	retq   

Disassembly of section .text._ZNK6vectorI8DirEntryE4sizeEv:

000000000010e5cc <_ZNK6vectorI8DirEntryE4sizeEv>:
  10e5cc:	f3 0f 1e fa          	endbr64 
  10e5d0:	55                   	push   %rbp
  10e5d1:	48 89 e5             	mov    %rsp,%rbp
  10e5d4:	48 83 ec 08          	sub    $0x8,%rsp
  10e5d8:	48 89 7d f8          	mov    %rdi,-0x8(%rbp)
  10e5dc:	48 8b 45 f8          	mov    -0x8(%rbp),%rax
  10e5e0:	48 8b 40 08          	mov    0x8(%rax),%rax
  10e5e4:	c9                   	leaveq 
  10e5e5:	c3                   	retq   

Disassembly of section .text._ZN6vectorI8DirEntryEixEm:

000000000010e5e6 <_ZN6vectorI8DirEntryEixEm>:
  10e5e6:	f3 0f 1e fa          	endbr64 
  10e5ea:	55                   	push   %rbp
  10e5eb:	48 89 e5             	mov    %rsp,%rbp
  10e5ee:	48 83 ec 10          	sub    $0x10,%rsp
  10e5f2:	48 89 7d f8          	mov    %rdi,-0x8(%rbp)
  10e5f6:	48 89 75 f0          	mov    %rsi,-0x10(%rbp)
  10e5fa:	48 8b 45 f8          	mov    -0x8(%rbp),%rax
  10e5fe:	48 8b 40 08          	mov    0x8(%rax),%rax
  10e602:	48 39 45 f0          	cmp    %rax,-0x10(%rbp)
  10e606:	73 26                	jae    10e62e <_ZN6vectorI8DirEntryEixEm+0x48>
  10e608:	48 8b 45 f8          	mov    -0x8(%rbp),%rax
  10e60c:	48 8b 48 10          	mov    0x10(%rax),%rcx
  10e610:	48 8b 55 f0          	mov    -0x10(%rbp),%rdx
  10e614:	48 89 d0             	mov    %rdx,%rax
  10e617:	48 c1 e0 03          	shl    $0x3,%rax
  10e61b:	48 01 d0             	add    %rdx,%rax
  10e61e:	48 c1 e0 02          	shl    $0x2,%rax
  10e622:	48 01 d0             	add    %rdx,%rax
  10e625:	48 c1 e0 02          	shl    $0x2,%rax
  10e629:	48 01 c8             	add    %rcx,%rax
  10e62c:	eb 00                	jmp    10e62e <_ZN6vectorI8DirEntryEixEm+0x48>
  10e62e:	c9                   	leaveq 
  10e62f:	c3                   	retq   

Disassembly of section .text._ZN6vectorIjEC2Ev:

000000000010e630 <_ZN6vectorIjEC1Ev>:
  10e630:	f3 0f 1e fa          	endbr64 
  10e634:	55                   	push   %rbp
  10e635:	48 89 e5             	mov    %rsp,%rbp
  10e638:	48 83 ec 10          	sub    $0x10,%rsp
  10e63c:	48 89 7d f8          	mov    %rdi,-0x8(%rbp)
  10e640:	bf 08 00 00 00       	mov    $0x8,%edi
  10e645:	e8 23 54 ff ff       	callq  103a6d <_Znam>
  10e64a:	48 89 c2             	mov    %rax,%rdx
  10e64d:	48 8b 45 f8          	mov    -0x8(%rbp),%rax
  10e651:	48 89 50 10          	mov    %rdx,0x10(%rax)
  10e655:	48 8b 45 f8          	mov    -0x8(%rbp),%rax
  10e659:	48 c7 40 08 00 00 00 	movq   $0x0,0x8(%rax)
  10e660:	00 
  10e661:	48 8b 45 f8          	mov    -0x8(%rbp),%rax
  10e665:	48 c7 00 02 00 00 00 	movq   $0x2,(%rax)
  10e66c:	90                   	nop
  10e66d:	c9                   	leaveq 
  10e66e:	c3                   	retq   

Disassembly of section .text._ZN6vectorIjED2Ev:

000000000010e670 <_ZN6vectorIjED1Ev>:
  10e670:	f3 0f 1e fa          	endbr64 
  10e674:	55                   	push   %rbp
  10e675:	48 89 e5             	mov    %rsp,%rbp
  10e678:	48 83 ec 10          	sub    $0x10,%rsp
  10e67c:	48 89 7d f8          	mov    %rdi,-0x8(%rbp)
  10e680:	48 8b 45 f8          	mov    -0x8(%rbp),%rax
  10e684:	48 8b 40 10          	mov    0x10(%rax),%rax
  10e688:	48 85 c0             	test   %rax,%rax
  10e68b:	74 10                	je     10e69d <_ZN6vectorIjED1Ev+0x2d>
  10e68d:	48 8b 45 f8          	mov    -0x8(%rbp),%rax
  10e691:	48 8b 40 10          	mov    0x10(%rax),%rax
  10e695:	48 89 c7             	mov    %rax,%rdi
  10e698:	e8 0d 54 ff ff       	callq  103aaa <_ZdaPv>
  10e69d:	90                   	nop
  10e69e:	c9                   	leaveq 
  10e69f:	c3                   	retq   

Disassembly of section .text._ZN6vectorIjE9push_backERKj:

000000000010e6a0 <_ZN6vectorIjE9push_backERKj>:
  10e6a0:	f3 0f 1e fa          	endbr64 
  10e6a4:	55                   	push   %rbp
  10e6a5:	48 89 e5             	mov    %rsp,%rbp
  10e6a8:	48 83 ec 10          	sub    $0x10,%rsp
  10e6ac:	48 89 7d f8          	mov    %rdi,-0x8(%rbp)
  10e6b0:	48 89 75 f0          	mov    %rsi,-0x10(%rbp)
  10e6b4:	48 8b 45 f8          	mov    -0x8(%rbp),%rax
  10e6b8:	48 8b 50 08          	mov    0x8(%rax),%rdx
  10e6bc:	48 8b 45 f8          	mov    -0x8(%rbp),%rax
  10e6c0:	48 8b 00             	mov    (%rax),%rax
  10e6c3:	48 39 c2             	cmp    %rax,%rdx
  10e6c6:	75 1a                	jne    10e6e2 <_ZN6vectorIjE9push_backERKj+0x42>
  10e6c8:	48 8b 45 f8          	mov    -0x8(%rbp),%rax
  10e6cc:	48 8b 00             	mov    (%rax),%rax
  10e6cf:	48 8d 14 00          	lea    (%rax,%rax,1),%rdx
  10e6d3:	48 8b 45 f8          	mov    -0x8(%rbp),%rax
  10e6d7:	48 89 d6             	mov    %rdx,%rsi
  10e6da:	48 89 c7             	mov    %rax,%rdi
  10e6dd:	e8 84 02 00 00       	callq  10e966 <_ZN6vectorIjE6resizeEm>
  10e6e2:	48 8b 45 f8          	mov    -0x8(%rbp),%rax
  10e6e6:	48 8b 70 10          	mov    0x10(%rax),%rsi
  10e6ea:	48 8b 45 f8          	mov    -0x8(%rbp),%rax
  10e6ee:	48 8b 40 08          	mov    0x8(%rax),%rax
  10e6f2:	48 8d 48 01          	lea    0x1(%rax),%rcx
  10e6f6:	48 8b 55 f8          	mov    -0x8(%rbp),%rdx
  10e6fa:	48 89 4a 08          	mov    %rcx,0x8(%rdx)
  10e6fe:	48 c1 e0 02          	shl    $0x2,%rax
  10e702:	48 8d 14 06          	lea    (%rsi,%rax,1),%rdx
  10e706:	48 8b 45 f0          	mov    -0x10(%rbp),%rax
  10e70a:	8b 00                	mov    (%rax),%eax
  10e70c:	89 02                	mov    %eax,(%rdx)
  10e70e:	90                   	nop
  10e70f:	c9                   	leaveq 
  10e710:	c3                   	retq   

Disassembly of section .text._ZN6vectorIjEC2ERKS0_:

000000000010e712 <_ZN6vectorIjEC1ERKS0_>:
  10e712:	f3 0f 1e fa          	endbr64 
  10e716:	55                   	push   %rbp
  10e717:	48 89 e5             	mov    %rsp,%rbp
  10e71a:	48 83 ec 10          	sub    $0x10,%rsp
  10e71e:	48 89 7d f8          	mov    %rdi,-0x8(%rbp)
  10e722:	48 89 75 f0          	mov    %rsi,-0x10(%rbp)
  10e726:	48 8b 45 f0          	mov    -0x10(%rbp),%rax
  10e72a:	48 8b 10             	mov    (%rax),%rdx
  10e72d:	48 8b 45 f8          	mov    -0x8(%rbp),%rax
  10e731:	48 89 10             	mov    %rdx,(%rax)
  10e734:	48 8b 45 f0          	mov    -0x10(%rbp),%rax
  10e738:	48 8b 50 08          	mov    0x8(%rax),%rdx
  10e73c:	48 8b 45 f8          	mov    -0x8(%rbp),%rax
  10e740:	48 89 50 08          	mov    %rdx,0x8(%rax)
  10e744:	48 8b 45 f8          	mov    -0x8(%rbp),%rax
  10e748:	48 8b 00             	mov    (%rax),%rax
  10e74b:	48 ba fe ff ff ff ff 	movabs $0x1ffffffffffffffe,%rdx
  10e752:	ff ff 1f 
  10e755:	48 39 d0             	cmp    %rdx,%rax
  10e758:	77 06                	ja     10e760 <_ZN6vectorIjEC1ERKS0_+0x4e>
  10e75a:	48 c1 e0 02          	shl    $0x2,%rax
  10e75e:	eb 07                	jmp    10e767 <_ZN6vectorIjEC1ERKS0_+0x55>
  10e760:	48 c7 c0 ff ff ff ff 	mov    $0xffffffffffffffff,%rax
  10e767:	48 89 c7             	mov    %rax,%rdi
  10e76a:	e8 fe 52 ff ff       	callq  103a6d <_Znam>
  10e76f:	48 89 c2             	mov    %rax,%rdx
  10e772:	48 8b 45 f8          	mov    -0x8(%rbp),%rax
  10e776:	48 89 50 10          	mov    %rdx,0x10(%rax)
  10e77a:	48 8b 45 f8          	mov    -0x8(%rbp),%rax
  10e77e:	48 8b 40 08          	mov    0x8(%rax),%rax
  10e782:	48 8d 14 85 00 00 00 	lea    0x0(,%rax,4),%rdx
  10e789:	00 
  10e78a:	48 8b 45 f0          	mov    -0x10(%rbp),%rax
  10e78e:	48 8b 48 10          	mov    0x10(%rax),%rcx
  10e792:	48 8b 45 f8          	mov    -0x8(%rbp),%rax
  10e796:	48 8b 40 10          	mov    0x10(%rax),%rax
  10e79a:	48 89 ce             	mov    %rcx,%rsi
  10e79d:	48 89 c7             	mov    %rax,%rdi
  10e7a0:	e8 84 e6 ff ff       	callq  10ce29 <_Z6memcpyPvPKvm>
  10e7a5:	90                   	nop
  10e7a6:	c9                   	leaveq 
  10e7a7:	c3                   	retq   

Disassembly of section .text._ZNK6vectorIjE4sizeEv:

000000000010e7a8 <_ZNK6vectorIjE4sizeEv>:
  10e7a8:	f3 0f 1e fa          	endbr64 
  10e7ac:	55                   	push   %rbp
  10e7ad:	48 89 e5             	mov    %rsp,%rbp
  10e7b0:	48 83 ec 08          	sub    $0x8,%rsp
  10e7b4:	48 89 7d f8          	mov    %rdi,-0x8(%rbp)
  10e7b8:	48 8b 45 f8          	mov    -0x8(%rbp),%rax
  10e7bc:	48 8b 40 08          	mov    0x8(%rax),%rax
  10e7c0:	c9                   	leaveq 
  10e7c1:	c3                   	retq   

Disassembly of section .text._ZN6vectorIjEixEm:

000000000010e7c2 <_ZN6vectorIjEixEm>:
  10e7c2:	f3 0f 1e fa          	endbr64 
  10e7c6:	55                   	push   %rbp
  10e7c7:	48 89 e5             	mov    %rsp,%rbp
  10e7ca:	48 83 ec 10          	sub    $0x10,%rsp
  10e7ce:	48 89 7d f8          	mov    %rdi,-0x8(%rbp)
  10e7d2:	48 89 75 f0          	mov    %rsi,-0x10(%rbp)
  10e7d6:	48 8b 45 f8          	mov    -0x8(%rbp),%rax
  10e7da:	48 8b 40 08          	mov    0x8(%rax),%rax
  10e7de:	48 39 45 f0          	cmp    %rax,-0x10(%rbp)
  10e7e2:	73 15                	jae    10e7f9 <_ZN6vectorIjEixEm+0x37>
  10e7e4:	48 8b 45 f8          	mov    -0x8(%rbp),%rax
  10e7e8:	48 8b 40 10          	mov    0x10(%rax),%rax
  10e7ec:	48 8b 55 f0          	mov    -0x10(%rbp),%rdx
  10e7f0:	48 c1 e2 02          	shl    $0x2,%rdx
  10e7f4:	48 01 d0             	add    %rdx,%rax
  10e7f7:	eb 00                	jmp    10e7f9 <_ZN6vectorIjEixEm+0x37>
  10e7f9:	c9                   	leaveq 
  10e7fa:	c3                   	retq   

Disassembly of section .text._ZN6vectorI8DirEntryE9push_backERKS0_:

000000000010e7fc <_ZN6vectorI8DirEntryE9push_backERKS0_>:
  10e7fc:	f3 0f 1e fa          	endbr64 
  10e800:	55                   	push   %rbp
  10e801:	48 89 e5             	mov    %rsp,%rbp
  10e804:	53                   	push   %rbx
  10e805:	48 83 ec 18          	sub    $0x18,%rsp
  10e809:	48 89 7d e8          	mov    %rdi,-0x18(%rbp)
  10e80d:	48 89 75 e0          	mov    %rsi,-0x20(%rbp)
  10e811:	48 8b 45 e8          	mov    -0x18(%rbp),%rax
  10e815:	48 8b 50 08          	mov    0x8(%rax),%rdx
  10e819:	48 8b 45 e8          	mov    -0x18(%rbp),%rax
  10e81d:	48 8b 00             	mov    (%rax),%rax
  10e820:	48 39 c2             	cmp    %rax,%rdx
  10e823:	75 1a                	jne    10e83f <_ZN6vectorI8DirEntryE9push_backERKS0_+0x43>
  10e825:	48 8b 45 e8          	mov    -0x18(%rbp),%rax
  10e829:	48 8b 00             	mov    (%rax),%rax
  10e82c:	48 8d 14 00          	lea    (%rax,%rax,1),%rdx
  10e830:	48 8b 45 e8          	mov    -0x18(%rbp),%rax
  10e834:	48 89 d6             	mov    %rdx,%rsi
  10e837:	48 89 c7             	mov    %rax,%rdi
  10e83a:	e8 c9 01 00 00       	callq  10ea08 <_ZN6vectorI8DirEntryE6resizeEm>
  10e83f:	48 8b 45 e8          	mov    -0x18(%rbp),%rax
  10e843:	48 8b 70 10          	mov    0x10(%rax),%rsi
  10e847:	48 8b 45 e8          	mov    -0x18(%rbp),%rax
  10e84b:	48 8b 50 08          	mov    0x8(%rax),%rdx
  10e84f:	48 8d 4a 01          	lea    0x1(%rdx),%rcx
  10e853:	48 8b 45 e8          	mov    -0x18(%rbp),%rax
  10e857:	48 89 48 08          	mov    %rcx,0x8(%rax)
  10e85b:	48 89 d0             	mov    %rdx,%rax
  10e85e:	48 c1 e0 03          	shl    $0x3,%rax
  10e862:	48 01 d0             	add    %rdx,%rax
  10e865:	48 c1 e0 02          	shl    $0x2,%rax
  10e869:	48 01 d0             	add    %rdx,%rax
  10e86c:	48 c1 e0 02          	shl    $0x2,%rax
  10e870:	48 8d 14 06          	lea    (%rsi,%rax,1),%rdx
  10e874:	48 8b 45 e0          	mov    -0x20(%rbp),%rax
  10e878:	48 8b 08             	mov    (%rax),%rcx
  10e87b:	48 8b 58 08          	mov    0x8(%rax),%rbx
  10e87f:	48 89 0a             	mov    %rcx,(%rdx)
  10e882:	48 89 5a 08          	mov    %rbx,0x8(%rdx)
  10e886:	48 8b 48 10          	mov    0x10(%rax),%rcx
  10e88a:	48 8b 58 18          	mov    0x18(%rax),%rbx
  10e88e:	48 89 4a 10          	mov    %rcx,0x10(%rdx)
  10e892:	48 89 5a 18          	mov    %rbx,0x18(%rdx)
  10e896:	48 8b 48 20          	mov    0x20(%rax),%rcx
  10e89a:	48 8b 58 28          	mov    0x28(%rax),%rbx
  10e89e:	48 89 4a 20          	mov    %rcx,0x20(%rdx)
  10e8a2:	48 89 5a 28          	mov    %rbx,0x28(%rdx)
  10e8a6:	48 8b 48 30          	mov    0x30(%rax),%rcx
  10e8aa:	48 8b 58 38          	mov    0x38(%rax),%rbx
  10e8ae:	48 89 4a 30          	mov    %rcx,0x30(%rdx)
  10e8b2:	48 89 5a 38          	mov    %rbx,0x38(%rdx)
  10e8b6:	48 8b 48 40          	mov    0x40(%rax),%rcx
  10e8ba:	48 8b 58 48          	mov    0x48(%rax),%rbx
  10e8be:	48 89 4a 40          	mov    %rcx,0x40(%rdx)
  10e8c2:	48 89 5a 48          	mov    %rbx,0x48(%rdx)
  10e8c6:	48 8b 48 50          	mov    0x50(%rax),%rcx
  10e8ca:	48 8b 58 58          	mov    0x58(%rax),%rbx
  10e8ce:	48 89 4a 50          	mov    %rcx,0x50(%rdx)
  10e8d2:	48 89 5a 58          	mov    %rbx,0x58(%rdx)
  10e8d6:	48 8b 48 60          	mov    0x60(%rax),%rcx
  10e8da:	48 8b 58 68          	mov    0x68(%rax),%rbx
  10e8de:	48 89 4a 60          	mov    %rcx,0x60(%rdx)
  10e8e2:	48 89 5a 68          	mov    %rbx,0x68(%rdx)
  10e8e6:	48 8b 48 70          	mov    0x70(%rax),%rcx
  10e8ea:	48 8b 58 78          	mov    0x78(%rax),%rbx
  10e8ee:	48 89 4a 70          	mov    %rcx,0x70(%rdx)
  10e8f2:	48 89 5a 78          	mov    %rbx,0x78(%rdx)
  10e8f6:	48 8b 88 80 00 00 00 	mov    0x80(%rax),%rcx
  10e8fd:	48 8b 98 88 00 00 00 	mov    0x88(%rax),%rbx
  10e904:	48 89 8a 80 00 00 00 	mov    %rcx,0x80(%rdx)
  10e90b:	48 89 9a 88 00 00 00 	mov    %rbx,0x88(%rdx)
  10e912:	8b 80 90 00 00 00    	mov    0x90(%rax),%eax
  10e918:	89 82 90 00 00 00    	mov    %eax,0x90(%rdx)
  10e91e:	90                   	nop
  10e91f:	48 83 c4 18          	add    $0x18,%rsp
  10e923:	5b                   	pop    %rbx
  10e924:	5d                   	pop    %rbp
  10e925:	c3                   	retq   

Disassembly of section .text._ZN6vectorI8DirEntryEC2Ev:

000000000010e926 <_ZN6vectorI8DirEntryEC1Ev>:
  10e926:	f3 0f 1e fa          	endbr64 
  10e92a:	55                   	push   %rbp
  10e92b:	48 89 e5             	mov    %rsp,%rbp
  10e92e:	48 83 ec 10          	sub    $0x10,%rsp
  10e932:	48 89 7d f8          	mov    %rdi,-0x8(%rbp)
  10e936:	bf 28 01 00 00       	mov    $0x128,%edi
  10e93b:	e8 2d 51 ff ff       	callq  103a6d <_Znam>
  10e940:	48 89 c2             	mov    %rax,%rdx
  10e943:	48 8b 45 f8          	mov    -0x8(%rbp),%rax
  10e947:	48 89 50 10          	mov    %rdx,0x10(%rax)
  10e94b:	48 8b 45 f8          	mov    -0x8(%rbp),%rax
  10e94f:	48 c7 40 08 00 00 00 	movq   $0x0,0x8(%rax)
  10e956:	00 
  10e957:	48 8b 45 f8          	mov    -0x8(%rbp),%rax
  10e95b:	48 c7 00 02 00 00 00 	movq   $0x2,(%rax)
  10e962:	90                   	nop
  10e963:	c9                   	leaveq 
  10e964:	c3                   	retq   

Disassembly of section .text._ZN6vectorIjE6resizeEm:

000000000010e966 <_ZN6vectorIjE6resizeEm>:
  10e966:	f3 0f 1e fa          	endbr64 
  10e96a:	55                   	push   %rbp
  10e96b:	48 89 e5             	mov    %rsp,%rbp
  10e96e:	48 83 ec 20          	sub    $0x20,%rsp
  10e972:	48 89 7d e8          	mov    %rdi,-0x18(%rbp)
  10e976:	48 89 75 e0          	mov    %rsi,-0x20(%rbp)
  10e97a:	48 8b 45 e8          	mov    -0x18(%rbp),%rax
  10e97e:	48 8b 55 e0          	mov    -0x20(%rbp),%rdx
  10e982:	48 89 10             	mov    %rdx,(%rax)
  10e985:	48 8b 45 e8          	mov    -0x18(%rbp),%rax
  10e989:	48 8b 00             	mov    (%rax),%rax
  10e98c:	48 ba fe ff ff ff ff 	movabs $0x1ffffffffffffffe,%rdx
  10e993:	ff ff 1f 
  10e996:	48 39 d0             	cmp    %rdx,%rax
  10e999:	77 06                	ja     10e9a1 <_ZN6vectorIjE6resizeEm+0x3b>
  10e99b:	48 c1 e0 02          	shl    $0x2,%rax
  10e99f:	eb 07                	jmp    10e9a8 <_ZN6vectorIjE6resizeEm+0x42>
  10e9a1:	48 c7 c0 ff ff ff ff 	mov    $0xffffffffffffffff,%rax
  10e9a8:	48 89 c7             	mov    %rax,%rdi
  10e9ab:	e8 bd 50 ff ff       	callq  103a6d <_Znam>
  10e9b0:	48 89 45 f8          	mov    %rax,-0x8(%rbp)
  10e9b4:	48 8b 45 e8          	mov    -0x18(%rbp),%rax
  10e9b8:	48 8b 40 08          	mov    0x8(%rax),%rax
  10e9bc:	48 8d 14 85 00 00 00 	lea    0x0(,%rax,4),%rdx
  10e9c3:	00 
  10e9c4:	48 8b 45 e8          	mov    -0x18(%rbp),%rax
  10e9c8:	48 8b 48 10          	mov    0x10(%rax),%rcx
  10e9cc:	48 8b 45 f8          	mov    -0x8(%rbp),%rax
  10e9d0:	48 89 ce             	mov    %rcx,%rsi
  10e9d3:	48 89 c7             	mov    %rax,%rdi
  10e9d6:	e8 4e e4 ff ff       	callq  10ce29 <_Z6memcpyPvPKvm>
  10e9db:	48 8b 45 e8          	mov    -0x18(%rbp),%rax
  10e9df:	48 8b 40 10          	mov    0x10(%rax),%rax
  10e9e3:	48 85 c0             	test   %rax,%rax
  10e9e6:	74 10                	je     10e9f8 <_ZN6vectorIjE6resizeEm+0x92>
  10e9e8:	48 8b 45 e8          	mov    -0x18(%rbp),%rax
  10e9ec:	48 8b 40 10          	mov    0x10(%rax),%rax
  10e9f0:	48 89 c7             	mov    %rax,%rdi
  10e9f3:	e8 b2 50 ff ff       	callq  103aaa <_ZdaPv>
  10e9f8:	48 8b 45 e8          	mov    -0x18(%rbp),%rax
  10e9fc:	48 8b 55 f8          	mov    -0x8(%rbp),%rdx
  10ea00:	48 89 50 10          	mov    %rdx,0x10(%rax)
  10ea04:	90                   	nop
  10ea05:	c9                   	leaveq 
  10ea06:	c3                   	retq   

Disassembly of section .text._ZN6vectorI8DirEntryE6resizeEm:

000000000010ea08 <_ZN6vectorI8DirEntryE6resizeEm>:
  10ea08:	f3 0f 1e fa          	endbr64 
  10ea0c:	55                   	push   %rbp
  10ea0d:	48 89 e5             	mov    %rsp,%rbp
  10ea10:	48 83 ec 20          	sub    $0x20,%rsp
  10ea14:	48 89 7d e8          	mov    %rdi,-0x18(%rbp)
  10ea18:	48 89 75 e0          	mov    %rsi,-0x20(%rbp)
  10ea1c:	48 8b 45 e8          	mov    -0x18(%rbp),%rax
  10ea20:	48 8b 55 e0          	mov    -0x20(%rbp),%rdx
  10ea24:	48 89 10             	mov    %rdx,(%rax)
  10ea27:	48 8b 45 e8          	mov    -0x18(%rbp),%rax
  10ea2b:	48 8b 10             	mov    (%rax),%rdx
  10ea2e:	48 b8 7c d6 0d a6 c8 	movabs $0xdd67c8a60dd67c,%rax
  10ea35:	67 dd 00 
  10ea38:	48 39 c2             	cmp    %rax,%rdx
  10ea3b:	77 17                	ja     10ea54 <_ZN6vectorI8DirEntryE6resizeEm+0x4c>
  10ea3d:	48 89 d0             	mov    %rdx,%rax
  10ea40:	48 c1 e0 03          	shl    $0x3,%rax
  10ea44:	48 01 d0             	add    %rdx,%rax
  10ea47:	48 c1 e0 02          	shl    $0x2,%rax
  10ea4b:	48 01 d0             	add    %rdx,%rax
  10ea4e:	48 c1 e0 02          	shl    $0x2,%rax
  10ea52:	eb 07                	jmp    10ea5b <_ZN6vectorI8DirEntryE6resizeEm+0x53>
  10ea54:	48 c7 c0 ff ff ff ff 	mov    $0xffffffffffffffff,%rax
  10ea5b:	48 89 c7             	mov    %rax,%rdi
  10ea5e:	e8 0a 50 ff ff       	callq  103a6d <_Znam>
  10ea63:	48 89 45 f8          	mov    %rax,-0x8(%rbp)
  10ea67:	48 8b 45 e8          	mov    -0x18(%rbp),%rax
  10ea6b:	48 8b 50 08          	mov    0x8(%rax),%rdx
  10ea6f:	48 89 d0             	mov    %rdx,%rax
  10ea72:	48 c1 e0 03          	shl    $0x3,%rax
  10ea76:	48 01 d0             	add    %rdx,%rax
  10ea79:	48 c1 e0 02          	shl    $0x2,%rax
  10ea7d:	48 01 d0             	add    %rdx,%rax
  10ea80:	48 c1 e0 02          	shl    $0x2,%rax
  10ea84:	48 89 c2             	mov    %rax,%rdx
  10ea87:	48 8b 45 e8          	mov    -0x18(%rbp),%rax
  10ea8b:	48 8b 48 10          	mov    0x10(%rax),%rcx
  10ea8f:	48 8b 45 f8          	mov    -0x8(%rbp),%rax
  10ea93:	48 89 ce             	mov    %rcx,%rsi
  10ea96:	48 89 c7             	mov    %rax,%rdi
  10ea99:	e8 8b e3 ff ff       	callq  10ce29 <_Z6memcpyPvPKvm>
  10ea9e:	48 8b 45 e8          	mov    -0x18(%rbp),%rax
  10eaa2:	48 8b 40 10          	mov    0x10(%rax),%rax
  10eaa6:	48 85 c0             	test   %rax,%rax
  10eaa9:	74 10                	je     10eabb <_ZN6vectorI8DirEntryE6resizeEm+0xb3>
  10eaab:	48 8b 45 e8          	mov    -0x18(%rbp),%rax
  10eaaf:	48 8b 40 10          	mov    0x10(%rax),%rax
  10eab3:	48 89 c7             	mov    %rax,%rdi
  10eab6:	e8 ef 4f ff ff       	callq  103aaa <_ZdaPv>
  10eabb:	48 8b 45 e8          	mov    -0x18(%rbp),%rax
  10eabf:	48 8b 55 f8          	mov    -0x8(%rbp),%rdx
  10eac3:	48 89 50 10          	mov    %rdx,0x10(%rax)
  10eac7:	90                   	nop
  10eac8:	c9                   	leaveq 
  10eac9:	c3                   	retq   

Disassembly of section .text._ZN9MemoryMapC2EP14MemoryMapEntrym:

000000000010eaca <_ZN9MemoryMapC1EP14MemoryMapEntrym>:
  10eaca:	f3 0f 1e fa          	endbr64 
  10eace:	55                   	push   %rbp
  10eacf:	48 89 e5             	mov    %rsp,%rbp
  10ead2:	48 83 ec 18          	sub    $0x18,%rsp
  10ead6:	48 89 7d f8          	mov    %rdi,-0x8(%rbp)
  10eada:	48 89 75 f0          	mov    %rsi,-0x10(%rbp)
  10eade:	48 89 55 e8          	mov    %rdx,-0x18(%rbp)
  10eae2:	48 8b 45 f8          	mov    -0x8(%rbp),%rax
  10eae6:	48 8b 55 f0          	mov    -0x10(%rbp),%rdx
  10eaea:	48 89 10             	mov    %rdx,(%rax)
  10eaed:	48 8b 45 f8          	mov    -0x8(%rbp),%rax
  10eaf1:	48 8b 55 e8          	mov    -0x18(%rbp),%rdx
  10eaf5:	48 89 50 08          	mov    %rdx,0x8(%rax)
  10eaf9:	90                   	nop
  10eafa:	c9                   	leaveq 
  10eafb:	c3                   	retq   

Disassembly of section .text._ZNK18PageFrameAllocator10GetFreeRAMEv:

000000000010eafc <_ZNK18PageFrameAllocator10GetFreeRAMEv>:
  10eafc:	f3 0f 1e fa          	endbr64 
  10eb00:	55                   	push   %rbp
  10eb01:	48 89 e5             	mov    %rsp,%rbp
  10eb04:	48 83 ec 08          	sub    $0x8,%rsp
  10eb08:	48 89 7d f8          	mov    %rdi,-0x8(%rbp)
  10eb0c:	48 8b 45 f8          	mov    -0x8(%rbp),%rax
  10eb10:	48 8b 40 10          	mov    0x10(%rax),%rax
  10eb14:	c9                   	leaveq 
  10eb15:	c3                   	retq   

Disassembly of section .text._ZNK18PageFrameAllocator10GetUsedRAMEv:

000000000010eb16 <_ZNK18PageFrameAllocator10GetUsedRAMEv>:
  10eb16:	f3 0f 1e fa          	endbr64 
  10eb1a:	55                   	push   %rbp
  10eb1b:	48 89 e5             	mov    %rsp,%rbp
  10eb1e:	48 83 ec 08          	sub    $0x8,%rsp
  10eb22:	48 89 7d f8          	mov    %rdi,-0x8(%rbp)
  10eb26:	48 8b 45 f8          	mov    -0x8(%rbp),%rax
  10eb2a:	48 8b 40 18          	mov    0x18(%rax),%rax
  10eb2e:	c9                   	leaveq 
  10eb2f:	c3                   	retq   

Disassembly of section .text._ZNK18PageFrameAllocator14GetReservedRAMEv:

000000000010eb30 <_ZNK18PageFrameAllocator14GetReservedRAMEv>:
  10eb30:	f3 0f 1e fa          	endbr64 
  10eb34:	55                   	push   %rbp
  10eb35:	48 89 e5             	mov    %rsp,%rbp
  10eb38:	48 83 ec 08          	sub    $0x8,%rsp
  10eb3c:	48 89 7d f8          	mov    %rdi,-0x8(%rbp)
  10eb40:	48 8b 45 f8          	mov    -0x8(%rbp),%rax
  10eb44:	48 8b 40 20          	mov    0x20(%rax),%rax
  10eb48:	c9                   	leaveq 
  10eb49:	c3                   	retq   

Disassembly of section .text._ZN4ACPI4FADT7GetFADTEv:

000000000010eb4a <_ZN4ACPI4FADT7GetFADTEv>:
  10eb4a:	f3 0f 1e fa          	endbr64 
  10eb4e:	55                   	push   %rbp
  10eb4f:	48 89 e5             	mov    %rsp,%rbp
  10eb52:	53                   	push   %rbx
  10eb53:	48 83 ec 10          	sub    $0x10,%rsp
  10eb57:	48 89 7d f0          	mov    %rdi,-0x10(%rbp)
  10eb5b:	48 89 75 e8          	mov    %rsi,-0x18(%rbp)
  10eb5f:	48 8b 45 f0          	mov    -0x10(%rbp),%rax
  10eb63:	48 8b 55 e8          	mov    -0x18(%rbp),%rdx
  10eb67:	48 8b 0a             	mov    (%rdx),%rcx
  10eb6a:	48 8b 5a 08          	mov    0x8(%rdx),%rbx
  10eb6e:	48 89 08             	mov    %rcx,(%rax)
  10eb71:	48 89 58 08          	mov    %rbx,0x8(%rax)
  10eb75:	48 8b 4a 10          	mov    0x10(%rdx),%rcx
  10eb79:	48 8b 5a 18          	mov    0x18(%rdx),%rbx
  10eb7d:	48 89 48 10          	mov    %rcx,0x10(%rax)
  10eb81:	48 89 58 18          	mov    %rbx,0x18(%rax)
  10eb85:	48 8b 4a 20          	mov    0x20(%rdx),%rcx
  10eb89:	48 8b 5a 28          	mov    0x28(%rdx),%rbx
  10eb8d:	48 89 48 20          	mov    %rcx,0x20(%rax)
  10eb91:	48 89 58 28          	mov    %rbx,0x28(%rax)
  10eb95:	48 8b 4a 30          	mov    0x30(%rdx),%rcx
  10eb99:	48 8b 5a 38          	mov    0x38(%rdx),%rbx
  10eb9d:	48 89 48 30          	mov    %rcx,0x30(%rax)
  10eba1:	48 89 58 38          	mov    %rbx,0x38(%rax)
  10eba5:	48 8b 4a 40          	mov    0x40(%rdx),%rcx
  10eba9:	48 8b 5a 48          	mov    0x48(%rdx),%rbx
  10ebad:	48 89 48 40          	mov    %rcx,0x40(%rax)
  10ebb1:	48 89 58 48          	mov    %rbx,0x48(%rax)
  10ebb5:	48 8b 4a 50          	mov    0x50(%rdx),%rcx
  10ebb9:	48 8b 5a 58          	mov    0x58(%rdx),%rbx
  10ebbd:	48 89 48 50          	mov    %rcx,0x50(%rax)
  10ebc1:	48 89 58 58          	mov    %rbx,0x58(%rax)
  10ebc5:	48 8b 4a 60          	mov    0x60(%rdx),%rcx
  10ebc9:	48 8b 5a 68          	mov    0x68(%rdx),%rbx
  10ebcd:	48 89 48 60          	mov    %rcx,0x60(%rax)
  10ebd1:	48 89 58 68          	mov    %rbx,0x68(%rax)
  10ebd5:	48 8b 4a 70          	mov    0x70(%rdx),%rcx
  10ebd9:	48 8b 5a 78          	mov    0x78(%rdx),%rbx
  10ebdd:	48 89 48 70          	mov    %rcx,0x70(%rax)
  10ebe1:	48 89 58 78          	mov    %rbx,0x78(%rax)
  10ebe5:	48 8b 8a 80 00 00 00 	mov    0x80(%rdx),%rcx
  10ebec:	48 8b 9a 88 00 00 00 	mov    0x88(%rdx),%rbx
  10ebf3:	48 89 88 80 00 00 00 	mov    %rcx,0x80(%rax)
  10ebfa:	48 89 98 88 00 00 00 	mov    %rbx,0x88(%rax)
  10ec01:	48 8b 8a 90 00 00 00 	mov    0x90(%rdx),%rcx
  10ec08:	48 8b 9a 98 00 00 00 	mov    0x98(%rdx),%rbx
  10ec0f:	48 89 88 90 00 00 00 	mov    %rcx,0x90(%rax)
  10ec16:	48 89 98 98 00 00 00 	mov    %rbx,0x98(%rax)
  10ec1d:	48 8b 8a a0 00 00 00 	mov    0xa0(%rdx),%rcx
  10ec24:	48 8b 9a a8 00 00 00 	mov    0xa8(%rdx),%rbx
  10ec2b:	48 89 88 a0 00 00 00 	mov    %rcx,0xa0(%rax)
  10ec32:	48 89 98 a8 00 00 00 	mov    %rbx,0xa8(%rax)
  10ec39:	48 8b 8a b0 00 00 00 	mov    0xb0(%rdx),%rcx
  10ec40:	48 8b 9a b8 00 00 00 	mov    0xb8(%rdx),%rbx
  10ec47:	48 89 88 b0 00 00 00 	mov    %rcx,0xb0(%rax)
  10ec4e:	48 89 98 b8 00 00 00 	mov    %rbx,0xb8(%rax)
  10ec55:	48 8b 8a c0 00 00 00 	mov    0xc0(%rdx),%rcx
  10ec5c:	48 8b 9a c8 00 00 00 	mov    0xc8(%rdx),%rbx
  10ec63:	48 89 88 c0 00 00 00 	mov    %rcx,0xc0(%rax)
  10ec6a:	48 89 98 c8 00 00 00 	mov    %rbx,0xc8(%rax)
  10ec71:	48 8b 8a d0 00 00 00 	mov    0xd0(%rdx),%rcx
  10ec78:	48 8b 9a d8 00 00 00 	mov    0xd8(%rdx),%rbx
  10ec7f:	48 89 88 d0 00 00 00 	mov    %rcx,0xd0(%rax)
  10ec86:	48 89 98 d8 00 00 00 	mov    %rbx,0xd8(%rax)
  10ec8d:	48 8b 8a e0 00 00 00 	mov    0xe0(%rdx),%rcx
  10ec94:	48 8b 9a e8 00 00 00 	mov    0xe8(%rdx),%rbx
  10ec9b:	48 89 88 e0 00 00 00 	mov    %rcx,0xe0(%rax)
  10eca2:	48 89 98 e8 00 00 00 	mov    %rbx,0xe8(%rax)
  10eca9:	8b 92 f0 00 00 00    	mov    0xf0(%rdx),%edx
  10ecaf:	89 90 f0 00 00 00    	mov    %edx,0xf0(%rax)
  10ecb5:	48 8b 45 f0          	mov    -0x10(%rbp),%rax
  10ecb9:	48 83 c4 10          	add    $0x10,%rsp
  10ecbd:	5b                   	pop    %rbx
  10ecbe:	5d                   	pop    %rbp
  10ecbf:	c3                   	retq   

Disassembly of section .text._ZN9ATADeviceC2Ev:

000000000010ecc0 <_ZN9ATADeviceC1Ev>:
  10ecc0:	f3 0f 1e fa          	endbr64 
  10ecc4:	55                   	push   %rbp
  10ecc5:	48 89 e5             	mov    %rsp,%rbp
  10ecc8:	48 83 ec 10          	sub    $0x10,%rsp
  10eccc:	48 89 7d f8          	mov    %rdi,-0x8(%rbp)
  10ecd0:	48 8b 45 f8          	mov    -0x8(%rbp),%rax
  10ecd4:	48 89 c7             	mov    %rax,%rdi
  10ecd7:	e8 f4 f5 ff ff       	callq  10e2d0 <_ZN6DeviceC1Ev>
  10ecdc:	48 8d 15 c5 07 00 00 	lea    0x7c5(%rip),%rdx        # 10f4a8 <_ZTV9ATADevice+0x10>
  10ece3:	48 8b 45 f8          	mov    -0x8(%rbp),%rax
  10ece7:	48 89 10             	mov    %rdx,(%rax)
  10ecea:	90                   	nop
  10eceb:	c9                   	leaveq 
  10ecec:	c3                   	retq   
