
bin/kernel.elf:     file format elf64-x86-64


Disassembly of section .text:

0000000000100000 <_ZL8SetEntryP14PageTableEntrym>:
  100000:	f3 0f 1e fa          	endbr64 
  100004:	55                   	push   %rbp
  100005:	48 89 e5             	mov    %rsp,%rbp
  100008:	48 83 ec 10          	sub    $0x10,%rsp
  10000c:	48 89 7d f8          	mov    %rdi,-0x8(%rbp)
  100010:	48 89 75 f0          	mov    %rsi,-0x10(%rbp)
  100014:	48 8b 45 f0          	mov    -0x10(%rbp),%rax
  100018:	83 e0 01             	and    $0x1,%eax
  10001b:	48 8b 55 f8          	mov    -0x8(%rbp),%rdx
  10001f:	83 e0 01             	and    $0x1,%eax
  100022:	89 c1                	mov    %eax,%ecx
  100024:	0f b6 02             	movzbl (%rdx),%eax
  100027:	83 e0 fe             	and    $0xfffffffe,%eax
  10002a:	09 c8                	or     %ecx,%eax
  10002c:	88 02                	mov    %al,(%rdx)
  10002e:	48 8b 45 f0          	mov    -0x10(%rbp),%rax
  100032:	48 d1 e8             	shr    %rax
  100035:	83 e0 01             	and    $0x1,%eax
  100038:	48 8b 55 f8          	mov    -0x8(%rbp),%rdx
  10003c:	83 e0 01             	and    $0x1,%eax
  10003f:	8d 0c 00             	lea    (%rax,%rax,1),%ecx
  100042:	0f b6 02             	movzbl (%rdx),%eax
  100045:	83 e0 fd             	and    $0xfffffffd,%eax
  100048:	09 c8                	or     %ecx,%eax
  10004a:	88 02                	mov    %al,(%rdx)
  10004c:	48 8b 45 f0          	mov    -0x10(%rbp),%rax
  100050:	48 c1 e8 02          	shr    $0x2,%rax
  100054:	83 e0 01             	and    $0x1,%eax
  100057:	48 8b 55 f8          	mov    -0x8(%rbp),%rdx
  10005b:	83 e0 01             	and    $0x1,%eax
  10005e:	8d 0c 85 00 00 00 00 	lea    0x0(,%rax,4),%ecx
  100065:	0f b6 02             	movzbl (%rdx),%eax
  100068:	83 e0 fb             	and    $0xfffffffb,%eax
  10006b:	09 c8                	or     %ecx,%eax
  10006d:	88 02                	mov    %al,(%rdx)
  10006f:	48 8b 45 f0          	mov    -0x10(%rbp),%rax
  100073:	48 c1 e8 03          	shr    $0x3,%rax
  100077:	83 e0 01             	and    $0x1,%eax
  10007a:	48 8b 55 f8          	mov    -0x8(%rbp),%rdx
  10007e:	83 e0 01             	and    $0x1,%eax
  100081:	8d 0c c5 00 00 00 00 	lea    0x0(,%rax,8),%ecx
  100088:	0f b6 02             	movzbl (%rdx),%eax
  10008b:	83 e0 f7             	and    $0xfffffff7,%eax
  10008e:	09 c8                	or     %ecx,%eax
  100090:	88 02                	mov    %al,(%rdx)
  100092:	48 8b 45 f0          	mov    -0x10(%rbp),%rax
  100096:	48 c1 e8 04          	shr    $0x4,%rax
  10009a:	83 e0 01             	and    $0x1,%eax
  10009d:	48 8b 55 f8          	mov    -0x8(%rbp),%rdx
  1000a1:	83 e0 01             	and    $0x1,%eax
  1000a4:	c1 e0 04             	shl    $0x4,%eax
  1000a7:	89 c1                	mov    %eax,%ecx
  1000a9:	0f b6 02             	movzbl (%rdx),%eax
  1000ac:	83 e0 ef             	and    $0xffffffef,%eax
  1000af:	09 c8                	or     %ecx,%eax
  1000b1:	88 02                	mov    %al,(%rdx)
  1000b3:	48 8b 45 f0          	mov    -0x10(%rbp),%rax
  1000b7:	48 c1 e8 3f          	shr    $0x3f,%rax
  1000bb:	83 e0 01             	and    $0x1,%eax
  1000be:	48 8b 55 f8          	mov    -0x8(%rbp),%rdx
  1000c2:	c1 e0 07             	shl    $0x7,%eax
  1000c5:	89 c1                	mov    %eax,%ecx
  1000c7:	0f b6 42 07          	movzbl 0x7(%rdx),%eax
  1000cb:	83 e0 7f             	and    $0x7f,%eax
  1000ce:	09 c8                	or     %ecx,%eax
  1000d0:	88 42 07             	mov    %al,0x7(%rdx)
  1000d3:	90                   	nop
  1000d4:	c9                   	leaveq 
  1000d5:	c3                   	retq   

00000000001000d6 <_ZN16PageTableManager9MapMemoryEmmm>:
  1000d6:	f3 0f 1e fa          	endbr64 
  1000da:	55                   	push   %rbp
  1000db:	48 89 e5             	mov    %rsp,%rbp
  1000de:	48 83 c4 80          	add    $0xffffffffffffff80,%rsp
  1000e2:	48 89 7d 98          	mov    %rdi,-0x68(%rbp)
  1000e6:	48 89 75 90          	mov    %rsi,-0x70(%rbp)
  1000ea:	48 89 55 88          	mov    %rdx,-0x78(%rbp)
  1000ee:	48 89 4d 80          	mov    %rcx,-0x80(%rbp)
  1000f2:	48 8b 55 90          	mov    -0x70(%rbp),%rdx
  1000f6:	48 8d 45 c0          	lea    -0x40(%rbp),%rax
  1000fa:	48 89 d6             	mov    %rdx,%rsi
  1000fd:	48 89 c7             	mov    %rax,%rdi
  100100:	e8 07 dd 00 00       	callq  10de0c <_ZN14PageMapIndexerC1Em>
  100105:	48 8b 45 98          	mov    -0x68(%rbp),%rax
  100109:	48 8b 00             	mov    (%rax),%rax
  10010c:	48 8b 55 c0          	mov    -0x40(%rbp),%rdx
  100110:	48 8b 04 d0          	mov    (%rax,%rdx,8),%rax
  100114:	48 89 45 b8          	mov    %rax,-0x48(%rbp)
  100118:	0f b6 45 b8          	movzbl -0x48(%rbp),%eax
  10011c:	83 e0 01             	and    $0x1,%eax
  10011f:	84 c0                	test   %al,%al
  100121:	0f 85 82 00 00 00    	jne    1001a9 <_ZN16PageTableManager9MapMemoryEmmm+0xd3>
  100127:	e8 f6 13 00 00       	callq  101522 <_ZN18PageFrameAllocator15SharedAllocatorEv>
  10012c:	48 89 c7             	mov    %rax,%rdi
  10012f:	e8 42 11 00 00       	callq  101276 <_ZN18PageFrameAllocator11RequestPageEv>
  100134:	48 89 45 f8          	mov    %rax,-0x8(%rbp)
  100138:	48 8b 45 f8          	mov    -0x8(%rbp),%rax
  10013c:	ba 00 10 00 00       	mov    $0x1000,%edx
  100141:	be 00 00 00 00       	mov    $0x0,%esi
  100146:	48 89 c7             	mov    %rax,%rdi
  100149:	e8 01 cb 00 00       	callq  10cc4f <_Z6memsetPvim>
  10014e:	48 8b 45 f8          	mov    -0x8(%rbp),%rax
  100152:	48 c1 e8 0c          	shr    $0xc,%rax
  100156:	25 ff ff ff 0f       	and    $0xfffffff,%eax
  10015b:	89 c0                	mov    %eax,%eax
  10015d:	25 ff ff ff 0f       	and    $0xfffffff,%eax
  100162:	48 c1 e0 0c          	shl    $0xc,%rax
  100166:	48 89 c2             	mov    %rax,%rdx
  100169:	48 8b 45 b8          	mov    -0x48(%rbp),%rax
  10016d:	48 b9 ff 0f 00 00 00 	movabs $0xffffff0000000fff,%rcx
  100174:	ff ff ff 
  100177:	48 21 c8             	and    %rcx,%rax
  10017a:	48 09 d0             	or     %rdx,%rax
  10017d:	48 89 45 b8          	mov    %rax,-0x48(%rbp)
  100181:	48 8b 55 80          	mov    -0x80(%rbp),%rdx
  100185:	48 8d 45 b8          	lea    -0x48(%rbp),%rax
  100189:	48 89 d6             	mov    %rdx,%rsi
  10018c:	48 89 c7             	mov    %rax,%rdi
  10018f:	e8 6c fe ff ff       	callq  100000 <_ZL8SetEntryP14PageTableEntrym>
  100194:	48 8b 45 98          	mov    -0x68(%rbp),%rax
  100198:	48 8b 00             	mov    (%rax),%rax
  10019b:	48 8b 55 c0          	mov    -0x40(%rbp),%rdx
  10019f:	48 8b 4d b8          	mov    -0x48(%rbp),%rcx
  1001a3:	48 89 0c d0          	mov    %rcx,(%rax,%rdx,8)
  1001a7:	eb 16                	jmp    1001bf <_ZN16PageTableManager9MapMemoryEmmm+0xe9>
  1001a9:	48 8b 45 b8          	mov    -0x48(%rbp),%rax
  1001ad:	48 c1 e8 0c          	shr    $0xc,%rax
  1001b1:	25 ff ff ff 0f       	and    $0xfffffff,%eax
  1001b6:	c1 e0 0c             	shl    $0xc,%eax
  1001b9:	48 98                	cltq   
  1001bb:	48 89 45 f8          	mov    %rax,-0x8(%rbp)
  1001bf:	48 8b 55 c8          	mov    -0x38(%rbp),%rdx
  1001c3:	48 8b 45 f8          	mov    -0x8(%rbp),%rax
  1001c7:	48 8b 04 d0          	mov    (%rax,%rdx,8),%rax
  1001cb:	48 89 45 b0          	mov    %rax,-0x50(%rbp)
  1001cf:	0f b6 45 b0          	movzbl -0x50(%rbp),%eax
  1001d3:	83 e0 01             	and    $0x1,%eax
  1001d6:	84 c0                	test   %al,%al
  1001d8:	75 7f                	jne    100259 <_ZN16PageTableManager9MapMemoryEmmm+0x183>
  1001da:	e8 43 13 00 00       	callq  101522 <_ZN18PageFrameAllocator15SharedAllocatorEv>
  1001df:	48 89 c7             	mov    %rax,%rdi
  1001e2:	e8 8f 10 00 00       	callq  101276 <_ZN18PageFrameAllocator11RequestPageEv>
  1001e7:	48 89 45 f0          	mov    %rax,-0x10(%rbp)
  1001eb:	48 8b 45 f0          	mov    -0x10(%rbp),%rax
  1001ef:	ba 00 10 00 00       	mov    $0x1000,%edx
  1001f4:	be 00 00 00 00       	mov    $0x0,%esi
  1001f9:	48 89 c7             	mov    %rax,%rdi
  1001fc:	e8 4e ca 00 00       	callq  10cc4f <_Z6memsetPvim>
  100201:	48 8b 45 f0          	mov    -0x10(%rbp),%rax
  100205:	48 c1 e8 0c          	shr    $0xc,%rax
  100209:	25 ff ff ff 0f       	and    $0xfffffff,%eax
  10020e:	89 c0                	mov    %eax,%eax
  100210:	25 ff ff ff 0f       	and    $0xfffffff,%eax
  100215:	48 c1 e0 0c          	shl    $0xc,%rax
  100219:	48 89 c2             	mov    %rax,%rdx
  10021c:	48 8b 45 b0          	mov    -0x50(%rbp),%rax
  100220:	48 b9 ff 0f 00 00 00 	movabs $0xffffff0000000fff,%rcx
  100227:	ff ff ff 
  10022a:	48 21 c8             	and    %rcx,%rax
  10022d:	48 09 d0             	or     %rdx,%rax
  100230:	48 89 45 b0          	mov    %rax,-0x50(%rbp)
  100234:	48 8b 55 80          	mov    -0x80(%rbp),%rdx
  100238:	48 8d 45 b0          	lea    -0x50(%rbp),%rax
  10023c:	48 89 d6             	mov    %rdx,%rsi
  10023f:	48 89 c7             	mov    %rax,%rdi
  100242:	e8 b9 fd ff ff       	callq  100000 <_ZL8SetEntryP14PageTableEntrym>
  100247:	48 8b 55 c8          	mov    -0x38(%rbp),%rdx
  10024b:	48 8b 45 f8          	mov    -0x8(%rbp),%rax
  10024f:	48 8b 4d b0          	mov    -0x50(%rbp),%rcx
  100253:	48 89 0c d0          	mov    %rcx,(%rax,%rdx,8)
  100257:	eb 16                	jmp    10026f <_ZN16PageTableManager9MapMemoryEmmm+0x199>
  100259:	48 8b 45 b0          	mov    -0x50(%rbp),%rax
  10025d:	48 c1 e8 0c          	shr    $0xc,%rax
  100261:	25 ff ff ff 0f       	and    $0xfffffff,%eax
  100266:	c1 e0 0c             	shl    $0xc,%eax
  100269:	48 98                	cltq   
  10026b:	48 89 45 f0          	mov    %rax,-0x10(%rbp)
  10026f:	48 8b 55 d0          	mov    -0x30(%rbp),%rdx
  100273:	48 8b 45 f0          	mov    -0x10(%rbp),%rax
  100277:	48 8b 04 d0          	mov    (%rax,%rdx,8),%rax
  10027b:	48 89 45 a8          	mov    %rax,-0x58(%rbp)
  10027f:	0f b6 45 a8          	movzbl -0x58(%rbp),%eax
  100283:	83 e0 01             	and    $0x1,%eax
  100286:	84 c0                	test   %al,%al
  100288:	75 7f                	jne    100309 <_ZN16PageTableManager9MapMemoryEmmm+0x233>
  10028a:	e8 93 12 00 00       	callq  101522 <_ZN18PageFrameAllocator15SharedAllocatorEv>
  10028f:	48 89 c7             	mov    %rax,%rdi
  100292:	e8 df 0f 00 00       	callq  101276 <_ZN18PageFrameAllocator11RequestPageEv>
  100297:	48 89 45 e8          	mov    %rax,-0x18(%rbp)
  10029b:	48 8b 45 e8          	mov    -0x18(%rbp),%rax
  10029f:	ba 00 10 00 00       	mov    $0x1000,%edx
  1002a4:	be 00 00 00 00       	mov    $0x0,%esi
  1002a9:	48 89 c7             	mov    %rax,%rdi
  1002ac:	e8 9e c9 00 00       	callq  10cc4f <_Z6memsetPvim>
  1002b1:	48 8b 45 e8          	mov    -0x18(%rbp),%rax
  1002b5:	48 c1 e8 0c          	shr    $0xc,%rax
  1002b9:	25 ff ff ff 0f       	and    $0xfffffff,%eax
  1002be:	89 c0                	mov    %eax,%eax
  1002c0:	25 ff ff ff 0f       	and    $0xfffffff,%eax
  1002c5:	48 c1 e0 0c          	shl    $0xc,%rax
  1002c9:	48 89 c2             	mov    %rax,%rdx
  1002cc:	48 8b 45 a8          	mov    -0x58(%rbp),%rax
  1002d0:	48 b9 ff 0f 00 00 00 	movabs $0xffffff0000000fff,%rcx
  1002d7:	ff ff ff 
  1002da:	48 21 c8             	and    %rcx,%rax
  1002dd:	48 09 d0             	or     %rdx,%rax
  1002e0:	48 89 45 a8          	mov    %rax,-0x58(%rbp)
  1002e4:	48 8b 55 80          	mov    -0x80(%rbp),%rdx
  1002e8:	48 8d 45 a8          	lea    -0x58(%rbp),%rax
  1002ec:	48 89 d6             	mov    %rdx,%rsi
  1002ef:	48 89 c7             	mov    %rax,%rdi
  1002f2:	e8 09 fd ff ff       	callq  100000 <_ZL8SetEntryP14PageTableEntrym>
  1002f7:	48 8b 55 d0          	mov    -0x30(%rbp),%rdx
  1002fb:	48 8b 45 f0          	mov    -0x10(%rbp),%rax
  1002ff:	48 8b 4d a8          	mov    -0x58(%rbp),%rcx
  100303:	48 89 0c d0          	mov    %rcx,(%rax,%rdx,8)
  100307:	eb 16                	jmp    10031f <_ZN16PageTableManager9MapMemoryEmmm+0x249>
  100309:	48 8b 45 a8          	mov    -0x58(%rbp),%rax
  10030d:	48 c1 e8 0c          	shr    $0xc,%rax
  100311:	25 ff ff ff 0f       	and    $0xfffffff,%eax
  100316:	c1 e0 0c             	shl    $0xc,%eax
  100319:	48 98                	cltq   
  10031b:	48 89 45 e8          	mov    %rax,-0x18(%rbp)
  10031f:	48 8b 55 d8          	mov    -0x28(%rbp),%rdx
  100323:	48 8b 45 e8          	mov    -0x18(%rbp),%rax
  100327:	48 8b 04 d0          	mov    (%rax,%rdx,8),%rax
  10032b:	48 89 45 a0          	mov    %rax,-0x60(%rbp)
  10032f:	48 8b 45 88          	mov    -0x78(%rbp),%rax
  100333:	48 c1 e8 0c          	shr    $0xc,%rax
  100337:	25 ff ff ff 0f       	and    $0xfffffff,%eax
  10033c:	89 c0                	mov    %eax,%eax
  10033e:	25 ff ff ff 0f       	and    $0xfffffff,%eax
  100343:	48 c1 e0 0c          	shl    $0xc,%rax
  100347:	48 89 c2             	mov    %rax,%rdx
  10034a:	48 8b 45 a0          	mov    -0x60(%rbp),%rax
  10034e:	48 b9 ff 0f 00 00 00 	movabs $0xffffff0000000fff,%rcx
  100355:	ff ff ff 
  100358:	48 21 c8             	and    %rcx,%rax
  10035b:	48 09 d0             	or     %rdx,%rax
  10035e:	48 89 45 a0          	mov    %rax,-0x60(%rbp)
  100362:	48 8b 55 80          	mov    -0x80(%rbp),%rdx
  100366:	48 8d 45 a0          	lea    -0x60(%rbp),%rax
  10036a:	48 89 d6             	mov    %rdx,%rsi
  10036d:	48 89 c7             	mov    %rax,%rdi
  100370:	e8 8b fc ff ff       	callq  100000 <_ZL8SetEntryP14PageTableEntrym>
  100375:	48 8b 55 d8          	mov    -0x28(%rbp),%rdx
  100379:	48 8b 45 e8          	mov    -0x18(%rbp),%rax
  10037d:	48 8b 4d a0          	mov    -0x60(%rbp),%rcx
  100381:	48 89 0c d0          	mov    %rcx,(%rax,%rdx,8)
  100385:	90                   	nop
  100386:	c9                   	leaveq 
  100387:	c3                   	retq   

0000000000100388 <_ZN16PageTableManager15PhysicalAddressEm>:
  100388:	f3 0f 1e fa          	endbr64 
  10038c:	55                   	push   %rbp
  10038d:	48 89 e5             	mov    %rsp,%rbp
  100390:	48 83 ec 70          	sub    $0x70,%rsp
  100394:	48 89 7d 98          	mov    %rdi,-0x68(%rbp)
  100398:	48 89 75 90          	mov    %rsi,-0x70(%rbp)
  10039c:	48 8b 55 90          	mov    -0x70(%rbp),%rdx
  1003a0:	48 8d 45 c0          	lea    -0x40(%rbp),%rax
  1003a4:	48 89 d6             	mov    %rdx,%rsi
  1003a7:	48 89 c7             	mov    %rax,%rdi
  1003aa:	e8 5d da 00 00       	callq  10de0c <_ZN14PageMapIndexerC1Em>
  1003af:	48 8b 45 98          	mov    -0x68(%rbp),%rax
  1003b3:	48 8b 00             	mov    (%rax),%rax
  1003b6:	48 8b 55 c0          	mov    -0x40(%rbp),%rdx
  1003ba:	48 8b 04 d0          	mov    (%rax,%rdx,8),%rax
  1003be:	48 89 45 b8          	mov    %rax,-0x48(%rbp)
  1003c2:	48 8b 45 b8          	mov    -0x48(%rbp),%rax
  1003c6:	48 c1 e8 0c          	shr    $0xc,%rax
  1003ca:	25 ff ff ff 0f       	and    $0xfffffff,%eax
  1003cf:	c1 e0 0c             	shl    $0xc,%eax
  1003d2:	48 98                	cltq   
  1003d4:	48 89 45 f8          	mov    %rax,-0x8(%rbp)
  1003d8:	48 8b 55 c8          	mov    -0x38(%rbp),%rdx
  1003dc:	48 8b 45 f8          	mov    -0x8(%rbp),%rax
  1003e0:	48 8b 04 d0          	mov    (%rax,%rdx,8),%rax
  1003e4:	48 89 45 b0          	mov    %rax,-0x50(%rbp)
  1003e8:	48 8b 45 b0          	mov    -0x50(%rbp),%rax
  1003ec:	48 c1 e8 0c          	shr    $0xc,%rax
  1003f0:	25 ff ff ff 0f       	and    $0xfffffff,%eax
  1003f5:	c1 e0 0c             	shl    $0xc,%eax
  1003f8:	48 98                	cltq   
  1003fa:	48 89 45 f0          	mov    %rax,-0x10(%rbp)
  1003fe:	48 8b 55 d0          	mov    -0x30(%rbp),%rdx
  100402:	48 8b 45 f0          	mov    -0x10(%rbp),%rax
  100406:	48 8b 04 d0          	mov    (%rax,%rdx,8),%rax
  10040a:	48 89 45 a8          	mov    %rax,-0x58(%rbp)
  10040e:	48 8b 45 a8          	mov    -0x58(%rbp),%rax
  100412:	48 c1 e8 0c          	shr    $0xc,%rax
  100416:	25 ff ff ff 0f       	and    $0xfffffff,%eax
  10041b:	c1 e0 0c             	shl    $0xc,%eax
  10041e:	48 98                	cltq   
  100420:	48 89 45 e8          	mov    %rax,-0x18(%rbp)
  100424:	48 8b 55 d8          	mov    -0x28(%rbp),%rdx
  100428:	48 8b 45 e8          	mov    -0x18(%rbp),%rax
  10042c:	48 8b 04 d0          	mov    (%rax,%rdx,8),%rax
  100430:	48 89 45 a0          	mov    %rax,-0x60(%rbp)
  100434:	48 8b 45 a0          	mov    -0x60(%rbp),%rax
  100438:	48 c1 e8 0c          	shr    $0xc,%rax
  10043c:	25 ff ff ff 0f       	and    $0xfffffff,%eax
  100441:	c1 e0 0c             	shl    $0xc,%eax
  100444:	48 98                	cltq   
  100446:	48 89 45 e0          	mov    %rax,-0x20(%rbp)
  10044a:	48 8b 45 e0          	mov    -0x20(%rbp),%rax
  10044e:	c9                   	leaveq 
  10044f:	c3                   	retq   

0000000000100450 <_ZN16PageTableManager12SetAsCurrentEv>:
  100450:	f3 0f 1e fa          	endbr64 
  100454:	55                   	push   %rbp
  100455:	48 89 e5             	mov    %rsp,%rbp
  100458:	48 83 ec 20          	sub    $0x20,%rsp
  10045c:	48 89 7d e8          	mov    %rdi,-0x18(%rbp)
  100460:	48 8b 45 e8          	mov    -0x18(%rbp),%rax
  100464:	48 8b 00             	mov    (%rax),%rax
  100467:	48 89 c2             	mov    %rax,%rdx
  10046a:	48 8b 45 e8          	mov    -0x18(%rbp),%rax
  10046e:	48 89 d6             	mov    %rdx,%rsi
  100471:	48 89 c7             	mov    %rax,%rdi
  100474:	e8 0f ff ff ff       	callq  100388 <_ZN16PageTableManager15PhysicalAddressEm>
  100479:	48 89 45 f8          	mov    %rax,-0x8(%rbp)
  10047d:	48 8b 45 f8          	mov    -0x8(%rbp),%rax
  100481:	0f 22 d8             	mov    %rax,%cr3
  100484:	48 8b 45 e8          	mov    -0x18(%rbp),%rax
  100488:	48 89 05 c1 4b 01 00 	mov    %rax,0x14bc1(%rip)        # 115050 <CurrentDirectory>
  10048f:	90                   	nop
  100490:	c9                   	leaveq 
  100491:	c3                   	retq   

0000000000100492 <_ZN16PageTableManager5CloneEv>:
  100492:	f3 0f 1e fa          	endbr64 
  100496:	55                   	push   %rbp
  100497:	48 89 e5             	mov    %rsp,%rbp
  10049a:	53                   	push   %rbx
  10049b:	48 83 ec 28          	sub    $0x28,%rsp
  10049f:	48 89 7d d8          	mov    %rdi,-0x28(%rbp)
  1004a3:	48 8d 3d 9e 4b 01 00 	lea    0x14b9e(%rip),%rdi        # 115048 <KernelDirectory>
  1004aa:	e8 f9 d9 00 00       	callq  10dea8 <_ZN16PageTableManager7GetPML4Ev>
  1004af:	48 89 c2             	mov    %rax,%rdx
  1004b2:	48 8b 45 d8          	mov    -0x28(%rbp),%rax
  1004b6:	48 8b 08             	mov    (%rax),%rcx
  1004b9:	48 8b 45 d8          	mov    -0x28(%rbp),%rax
  1004bd:	48 89 ce             	mov    %rcx,%rsi
  1004c0:	48 89 c7             	mov    %rax,%rdi
  1004c3:	e8 82 08 00 00       	callq  100d4a <_ZN16PageTableManager9ClonePML4EP9PageTableS1_>
  1004c8:	48 89 45 e8          	mov    %rax,-0x18(%rbp)
  1004cc:	bf 08 00 00 00       	mov    $0x8,%edi
  1004d1:	e8 b5 34 00 00       	callq  10398b <_Znwm>
  1004d6:	48 89 c3             	mov    %rax,%rbx
  1004d9:	48 8b 45 e8          	mov    -0x18(%rbp),%rax
  1004dd:	48 89 c6             	mov    %rax,%rsi
  1004e0:	48 89 df             	mov    %rbx,%rdi
  1004e3:	e8 9e d9 00 00       	callq  10de86 <_ZN16PageTableManagerC1EP9PageTable>
  1004e8:	48 89 5d e0          	mov    %rbx,-0x20(%rbp)
  1004ec:	48 8b 45 e0          	mov    -0x20(%rbp),%rax
  1004f0:	48 83 c4 28          	add    $0x28,%rsp
  1004f4:	5b                   	pop    %rbx
  1004f5:	5d                   	pop    %rbp
  1004f6:	c3                   	retq   
  1004f7:	90                   	nop

00000000001004f8 <_ZN16PageTableManager9ClonePageEPv>:
  1004f8:	f3 0f 1e fa          	endbr64 
  1004fc:	55                   	push   %rbp
  1004fd:	48 89 e5             	mov    %rsp,%rbp
  100500:	48 83 ec 20          	sub    $0x20,%rsp
  100504:	48 89 7d e8          	mov    %rdi,-0x18(%rbp)
  100508:	48 89 75 e0          	mov    %rsi,-0x20(%rbp)
  10050c:	e8 11 10 00 00       	callq  101522 <_ZN18PageFrameAllocator15SharedAllocatorEv>
  100511:	48 89 c7             	mov    %rax,%rdi
  100514:	e8 5d 0d 00 00       	callq  101276 <_ZN18PageFrameAllocator11RequestPageEv>
  100519:	48 89 45 f8          	mov    %rax,-0x8(%rbp)
  10051d:	48 8b 4d e0          	mov    -0x20(%rbp),%rcx
  100521:	48 8b 45 f8          	mov    -0x8(%rbp),%rax
  100525:	ba 00 10 00 00       	mov    $0x1000,%edx
  10052a:	48 89 ce             	mov    %rcx,%rsi
  10052d:	48 89 c7             	mov    %rax,%rdi
  100530:	e8 d8 c6 00 00       	callq  10cc0d <_Z6memcpyPvPKvm>
  100535:	48 8b 45 f8          	mov    -0x8(%rbp),%rax
  100539:	c9                   	leaveq 
  10053a:	c3                   	retq   
  10053b:	90                   	nop

000000000010053c <_ZN16PageTableManager7ClonePTEP9PageTableS1_>:
  10053c:	f3 0f 1e fa          	endbr64 
  100540:	55                   	push   %rbp
  100541:	48 89 e5             	mov    %rsp,%rbp
  100544:	48 83 ec 50          	sub    $0x50,%rsp
  100548:	48 89 7d c8          	mov    %rdi,-0x38(%rbp)
  10054c:	48 89 75 c0          	mov    %rsi,-0x40(%rbp)
  100550:	48 89 55 b8          	mov    %rdx,-0x48(%rbp)
  100554:	e8 c9 0f 00 00       	callq  101522 <_ZN18PageFrameAllocator15SharedAllocatorEv>
  100559:	48 89 c7             	mov    %rax,%rdi
  10055c:	e8 15 0d 00 00       	callq  101276 <_ZN18PageFrameAllocator11RequestPageEv>
  100561:	48 89 45 f0          	mov    %rax,-0x10(%rbp)
  100565:	48 8b 45 f0          	mov    -0x10(%rbp),%rax
  100569:	ba 00 10 00 00       	mov    $0x1000,%edx
  10056e:	be 00 00 00 00       	mov    $0x0,%esi
  100573:	48 89 c7             	mov    %rax,%rdi
  100576:	e8 d4 c6 00 00       	callq  10cc4f <_Z6memsetPvim>
  10057b:	c7 45 fc 00 00 00 00 	movl   $0x0,-0x4(%rbp)
  100582:	81 7d fc ff 01 00 00 	cmpl   $0x1ff,-0x4(%rbp)
  100589:	0f 87 40 02 00 00    	ja     1007cf <_ZN16PageTableManager7ClonePTEP9PageTableS1_+0x293>
  10058f:	48 8b 45 c0          	mov    -0x40(%rbp),%rax
  100593:	8b 55 fc             	mov    -0x4(%rbp),%edx
  100596:	48 8b 04 d0          	mov    (%rax,%rdx,8),%rax
  10059a:	48 c1 e8 0c          	shr    $0xc,%rax
  10059e:	25 ff ff ff 0f       	and    $0xfffffff,%eax
  1005a3:	85 c0                	test   %eax,%eax
  1005a5:	0f 84 1a 02 00 00    	je     1007c5 <_ZN16PageTableManager7ClonePTEP9PageTableS1_+0x289>
  1005ab:	8b 45 fc             	mov    -0x4(%rbp),%eax
  1005ae:	48 8d 14 c5 00 00 00 	lea    0x0(,%rax,8),%rdx
  1005b5:	00 
  1005b6:	48 8b 45 c0          	mov    -0x40(%rbp),%rax
  1005ba:	48 01 d0             	add    %rdx,%rax
  1005bd:	48 8b 00             	mov    (%rax),%rax
  1005c0:	48 89 45 e8          	mov    %rax,-0x18(%rbp)
  1005c4:	8b 45 fc             	mov    -0x4(%rbp),%eax
  1005c7:	48 8d 14 c5 00 00 00 	lea    0x0(,%rax,8),%rdx
  1005ce:	00 
  1005cf:	48 8b 45 b8          	mov    -0x48(%rbp),%rax
  1005d3:	48 01 d0             	add    %rdx,%rax
  1005d6:	48 8b 00             	mov    (%rax),%rax
  1005d9:	48 89 45 e0          	mov    %rax,-0x20(%rbp)
  1005dd:	48 8b 45 e8          	mov    -0x18(%rbp),%rax
  1005e1:	48 3b 45 e0          	cmp    -0x20(%rbp),%rax
  1005e5:	75 1b                	jne    100602 <_ZN16PageTableManager7ClonePTEP9PageTableS1_+0xc6>
  1005e7:	48 8b 45 f0          	mov    -0x10(%rbp),%rax
  1005eb:	8b 55 fc             	mov    -0x4(%rbp),%edx
  1005ee:	48 8b 4d c0          	mov    -0x40(%rbp),%rcx
  1005f2:	8b 75 fc             	mov    -0x4(%rbp),%esi
  1005f5:	48 8b 0c f1          	mov    (%rcx,%rsi,8),%rcx
  1005f9:	48 89 0c d0          	mov    %rcx,(%rax,%rdx,8)
  1005fd:	e9 c4 01 00 00       	jmpq   1007c6 <_ZN16PageTableManager7ClonePTEP9PageTableS1_+0x28a>
  100602:	48 8b 45 c0          	mov    -0x40(%rbp),%rax
  100606:	8b 55 fc             	mov    -0x4(%rbp),%edx
  100609:	48 8b 04 d0          	mov    (%rax,%rdx,8),%rax
  10060d:	48 c1 e8 0c          	shr    $0xc,%rax
  100611:	25 ff ff ff 0f       	and    $0xfffffff,%eax
  100616:	c1 e0 0c             	shl    $0xc,%eax
  100619:	48 98                	cltq   
  10061b:	48 89 45 d8          	mov    %rax,-0x28(%rbp)
  10061f:	48 8b 55 d8          	mov    -0x28(%rbp),%rdx
  100623:	48 8b 45 c8          	mov    -0x38(%rbp),%rax
  100627:	48 89 d6             	mov    %rdx,%rsi
  10062a:	48 89 c7             	mov    %rax,%rdi
  10062d:	e8 c6 fe ff ff       	callq  1004f8 <_ZN16PageTableManager9ClonePageEPv>
  100632:	48 89 45 d0          	mov    %rax,-0x30(%rbp)
  100636:	48 8b 45 d0          	mov    -0x30(%rbp),%rax
  10063a:	48 c1 e8 0c          	shr    $0xc,%rax
  10063e:	89 c1                	mov    %eax,%ecx
  100640:	81 e1 ff ff ff 0f    	and    $0xfffffff,%ecx
  100646:	48 8b 45 f0          	mov    -0x10(%rbp),%rax
  10064a:	8b 55 fc             	mov    -0x4(%rbp),%edx
  10064d:	89 c9                	mov    %ecx,%ecx
  10064f:	81 e1 ff ff ff 0f    	and    $0xfffffff,%ecx
  100655:	48 89 ce             	mov    %rcx,%rsi
  100658:	48 c1 e6 0c          	shl    $0xc,%rsi
  10065c:	48 8b 0c d0          	mov    (%rax,%rdx,8),%rcx
  100660:	48 bf ff 0f 00 00 00 	movabs $0xffffff0000000fff,%rdi
  100667:	ff ff ff 
  10066a:	48 21 f9             	and    %rdi,%rcx
  10066d:	48 09 f1             	or     %rsi,%rcx
  100670:	48 89 0c d0          	mov    %rcx,(%rax,%rdx,8)
  100674:	48 8b 45 c0          	mov    -0x40(%rbp),%rax
  100678:	8b 55 fc             	mov    -0x4(%rbp),%edx
  10067b:	0f b6 04 d0          	movzbl (%rax,%rdx,8),%eax
  10067f:	83 e0 01             	and    $0x1,%eax
  100682:	84 c0                	test   %al,%al
  100684:	74 11                	je     100697 <_ZN16PageTableManager7ClonePTEP9PageTableS1_+0x15b>
  100686:	48 8b 45 f0          	mov    -0x10(%rbp),%rax
  10068a:	8b 55 fc             	mov    -0x4(%rbp),%edx
  10068d:	0f b6 0c d0          	movzbl (%rax,%rdx,8),%ecx
  100691:	83 c9 01             	or     $0x1,%ecx
  100694:	88 0c d0             	mov    %cl,(%rax,%rdx,8)
  100697:	48 8b 45 c0          	mov    -0x40(%rbp),%rax
  10069b:	8b 55 fc             	mov    -0x4(%rbp),%edx
  10069e:	0f b6 04 d0          	movzbl (%rax,%rdx,8),%eax
  1006a2:	d0 e8                	shr    %al
  1006a4:	83 e0 01             	and    $0x1,%eax
  1006a7:	84 c0                	test   %al,%al
  1006a9:	74 11                	je     1006bc <_ZN16PageTableManager7ClonePTEP9PageTableS1_+0x180>
  1006ab:	48 8b 45 f0          	mov    -0x10(%rbp),%rax
  1006af:	8b 55 fc             	mov    -0x4(%rbp),%edx
  1006b2:	0f b6 0c d0          	movzbl (%rax,%rdx,8),%ecx
  1006b6:	83 c9 02             	or     $0x2,%ecx
  1006b9:	88 0c d0             	mov    %cl,(%rax,%rdx,8)
  1006bc:	48 8b 45 c0          	mov    -0x40(%rbp),%rax
  1006c0:	8b 55 fc             	mov    -0x4(%rbp),%edx
  1006c3:	0f b6 04 d0          	movzbl (%rax,%rdx,8),%eax
  1006c7:	c0 e8 02             	shr    $0x2,%al
  1006ca:	83 e0 01             	and    $0x1,%eax
  1006cd:	84 c0                	test   %al,%al
  1006cf:	74 11                	je     1006e2 <_ZN16PageTableManager7ClonePTEP9PageTableS1_+0x1a6>
  1006d1:	48 8b 45 f0          	mov    -0x10(%rbp),%rax
  1006d5:	8b 55 fc             	mov    -0x4(%rbp),%edx
  1006d8:	0f b6 0c d0          	movzbl (%rax,%rdx,8),%ecx
  1006dc:	83 c9 04             	or     $0x4,%ecx
  1006df:	88 0c d0             	mov    %cl,(%rax,%rdx,8)
  1006e2:	48 8b 45 c0          	mov    -0x40(%rbp),%rax
  1006e6:	8b 55 fc             	mov    -0x4(%rbp),%edx
  1006e9:	0f b6 04 d0          	movzbl (%rax,%rdx,8),%eax
  1006ed:	c0 e8 03             	shr    $0x3,%al
  1006f0:	83 e0 01             	and    $0x1,%eax
  1006f3:	84 c0                	test   %al,%al
  1006f5:	74 11                	je     100708 <_ZN16PageTableManager7ClonePTEP9PageTableS1_+0x1cc>
  1006f7:	48 8b 45 f0          	mov    -0x10(%rbp),%rax
  1006fb:	8b 55 fc             	mov    -0x4(%rbp),%edx
  1006fe:	0f b6 0c d0          	movzbl (%rax,%rdx,8),%ecx
  100702:	83 c9 08             	or     $0x8,%ecx
  100705:	88 0c d0             	mov    %cl,(%rax,%rdx,8)
  100708:	48 8b 45 c0          	mov    -0x40(%rbp),%rax
  10070c:	8b 55 fc             	mov    -0x4(%rbp),%edx
  10070f:	0f b6 04 d0          	movzbl (%rax,%rdx,8),%eax
  100713:	c0 e8 05             	shr    $0x5,%al
  100716:	83 e0 01             	and    $0x1,%eax
  100719:	84 c0                	test   %al,%al
  10071b:	74 11                	je     10072e <_ZN16PageTableManager7ClonePTEP9PageTableS1_+0x1f2>
  10071d:	48 8b 45 f0          	mov    -0x10(%rbp),%rax
  100721:	8b 55 fc             	mov    -0x4(%rbp),%edx
  100724:	0f b6 0c d0          	movzbl (%rax,%rdx,8),%ecx
  100728:	83 c9 20             	or     $0x20,%ecx
  10072b:	88 0c d0             	mov    %cl,(%rax,%rdx,8)
  10072e:	48 8b 45 c0          	mov    -0x40(%rbp),%rax
  100732:	8b 55 fc             	mov    -0x4(%rbp),%edx
  100735:	0f b6 04 d0          	movzbl (%rax,%rdx,8),%eax
  100739:	c0 e8 06             	shr    $0x6,%al
  10073c:	83 e0 01             	and    $0x1,%eax
  10073f:	84 c0                	test   %al,%al
  100741:	74 11                	je     100754 <_ZN16PageTableManager7ClonePTEP9PageTableS1_+0x218>
  100743:	48 8b 45 f0          	mov    -0x10(%rbp),%rax
  100747:	8b 55 fc             	mov    -0x4(%rbp),%edx
  10074a:	0f b6 0c d0          	movzbl (%rax,%rdx,8),%ecx
  10074e:	83 c9 40             	or     $0x40,%ecx
  100751:	88 0c d0             	mov    %cl,(%rax,%rdx,8)
  100754:	48 8b 45 c0          	mov    -0x40(%rbp),%rax
  100758:	8b 55 fc             	mov    -0x4(%rbp),%edx
  10075b:	0f b6 04 d0          	movzbl (%rax,%rdx,8),%eax
  10075f:	c0 e8 07             	shr    $0x7,%al
  100762:	84 c0                	test   %al,%al
  100764:	74 11                	je     100777 <_ZN16PageTableManager7ClonePTEP9PageTableS1_+0x23b>
  100766:	48 8b 45 f0          	mov    -0x10(%rbp),%rax
  10076a:	8b 55 fc             	mov    -0x4(%rbp),%edx
  10076d:	0f b6 0c d0          	movzbl (%rax,%rdx,8),%ecx
  100771:	83 c9 80             	or     $0xffffff80,%ecx
  100774:	88 0c d0             	mov    %cl,(%rax,%rdx,8)
  100777:	48 8b 45 c0          	mov    -0x40(%rbp),%rax
  10077b:	8b 55 fc             	mov    -0x4(%rbp),%edx
  10077e:	0f b6 44 d0 01       	movzbl 0x1(%rax,%rdx,8),%eax
  100783:	83 e0 01             	and    $0x1,%eax
  100786:	84 c0                	test   %al,%al
  100788:	74 13                	je     10079d <_ZN16PageTableManager7ClonePTEP9PageTableS1_+0x261>
  10078a:	48 8b 45 f0          	mov    -0x10(%rbp),%rax
  10078e:	8b 55 fc             	mov    -0x4(%rbp),%edx
  100791:	0f b6 4c d0 01       	movzbl 0x1(%rax,%rdx,8),%ecx
  100796:	83 c9 01             	or     $0x1,%ecx
  100799:	88 4c d0 01          	mov    %cl,0x1(%rax,%rdx,8)
  10079d:	48 8b 45 c0          	mov    -0x40(%rbp),%rax
  1007a1:	8b 55 fc             	mov    -0x4(%rbp),%edx
  1007a4:	0f b6 44 d0 07       	movzbl 0x7(%rax,%rdx,8),%eax
  1007a9:	c0 e8 07             	shr    $0x7,%al
  1007ac:	84 c0                	test   %al,%al
  1007ae:	74 16                	je     1007c6 <_ZN16PageTableManager7ClonePTEP9PageTableS1_+0x28a>
  1007b0:	48 8b 45 f0          	mov    -0x10(%rbp),%rax
  1007b4:	8b 55 fc             	mov    -0x4(%rbp),%edx
  1007b7:	0f b6 4c d0 07       	movzbl 0x7(%rax,%rdx,8),%ecx
  1007bc:	83 c9 80             	or     $0xffffff80,%ecx
  1007bf:	88 4c d0 07          	mov    %cl,0x7(%rax,%rdx,8)
  1007c3:	eb 01                	jmp    1007c6 <_ZN16PageTableManager7ClonePTEP9PageTableS1_+0x28a>
  1007c5:	90                   	nop
  1007c6:	83 45 fc 01          	addl   $0x1,-0x4(%rbp)
  1007ca:	e9 b3 fd ff ff       	jmpq   100582 <_ZN16PageTableManager7ClonePTEP9PageTableS1_+0x46>
  1007cf:	48 8b 45 f0          	mov    -0x10(%rbp),%rax
  1007d3:	c9                   	leaveq 
  1007d4:	c3                   	retq   
  1007d5:	90                   	nop

00000000001007d6 <_ZN16PageTableManager7ClonePDEP9PageTableS1_>:
  1007d6:	f3 0f 1e fa          	endbr64 
  1007da:	55                   	push   %rbp
  1007db:	48 89 e5             	mov    %rsp,%rbp
  1007de:	48 83 ec 60          	sub    $0x60,%rsp
  1007e2:	48 89 7d b8          	mov    %rdi,-0x48(%rbp)
  1007e6:	48 89 75 b0          	mov    %rsi,-0x50(%rbp)
  1007ea:	48 89 55 a8          	mov    %rdx,-0x58(%rbp)
  1007ee:	e8 2f 0d 00 00       	callq  101522 <_ZN18PageFrameAllocator15SharedAllocatorEv>
  1007f3:	48 89 c7             	mov    %rax,%rdi
  1007f6:	e8 7b 0a 00 00       	callq  101276 <_ZN18PageFrameAllocator11RequestPageEv>
  1007fb:	48 89 45 f0          	mov    %rax,-0x10(%rbp)
  1007ff:	48 8b 45 f0          	mov    -0x10(%rbp),%rax
  100803:	ba 00 10 00 00       	mov    $0x1000,%edx
  100808:	be 00 00 00 00       	mov    $0x0,%esi
  10080d:	48 89 c7             	mov    %rax,%rdi
  100810:	e8 3a c4 00 00       	callq  10cc4f <_Z6memsetPvim>
  100815:	c7 45 fc 00 00 00 00 	movl   $0x0,-0x4(%rbp)
  10081c:	81 7d fc ff 01 00 00 	cmpl   $0x1ff,-0x4(%rbp)
  100823:	0f 87 61 02 00 00    	ja     100a8a <_ZN16PageTableManager7ClonePDEP9PageTableS1_+0x2b4>
  100829:	48 8b 45 b0          	mov    -0x50(%rbp),%rax
  10082d:	8b 55 fc             	mov    -0x4(%rbp),%edx
  100830:	48 8b 04 d0          	mov    (%rax,%rdx,8),%rax
  100834:	48 c1 e8 0c          	shr    $0xc,%rax
  100838:	25 ff ff ff 0f       	and    $0xfffffff,%eax
  10083d:	85 c0                	test   %eax,%eax
  10083f:	0f 84 3b 02 00 00    	je     100a80 <_ZN16PageTableManager7ClonePDEP9PageTableS1_+0x2aa>
  100845:	8b 45 fc             	mov    -0x4(%rbp),%eax
  100848:	48 8d 14 c5 00 00 00 	lea    0x0(,%rax,8),%rdx
  10084f:	00 
  100850:	48 8b 45 b0          	mov    -0x50(%rbp),%rax
  100854:	48 01 d0             	add    %rdx,%rax
  100857:	48 8b 00             	mov    (%rax),%rax
  10085a:	48 89 45 e8          	mov    %rax,-0x18(%rbp)
  10085e:	8b 45 fc             	mov    -0x4(%rbp),%eax
  100861:	48 8d 14 c5 00 00 00 	lea    0x0(,%rax,8),%rdx
  100868:	00 
  100869:	48 8b 45 a8          	mov    -0x58(%rbp),%rax
  10086d:	48 01 d0             	add    %rdx,%rax
  100870:	48 8b 00             	mov    (%rax),%rax
  100873:	48 89 45 e0          	mov    %rax,-0x20(%rbp)
  100877:	48 8b 45 e8          	mov    -0x18(%rbp),%rax
  10087b:	48 3b 45 e0          	cmp    -0x20(%rbp),%rax
  10087f:	75 1b                	jne    10089c <_ZN16PageTableManager7ClonePDEP9PageTableS1_+0xc6>
  100881:	48 8b 45 f0          	mov    -0x10(%rbp),%rax
  100885:	8b 55 fc             	mov    -0x4(%rbp),%edx
  100888:	48 8b 4d b0          	mov    -0x50(%rbp),%rcx
  10088c:	8b 75 fc             	mov    -0x4(%rbp),%esi
  10088f:	48 8b 0c f1          	mov    (%rcx,%rsi,8),%rcx
  100893:	48 89 0c d0          	mov    %rcx,(%rax,%rdx,8)
  100897:	e9 e5 01 00 00       	jmpq   100a81 <_ZN16PageTableManager7ClonePDEP9PageTableS1_+0x2ab>
  10089c:	48 8b 45 b0          	mov    -0x50(%rbp),%rax
  1008a0:	8b 55 fc             	mov    -0x4(%rbp),%edx
  1008a3:	48 8b 04 d0          	mov    (%rax,%rdx,8),%rax
  1008a7:	48 c1 e8 0c          	shr    $0xc,%rax
  1008ab:	25 ff ff ff 0f       	and    $0xfffffff,%eax
  1008b0:	c1 e0 0c             	shl    $0xc,%eax
  1008b3:	48 98                	cltq   
  1008b5:	48 89 45 d8          	mov    %rax,-0x28(%rbp)
  1008b9:	48 8b 45 a8          	mov    -0x58(%rbp),%rax
  1008bd:	8b 55 fc             	mov    -0x4(%rbp),%edx
  1008c0:	48 8b 04 d0          	mov    (%rax,%rdx,8),%rax
  1008c4:	48 c1 e8 0c          	shr    $0xc,%rax
  1008c8:	25 ff ff ff 0f       	and    $0xfffffff,%eax
  1008cd:	c1 e0 0c             	shl    $0xc,%eax
  1008d0:	48 98                	cltq   
  1008d2:	48 89 45 d0          	mov    %rax,-0x30(%rbp)
  1008d6:	48 8b 55 d0          	mov    -0x30(%rbp),%rdx
  1008da:	48 8b 4d d8          	mov    -0x28(%rbp),%rcx
  1008de:	48 8b 45 b8          	mov    -0x48(%rbp),%rax
  1008e2:	48 89 ce             	mov    %rcx,%rsi
  1008e5:	48 89 c7             	mov    %rax,%rdi
  1008e8:	e8 4f fc ff ff       	callq  10053c <_ZN16PageTableManager7ClonePTEP9PageTableS1_>
  1008ed:	48 89 45 c8          	mov    %rax,-0x38(%rbp)
  1008f1:	48 8b 45 c8          	mov    -0x38(%rbp),%rax
  1008f5:	48 c1 e8 0c          	shr    $0xc,%rax
  1008f9:	89 c1                	mov    %eax,%ecx
  1008fb:	81 e1 ff ff ff 0f    	and    $0xfffffff,%ecx
  100901:	48 8b 45 f0          	mov    -0x10(%rbp),%rax
  100905:	8b 55 fc             	mov    -0x4(%rbp),%edx
  100908:	89 c9                	mov    %ecx,%ecx
  10090a:	81 e1 ff ff ff 0f    	and    $0xfffffff,%ecx
  100910:	48 89 ce             	mov    %rcx,%rsi
  100913:	48 c1 e6 0c          	shl    $0xc,%rsi
  100917:	48 8b 0c d0          	mov    (%rax,%rdx,8),%rcx
  10091b:	48 bf ff 0f 00 00 00 	movabs $0xffffff0000000fff,%rdi
  100922:	ff ff ff 
  100925:	48 21 f9             	and    %rdi,%rcx
  100928:	48 09 f1             	or     %rsi,%rcx
  10092b:	48 89 0c d0          	mov    %rcx,(%rax,%rdx,8)
  10092f:	48 8b 45 b0          	mov    -0x50(%rbp),%rax
  100933:	8b 55 fc             	mov    -0x4(%rbp),%edx
  100936:	0f b6 04 d0          	movzbl (%rax,%rdx,8),%eax
  10093a:	83 e0 01             	and    $0x1,%eax
  10093d:	84 c0                	test   %al,%al
  10093f:	74 11                	je     100952 <_ZN16PageTableManager7ClonePDEP9PageTableS1_+0x17c>
  100941:	48 8b 45 f0          	mov    -0x10(%rbp),%rax
  100945:	8b 55 fc             	mov    -0x4(%rbp),%edx
  100948:	0f b6 0c d0          	movzbl (%rax,%rdx,8),%ecx
  10094c:	83 c9 01             	or     $0x1,%ecx
  10094f:	88 0c d0             	mov    %cl,(%rax,%rdx,8)
  100952:	48 8b 45 b0          	mov    -0x50(%rbp),%rax
  100956:	8b 55 fc             	mov    -0x4(%rbp),%edx
  100959:	0f b6 04 d0          	movzbl (%rax,%rdx,8),%eax
  10095d:	d0 e8                	shr    %al
  10095f:	83 e0 01             	and    $0x1,%eax
  100962:	84 c0                	test   %al,%al
  100964:	74 11                	je     100977 <_ZN16PageTableManager7ClonePDEP9PageTableS1_+0x1a1>
  100966:	48 8b 45 f0          	mov    -0x10(%rbp),%rax
  10096a:	8b 55 fc             	mov    -0x4(%rbp),%edx
  10096d:	0f b6 0c d0          	movzbl (%rax,%rdx,8),%ecx
  100971:	83 c9 02             	or     $0x2,%ecx
  100974:	88 0c d0             	mov    %cl,(%rax,%rdx,8)
  100977:	48 8b 45 b0          	mov    -0x50(%rbp),%rax
  10097b:	8b 55 fc             	mov    -0x4(%rbp),%edx
  10097e:	0f b6 04 d0          	movzbl (%rax,%rdx,8),%eax
  100982:	c0 e8 02             	shr    $0x2,%al
  100985:	83 e0 01             	and    $0x1,%eax
  100988:	84 c0                	test   %al,%al
  10098a:	74 11                	je     10099d <_ZN16PageTableManager7ClonePDEP9PageTableS1_+0x1c7>
  10098c:	48 8b 45 f0          	mov    -0x10(%rbp),%rax
  100990:	8b 55 fc             	mov    -0x4(%rbp),%edx
  100993:	0f b6 0c d0          	movzbl (%rax,%rdx,8),%ecx
  100997:	83 c9 04             	or     $0x4,%ecx
  10099a:	88 0c d0             	mov    %cl,(%rax,%rdx,8)
  10099d:	48 8b 45 b0          	mov    -0x50(%rbp),%rax
  1009a1:	8b 55 fc             	mov    -0x4(%rbp),%edx
  1009a4:	0f b6 04 d0          	movzbl (%rax,%rdx,8),%eax
  1009a8:	c0 e8 03             	shr    $0x3,%al
  1009ab:	83 e0 01             	and    $0x1,%eax
  1009ae:	84 c0                	test   %al,%al
  1009b0:	74 11                	je     1009c3 <_ZN16PageTableManager7ClonePDEP9PageTableS1_+0x1ed>
  1009b2:	48 8b 45 f0          	mov    -0x10(%rbp),%rax
  1009b6:	8b 55 fc             	mov    -0x4(%rbp),%edx
  1009b9:	0f b6 0c d0          	movzbl (%rax,%rdx,8),%ecx
  1009bd:	83 c9 08             	or     $0x8,%ecx
  1009c0:	88 0c d0             	mov    %cl,(%rax,%rdx,8)
  1009c3:	48 8b 45 b0          	mov    -0x50(%rbp),%rax
  1009c7:	8b 55 fc             	mov    -0x4(%rbp),%edx
  1009ca:	0f b6 04 d0          	movzbl (%rax,%rdx,8),%eax
  1009ce:	c0 e8 05             	shr    $0x5,%al
  1009d1:	83 e0 01             	and    $0x1,%eax
  1009d4:	84 c0                	test   %al,%al
  1009d6:	74 11                	je     1009e9 <_ZN16PageTableManager7ClonePDEP9PageTableS1_+0x213>
  1009d8:	48 8b 45 f0          	mov    -0x10(%rbp),%rax
  1009dc:	8b 55 fc             	mov    -0x4(%rbp),%edx
  1009df:	0f b6 0c d0          	movzbl (%rax,%rdx,8),%ecx
  1009e3:	83 c9 20             	or     $0x20,%ecx
  1009e6:	88 0c d0             	mov    %cl,(%rax,%rdx,8)
  1009e9:	48 8b 45 b0          	mov    -0x50(%rbp),%rax
  1009ed:	8b 55 fc             	mov    -0x4(%rbp),%edx
  1009f0:	0f b6 04 d0          	movzbl (%rax,%rdx,8),%eax
  1009f4:	c0 e8 06             	shr    $0x6,%al
  1009f7:	83 e0 01             	and    $0x1,%eax
  1009fa:	84 c0                	test   %al,%al
  1009fc:	74 11                	je     100a0f <_ZN16PageTableManager7ClonePDEP9PageTableS1_+0x239>
  1009fe:	48 8b 45 f0          	mov    -0x10(%rbp),%rax
  100a02:	8b 55 fc             	mov    -0x4(%rbp),%edx
  100a05:	0f b6 0c d0          	movzbl (%rax,%rdx,8),%ecx
  100a09:	83 c9 40             	or     $0x40,%ecx
  100a0c:	88 0c d0             	mov    %cl,(%rax,%rdx,8)
  100a0f:	48 8b 45 b0          	mov    -0x50(%rbp),%rax
  100a13:	8b 55 fc             	mov    -0x4(%rbp),%edx
  100a16:	0f b6 04 d0          	movzbl (%rax,%rdx,8),%eax
  100a1a:	c0 e8 07             	shr    $0x7,%al
  100a1d:	84 c0                	test   %al,%al
  100a1f:	74 11                	je     100a32 <_ZN16PageTableManager7ClonePDEP9PageTableS1_+0x25c>
  100a21:	48 8b 45 f0          	mov    -0x10(%rbp),%rax
  100a25:	8b 55 fc             	mov    -0x4(%rbp),%edx
  100a28:	0f b6 0c d0          	movzbl (%rax,%rdx,8),%ecx
  100a2c:	83 c9 80             	or     $0xffffff80,%ecx
  100a2f:	88 0c d0             	mov    %cl,(%rax,%rdx,8)
  100a32:	48 8b 45 b0          	mov    -0x50(%rbp),%rax
  100a36:	8b 55 fc             	mov    -0x4(%rbp),%edx
  100a39:	0f b6 44 d0 01       	movzbl 0x1(%rax,%rdx,8),%eax
  100a3e:	83 e0 01             	and    $0x1,%eax
  100a41:	84 c0                	test   %al,%al
  100a43:	74 13                	je     100a58 <_ZN16PageTableManager7ClonePDEP9PageTableS1_+0x282>
  100a45:	48 8b 45 f0          	mov    -0x10(%rbp),%rax
  100a49:	8b 55 fc             	mov    -0x4(%rbp),%edx
  100a4c:	0f b6 4c d0 01       	movzbl 0x1(%rax,%rdx,8),%ecx
  100a51:	83 c9 01             	or     $0x1,%ecx
  100a54:	88 4c d0 01          	mov    %cl,0x1(%rax,%rdx,8)
  100a58:	48 8b 45 b0          	mov    -0x50(%rbp),%rax
  100a5c:	8b 55 fc             	mov    -0x4(%rbp),%edx
  100a5f:	0f b6 44 d0 07       	movzbl 0x7(%rax,%rdx,8),%eax
  100a64:	c0 e8 07             	shr    $0x7,%al
  100a67:	84 c0                	test   %al,%al
  100a69:	74 16                	je     100a81 <_ZN16PageTableManager7ClonePDEP9PageTableS1_+0x2ab>
  100a6b:	48 8b 45 f0          	mov    -0x10(%rbp),%rax
  100a6f:	8b 55 fc             	mov    -0x4(%rbp),%edx
  100a72:	0f b6 4c d0 07       	movzbl 0x7(%rax,%rdx,8),%ecx
  100a77:	83 c9 80             	or     $0xffffff80,%ecx
  100a7a:	88 4c d0 07          	mov    %cl,0x7(%rax,%rdx,8)
  100a7e:	eb 01                	jmp    100a81 <_ZN16PageTableManager7ClonePDEP9PageTableS1_+0x2ab>
  100a80:	90                   	nop
  100a81:	83 45 fc 01          	addl   $0x1,-0x4(%rbp)
  100a85:	e9 92 fd ff ff       	jmpq   10081c <_ZN16PageTableManager7ClonePDEP9PageTableS1_+0x46>
  100a8a:	48 8b 45 f0          	mov    -0x10(%rbp),%rax
  100a8e:	c9                   	leaveq 
  100a8f:	c3                   	retq   

0000000000100a90 <_ZN16PageTableManager8ClonePDPEP9PageTableS1_>:
  100a90:	f3 0f 1e fa          	endbr64 
  100a94:	55                   	push   %rbp
  100a95:	48 89 e5             	mov    %rsp,%rbp
  100a98:	48 83 ec 60          	sub    $0x60,%rsp
  100a9c:	48 89 7d b8          	mov    %rdi,-0x48(%rbp)
  100aa0:	48 89 75 b0          	mov    %rsi,-0x50(%rbp)
  100aa4:	48 89 55 a8          	mov    %rdx,-0x58(%rbp)
  100aa8:	e8 75 0a 00 00       	callq  101522 <_ZN18PageFrameAllocator15SharedAllocatorEv>
  100aad:	48 89 c7             	mov    %rax,%rdi
  100ab0:	e8 c1 07 00 00       	callq  101276 <_ZN18PageFrameAllocator11RequestPageEv>
  100ab5:	48 89 45 f0          	mov    %rax,-0x10(%rbp)
  100ab9:	48 8b 45 f0          	mov    -0x10(%rbp),%rax
  100abd:	ba 00 10 00 00       	mov    $0x1000,%edx
  100ac2:	be 00 00 00 00       	mov    $0x0,%esi
  100ac7:	48 89 c7             	mov    %rax,%rdi
  100aca:	e8 80 c1 00 00       	callq  10cc4f <_Z6memsetPvim>
  100acf:	c7 45 fc 00 00 00 00 	movl   $0x0,-0x4(%rbp)
  100ad6:	81 7d fc ff 01 00 00 	cmpl   $0x1ff,-0x4(%rbp)
  100add:	0f 87 61 02 00 00    	ja     100d44 <_ZN16PageTableManager8ClonePDPEP9PageTableS1_+0x2b4>
  100ae3:	48 8b 45 b0          	mov    -0x50(%rbp),%rax
  100ae7:	8b 55 fc             	mov    -0x4(%rbp),%edx
  100aea:	48 8b 04 d0          	mov    (%rax,%rdx,8),%rax
  100aee:	48 c1 e8 0c          	shr    $0xc,%rax
  100af2:	25 ff ff ff 0f       	and    $0xfffffff,%eax
  100af7:	85 c0                	test   %eax,%eax
  100af9:	0f 84 3b 02 00 00    	je     100d3a <_ZN16PageTableManager8ClonePDPEP9PageTableS1_+0x2aa>
  100aff:	8b 45 fc             	mov    -0x4(%rbp),%eax
  100b02:	48 8d 14 c5 00 00 00 	lea    0x0(,%rax,8),%rdx
  100b09:	00 
  100b0a:	48 8b 45 b0          	mov    -0x50(%rbp),%rax
  100b0e:	48 01 d0             	add    %rdx,%rax
  100b11:	48 8b 00             	mov    (%rax),%rax
  100b14:	48 89 45 e8          	mov    %rax,-0x18(%rbp)
  100b18:	8b 45 fc             	mov    -0x4(%rbp),%eax
  100b1b:	48 8d 14 c5 00 00 00 	lea    0x0(,%rax,8),%rdx
  100b22:	00 
  100b23:	48 8b 45 a8          	mov    -0x58(%rbp),%rax
  100b27:	48 01 d0             	add    %rdx,%rax
  100b2a:	48 8b 00             	mov    (%rax),%rax
  100b2d:	48 89 45 e0          	mov    %rax,-0x20(%rbp)
  100b31:	48 8b 45 e8          	mov    -0x18(%rbp),%rax
  100b35:	48 3b 45 e0          	cmp    -0x20(%rbp),%rax
  100b39:	75 1b                	jne    100b56 <_ZN16PageTableManager8ClonePDPEP9PageTableS1_+0xc6>
  100b3b:	48 8b 45 f0          	mov    -0x10(%rbp),%rax
  100b3f:	8b 55 fc             	mov    -0x4(%rbp),%edx
  100b42:	48 8b 4d b0          	mov    -0x50(%rbp),%rcx
  100b46:	8b 75 fc             	mov    -0x4(%rbp),%esi
  100b49:	48 8b 0c f1          	mov    (%rcx,%rsi,8),%rcx
  100b4d:	48 89 0c d0          	mov    %rcx,(%rax,%rdx,8)
  100b51:	e9 e5 01 00 00       	jmpq   100d3b <_ZN16PageTableManager8ClonePDPEP9PageTableS1_+0x2ab>
  100b56:	48 8b 45 b0          	mov    -0x50(%rbp),%rax
  100b5a:	8b 55 fc             	mov    -0x4(%rbp),%edx
  100b5d:	48 8b 04 d0          	mov    (%rax,%rdx,8),%rax
  100b61:	48 c1 e8 0c          	shr    $0xc,%rax
  100b65:	25 ff ff ff 0f       	and    $0xfffffff,%eax
  100b6a:	c1 e0 0c             	shl    $0xc,%eax
  100b6d:	48 98                	cltq   
  100b6f:	48 89 45 d8          	mov    %rax,-0x28(%rbp)
  100b73:	48 8b 45 a8          	mov    -0x58(%rbp),%rax
  100b77:	8b 55 fc             	mov    -0x4(%rbp),%edx
  100b7a:	48 8b 04 d0          	mov    (%rax,%rdx,8),%rax
  100b7e:	48 c1 e8 0c          	shr    $0xc,%rax
  100b82:	25 ff ff ff 0f       	and    $0xfffffff,%eax
  100b87:	c1 e0 0c             	shl    $0xc,%eax
  100b8a:	48 98                	cltq   
  100b8c:	48 89 45 d0          	mov    %rax,-0x30(%rbp)
  100b90:	48 8b 55 d0          	mov    -0x30(%rbp),%rdx
  100b94:	48 8b 4d d8          	mov    -0x28(%rbp),%rcx
  100b98:	48 8b 45 b8          	mov    -0x48(%rbp),%rax
  100b9c:	48 89 ce             	mov    %rcx,%rsi
  100b9f:	48 89 c7             	mov    %rax,%rdi
  100ba2:	e8 2f fc ff ff       	callq  1007d6 <_ZN16PageTableManager7ClonePDEP9PageTableS1_>
  100ba7:	48 89 45 c8          	mov    %rax,-0x38(%rbp)
  100bab:	48 8b 45 c8          	mov    -0x38(%rbp),%rax
  100baf:	48 c1 e8 0c          	shr    $0xc,%rax
  100bb3:	89 c1                	mov    %eax,%ecx
  100bb5:	81 e1 ff ff ff 0f    	and    $0xfffffff,%ecx
  100bbb:	48 8b 45 f0          	mov    -0x10(%rbp),%rax
  100bbf:	8b 55 fc             	mov    -0x4(%rbp),%edx
  100bc2:	89 c9                	mov    %ecx,%ecx
  100bc4:	81 e1 ff ff ff 0f    	and    $0xfffffff,%ecx
  100bca:	48 89 ce             	mov    %rcx,%rsi
  100bcd:	48 c1 e6 0c          	shl    $0xc,%rsi
  100bd1:	48 8b 0c d0          	mov    (%rax,%rdx,8),%rcx
  100bd5:	48 bf ff 0f 00 00 00 	movabs $0xffffff0000000fff,%rdi
  100bdc:	ff ff ff 
  100bdf:	48 21 f9             	and    %rdi,%rcx
  100be2:	48 09 f1             	or     %rsi,%rcx
  100be5:	48 89 0c d0          	mov    %rcx,(%rax,%rdx,8)
  100be9:	48 8b 45 b0          	mov    -0x50(%rbp),%rax
  100bed:	8b 55 fc             	mov    -0x4(%rbp),%edx
  100bf0:	0f b6 04 d0          	movzbl (%rax,%rdx,8),%eax
  100bf4:	83 e0 01             	and    $0x1,%eax
  100bf7:	84 c0                	test   %al,%al
  100bf9:	74 11                	je     100c0c <_ZN16PageTableManager8ClonePDPEP9PageTableS1_+0x17c>
  100bfb:	48 8b 45 f0          	mov    -0x10(%rbp),%rax
  100bff:	8b 55 fc             	mov    -0x4(%rbp),%edx
  100c02:	0f b6 0c d0          	movzbl (%rax,%rdx,8),%ecx
  100c06:	83 c9 01             	or     $0x1,%ecx
  100c09:	88 0c d0             	mov    %cl,(%rax,%rdx,8)
  100c0c:	48 8b 45 b0          	mov    -0x50(%rbp),%rax
  100c10:	8b 55 fc             	mov    -0x4(%rbp),%edx
  100c13:	0f b6 04 d0          	movzbl (%rax,%rdx,8),%eax
  100c17:	d0 e8                	shr    %al
  100c19:	83 e0 01             	and    $0x1,%eax
  100c1c:	84 c0                	test   %al,%al
  100c1e:	74 11                	je     100c31 <_ZN16PageTableManager8ClonePDPEP9PageTableS1_+0x1a1>
  100c20:	48 8b 45 f0          	mov    -0x10(%rbp),%rax
  100c24:	8b 55 fc             	mov    -0x4(%rbp),%edx
  100c27:	0f b6 0c d0          	movzbl (%rax,%rdx,8),%ecx
  100c2b:	83 c9 02             	or     $0x2,%ecx
  100c2e:	88 0c d0             	mov    %cl,(%rax,%rdx,8)
  100c31:	48 8b 45 b0          	mov    -0x50(%rbp),%rax
  100c35:	8b 55 fc             	mov    -0x4(%rbp),%edx
  100c38:	0f b6 04 d0          	movzbl (%rax,%rdx,8),%eax
  100c3c:	c0 e8 02             	shr    $0x2,%al
  100c3f:	83 e0 01             	and    $0x1,%eax
  100c42:	84 c0                	test   %al,%al
  100c44:	74 11                	je     100c57 <_ZN16PageTableManager8ClonePDPEP9PageTableS1_+0x1c7>
  100c46:	48 8b 45 f0          	mov    -0x10(%rbp),%rax
  100c4a:	8b 55 fc             	mov    -0x4(%rbp),%edx
  100c4d:	0f b6 0c d0          	movzbl (%rax,%rdx,8),%ecx
  100c51:	83 c9 04             	or     $0x4,%ecx
  100c54:	88 0c d0             	mov    %cl,(%rax,%rdx,8)
  100c57:	48 8b 45 b0          	mov    -0x50(%rbp),%rax
  100c5b:	8b 55 fc             	mov    -0x4(%rbp),%edx
  100c5e:	0f b6 04 d0          	movzbl (%rax,%rdx,8),%eax
  100c62:	c0 e8 03             	shr    $0x3,%al
  100c65:	83 e0 01             	and    $0x1,%eax
  100c68:	84 c0                	test   %al,%al
  100c6a:	74 11                	je     100c7d <_ZN16PageTableManager8ClonePDPEP9PageTableS1_+0x1ed>
  100c6c:	48 8b 45 f0          	mov    -0x10(%rbp),%rax
  100c70:	8b 55 fc             	mov    -0x4(%rbp),%edx
  100c73:	0f b6 0c d0          	movzbl (%rax,%rdx,8),%ecx
  100c77:	83 c9 08             	or     $0x8,%ecx
  100c7a:	88 0c d0             	mov    %cl,(%rax,%rdx,8)
  100c7d:	48 8b 45 b0          	mov    -0x50(%rbp),%rax
  100c81:	8b 55 fc             	mov    -0x4(%rbp),%edx
  100c84:	0f b6 04 d0          	movzbl (%rax,%rdx,8),%eax
  100c88:	c0 e8 05             	shr    $0x5,%al
  100c8b:	83 e0 01             	and    $0x1,%eax
  100c8e:	84 c0                	test   %al,%al
  100c90:	74 11                	je     100ca3 <_ZN16PageTableManager8ClonePDPEP9PageTableS1_+0x213>
  100c92:	48 8b 45 f0          	mov    -0x10(%rbp),%rax
  100c96:	8b 55 fc             	mov    -0x4(%rbp),%edx
  100c99:	0f b6 0c d0          	movzbl (%rax,%rdx,8),%ecx
  100c9d:	83 c9 20             	or     $0x20,%ecx
  100ca0:	88 0c d0             	mov    %cl,(%rax,%rdx,8)
  100ca3:	48 8b 45 b0          	mov    -0x50(%rbp),%rax
  100ca7:	8b 55 fc             	mov    -0x4(%rbp),%edx
  100caa:	0f b6 04 d0          	movzbl (%rax,%rdx,8),%eax
  100cae:	c0 e8 06             	shr    $0x6,%al
  100cb1:	83 e0 01             	and    $0x1,%eax
  100cb4:	84 c0                	test   %al,%al
  100cb6:	74 11                	je     100cc9 <_ZN16PageTableManager8ClonePDPEP9PageTableS1_+0x239>
  100cb8:	48 8b 45 f0          	mov    -0x10(%rbp),%rax
  100cbc:	8b 55 fc             	mov    -0x4(%rbp),%edx
  100cbf:	0f b6 0c d0          	movzbl (%rax,%rdx,8),%ecx
  100cc3:	83 c9 40             	or     $0x40,%ecx
  100cc6:	88 0c d0             	mov    %cl,(%rax,%rdx,8)
  100cc9:	48 8b 45 b0          	mov    -0x50(%rbp),%rax
  100ccd:	8b 55 fc             	mov    -0x4(%rbp),%edx
  100cd0:	0f b6 04 d0          	movzbl (%rax,%rdx,8),%eax
  100cd4:	c0 e8 07             	shr    $0x7,%al
  100cd7:	84 c0                	test   %al,%al
  100cd9:	74 11                	je     100cec <_ZN16PageTableManager8ClonePDPEP9PageTableS1_+0x25c>
  100cdb:	48 8b 45 f0          	mov    -0x10(%rbp),%rax
  100cdf:	8b 55 fc             	mov    -0x4(%rbp),%edx
  100ce2:	0f b6 0c d0          	movzbl (%rax,%rdx,8),%ecx
  100ce6:	83 c9 80             	or     $0xffffff80,%ecx
  100ce9:	88 0c d0             	mov    %cl,(%rax,%rdx,8)
  100cec:	48 8b 45 b0          	mov    -0x50(%rbp),%rax
  100cf0:	8b 55 fc             	mov    -0x4(%rbp),%edx
  100cf3:	0f b6 44 d0 01       	movzbl 0x1(%rax,%rdx,8),%eax
  100cf8:	83 e0 01             	and    $0x1,%eax
  100cfb:	84 c0                	test   %al,%al
  100cfd:	74 13                	je     100d12 <_ZN16PageTableManager8ClonePDPEP9PageTableS1_+0x282>
  100cff:	48 8b 45 f0          	mov    -0x10(%rbp),%rax
  100d03:	8b 55 fc             	mov    -0x4(%rbp),%edx
  100d06:	0f b6 4c d0 01       	movzbl 0x1(%rax,%rdx,8),%ecx
  100d0b:	83 c9 01             	or     $0x1,%ecx
  100d0e:	88 4c d0 01          	mov    %cl,0x1(%rax,%rdx,8)
  100d12:	48 8b 45 b0          	mov    -0x50(%rbp),%rax
  100d16:	8b 55 fc             	mov    -0x4(%rbp),%edx
  100d19:	0f b6 44 d0 07       	movzbl 0x7(%rax,%rdx,8),%eax
  100d1e:	c0 e8 07             	shr    $0x7,%al
  100d21:	84 c0                	test   %al,%al
  100d23:	74 16                	je     100d3b <_ZN16PageTableManager8ClonePDPEP9PageTableS1_+0x2ab>
  100d25:	48 8b 45 f0          	mov    -0x10(%rbp),%rax
  100d29:	8b 55 fc             	mov    -0x4(%rbp),%edx
  100d2c:	0f b6 4c d0 07       	movzbl 0x7(%rax,%rdx,8),%ecx
  100d31:	83 c9 80             	or     $0xffffff80,%ecx
  100d34:	88 4c d0 07          	mov    %cl,0x7(%rax,%rdx,8)
  100d38:	eb 01                	jmp    100d3b <_ZN16PageTableManager8ClonePDPEP9PageTableS1_+0x2ab>
  100d3a:	90                   	nop
  100d3b:	83 45 fc 01          	addl   $0x1,-0x4(%rbp)
  100d3f:	e9 92 fd ff ff       	jmpq   100ad6 <_ZN16PageTableManager8ClonePDPEP9PageTableS1_+0x46>
  100d44:	48 8b 45 f0          	mov    -0x10(%rbp),%rax
  100d48:	c9                   	leaveq 
  100d49:	c3                   	retq   

0000000000100d4a <_ZN16PageTableManager9ClonePML4EP9PageTableS1_>:
  100d4a:	f3 0f 1e fa          	endbr64 
  100d4e:	55                   	push   %rbp
  100d4f:	48 89 e5             	mov    %rsp,%rbp
  100d52:	48 83 ec 60          	sub    $0x60,%rsp
  100d56:	48 89 7d b8          	mov    %rdi,-0x48(%rbp)
  100d5a:	48 89 75 b0          	mov    %rsi,-0x50(%rbp)
  100d5e:	48 89 55 a8          	mov    %rdx,-0x58(%rbp)
  100d62:	e8 bb 07 00 00       	callq  101522 <_ZN18PageFrameAllocator15SharedAllocatorEv>
  100d67:	48 89 c7             	mov    %rax,%rdi
  100d6a:	e8 07 05 00 00       	callq  101276 <_ZN18PageFrameAllocator11RequestPageEv>
  100d6f:	48 89 45 f0          	mov    %rax,-0x10(%rbp)
  100d73:	48 8b 45 f0          	mov    -0x10(%rbp),%rax
  100d77:	ba 00 10 00 00       	mov    $0x1000,%edx
  100d7c:	be 00 00 00 00       	mov    $0x0,%esi
  100d81:	48 89 c7             	mov    %rax,%rdi
  100d84:	e8 c6 be 00 00       	callq  10cc4f <_Z6memsetPvim>
  100d89:	c7 45 fc 00 00 00 00 	movl   $0x0,-0x4(%rbp)
  100d90:	81 7d fc ff 01 00 00 	cmpl   $0x1ff,-0x4(%rbp)
  100d97:	0f 87 61 02 00 00    	ja     100ffe <_ZN16PageTableManager9ClonePML4EP9PageTableS1_+0x2b4>
  100d9d:	48 8b 45 b0          	mov    -0x50(%rbp),%rax
  100da1:	8b 55 fc             	mov    -0x4(%rbp),%edx
  100da4:	48 8b 04 d0          	mov    (%rax,%rdx,8),%rax
  100da8:	48 c1 e8 0c          	shr    $0xc,%rax
  100dac:	25 ff ff ff 0f       	and    $0xfffffff,%eax
  100db1:	85 c0                	test   %eax,%eax
  100db3:	0f 84 3b 02 00 00    	je     100ff4 <_ZN16PageTableManager9ClonePML4EP9PageTableS1_+0x2aa>
  100db9:	8b 45 fc             	mov    -0x4(%rbp),%eax
  100dbc:	48 8d 14 c5 00 00 00 	lea    0x0(,%rax,8),%rdx
  100dc3:	00 
  100dc4:	48 8b 45 b0          	mov    -0x50(%rbp),%rax
  100dc8:	48 01 d0             	add    %rdx,%rax
  100dcb:	48 8b 00             	mov    (%rax),%rax
  100dce:	48 89 45 e8          	mov    %rax,-0x18(%rbp)
  100dd2:	8b 45 fc             	mov    -0x4(%rbp),%eax
  100dd5:	48 8d 14 c5 00 00 00 	lea    0x0(,%rax,8),%rdx
  100ddc:	00 
  100ddd:	48 8b 45 a8          	mov    -0x58(%rbp),%rax
  100de1:	48 01 d0             	add    %rdx,%rax
  100de4:	48 8b 00             	mov    (%rax),%rax
  100de7:	48 89 45 e0          	mov    %rax,-0x20(%rbp)
  100deb:	48 8b 45 e8          	mov    -0x18(%rbp),%rax
  100def:	48 3b 45 e0          	cmp    -0x20(%rbp),%rax
  100df3:	75 1b                	jne    100e10 <_ZN16PageTableManager9ClonePML4EP9PageTableS1_+0xc6>
  100df5:	48 8b 45 f0          	mov    -0x10(%rbp),%rax
  100df9:	8b 55 fc             	mov    -0x4(%rbp),%edx
  100dfc:	48 8b 4d b0          	mov    -0x50(%rbp),%rcx
  100e00:	8b 75 fc             	mov    -0x4(%rbp),%esi
  100e03:	48 8b 0c f1          	mov    (%rcx,%rsi,8),%rcx
  100e07:	48 89 0c d0          	mov    %rcx,(%rax,%rdx,8)
  100e0b:	e9 e5 01 00 00       	jmpq   100ff5 <_ZN16PageTableManager9ClonePML4EP9PageTableS1_+0x2ab>
  100e10:	48 8b 45 b0          	mov    -0x50(%rbp),%rax
  100e14:	8b 55 fc             	mov    -0x4(%rbp),%edx
  100e17:	48 8b 04 d0          	mov    (%rax,%rdx,8),%rax
  100e1b:	48 c1 e8 0c          	shr    $0xc,%rax
  100e1f:	25 ff ff ff 0f       	and    $0xfffffff,%eax
  100e24:	c1 e0 0c             	shl    $0xc,%eax
  100e27:	48 98                	cltq   
  100e29:	48 89 45 d8          	mov    %rax,-0x28(%rbp)
  100e2d:	48 8b 45 a8          	mov    -0x58(%rbp),%rax
  100e31:	8b 55 fc             	mov    -0x4(%rbp),%edx
  100e34:	48 8b 04 d0          	mov    (%rax,%rdx,8),%rax
  100e38:	48 c1 e8 0c          	shr    $0xc,%rax
  100e3c:	25 ff ff ff 0f       	and    $0xfffffff,%eax
  100e41:	c1 e0 0c             	shl    $0xc,%eax
  100e44:	48 98                	cltq   
  100e46:	48 89 45 d0          	mov    %rax,-0x30(%rbp)
  100e4a:	48 8b 55 d0          	mov    -0x30(%rbp),%rdx
  100e4e:	48 8b 4d d8          	mov    -0x28(%rbp),%rcx
  100e52:	48 8b 45 b8          	mov    -0x48(%rbp),%rax
  100e56:	48 89 ce             	mov    %rcx,%rsi
  100e59:	48 89 c7             	mov    %rax,%rdi
  100e5c:	e8 2f fc ff ff       	callq  100a90 <_ZN16PageTableManager8ClonePDPEP9PageTableS1_>
  100e61:	48 89 45 c8          	mov    %rax,-0x38(%rbp)
  100e65:	48 8b 45 c8          	mov    -0x38(%rbp),%rax
  100e69:	48 c1 e8 0c          	shr    $0xc,%rax
  100e6d:	89 c1                	mov    %eax,%ecx
  100e6f:	81 e1 ff ff ff 0f    	and    $0xfffffff,%ecx
  100e75:	48 8b 45 f0          	mov    -0x10(%rbp),%rax
  100e79:	8b 55 fc             	mov    -0x4(%rbp),%edx
  100e7c:	89 c9                	mov    %ecx,%ecx
  100e7e:	81 e1 ff ff ff 0f    	and    $0xfffffff,%ecx
  100e84:	48 89 ce             	mov    %rcx,%rsi
  100e87:	48 c1 e6 0c          	shl    $0xc,%rsi
  100e8b:	48 8b 0c d0          	mov    (%rax,%rdx,8),%rcx
  100e8f:	48 bf ff 0f 00 00 00 	movabs $0xffffff0000000fff,%rdi
  100e96:	ff ff ff 
  100e99:	48 21 f9             	and    %rdi,%rcx
  100e9c:	48 09 f1             	or     %rsi,%rcx
  100e9f:	48 89 0c d0          	mov    %rcx,(%rax,%rdx,8)
  100ea3:	48 8b 45 b0          	mov    -0x50(%rbp),%rax
  100ea7:	8b 55 fc             	mov    -0x4(%rbp),%edx
  100eaa:	0f b6 04 d0          	movzbl (%rax,%rdx,8),%eax
  100eae:	83 e0 01             	and    $0x1,%eax
  100eb1:	84 c0                	test   %al,%al
  100eb3:	74 11                	je     100ec6 <_ZN16PageTableManager9ClonePML4EP9PageTableS1_+0x17c>
  100eb5:	48 8b 45 f0          	mov    -0x10(%rbp),%rax
  100eb9:	8b 55 fc             	mov    -0x4(%rbp),%edx
  100ebc:	0f b6 0c d0          	movzbl (%rax,%rdx,8),%ecx
  100ec0:	83 c9 01             	or     $0x1,%ecx
  100ec3:	88 0c d0             	mov    %cl,(%rax,%rdx,8)
  100ec6:	48 8b 45 b0          	mov    -0x50(%rbp),%rax
  100eca:	8b 55 fc             	mov    -0x4(%rbp),%edx
  100ecd:	0f b6 04 d0          	movzbl (%rax,%rdx,8),%eax
  100ed1:	d0 e8                	shr    %al
  100ed3:	83 e0 01             	and    $0x1,%eax
  100ed6:	84 c0                	test   %al,%al
  100ed8:	74 11                	je     100eeb <_ZN16PageTableManager9ClonePML4EP9PageTableS1_+0x1a1>
  100eda:	48 8b 45 f0          	mov    -0x10(%rbp),%rax
  100ede:	8b 55 fc             	mov    -0x4(%rbp),%edx
  100ee1:	0f b6 0c d0          	movzbl (%rax,%rdx,8),%ecx
  100ee5:	83 c9 02             	or     $0x2,%ecx
  100ee8:	88 0c d0             	mov    %cl,(%rax,%rdx,8)
  100eeb:	48 8b 45 b0          	mov    -0x50(%rbp),%rax
  100eef:	8b 55 fc             	mov    -0x4(%rbp),%edx
  100ef2:	0f b6 04 d0          	movzbl (%rax,%rdx,8),%eax
  100ef6:	c0 e8 02             	shr    $0x2,%al
  100ef9:	83 e0 01             	and    $0x1,%eax
  100efc:	84 c0                	test   %al,%al
  100efe:	74 11                	je     100f11 <_ZN16PageTableManager9ClonePML4EP9PageTableS1_+0x1c7>
  100f00:	48 8b 45 f0          	mov    -0x10(%rbp),%rax
  100f04:	8b 55 fc             	mov    -0x4(%rbp),%edx
  100f07:	0f b6 0c d0          	movzbl (%rax,%rdx,8),%ecx
  100f0b:	83 c9 04             	or     $0x4,%ecx
  100f0e:	88 0c d0             	mov    %cl,(%rax,%rdx,8)
  100f11:	48 8b 45 b0          	mov    -0x50(%rbp),%rax
  100f15:	8b 55 fc             	mov    -0x4(%rbp),%edx
  100f18:	0f b6 04 d0          	movzbl (%rax,%rdx,8),%eax
  100f1c:	c0 e8 03             	shr    $0x3,%al
  100f1f:	83 e0 01             	and    $0x1,%eax
  100f22:	84 c0                	test   %al,%al
  100f24:	74 11                	je     100f37 <_ZN16PageTableManager9ClonePML4EP9PageTableS1_+0x1ed>
  100f26:	48 8b 45 f0          	mov    -0x10(%rbp),%rax
  100f2a:	8b 55 fc             	mov    -0x4(%rbp),%edx
  100f2d:	0f b6 0c d0          	movzbl (%rax,%rdx,8),%ecx
  100f31:	83 c9 08             	or     $0x8,%ecx
  100f34:	88 0c d0             	mov    %cl,(%rax,%rdx,8)
  100f37:	48 8b 45 b0          	mov    -0x50(%rbp),%rax
  100f3b:	8b 55 fc             	mov    -0x4(%rbp),%edx
  100f3e:	0f b6 04 d0          	movzbl (%rax,%rdx,8),%eax
  100f42:	c0 e8 05             	shr    $0x5,%al
  100f45:	83 e0 01             	and    $0x1,%eax
  100f48:	84 c0                	test   %al,%al
  100f4a:	74 11                	je     100f5d <_ZN16PageTableManager9ClonePML4EP9PageTableS1_+0x213>
  100f4c:	48 8b 45 f0          	mov    -0x10(%rbp),%rax
  100f50:	8b 55 fc             	mov    -0x4(%rbp),%edx
  100f53:	0f b6 0c d0          	movzbl (%rax,%rdx,8),%ecx
  100f57:	83 c9 20             	or     $0x20,%ecx
  100f5a:	88 0c d0             	mov    %cl,(%rax,%rdx,8)
  100f5d:	48 8b 45 b0          	mov    -0x50(%rbp),%rax
  100f61:	8b 55 fc             	mov    -0x4(%rbp),%edx
  100f64:	0f b6 04 d0          	movzbl (%rax,%rdx,8),%eax
  100f68:	c0 e8 06             	shr    $0x6,%al
  100f6b:	83 e0 01             	and    $0x1,%eax
  100f6e:	84 c0                	test   %al,%al
  100f70:	74 11                	je     100f83 <_ZN16PageTableManager9ClonePML4EP9PageTableS1_+0x239>
  100f72:	48 8b 45 f0          	mov    -0x10(%rbp),%rax
  100f76:	8b 55 fc             	mov    -0x4(%rbp),%edx
  100f79:	0f b6 0c d0          	movzbl (%rax,%rdx,8),%ecx
  100f7d:	83 c9 40             	or     $0x40,%ecx
  100f80:	88 0c d0             	mov    %cl,(%rax,%rdx,8)
  100f83:	48 8b 45 b0          	mov    -0x50(%rbp),%rax
  100f87:	8b 55 fc             	mov    -0x4(%rbp),%edx
  100f8a:	0f b6 04 d0          	movzbl (%rax,%rdx,8),%eax
  100f8e:	c0 e8 07             	shr    $0x7,%al
  100f91:	84 c0                	test   %al,%al
  100f93:	74 11                	je     100fa6 <_ZN16PageTableManager9ClonePML4EP9PageTableS1_+0x25c>
  100f95:	48 8b 45 f0          	mov    -0x10(%rbp),%rax
  100f99:	8b 55 fc             	mov    -0x4(%rbp),%edx
  100f9c:	0f b6 0c d0          	movzbl (%rax,%rdx,8),%ecx
  100fa0:	83 c9 80             	or     $0xffffff80,%ecx
  100fa3:	88 0c d0             	mov    %cl,(%rax,%rdx,8)
  100fa6:	48 8b 45 b0          	mov    -0x50(%rbp),%rax
  100faa:	8b 55 fc             	mov    -0x4(%rbp),%edx
  100fad:	0f b6 44 d0 01       	movzbl 0x1(%rax,%rdx,8),%eax
  100fb2:	83 e0 01             	and    $0x1,%eax
  100fb5:	84 c0                	test   %al,%al
  100fb7:	74 13                	je     100fcc <_ZN16PageTableManager9ClonePML4EP9PageTableS1_+0x282>
  100fb9:	48 8b 45 f0          	mov    -0x10(%rbp),%rax
  100fbd:	8b 55 fc             	mov    -0x4(%rbp),%edx
  100fc0:	0f b6 4c d0 01       	movzbl 0x1(%rax,%rdx,8),%ecx
  100fc5:	83 c9 01             	or     $0x1,%ecx
  100fc8:	88 4c d0 01          	mov    %cl,0x1(%rax,%rdx,8)
  100fcc:	48 8b 45 b0          	mov    -0x50(%rbp),%rax
  100fd0:	8b 55 fc             	mov    -0x4(%rbp),%edx
  100fd3:	0f b6 44 d0 07       	movzbl 0x7(%rax,%rdx,8),%eax
  100fd8:	c0 e8 07             	shr    $0x7,%al
  100fdb:	84 c0                	test   %al,%al
  100fdd:	74 16                	je     100ff5 <_ZN16PageTableManager9ClonePML4EP9PageTableS1_+0x2ab>
  100fdf:	48 8b 45 f0          	mov    -0x10(%rbp),%rax
  100fe3:	8b 55 fc             	mov    -0x4(%rbp),%edx
  100fe6:	0f b6 4c d0 07       	movzbl 0x7(%rax,%rdx,8),%ecx
  100feb:	83 c9 80             	or     $0xffffff80,%ecx
  100fee:	88 4c d0 07          	mov    %cl,0x7(%rax,%rdx,8)
  100ff2:	eb 01                	jmp    100ff5 <_ZN16PageTableManager9ClonePML4EP9PageTableS1_+0x2ab>
  100ff4:	90                   	nop
  100ff5:	83 45 fc 01          	addl   $0x1,-0x4(%rbp)
  100ff9:	e9 92 fd ff ff       	jmpq   100d90 <_ZN16PageTableManager9ClonePML4EP9PageTableS1_+0x46>
  100ffe:	48 8b 45 f0          	mov    -0x10(%rbp),%rax
  101002:	c9                   	leaveq 
  101003:	c3                   	retq   

0000000000101004 <_ZN18PageFrameAllocator13ReadMemoryMapEP9MemoryMap>:
  101004:	f3 0f 1e fa          	endbr64 
  101008:	55                   	push   %rbp
  101009:	48 89 e5             	mov    %rsp,%rbp
  10100c:	48 83 ec 60          	sub    $0x60,%rsp
  101010:	48 89 7d a8          	mov    %rdi,-0x58(%rbp)
  101014:	48 89 75 a0          	mov    %rsi,-0x60(%rbp)
  101018:	48 c7 45 f8 00 00 00 	movq   $0x0,-0x8(%rbp)
  10101f:	00 
  101020:	48 c7 45 f0 00 00 00 	movq   $0x0,-0x10(%rbp)
  101027:	00 
  101028:	48 c7 45 e8 00 00 00 	movq   $0x0,-0x18(%rbp)
  10102f:	00 
  101030:	48 8b 45 a0          	mov    -0x60(%rbp),%rax
  101034:	48 89 c7             	mov    %rax,%rdi
  101037:	e8 cc ce 00 00       	callq  10df08 <_ZNK9MemoryMap13GetEntryCountEv>
  10103c:	48 39 45 e8          	cmp    %rax,-0x18(%rbp)
  101040:	0f 92 c0             	setb   %al
  101043:	84 c0                	test   %al,%al
  101045:	74 5a                	je     1010a1 <_ZN18PageFrameAllocator13ReadMemoryMapEP9MemoryMap+0x9d>
  101047:	48 8b 55 e8          	mov    -0x18(%rbp),%rdx
  10104b:	48 8b 45 a0          	mov    -0x60(%rbp),%rax
  10104f:	48 89 d6             	mov    %rdx,%rsi
  101052:	48 89 c7             	mov    %rax,%rdi
  101055:	e8 f2 29 00 00       	callq  103a4c <_ZN9MemoryMap15IsUsuableMemoryEm>
  10105a:	84 c0                	test   %al,%al
  10105c:	74 3c                	je     10109a <_ZN18PageFrameAllocator13ReadMemoryMapEP9MemoryMap+0x96>
  10105e:	48 8b 55 e8          	mov    -0x18(%rbp),%rdx
  101062:	48 8b 45 a0          	mov    -0x60(%rbp),%rax
  101066:	48 89 d6             	mov    %rdx,%rsi
  101069:	48 89 c7             	mov    %rax,%rdi
  10106c:	e8 b1 ce 00 00       	callq  10df22 <_ZNK9MemoryMap8GetEntryEm>
  101071:	48 89 45 b8          	mov    %rax,-0x48(%rbp)
  101075:	48 8b 45 b8          	mov    -0x48(%rbp),%rax
  101079:	48 8b 40 08          	mov    0x8(%rax),%rax
  10107d:	48 39 45 f0          	cmp    %rax,-0x10(%rbp)
  101081:	73 17                	jae    10109a <_ZN18PageFrameAllocator13ReadMemoryMapEP9MemoryMap+0x96>
  101083:	48 8b 45 b8          	mov    -0x48(%rbp),%rax
  101087:	48 8b 00             	mov    (%rax),%rax
  10108a:	48 89 45 f8          	mov    %rax,-0x8(%rbp)
  10108e:	48 8b 45 b8          	mov    -0x48(%rbp),%rax
  101092:	48 8b 40 08          	mov    0x8(%rax),%rax
  101096:	48 89 45 f0          	mov    %rax,-0x10(%rbp)
  10109a:	48 83 45 e8 01       	addq   $0x1,-0x18(%rbp)
  10109f:	eb 8f                	jmp    101030 <_ZN18PageFrameAllocator13ReadMemoryMapEP9MemoryMap+0x2c>
  1010a1:	48 8b 45 f8          	mov    -0x8(%rbp),%rax
  1010a5:	48 89 45 e0          	mov    %rax,-0x20(%rbp)
  1010a9:	48 8b 05 d8 e3 00 00 	mov    0xe3d8(%rip),%rax        # 10f488 <kernelEnd>
  1010b0:	48 39 45 e0          	cmp    %rax,-0x20(%rbp)
  1010b4:	73 11                	jae    1010c7 <_ZN18PageFrameAllocator13ReadMemoryMapEP9MemoryMap+0xc3>
  1010b6:	48 8b 05 cb e3 00 00 	mov    0xe3cb(%rip),%rax        # 10f488 <kernelEnd>
  1010bd:	48 05 00 10 00 00    	add    $0x1000,%rax
  1010c3:	48 89 45 e0          	mov    %rax,-0x20(%rbp)
  1010c7:	48 8b 45 a0          	mov    -0x60(%rbp),%rax
  1010cb:	48 89 c7             	mov    %rax,%rdi
  1010ce:	e8 b3 2a 00 00       	callq  103b86 <_ZN9MemoryMap20GetTotalSystemMemoryEv>
  1010d3:	48 89 45 d0          	mov    %rax,-0x30(%rbp)
  1010d7:	48 8b 45 a8          	mov    -0x58(%rbp),%rax
  1010db:	48 8b 55 d0          	mov    -0x30(%rbp),%rdx
  1010df:	48 89 50 10          	mov    %rdx,0x10(%rax)
  1010e3:	48 8b 45 a8          	mov    -0x58(%rbp),%rax
  1010e7:	48 c7 40 18 00 00 00 	movq   $0x0,0x18(%rax)
  1010ee:	00 
  1010ef:	48 8b 45 a8          	mov    -0x58(%rbp),%rax
  1010f3:	48 c7 40 20 00 00 00 	movq   $0x0,0x20(%rax)
  1010fa:	00 
  1010fb:	48 8b 45 d0          	mov    -0x30(%rbp),%rax
  1010ff:	48 c1 e8 0c          	shr    $0xc,%rax
  101103:	48 89 45 c8          	mov    %rax,-0x38(%rbp)
  101107:	48 8b 45 c8          	mov    -0x38(%rbp),%rax
  10110b:	48 c1 e8 06          	shr    $0x6,%rax
  10110f:	48 89 45 c8          	mov    %rax,-0x38(%rbp)
  101113:	48 83 45 c8 01       	addq   $0x1,-0x38(%rbp)
  101118:	48 8b 45 a8          	mov    -0x58(%rbp),%rax
  10111c:	48 8b 55 e0          	mov    -0x20(%rbp),%rdx
  101120:	48 89 d6             	mov    %rdx,%rsi
  101123:	48 89 c7             	mov    %rax,%rdi
  101126:	e8 b9 cd 00 00       	callq  10dee4 <_ZN6Bitmap9SetBufferEPm>
  10112b:	48 8b 45 a8          	mov    -0x58(%rbp),%rax
  10112f:	48 8b 55 c8          	mov    -0x38(%rbp),%rdx
  101133:	48 c1 e2 03          	shl    $0x3,%rdx
  101137:	48 89 d6             	mov    %rdx,%rsi
  10113a:	48 89 c7             	mov    %rax,%rdi
  10113d:	e8 80 cd 00 00       	callq  10dec2 <_ZN6Bitmap7SetSizeEm>
  101142:	48 8b 45 c8          	mov    -0x38(%rbp),%rax
  101146:	48 8d 14 c5 00 00 00 	lea    0x0(,%rax,8),%rdx
  10114d:	00 
  10114e:	48 8b 45 a8          	mov    -0x58(%rbp),%rax
  101152:	48 8b 40 08          	mov    0x8(%rax),%rax
  101156:	be 00 00 00 00       	mov    $0x0,%esi
  10115b:	48 89 c7             	mov    %rax,%rdi
  10115e:	e8 ec ba 00 00       	callq  10cc4f <_Z6memsetPvim>
  101163:	48 8b 45 d0          	mov    -0x30(%rbp),%rax
  101167:	48 c1 e8 0c          	shr    $0xc,%rax
  10116b:	48 8d 50 01          	lea    0x1(%rax),%rdx
  10116f:	48 8b 45 a8          	mov    -0x58(%rbp),%rax
  101173:	be 00 00 00 00       	mov    $0x0,%esi
  101178:	48 89 c7             	mov    %rax,%rdi
  10117b:	e8 5a 01 00 00       	callq  1012da <_ZN18PageFrameAllocator12ReservePagesEPvm>
  101180:	48 c7 45 d8 00 00 00 	movq   $0x0,-0x28(%rbp)
  101187:	00 
  101188:	48 8b 45 a0          	mov    -0x60(%rbp),%rax
  10118c:	48 89 c7             	mov    %rax,%rdi
  10118f:	e8 74 cd 00 00       	callq  10df08 <_ZNK9MemoryMap13GetEntryCountEv>
  101194:	48 39 45 d8          	cmp    %rax,-0x28(%rbp)
  101198:	0f 92 c0             	setb   %al
  10119b:	84 c0                	test   %al,%al
  10119d:	74 5d                	je     1011fc <_ZN18PageFrameAllocator13ReadMemoryMapEP9MemoryMap+0x1f8>
  10119f:	48 8b 55 d8          	mov    -0x28(%rbp),%rdx
  1011a3:	48 8b 45 a0          	mov    -0x60(%rbp),%rax
  1011a7:	48 89 d6             	mov    %rdx,%rsi
  1011aa:	48 89 c7             	mov    %rax,%rdi
  1011ad:	e8 9a 28 00 00       	callq  103a4c <_ZN9MemoryMap15IsUsuableMemoryEm>
  1011b2:	84 c0                	test   %al,%al
  1011b4:	74 3f                	je     1011f5 <_ZN18PageFrameAllocator13ReadMemoryMapEP9MemoryMap+0x1f1>
  1011b6:	48 8b 55 d8          	mov    -0x28(%rbp),%rdx
  1011ba:	48 8b 45 a0          	mov    -0x60(%rbp),%rax
  1011be:	48 89 d6             	mov    %rdx,%rsi
  1011c1:	48 89 c7             	mov    %rax,%rdi
  1011c4:	e8 59 cd 00 00       	callq  10df22 <_ZNK9MemoryMap8GetEntryEm>
  1011c9:	48 89 45 c0          	mov    %rax,-0x40(%rbp)
  1011cd:	48 8b 45 c0          	mov    -0x40(%rbp),%rax
  1011d1:	48 8b 40 08          	mov    0x8(%rax),%rax
  1011d5:	48 c1 e8 0c          	shr    $0xc,%rax
  1011d9:	48 89 c2             	mov    %rax,%rdx
  1011dc:	48 8b 45 c0          	mov    -0x40(%rbp),%rax
  1011e0:	48 8b 00             	mov    (%rax),%rax
  1011e3:	48 89 c1             	mov    %rax,%rcx
  1011e6:	48 8b 45 a8          	mov    -0x58(%rbp),%rax
  1011ea:	48 89 ce             	mov    %rcx,%rsi
  1011ed:	48 89 c7             	mov    %rax,%rdi
  1011f0:	e8 77 01 00 00       	callq  10136c <_ZN18PageFrameAllocator14UnreservePagesEPvm>
  1011f5:	48 83 45 d8 01       	addq   $0x1,-0x28(%rbp)
  1011fa:	eb 8c                	jmp    101188 <_ZN18PageFrameAllocator13ReadMemoryMapEP9MemoryMap+0x184>
  1011fc:	48 8b 45 a8          	mov    -0x58(%rbp),%rax
  101200:	ba 00 01 00 00       	mov    $0x100,%edx
  101205:	be 00 00 00 00       	mov    $0x0,%esi
  10120a:	48 89 c7             	mov    %rax,%rdi
  10120d:	e8 7e 02 00 00       	callq  101490 <_ZN18PageFrameAllocator9LockPagesEPvm>
  101212:	48 8b 15 6f e2 00 00 	mov    0xe26f(%rip),%rdx        # 10f488 <kernelEnd>
  101219:	48 8b 05 60 e2 00 00 	mov    0xe260(%rip),%rax        # 10f480 <kernelStart>
  101220:	48 29 c2             	sub    %rax,%rdx
  101223:	48 89 d0             	mov    %rdx,%rax
  101226:	48 05 00 10 00 00    	add    $0x1000,%rax
  10122c:	48 c1 e8 0c          	shr    $0xc,%rax
  101230:	48 89 c2             	mov    %rax,%rdx
  101233:	48 8b 05 46 e2 00 00 	mov    0xe246(%rip),%rax        # 10f480 <kernelStart>
  10123a:	48 89 c1             	mov    %rax,%rcx
  10123d:	48 8b 45 a8          	mov    -0x58(%rbp),%rax
  101241:	48 89 ce             	mov    %rcx,%rsi
  101244:	48 89 c7             	mov    %rax,%rdi
  101247:	e8 44 02 00 00       	callq  101490 <_ZN18PageFrameAllocator9LockPagesEPvm>
  10124c:	48 8b 45 c8          	mov    -0x38(%rbp),%rax
  101250:	48 c1 e0 03          	shl    $0x3,%rax
  101254:	48 c1 e8 0c          	shr    $0xc,%rax
  101258:	48 8d 50 01          	lea    0x1(%rax),%rdx
  10125c:	48 8b 45 a8          	mov    -0x58(%rbp),%rax
  101260:	48 8b 48 08          	mov    0x8(%rax),%rcx
  101264:	48 8b 45 a8          	mov    -0x58(%rbp),%rax
  101268:	48 89 ce             	mov    %rcx,%rsi
  10126b:	48 89 c7             	mov    %rax,%rdi
  10126e:	e8 67 00 00 00       	callq  1012da <_ZN18PageFrameAllocator12ReservePagesEPvm>
  101273:	90                   	nop
  101274:	c9                   	leaveq 
  101275:	c3                   	retq   

0000000000101276 <_ZN18PageFrameAllocator11RequestPageEv>:
  101276:	f3 0f 1e fa          	endbr64 
  10127a:	55                   	push   %rbp
  10127b:	48 89 e5             	mov    %rsp,%rbp
  10127e:	48 83 ec 20          	sub    $0x20,%rsp
  101282:	48 89 7d e8          	mov    %rdi,-0x18(%rbp)
  101286:	48 8b 45 e8          	mov    -0x18(%rbp),%rax
  10128a:	48 89 c7             	mov    %rax,%rdi
  10128d:	e8 1c af 00 00       	callq  10c1ae <_ZN6Bitmap5FirstEv>
  101292:	48 89 45 f8          	mov    %rax,-0x8(%rbp)
  101296:	48 83 7d f8 ff       	cmpq   $0xffffffffffffffff,-0x8(%rbp)
  10129b:	75 14                	jne    1012b1 <_ZN18PageFrameAllocator11RequestPageEv+0x3b>
  10129d:	48 8d 3d 5c ed 00 00 	lea    0xed5c(%rip),%rdi        # 110000 <__rodata>
  1012a4:	b8 00 00 00 00       	mov    $0x0,%eax
  1012a9:	e8 62 b5 00 00       	callq  10c810 <_Z7kprintfPKcz>
  1012ae:	f4                   	hlt    
  1012af:	eb fd                	jmp    1012ae <_ZN18PageFrameAllocator11RequestPageEv+0x38>
  1012b1:	48 8b 45 f8          	mov    -0x8(%rbp),%rax
  1012b5:	48 c1 e0 0c          	shl    $0xc,%rax
  1012b9:	48 89 c1             	mov    %rax,%rcx
  1012bc:	48 8b 45 e8          	mov    -0x18(%rbp),%rax
  1012c0:	ba 01 00 00 00       	mov    $0x1,%edx
  1012c5:	48 89 ce             	mov    %rcx,%rsi
  1012c8:	48 89 c7             	mov    %rax,%rdi
  1012cb:	e8 c0 01 00 00       	callq  101490 <_ZN18PageFrameAllocator9LockPagesEPvm>
  1012d0:	48 8b 45 f8          	mov    -0x8(%rbp),%rax
  1012d4:	48 c1 e0 0c          	shl    $0xc,%rax
  1012d8:	c9                   	leaveq 
  1012d9:	c3                   	retq   

00000000001012da <_ZN18PageFrameAllocator12ReservePagesEPvm>:
  1012da:	f3 0f 1e fa          	endbr64 
  1012de:	55                   	push   %rbp
  1012df:	48 89 e5             	mov    %rsp,%rbp
  1012e2:	48 83 ec 30          	sub    $0x30,%rsp
  1012e6:	48 89 7d e8          	mov    %rdi,-0x18(%rbp)
  1012ea:	48 89 75 e0          	mov    %rsi,-0x20(%rbp)
  1012ee:	48 89 55 d8          	mov    %rdx,-0x28(%rbp)
  1012f2:	c7 45 fc 00 00 00 00 	movl   $0x0,-0x4(%rbp)
  1012f9:	8b 45 fc             	mov    -0x4(%rbp),%eax
  1012fc:	48 39 45 d8          	cmp    %rax,-0x28(%rbp)
  101300:	76 66                	jbe    101368 <_ZN18PageFrameAllocator12ReservePagesEPvm+0x8e>
  101302:	8b 45 fc             	mov    -0x4(%rbp),%eax
  101305:	c1 e0 0c             	shl    $0xc,%eax
  101308:	89 c2                	mov    %eax,%edx
  10130a:	48 8b 45 e0          	mov    -0x20(%rbp),%rax
  10130e:	48 01 d0             	add    %rdx,%rax
  101311:	48 89 45 f0          	mov    %rax,-0x10(%rbp)
  101315:	48 8b 45 e8          	mov    -0x18(%rbp),%rax
  101319:	48 8b 55 f0          	mov    -0x10(%rbp),%rdx
  10131d:	48 89 d1             	mov    %rdx,%rcx
  101320:	48 c1 e9 0c          	shr    $0xc,%rcx
  101324:	ba 01 00 00 00       	mov    $0x1,%edx
  101329:	48 89 ce             	mov    %rcx,%rsi
  10132c:	48 89 c7             	mov    %rax,%rdi
  10132f:	e8 ba ad 00 00       	callq  10c0ee <_ZN6Bitmap3SetEmb>
  101334:	48 8b 45 e8          	mov    -0x18(%rbp),%rax
  101338:	48 8b 40 10          	mov    0x10(%rax),%rax
  10133c:	48 8d 90 00 f0 ff ff 	lea    -0x1000(%rax),%rdx
  101343:	48 8b 45 e8          	mov    -0x18(%rbp),%rax
  101347:	48 89 50 10          	mov    %rdx,0x10(%rax)
  10134b:	48 8b 45 e8          	mov    -0x18(%rbp),%rax
  10134f:	48 8b 40 20          	mov    0x20(%rax),%rax
  101353:	48 8d 90 00 10 00 00 	lea    0x1000(%rax),%rdx
  10135a:	48 8b 45 e8          	mov    -0x18(%rbp),%rax
  10135e:	48 89 50 20          	mov    %rdx,0x20(%rax)
  101362:	83 45 fc 01          	addl   $0x1,-0x4(%rbp)
  101366:	eb 91                	jmp    1012f9 <_ZN18PageFrameAllocator12ReservePagesEPvm+0x1f>
  101368:	90                   	nop
  101369:	c9                   	leaveq 
  10136a:	c3                   	retq   
  10136b:	90                   	nop

000000000010136c <_ZN18PageFrameAllocator14UnreservePagesEPvm>:
  10136c:	f3 0f 1e fa          	endbr64 
  101370:	55                   	push   %rbp
  101371:	48 89 e5             	mov    %rsp,%rbp
  101374:	48 83 ec 30          	sub    $0x30,%rsp
  101378:	48 89 7d e8          	mov    %rdi,-0x18(%rbp)
  10137c:	48 89 75 e0          	mov    %rsi,-0x20(%rbp)
  101380:	48 89 55 d8          	mov    %rdx,-0x28(%rbp)
  101384:	c7 45 fc 00 00 00 00 	movl   $0x0,-0x4(%rbp)
  10138b:	8b 45 fc             	mov    -0x4(%rbp),%eax
  10138e:	48 39 45 d8          	cmp    %rax,-0x28(%rbp)
  101392:	76 66                	jbe    1013fa <_ZN18PageFrameAllocator14UnreservePagesEPvm+0x8e>
  101394:	8b 45 fc             	mov    -0x4(%rbp),%eax
  101397:	c1 e0 0c             	shl    $0xc,%eax
  10139a:	89 c2                	mov    %eax,%edx
  10139c:	48 8b 45 e0          	mov    -0x20(%rbp),%rax
  1013a0:	48 01 d0             	add    %rdx,%rax
  1013a3:	48 89 45 f0          	mov    %rax,-0x10(%rbp)
  1013a7:	48 8b 45 e8          	mov    -0x18(%rbp),%rax
  1013ab:	48 8b 55 f0          	mov    -0x10(%rbp),%rdx
  1013af:	48 89 d1             	mov    %rdx,%rcx
  1013b2:	48 c1 e9 0c          	shr    $0xc,%rcx
  1013b6:	ba 00 00 00 00       	mov    $0x0,%edx
  1013bb:	48 89 ce             	mov    %rcx,%rsi
  1013be:	48 89 c7             	mov    %rax,%rdi
  1013c1:	e8 28 ad 00 00       	callq  10c0ee <_ZN6Bitmap3SetEmb>
  1013c6:	48 8b 45 e8          	mov    -0x18(%rbp),%rax
  1013ca:	48 8b 40 10          	mov    0x10(%rax),%rax
  1013ce:	48 8d 90 00 10 00 00 	lea    0x1000(%rax),%rdx
  1013d5:	48 8b 45 e8          	mov    -0x18(%rbp),%rax
  1013d9:	48 89 50 10          	mov    %rdx,0x10(%rax)
  1013dd:	48 8b 45 e8          	mov    -0x18(%rbp),%rax
  1013e1:	48 8b 40 20          	mov    0x20(%rax),%rax
  1013e5:	48 8d 90 00 f0 ff ff 	lea    -0x1000(%rax),%rdx
  1013ec:	48 8b 45 e8          	mov    -0x18(%rbp),%rax
  1013f0:	48 89 50 20          	mov    %rdx,0x20(%rax)
  1013f4:	83 45 fc 01          	addl   $0x1,-0x4(%rbp)
  1013f8:	eb 91                	jmp    10138b <_ZN18PageFrameAllocator14UnreservePagesEPvm+0x1f>
  1013fa:	90                   	nop
  1013fb:	c9                   	leaveq 
  1013fc:	c3                   	retq   
  1013fd:	90                   	nop

00000000001013fe <_ZN18PageFrameAllocator9FreePagesEPvm>:
  1013fe:	f3 0f 1e fa          	endbr64 
  101402:	55                   	push   %rbp
  101403:	48 89 e5             	mov    %rsp,%rbp
  101406:	48 83 ec 30          	sub    $0x30,%rsp
  10140a:	48 89 7d e8          	mov    %rdi,-0x18(%rbp)
  10140e:	48 89 75 e0          	mov    %rsi,-0x20(%rbp)
  101412:	48 89 55 d8          	mov    %rdx,-0x28(%rbp)
  101416:	c7 45 fc 00 00 00 00 	movl   $0x0,-0x4(%rbp)
  10141d:	8b 45 fc             	mov    -0x4(%rbp),%eax
  101420:	48 39 45 d8          	cmp    %rax,-0x28(%rbp)
  101424:	76 66                	jbe    10148c <_ZN18PageFrameAllocator9FreePagesEPvm+0x8e>
  101426:	8b 45 fc             	mov    -0x4(%rbp),%eax
  101429:	c1 e0 0c             	shl    $0xc,%eax
  10142c:	89 c2                	mov    %eax,%edx
  10142e:	48 8b 45 e0          	mov    -0x20(%rbp),%rax
  101432:	48 01 d0             	add    %rdx,%rax
  101435:	48 89 45 f0          	mov    %rax,-0x10(%rbp)
  101439:	48 8b 45 e8          	mov    -0x18(%rbp),%rax
  10143d:	48 8b 55 f0          	mov    -0x10(%rbp),%rdx
  101441:	48 89 d1             	mov    %rdx,%rcx
  101444:	48 c1 e9 0c          	shr    $0xc,%rcx
  101448:	ba 00 00 00 00       	mov    $0x0,%edx
  10144d:	48 89 ce             	mov    %rcx,%rsi
  101450:	48 89 c7             	mov    %rax,%rdi
  101453:	e8 96 ac 00 00       	callq  10c0ee <_ZN6Bitmap3SetEmb>
  101458:	48 8b 45 e8          	mov    -0x18(%rbp),%rax
  10145c:	48 8b 40 10          	mov    0x10(%rax),%rax
  101460:	48 8d 90 00 10 00 00 	lea    0x1000(%rax),%rdx
  101467:	48 8b 45 e8          	mov    -0x18(%rbp),%rax
  10146b:	48 89 50 10          	mov    %rdx,0x10(%rax)
  10146f:	48 8b 45 e8          	mov    -0x18(%rbp),%rax
  101473:	48 8b 40 18          	mov    0x18(%rax),%rax
  101477:	48 8d 90 00 f0 ff ff 	lea    -0x1000(%rax),%rdx
  10147e:	48 8b 45 e8          	mov    -0x18(%rbp),%rax
  101482:	48 89 50 18          	mov    %rdx,0x18(%rax)
  101486:	83 45 fc 01          	addl   $0x1,-0x4(%rbp)
  10148a:	eb 91                	jmp    10141d <_ZN18PageFrameAllocator9FreePagesEPvm+0x1f>
  10148c:	90                   	nop
  10148d:	c9                   	leaveq 
  10148e:	c3                   	retq   
  10148f:	90                   	nop

0000000000101490 <_ZN18PageFrameAllocator9LockPagesEPvm>:
  101490:	f3 0f 1e fa          	endbr64 
  101494:	55                   	push   %rbp
  101495:	48 89 e5             	mov    %rsp,%rbp
  101498:	48 83 ec 30          	sub    $0x30,%rsp
  10149c:	48 89 7d e8          	mov    %rdi,-0x18(%rbp)
  1014a0:	48 89 75 e0          	mov    %rsi,-0x20(%rbp)
  1014a4:	48 89 55 d8          	mov    %rdx,-0x28(%rbp)
  1014a8:	c7 45 fc 00 00 00 00 	movl   $0x0,-0x4(%rbp)
  1014af:	8b 45 fc             	mov    -0x4(%rbp),%eax
  1014b2:	48 39 45 d8          	cmp    %rax,-0x28(%rbp)
  1014b6:	76 66                	jbe    10151e <_ZN18PageFrameAllocator9LockPagesEPvm+0x8e>
  1014b8:	8b 45 fc             	mov    -0x4(%rbp),%eax
  1014bb:	c1 e0 0c             	shl    $0xc,%eax
  1014be:	89 c2                	mov    %eax,%edx
  1014c0:	48 8b 45 e0          	mov    -0x20(%rbp),%rax
  1014c4:	48 01 d0             	add    %rdx,%rax
  1014c7:	48 89 45 f0          	mov    %rax,-0x10(%rbp)
  1014cb:	48 8b 45 e8          	mov    -0x18(%rbp),%rax
  1014cf:	48 8b 55 f0          	mov    -0x10(%rbp),%rdx
  1014d3:	48 89 d1             	mov    %rdx,%rcx
  1014d6:	48 c1 e9 0c          	shr    $0xc,%rcx
  1014da:	ba 01 00 00 00       	mov    $0x1,%edx
  1014df:	48 89 ce             	mov    %rcx,%rsi
  1014e2:	48 89 c7             	mov    %rax,%rdi
  1014e5:	e8 04 ac 00 00       	callq  10c0ee <_ZN6Bitmap3SetEmb>
  1014ea:	48 8b 45 e8          	mov    -0x18(%rbp),%rax
  1014ee:	48 8b 40 10          	mov    0x10(%rax),%rax
  1014f2:	48 8d 90 00 f0 ff ff 	lea    -0x1000(%rax),%rdx
  1014f9:	48 8b 45 e8          	mov    -0x18(%rbp),%rax
  1014fd:	48 89 50 10          	mov    %rdx,0x10(%rax)
  101501:	48 8b 45 e8          	mov    -0x18(%rbp),%rax
  101505:	48 8b 40 18          	mov    0x18(%rax),%rax
  101509:	48 8d 90 00 10 00 00 	lea    0x1000(%rax),%rdx
  101510:	48 8b 45 e8          	mov    -0x18(%rbp),%rax
  101514:	48 89 50 18          	mov    %rdx,0x18(%rax)
  101518:	83 45 fc 01          	addl   $0x1,-0x4(%rbp)
  10151c:	eb 91                	jmp    1014af <_ZN18PageFrameAllocator9LockPagesEPvm+0x1f>
  10151e:	90                   	nop
  10151f:	c9                   	leaveq 
  101520:	c3                   	retq   
  101521:	90                   	nop

0000000000101522 <_ZN18PageFrameAllocator15SharedAllocatorEv>:
  101522:	f3 0f 1e fa          	endbr64 
  101526:	55                   	push   %rbp
  101527:	48 89 e5             	mov    %rsp,%rbp
  10152a:	48 8b 05 cf 3a 01 00 	mov    0x13acf(%rip),%rax        # 115000 <_ZN18PageFrameAllocator11s_AllocatorE>
  101531:	48 85 c0             	test   %rax,%rax
  101534:	75 0e                	jne    101544 <_ZN18PageFrameAllocator15SharedAllocatorEv+0x22>
  101536:	48 8d 05 e3 3a 01 00 	lea    0x13ae3(%rip),%rax        # 115020 <allocator>
  10153d:	48 89 05 bc 3a 01 00 	mov    %rax,0x13abc(%rip)        # 115000 <_ZN18PageFrameAllocator11s_AllocatorE>
  101544:	48 8b 05 b5 3a 01 00 	mov    0x13ab5(%rip),%rax        # 115000 <_ZN18PageFrameAllocator11s_AllocatorE>
  10154b:	5d                   	pop    %rbp
  10154c:	c3                   	retq   

000000000010154d <_Z10InitPagingP9MemoryMap>:
  10154d:	f3 0f 1e fa          	endbr64 
  101551:	55                   	push   %rbp
  101552:	48 89 e5             	mov    %rsp,%rbp
  101555:	48 83 ec 30          	sub    $0x30,%rsp
  101559:	48 89 7d d8          	mov    %rdi,-0x28(%rbp)
  10155d:	e8 c0 ff ff ff       	callq  101522 <_ZN18PageFrameAllocator15SharedAllocatorEv>
  101562:	48 89 c2             	mov    %rax,%rdx
  101565:	48 8b 45 d8          	mov    -0x28(%rbp),%rax
  101569:	48 89 c6             	mov    %rax,%rsi
  10156c:	48 89 d7             	mov    %rdx,%rdi
  10156f:	e8 90 fa ff ff       	callq  101004 <_ZN18PageFrameAllocator13ReadMemoryMapEP9MemoryMap>
  101574:	e8 a9 ff ff ff       	callq  101522 <_ZN18PageFrameAllocator15SharedAllocatorEv>
  101579:	48 89 c7             	mov    %rax,%rdi
  10157c:	e8 f5 fc ff ff       	callq  101276 <_ZN18PageFrameAllocator11RequestPageEv>
  101581:	48 89 45 f0          	mov    %rax,-0x10(%rbp)
  101585:	48 8b 45 f0          	mov    -0x10(%rbp),%rax
  101589:	ba 00 10 00 00       	mov    $0x1000,%edx
  10158e:	be 00 00 00 00       	mov    $0x0,%esi
  101593:	48 89 c7             	mov    %rax,%rdi
  101596:	e8 b4 b6 00 00       	callq  10cc4f <_Z6memsetPvim>
  10159b:	48 8b 55 f0          	mov    -0x10(%rbp),%rdx
  10159f:	48 8d 45 e8          	lea    -0x18(%rbp),%rax
  1015a3:	48 89 d6             	mov    %rdx,%rsi
  1015a6:	48 89 c7             	mov    %rax,%rdi
  1015a9:	e8 d8 c8 00 00       	callq  10de86 <_ZN16PageTableManagerC1EP9PageTable>
  1015ae:	48 8b 45 e8          	mov    -0x18(%rbp),%rax
  1015b2:	48 89 05 8f 3a 01 00 	mov    %rax,0x13a8f(%rip)        # 115048 <KernelDirectory>
  1015b9:	48 c7 45 f8 00 00 00 	movq   $0x0,-0x8(%rbp)
  1015c0:	00 
  1015c1:	48 8b 45 d8          	mov    -0x28(%rbp),%rax
  1015c5:	48 89 c7             	mov    %rax,%rdi
  1015c8:	e8 b9 25 00 00       	callq  103b86 <_ZN9MemoryMap20GetTotalSystemMemoryEv>
  1015cd:	48 39 45 f8          	cmp    %rax,-0x8(%rbp)
  1015d1:	0f 92 c0             	setb   %al
  1015d4:	84 c0                	test   %al,%al
  1015d6:	74 26                	je     1015fe <_Z10InitPagingP9MemoryMap+0xb1>
  1015d8:	48 8b 55 f8          	mov    -0x8(%rbp),%rdx
  1015dc:	48 8b 45 f8          	mov    -0x8(%rbp),%rax
  1015e0:	b9 03 00 00 00       	mov    $0x3,%ecx
  1015e5:	48 89 c6             	mov    %rax,%rsi
  1015e8:	48 8d 3d 59 3a 01 00 	lea    0x13a59(%rip),%rdi        # 115048 <KernelDirectory>
  1015ef:	e8 e2 ea ff ff       	callq  1000d6 <_ZN16PageTableManager9MapMemoryEmmm>
  1015f4:	48 81 45 f8 00 10 00 	addq   $0x1000,-0x8(%rbp)
  1015fb:	00 
  1015fc:	eb c3                	jmp    1015c1 <_Z10InitPagingP9MemoryMap+0x74>
  1015fe:	48 8d 05 28 00 00 00 	lea    0x28(%rip),%rax        # 10162d <_Z16PageFaultHandlerP9Registers>
  101605:	48 89 c1             	mov    %rax,%rcx
  101608:	ba 8e 00 00 00       	mov    $0x8e,%edx
  10160d:	be 0e 00 00 00       	mov    $0xe,%esi
  101612:	48 8d 3d 47 3b 01 00 	lea    0x13b47(%rip),%rdi        # 115160 <idtr>
  101619:	e8 44 09 00 00       	callq  101f62 <_ZN4IDTR7SetGateEhhm>
  10161e:	48 8d 3d 23 3a 01 00 	lea    0x13a23(%rip),%rdi        # 115048 <KernelDirectory>
  101625:	e8 26 ee ff ff       	callq  100450 <_ZN16PageTableManager12SetAsCurrentEv>
  10162a:	90                   	nop
  10162b:	c9                   	leaveq 
  10162c:	c3                   	retq   

000000000010162d <_Z16PageFaultHandlerP9Registers>:
  10162d:	f3 0f 1e fa          	endbr64 
  101631:	55                   	push   %rbp
  101632:	48 89 e5             	mov    %rsp,%rbp
  101635:	48 83 ec 30          	sub    $0x30,%rsp
  101639:	48 89 7d d8          	mov    %rdi,-0x28(%rbp)
  10163d:	0f 20 d0             	mov    %cr2,%rax
  101640:	48 89 45 f8          	mov    %rax,-0x8(%rbp)
  101644:	48 8b 45 d8          	mov    -0x28(%rbp),%rax
  101648:	48 8b 80 88 01 00 00 	mov    0x188(%rax),%rax
  10164f:	89 45 f4             	mov    %eax,-0xc(%rbp)
  101652:	8b 45 f4             	mov    -0xc(%rbp),%eax
  101655:	83 e0 01             	and    $0x1,%eax
  101658:	85 c0                	test   %eax,%eax
  10165a:	0f 94 c0             	sete   %al
  10165d:	0f b6 c0             	movzbl %al,%eax
  101660:	89 45 f0             	mov    %eax,-0x10(%rbp)
  101663:	8b 45 f4             	mov    -0xc(%rbp),%eax
  101666:	83 e0 02             	and    $0x2,%eax
  101669:	89 45 ec             	mov    %eax,-0x14(%rbp)
  10166c:	8b 45 f4             	mov    -0xc(%rbp),%eax
  10166f:	83 e0 04             	and    $0x4,%eax
  101672:	89 45 e8             	mov    %eax,-0x18(%rbp)
  101675:	8b 45 f4             	mov    -0xc(%rbp),%eax
  101678:	83 e0 08             	and    $0x8,%eax
  10167b:	89 45 e4             	mov    %eax,-0x1c(%rbp)
  10167e:	8b 45 f4             	mov    -0xc(%rbp),%eax
  101681:	83 e0 10             	and    $0x10,%eax
  101684:	89 45 e0             	mov    %eax,-0x20(%rbp)
  101687:	48 8d 3d aa e9 00 00 	lea    0xe9aa(%rip),%rdi        # 110038 <__rodata+0x38>
  10168e:	b8 00 00 00 00       	mov    $0x0,%eax
  101693:	e8 78 b1 00 00       	callq  10c810 <_Z7kprintfPKcz>
  101698:	48 8b 05 b1 39 01 00 	mov    0x139b1(%rip),%rax        # 115050 <CurrentDirectory>
  10169f:	48 8b 55 f8          	mov    -0x8(%rbp),%rdx
  1016a3:	48 89 d6             	mov    %rdx,%rsi
  1016a6:	48 89 c7             	mov    %rax,%rdi
  1016a9:	e8 da ec ff ff       	callq  100388 <_ZN16PageTableManager15PhysicalAddressEm>
  1016ae:	48 89 c6             	mov    %rax,%rsi
  1016b1:	8b 55 f4             	mov    -0xc(%rbp),%edx
  1016b4:	48 8b 45 f8          	mov    -0x8(%rbp),%rax
  1016b8:	89 d1                	mov    %edx,%ecx
  1016ba:	48 89 f2             	mov    %rsi,%rdx
  1016bd:	48 89 c6             	mov    %rax,%rsi
  1016c0:	48 8d 3d a9 e9 00 00 	lea    0xe9a9(%rip),%rdi        # 110070 <__rodata+0x70>
  1016c7:	b8 00 00 00 00       	mov    $0x0,%eax
  1016cc:	e8 3f b1 00 00       	callq  10c810 <_Z7kprintfPKcz>
  1016d1:	48 8d 3d d3 e9 00 00 	lea    0xe9d3(%rip),%rdi        # 1100ab <__rodata+0xab>
  1016d8:	b8 00 00 00 00       	mov    $0x0,%eax
  1016dd:	e8 2e b1 00 00       	callq  10c810 <_Z7kprintfPKcz>
  1016e2:	8b 45 f0             	mov    -0x10(%rbp),%eax
  1016e5:	89 c6                	mov    %eax,%esi
  1016e7:	48 8d 3d c5 e9 00 00 	lea    0xe9c5(%rip),%rdi        # 1100b3 <__rodata+0xb3>
  1016ee:	b8 00 00 00 00       	mov    $0x0,%eax
  1016f3:	e8 18 b1 00 00       	callq  10c810 <_Z7kprintfPKcz>
  1016f8:	8b 45 ec             	mov    -0x14(%rbp),%eax
  1016fb:	89 c6                	mov    %eax,%esi
  1016fd:	48 8d 3d bc e9 00 00 	lea    0xe9bc(%rip),%rdi        # 1100c0 <__rodata+0xc0>
  101704:	b8 00 00 00 00       	mov    $0x0,%eax
  101709:	e8 02 b1 00 00       	callq  10c810 <_Z7kprintfPKcz>
  10170e:	8b 45 e8             	mov    -0x18(%rbp),%eax
  101711:	89 c6                	mov    %eax,%esi
  101713:	48 8d 3d b1 e9 00 00 	lea    0xe9b1(%rip),%rdi        # 1100cb <__rodata+0xcb>
  10171a:	b8 00 00 00 00       	mov    $0x0,%eax
  10171f:	e8 ec b0 00 00       	callq  10c810 <_Z7kprintfPKcz>
  101724:	8b 45 e4             	mov    -0x1c(%rbp),%eax
  101727:	89 c6                	mov    %eax,%esi
  101729:	48 8d 3d ac e9 00 00 	lea    0xe9ac(%rip),%rdi        # 1100dc <__rodata+0xdc>
  101730:	b8 00 00 00 00       	mov    $0x0,%eax
  101735:	e8 d6 b0 00 00       	callq  10c810 <_Z7kprintfPKcz>
  10173a:	8b 45 e0             	mov    -0x20(%rbp),%eax
  10173d:	89 c6                	mov    %eax,%esi
  10173f:	48 8d 3d a4 e9 00 00 	lea    0xe9a4(%rip),%rdi        # 1100ea <__rodata+0xea>
  101746:	b8 00 00 00 00       	mov    $0x0,%eax
  10174b:	e8 c0 b0 00 00       	callq  10c810 <_Z7kprintfPKcz>
  101750:	48 8d 3d b1 e9 00 00 	lea    0xe9b1(%rip),%rdi        # 110108 <__rodata+0x108>
  101757:	b8 00 00 00 00       	mov    $0x0,%eax
  10175c:	e8 af b0 00 00       	callq  10c810 <_Z7kprintfPKcz>
  101761:	f4                   	hlt    
  101762:	eb fd                	jmp    101761 <_Z16PageFaultHandlerP9Registers+0x134>

0000000000101764 <_Z41__static_initialization_and_destruction_0ii>:
  101764:	f3 0f 1e fa          	endbr64 
  101768:	55                   	push   %rbp
  101769:	48 89 e5             	mov    %rsp,%rbp
  10176c:	48 83 ec 10          	sub    $0x10,%rsp
  101770:	89 7d fc             	mov    %edi,-0x4(%rbp)
  101773:	89 75 f8             	mov    %esi,-0x8(%rbp)
  101776:	83 7d fc 01          	cmpl   $0x1,-0x4(%rbp)
  10177a:	75 1a                	jne    101796 <_Z41__static_initialization_and_destruction_0ii+0x32>
  10177c:	81 7d f8 ff ff 00 00 	cmpl   $0xffff,-0x8(%rbp)
  101783:	75 11                	jne    101796 <_Z41__static_initialization_and_destruction_0ii+0x32>
  101785:	be 00 00 00 00       	mov    $0x0,%esi
  10178a:	48 8d 3d b7 38 01 00 	lea    0x138b7(%rip),%rdi        # 115048 <KernelDirectory>
  101791:	e8 f0 c6 00 00       	callq  10de86 <_ZN16PageTableManagerC1EP9PageTable>
  101796:	90                   	nop
  101797:	c9                   	leaveq 
  101798:	c3                   	retq   

0000000000101799 <_GLOBAL__sub_I_KernelDirectory>:
  101799:	f3 0f 1e fa          	endbr64 
  10179d:	55                   	push   %rbp
  10179e:	48 89 e5             	mov    %rsp,%rbp
  1017a1:	be ff ff 00 00       	mov    $0xffff,%esi
  1017a6:	bf 01 00 00 00       	mov    $0x1,%edi
  1017ab:	e8 b4 ff ff ff       	callq  101764 <_Z41__static_initialization_and_destruction_0ii>
  1017b0:	5d                   	pop    %rbp
  1017b1:	c3                   	retq   

00000000001017b2 <_Z5__inbt>:
  1017b2:	f3 0f 1e fa          	endbr64 
  1017b6:	55                   	push   %rbp
  1017b7:	48 89 e5             	mov    %rsp,%rbp
  1017ba:	48 83 ec 18          	sub    $0x18,%rsp
  1017be:	89 f8                	mov    %edi,%eax
  1017c0:	66 89 45 ec          	mov    %ax,-0x14(%rbp)
  1017c4:	0f b7 45 ec          	movzwl -0x14(%rbp),%eax
  1017c8:	89 c2                	mov    %eax,%edx
  1017ca:	ec                   	in     (%dx),%al
  1017cb:	88 45 ff             	mov    %al,-0x1(%rbp)
  1017ce:	0f b6 45 ff          	movzbl -0x1(%rbp),%eax
  1017d2:	c9                   	leaveq 
  1017d3:	c3                   	retq   

00000000001017d4 <_Z5__inwt>:
  1017d4:	f3 0f 1e fa          	endbr64 
  1017d8:	55                   	push   %rbp
  1017d9:	48 89 e5             	mov    %rsp,%rbp
  1017dc:	48 83 ec 18          	sub    $0x18,%rsp
  1017e0:	89 f8                	mov    %edi,%eax
  1017e2:	66 89 45 ec          	mov    %ax,-0x14(%rbp)
  1017e6:	0f b7 45 ec          	movzwl -0x14(%rbp),%eax
  1017ea:	89 c2                	mov    %eax,%edx
  1017ec:	66 ed                	in     (%dx),%ax
  1017ee:	66 89 45 fe          	mov    %ax,-0x2(%rbp)
  1017f2:	0f b7 45 fe          	movzwl -0x2(%rbp),%eax
  1017f6:	c9                   	leaveq 
  1017f7:	c3                   	retq   

00000000001017f8 <_Z5__inlj>:
  1017f8:	f3 0f 1e fa          	endbr64 
  1017fc:	55                   	push   %rbp
  1017fd:	48 89 e5             	mov    %rsp,%rbp
  101800:	48 83 ec 18          	sub    $0x18,%rsp
  101804:	89 7d ec             	mov    %edi,-0x14(%rbp)
  101807:	8b 45 ec             	mov    -0x14(%rbp),%eax
  10180a:	89 c2                	mov    %eax,%edx
  10180c:	ed                   	in     (%dx),%eax
  10180d:	89 45 fc             	mov    %eax,-0x4(%rbp)
  101810:	8b 45 fc             	mov    -0x4(%rbp),%eax
  101813:	c9                   	leaveq 
  101814:	c3                   	retq   

0000000000101815 <_Z6__outbth>:
  101815:	f3 0f 1e fa          	endbr64 
  101819:	55                   	push   %rbp
  10181a:	48 89 e5             	mov    %rsp,%rbp
  10181d:	48 83 ec 08          	sub    $0x8,%rsp
  101821:	89 f8                	mov    %edi,%eax
  101823:	89 f2                	mov    %esi,%edx
  101825:	66 89 45 fc          	mov    %ax,-0x4(%rbp)
  101829:	89 d0                	mov    %edx,%eax
  10182b:	88 45 f8             	mov    %al,-0x8(%rbp)
  10182e:	0f b6 45 f8          	movzbl -0x8(%rbp),%eax
  101832:	0f b7 55 fc          	movzwl -0x4(%rbp),%edx
  101836:	ee                   	out    %al,(%dx)
  101837:	90                   	nop
  101838:	c9                   	leaveq 
  101839:	c3                   	retq   

000000000010183a <_Z6__outwtt>:
  10183a:	f3 0f 1e fa          	endbr64 
  10183e:	55                   	push   %rbp
  10183f:	48 89 e5             	mov    %rsp,%rbp
  101842:	48 83 ec 08          	sub    $0x8,%rsp
  101846:	89 fa                	mov    %edi,%edx
  101848:	89 f0                	mov    %esi,%eax
  10184a:	66 89 55 fc          	mov    %dx,-0x4(%rbp)
  10184e:	66 89 45 f8          	mov    %ax,-0x8(%rbp)
  101852:	0f b7 45 f8          	movzwl -0x8(%rbp),%eax
  101856:	0f b7 55 fc          	movzwl -0x4(%rbp),%edx
  10185a:	66 ef                	out    %ax,(%dx)
  10185c:	90                   	nop
  10185d:	c9                   	leaveq 
  10185e:	c3                   	retq   

000000000010185f <_Z6__outljj>:
  10185f:	f3 0f 1e fa          	endbr64 
  101863:	55                   	push   %rbp
  101864:	48 89 e5             	mov    %rsp,%rbp
  101867:	48 83 ec 08          	sub    $0x8,%rsp
  10186b:	89 7d fc             	mov    %edi,-0x4(%rbp)
  10186e:	89 75 f8             	mov    %esi,-0x8(%rbp)
  101871:	8b 55 fc             	mov    -0x4(%rbp),%edx
  101874:	8b 45 f8             	mov    -0x8(%rbp),%eax
  101877:	ef                   	out    %eax,(%dx)
  101878:	90                   	nop
  101879:	c9                   	leaveq 
  10187a:	c3                   	retq   

000000000010187b <_Z7io_waitv>:
  10187b:	f3 0f 1e fa          	endbr64 
  10187f:	55                   	push   %rbp
  101880:	48 89 e5             	mov    %rsp,%rbp
  101883:	b8 00 00 00 00       	mov    $0x0,%eax
  101888:	e6 80                	out    %al,$0x80
  10188a:	90                   	nop
  10188b:	5d                   	pop    %rbp
  10188c:	c3                   	retq   

000000000010188d <_Z10GetYearRTCv>:
  10188d:	f3 0f 1e fa          	endbr64 
  101891:	55                   	push   %rbp
  101892:	48 89 e5             	mov    %rsp,%rbp
  101895:	be 09 00 00 00       	mov    $0x9,%esi
  10189a:	bf 70 00 00 00       	mov    $0x70,%edi
  10189f:	e8 71 ff ff ff       	callq  101815 <_Z6__outbth>
  1018a4:	bf 71 00 00 00       	mov    $0x71,%edi
  1018a9:	e8 04 ff ff ff       	callq  1017b2 <_Z5__inbt>
  1018ae:	5d                   	pop    %rbp
  1018af:	c3                   	retq   

00000000001018b0 <_Z11GetMonthRTCv>:
  1018b0:	f3 0f 1e fa          	endbr64 
  1018b4:	55                   	push   %rbp
  1018b5:	48 89 e5             	mov    %rsp,%rbp
  1018b8:	be 08 00 00 00       	mov    $0x8,%esi
  1018bd:	bf 70 00 00 00       	mov    $0x70,%edi
  1018c2:	e8 4e ff ff ff       	callq  101815 <_Z6__outbth>
  1018c7:	bf 71 00 00 00       	mov    $0x71,%edi
  1018cc:	e8 e1 fe ff ff       	callq  1017b2 <_Z5__inbt>
  1018d1:	5d                   	pop    %rbp
  1018d2:	c3                   	retq   

00000000001018d3 <_Z9GetDayRTCv>:
  1018d3:	f3 0f 1e fa          	endbr64 
  1018d7:	55                   	push   %rbp
  1018d8:	48 89 e5             	mov    %rsp,%rbp
  1018db:	be 07 00 00 00       	mov    $0x7,%esi
  1018e0:	bf 70 00 00 00       	mov    $0x70,%edi
  1018e5:	e8 2b ff ff ff       	callq  101815 <_Z6__outbth>
  1018ea:	bf 71 00 00 00       	mov    $0x71,%edi
  1018ef:	e8 be fe ff ff       	callq  1017b2 <_Z5__inbt>
  1018f4:	5d                   	pop    %rbp
  1018f5:	c3                   	retq   

00000000001018f6 <_Z13GetWeekdayRTCv>:
  1018f6:	f3 0f 1e fa          	endbr64 
  1018fa:	55                   	push   %rbp
  1018fb:	48 89 e5             	mov    %rsp,%rbp
  1018fe:	be 06 00 00 00       	mov    $0x6,%esi
  101903:	bf 70 00 00 00       	mov    $0x70,%edi
  101908:	e8 08 ff ff ff       	callq  101815 <_Z6__outbth>
  10190d:	bf 71 00 00 00       	mov    $0x71,%edi
  101912:	e8 9b fe ff ff       	callq  1017b2 <_Z5__inbt>
  101917:	5d                   	pop    %rbp
  101918:	c3                   	retq   

0000000000101919 <_Z10GetHourRTCv>:
  101919:	f3 0f 1e fa          	endbr64 
  10191d:	55                   	push   %rbp
  10191e:	48 89 e5             	mov    %rsp,%rbp
  101921:	be 04 00 00 00       	mov    $0x4,%esi
  101926:	bf 70 00 00 00       	mov    $0x70,%edi
  10192b:	e8 e5 fe ff ff       	callq  101815 <_Z6__outbth>
  101930:	bf 71 00 00 00       	mov    $0x71,%edi
  101935:	e8 78 fe ff ff       	callq  1017b2 <_Z5__inbt>
  10193a:	5d                   	pop    %rbp
  10193b:	c3                   	retq   

000000000010193c <_Z12GetMinuteRTCv>:
  10193c:	f3 0f 1e fa          	endbr64 
  101940:	55                   	push   %rbp
  101941:	48 89 e5             	mov    %rsp,%rbp
  101944:	be 02 00 00 00       	mov    $0x2,%esi
  101949:	bf 70 00 00 00       	mov    $0x70,%edi
  10194e:	e8 c2 fe ff ff       	callq  101815 <_Z6__outbth>
  101953:	bf 71 00 00 00       	mov    $0x71,%edi
  101958:	e8 55 fe ff ff       	callq  1017b2 <_Z5__inbt>
  10195d:	5d                   	pop    %rbp
  10195e:	c3                   	retq   

000000000010195f <_Z12GetSecondRTCv>:
  10195f:	f3 0f 1e fa          	endbr64 
  101963:	55                   	push   %rbp
  101964:	48 89 e5             	mov    %rsp,%rbp
  101967:	be 00 00 00 00       	mov    $0x0,%esi
  10196c:	bf 70 00 00 00       	mov    $0x70,%edi
  101971:	e8 9f fe ff ff       	callq  101815 <_Z6__outbth>
  101976:	bf 71 00 00 00       	mov    $0x71,%edi
  10197b:	e8 32 fe ff ff       	callq  1017b2 <_Z5__inbt>
  101980:	5d                   	pop    %rbp
  101981:	c3                   	retq   

0000000000101982 <_Z7InitRTCP2tm>:
  101982:	f3 0f 1e fa          	endbr64 
  101986:	55                   	push   %rbp
  101987:	48 89 e5             	mov    %rsp,%rbp
  10198a:	48 83 ec 10          	sub    $0x10,%rsp
  10198e:	48 89 7d f8          	mov    %rdi,-0x8(%rbp)
  101992:	48 8b 45 f8          	mov    -0x8(%rbp),%rax
  101996:	48 89 c7             	mov    %rax,%rdi
  101999:	e8 03 00 00 00       	callq  1019a1 <_Z10GetTimeRTCP2tm>
  10199e:	90                   	nop
  10199f:	c9                   	leaveq 
  1019a0:	c3                   	retq   

00000000001019a1 <_Z10GetTimeRTCP2tm>:
  1019a1:	f3 0f 1e fa          	endbr64 
  1019a5:	55                   	push   %rbp
  1019a6:	48 89 e5             	mov    %rsp,%rbp
  1019a9:	48 83 ec 10          	sub    $0x10,%rsp
  1019ad:	48 89 7d f8          	mov    %rdi,-0x8(%rbp)
  1019b1:	e8 d7 fe ff ff       	callq  10188d <_Z10GetYearRTCv>
  1019b6:	0f b6 d0             	movzbl %al,%edx
  1019b9:	48 8b 45 f8          	mov    -0x8(%rbp),%rax
  1019bd:	89 10                	mov    %edx,(%rax)
  1019bf:	e8 ec fe ff ff       	callq  1018b0 <_Z11GetMonthRTCv>
  1019c4:	0f b6 d0             	movzbl %al,%edx
  1019c7:	48 8b 45 f8          	mov    -0x8(%rbp),%rax
  1019cb:	89 50 04             	mov    %edx,0x4(%rax)
  1019ce:	e8 00 ff ff ff       	callq  1018d3 <_Z9GetDayRTCv>
  1019d3:	0f b6 d0             	movzbl %al,%edx
  1019d6:	48 8b 45 f8          	mov    -0x8(%rbp),%rax
  1019da:	89 50 08             	mov    %edx,0x8(%rax)
  1019dd:	e8 37 ff ff ff       	callq  101919 <_Z10GetHourRTCv>
  1019e2:	0f b6 d0             	movzbl %al,%edx
  1019e5:	48 8b 45 f8          	mov    -0x8(%rbp),%rax
  1019e9:	89 50 0c             	mov    %edx,0xc(%rax)
  1019ec:	e8 4b ff ff ff       	callq  10193c <_Z12GetMinuteRTCv>
  1019f1:	0f b6 d0             	movzbl %al,%edx
  1019f4:	48 8b 45 f8          	mov    -0x8(%rbp),%rax
  1019f8:	89 50 10             	mov    %edx,0x10(%rax)
  1019fb:	e8 5f ff ff ff       	callq  10195f <_Z12GetSecondRTCv>
  101a00:	0f b6 d0             	movzbl %al,%edx
  101a03:	48 8b 45 f8          	mov    -0x8(%rbp),%rax
  101a07:	89 50 14             	mov    %edx,0x14(%rax)
  101a0a:	90                   	nop
  101a0b:	c9                   	leaveq 
  101a0c:	c3                   	retq   

0000000000101a0d <_Z9StartTaskm>:
  101a0d:	f3 0f 1e fa          	endbr64 
  101a11:	55                   	push   %rbp
  101a12:	48 89 e5             	mov    %rsp,%rbp
  101a15:	48 83 ec 08          	sub    $0x8,%rsp
  101a19:	48 89 7d f8          	mov    %rdi,-0x8(%rbp)
  101a1d:	0f b6 05 4c 36 01 00 	movzbl 0x1364c(%rip),%eax        # 115070 <_ZL11task_was_on>
  101a24:	84 c0                	test   %al,%al
  101a26:	74 0d                	je     101a35 <_Z9StartTaskm+0x28>
  101a28:	48 8b 45 f8          	mov    -0x8(%rbp),%rax
  101a2c:	48 89 05 35 36 01 00 	mov    %rax,0x13635(%rip)        # 115068 <_ZL4task>
  101a33:	eb 01                	jmp    101a36 <_Z9StartTaskm+0x29>
  101a35:	90                   	nop
  101a36:	c9                   	leaveq 
  101a37:	c3                   	retq   

0000000000101a38 <_Z13EnableTaskingv>:
  101a38:	f3 0f 1e fa          	endbr64 
  101a3c:	55                   	push   %rbp
  101a3d:	48 89 e5             	mov    %rsp,%rbp
  101a40:	c6 05 29 36 01 00 01 	movb   $0x1,0x13629(%rip)        # 115070 <_ZL11task_was_on>
  101a47:	48 c7 05 16 36 01 00 	movq   $0x1,0x13616(%rip)        # 115068 <_ZL4task>
  101a4e:	01 00 00 00 
  101a52:	90                   	nop
  101a53:	5d                   	pop    %rbp
  101a54:	c3                   	retq   

0000000000101a55 <_ZL14timer_callbackP9Registers>:
  101a55:	f3 0f 1e fa          	endbr64 
  101a59:	55                   	push   %rbp
  101a5a:	48 89 e5             	mov    %rsp,%rbp
  101a5d:	48 83 ec 10          	sub    $0x10,%rsp
  101a61:	48 89 7d f8          	mov    %rdi,-0x8(%rbp)
  101a65:	48 8b 05 fc 35 01 00 	mov    0x135fc(%rip),%rax        # 115068 <_ZL4task>
  101a6c:	48 85 c0             	test   %rax,%rax
  101a6f:	75 5a                	jne    101acb <_ZL14timer_callbackP9Registers+0x76>
  101a71:	8b 05 e1 35 01 00    	mov    0x135e1(%rip),%eax        # 115058 <tick>
  101a77:	83 c0 01             	add    $0x1,%eax
  101a7a:	89 05 d8 35 01 00    	mov    %eax,0x135d8(%rip)        # 115058 <tick>
  101a80:	8b 05 d6 35 01 00    	mov    0x135d6(%rip),%eax        # 11505c <frequency>
  101a86:	89 c0                	mov    %eax,%eax
  101a88:	48 85 c0             	test   %rax,%rax
  101a8b:	78 07                	js     101a94 <_ZL14timer_callbackP9Registers+0x3f>
  101a8d:	f2 48 0f 2a c0       	cvtsi2sd %rax,%xmm0
  101a92:	eb 15                	jmp    101aa9 <_ZL14timer_callbackP9Registers+0x54>
  101a94:	48 89 c2             	mov    %rax,%rdx
  101a97:	48 d1 ea             	shr    %rdx
  101a9a:	83 e0 01             	and    $0x1,%eax
  101a9d:	48 09 c2             	or     %rax,%rdx
  101aa0:	f2 48 0f 2a c2       	cvtsi2sd %rdx,%xmm0
  101aa5:	f2 0f 58 c0          	addsd  %xmm0,%xmm0
  101aa9:	f2 0f 10 0d 8f e6 00 	movsd  0xe68f(%rip),%xmm1        # 110140 <__rodata+0x140>
  101ab0:	00 
  101ab1:	f2 0f 5e c8          	divsd  %xmm0,%xmm1
  101ab5:	f2 0f 10 05 a3 35 01 	movsd  0x135a3(%rip),%xmm0        # 115060 <timeSinceBoot>
  101abc:	00 
  101abd:	f2 0f 58 c1          	addsd  %xmm1,%xmm0
  101ac1:	f2 0f 11 05 97 35 01 	movsd  %xmm0,0x13597(%rip)        # 115060 <timeSinceBoot>
  101ac8:	00 
  101ac9:	eb 14                	jmp    101adf <_ZL14timer_callbackP9Registers+0x8a>
  101acb:	be 20 00 00 00       	mov    $0x20,%esi
  101ad0:	bf 20 00 00 00       	mov    $0x20,%edi
  101ad5:	e8 3b fd ff ff       	callq  101815 <_Z6__outbth>
  101ada:	e8 9c a2 00 00       	callq  10bd7b <_Z8Schedulev>
  101adf:	90                   	nop
  101ae0:	c9                   	leaveq 
  101ae1:	c3                   	retq   

0000000000101ae2 <_Z9InitTimerj>:
  101ae2:	f3 0f 1e fa          	endbr64 
  101ae6:	55                   	push   %rbp
  101ae7:	48 89 e5             	mov    %rsp,%rbp
  101aea:	48 83 ec 20          	sub    $0x20,%rsp
  101aee:	89 7d ec             	mov    %edi,-0x14(%rbp)
  101af1:	8b 45 ec             	mov    -0x14(%rbp),%eax
  101af4:	89 05 62 35 01 00    	mov    %eax,0x13562(%rip)        # 11505c <frequency>
  101afa:	48 8d 35 54 ff ff ff 	lea    -0xac(%rip),%rsi        # 101a55 <_ZL14timer_callbackP9Registers>
  101b01:	bf 20 00 00 00       	mov    $0x20,%edi
  101b06:	e8 e7 0d 00 00       	callq  1028f2 <_Z24RegisterInterruptHandlerhPFvP9RegistersE>
  101b0b:	b8 dc 34 12 00       	mov    $0x1234dc,%eax
  101b10:	ba 00 00 00 00       	mov    $0x0,%edx
  101b15:	f7 75 ec             	divl   -0x14(%rbp)
  101b18:	89 45 fc             	mov    %eax,-0x4(%rbp)
  101b1b:	8b 45 fc             	mov    -0x4(%rbp),%eax
  101b1e:	88 45 fb             	mov    %al,-0x5(%rbp)
  101b21:	8b 45 fc             	mov    -0x4(%rbp),%eax
  101b24:	c1 e8 08             	shr    $0x8,%eax
  101b27:	88 45 fa             	mov    %al,-0x6(%rbp)
  101b2a:	be 36 00 00 00       	mov    $0x36,%esi
  101b2f:	bf 43 00 00 00       	mov    $0x43,%edi
  101b34:	e8 dc fc ff ff       	callq  101815 <_Z6__outbth>
  101b39:	0f b6 45 fb          	movzbl -0x5(%rbp),%eax
  101b3d:	89 c6                	mov    %eax,%esi
  101b3f:	bf 40 00 00 00       	mov    $0x40,%edi
  101b44:	e8 cc fc ff ff       	callq  101815 <_Z6__outbth>
  101b49:	0f b6 45 fa          	movzbl -0x6(%rbp),%eax
  101b4d:	89 c6                	mov    %eax,%esi
  101b4f:	bf 40 00 00 00       	mov    $0x40,%edi
  101b54:	e8 bc fc ff ff       	callq  101815 <_Z6__outbth>
  101b59:	90                   	nop
  101b5a:	c9                   	leaveq 
  101b5b:	c3                   	retq   

0000000000101b5c <_Z8SleepForj>:
  101b5c:	f3 0f 1e fa          	endbr64 
  101b60:	55                   	push   %rbp
  101b61:	48 89 e5             	mov    %rsp,%rbp
  101b64:	48 83 ec 10          	sub    $0x10,%rsp
  101b68:	89 7d fc             	mov    %edi,-0x4(%rbp)
  101b6b:	8b 45 fc             	mov    -0x4(%rbp),%eax
  101b6e:	48 85 c0             	test   %rax,%rax
  101b71:	78 07                	js     101b7a <_Z8SleepForj+0x1e>
  101b73:	f2 48 0f 2a c0       	cvtsi2sd %rax,%xmm0
  101b78:	eb 15                	jmp    101b8f <_Z8SleepForj+0x33>
  101b7a:	48 89 c2             	mov    %rax,%rdx
  101b7d:	48 d1 ea             	shr    %rdx
  101b80:	83 e0 01             	and    $0x1,%eax
  101b83:	48 09 c2             	or     %rax,%rdx
  101b86:	f2 48 0f 2a c2       	cvtsi2sd %rdx,%xmm0
  101b8b:	f2 0f 58 c0          	addsd  %xmm0,%xmm0
  101b8f:	f2 0f 10 0d b1 e5 00 	movsd  0xe5b1(%rip),%xmm1        # 110148 <__rodata+0x148>
  101b96:	00 
  101b97:	f2 0f 5e c1          	divsd  %xmm1,%xmm0
  101b9b:	e8 03 00 00 00       	callq  101ba3 <_Z15SleepForSecondsd>
  101ba0:	90                   	nop
  101ba1:	c9                   	leaveq 
  101ba2:	c3                   	retq   

0000000000101ba3 <_Z15SleepForSecondsd>:
  101ba3:	f3 0f 1e fa          	endbr64 
  101ba7:	55                   	push   %rbp
  101ba8:	48 89 e5             	mov    %rsp,%rbp
  101bab:	48 83 ec 18          	sub    $0x18,%rsp
  101baf:	f2 0f 11 45 e8       	movsd  %xmm0,-0x18(%rbp)
  101bb4:	f2 0f 10 05 a4 34 01 	movsd  0x134a4(%rip),%xmm0        # 115060 <timeSinceBoot>
  101bbb:	00 
  101bbc:	f2 0f 10 4d e8       	movsd  -0x18(%rbp),%xmm1
  101bc1:	f2 0f 58 c1          	addsd  %xmm1,%xmm0
  101bc5:	f2 0f 11 45 f8       	movsd  %xmm0,-0x8(%rbp)
  101bca:	f2 0f 10 0d 8e 34 01 	movsd  0x1348e(%rip),%xmm1        # 115060 <timeSinceBoot>
  101bd1:	00 
  101bd2:	f2 0f 10 45 f8       	movsd  -0x8(%rbp),%xmm0
  101bd7:	66 0f 2f c1          	comisd %xmm1,%xmm0
  101bdb:	77 02                	ja     101bdf <_Z15SleepForSecondsd+0x3c>
  101bdd:	eb 03                	jmp    101be2 <_Z15SleepForSecondsd+0x3f>
  101bdf:	f4                   	hlt    
  101be0:	eb e8                	jmp    101bca <_Z15SleepForSecondsd+0x27>
  101be2:	c9                   	leaveq 
  101be3:	c3                   	retq   

0000000000101be4 <_ZN4GDTR7SetGateEhmjhh>:
  101be4:	f3 0f 1e fa          	endbr64 
  101be8:	55                   	push   %rbp
  101be9:	48 89 e5             	mov    %rsp,%rbp
  101bec:	48 83 ec 20          	sub    $0x20,%rsp
  101bf0:	48 89 7d f8          	mov    %rdi,-0x8(%rbp)
  101bf4:	89 f0                	mov    %esi,%eax
  101bf6:	48 89 55 e8          	mov    %rdx,-0x18(%rbp)
  101bfa:	89 4d f0             	mov    %ecx,-0x10(%rbp)
  101bfd:	44 89 c1             	mov    %r8d,%ecx
  101c00:	44 89 ca             	mov    %r9d,%edx
  101c03:	88 45 f4             	mov    %al,-0xc(%rbp)
  101c06:	89 c8                	mov    %ecx,%eax
  101c08:	88 45 e4             	mov    %al,-0x1c(%rbp)
  101c0b:	89 d0                	mov    %edx,%eax
  101c0d:	88 45 e0             	mov    %al,-0x20(%rbp)
  101c10:	48 8b 45 f8          	mov    -0x8(%rbp),%rax
  101c14:	48 8b 40 02          	mov    0x2(%rax),%rax
  101c18:	0f b6 55 f4          	movzbl -0xc(%rbp),%edx
  101c1c:	48 c1 e2 03          	shl    $0x3,%rdx
  101c20:	48 01 d0             	add    %rdx,%rax
  101c23:	48 8b 55 e8          	mov    -0x18(%rbp),%rdx
  101c27:	66 89 50 02          	mov    %dx,0x2(%rax)
  101c2b:	48 8b 45 e8          	mov    -0x18(%rbp),%rax
  101c2f:	48 c1 e8 10          	shr    $0x10,%rax
  101c33:	48 89 c1             	mov    %rax,%rcx
  101c36:	48 8b 45 f8          	mov    -0x8(%rbp),%rax
  101c3a:	48 8b 40 02          	mov    0x2(%rax),%rax
  101c3e:	0f b6 55 f4          	movzbl -0xc(%rbp),%edx
  101c42:	48 c1 e2 03          	shl    $0x3,%rdx
  101c46:	48 01 d0             	add    %rdx,%rax
  101c49:	89 ca                	mov    %ecx,%edx
  101c4b:	88 50 04             	mov    %dl,0x4(%rax)
  101c4e:	48 8b 45 e8          	mov    -0x18(%rbp),%rax
  101c52:	48 c1 e8 18          	shr    $0x18,%rax
  101c56:	48 89 c1             	mov    %rax,%rcx
  101c59:	48 8b 45 f8          	mov    -0x8(%rbp),%rax
  101c5d:	48 8b 40 02          	mov    0x2(%rax),%rax
  101c61:	0f b6 55 f4          	movzbl -0xc(%rbp),%edx
  101c65:	48 c1 e2 03          	shl    $0x3,%rdx
  101c69:	48 01 d0             	add    %rdx,%rax
  101c6c:	89 ca                	mov    %ecx,%edx
  101c6e:	88 50 07             	mov    %dl,0x7(%rax)
  101c71:	48 8b 45 f8          	mov    -0x8(%rbp),%rax
  101c75:	48 8b 40 02          	mov    0x2(%rax),%rax
  101c79:	0f b6 55 f4          	movzbl -0xc(%rbp),%edx
  101c7d:	48 c1 e2 03          	shl    $0x3,%rdx
  101c81:	48 01 d0             	add    %rdx,%rax
  101c84:	8b 55 f0             	mov    -0x10(%rbp),%edx
  101c87:	66 89 10             	mov    %dx,(%rax)
  101c8a:	8b 45 f0             	mov    -0x10(%rbp),%eax
  101c8d:	c1 e8 10             	shr    $0x10,%eax
  101c90:	89 c1                	mov    %eax,%ecx
  101c92:	48 8b 45 f8          	mov    -0x8(%rbp),%rax
  101c96:	48 8b 40 02          	mov    0x2(%rax),%rax
  101c9a:	0f b6 55 f4          	movzbl -0xc(%rbp),%edx
  101c9e:	48 c1 e2 03          	shl    $0x3,%rdx
  101ca2:	48 01 d0             	add    %rdx,%rax
  101ca5:	83 e1 0f             	and    $0xf,%ecx
  101ca8:	89 ca                	mov    %ecx,%edx
  101caa:	88 50 06             	mov    %dl,0x6(%rax)
  101cad:	48 8b 45 f8          	mov    -0x8(%rbp),%rax
  101cb1:	48 8b 40 02          	mov    0x2(%rax),%rax
  101cb5:	0f b6 55 f4          	movzbl -0xc(%rbp),%edx
  101cb9:	48 c1 e2 03          	shl    $0x3,%rdx
  101cbd:	48 01 d0             	add    %rdx,%rax
  101cc0:	0f b6 48 06          	movzbl 0x6(%rax),%ecx
  101cc4:	0f b6 45 e0          	movzbl -0x20(%rbp),%eax
  101cc8:	83 e0 f0             	and    $0xfffffff0,%eax
  101ccb:	89 c6                	mov    %eax,%esi
  101ccd:	48 8b 45 f8          	mov    -0x8(%rbp),%rax
  101cd1:	48 8b 40 02          	mov    0x2(%rax),%rax
  101cd5:	0f b6 55 f4          	movzbl -0xc(%rbp),%edx
  101cd9:	48 c1 e2 03          	shl    $0x3,%rdx
  101cdd:	48 01 d0             	add    %rdx,%rax
  101ce0:	09 f1                	or     %esi,%ecx
  101ce2:	89 ca                	mov    %ecx,%edx
  101ce4:	88 50 06             	mov    %dl,0x6(%rax)
  101ce7:	48 8b 45 f8          	mov    -0x8(%rbp),%rax
  101ceb:	48 8b 40 02          	mov    0x2(%rax),%rax
  101cef:	0f b6 55 f4          	movzbl -0xc(%rbp),%edx
  101cf3:	48 c1 e2 03          	shl    $0x3,%rdx
  101cf7:	48 01 c2             	add    %rax,%rdx
  101cfa:	0f b6 45 e4          	movzbl -0x1c(%rbp),%eax
  101cfe:	88 42 05             	mov    %al,0x5(%rdx)
  101d01:	90                   	nop
  101d02:	c9                   	leaveq 
  101d03:	c3                   	retq   

0000000000101d04 <_ZN4GDTR5FlushEv>:
  101d04:	f3 0f 1e fa          	endbr64 
  101d08:	55                   	push   %rbp
  101d09:	48 89 e5             	mov    %rsp,%rbp
  101d0c:	48 83 ec 10          	sub    $0x10,%rsp
  101d10:	48 89 7d f8          	mov    %rdi,-0x8(%rbp)
  101d14:	48 8b 45 f8          	mov    -0x8(%rbp),%rax
  101d18:	48 89 c7             	mov    %rax,%rdi
  101d1b:	e8 90 ba 00 00       	callq  10d7b0 <__gdt_flush>
  101d20:	bf 40 00 00 00       	mov    $0x40,%edi
  101d25:	e8 a1 ba 00 00       	callq  10d7cb <__tss_flush>
  101d2a:	90                   	nop
  101d2b:	c9                   	leaveq 
  101d2c:	c3                   	retq   

0000000000101d2d <_Z13InitialiseGDTv>:
  101d2d:	f3 0f 1e fa          	endbr64 
  101d31:	55                   	push   %rbp
  101d32:	48 89 e5             	mov    %rsp,%rbp
  101d35:	48 83 ec 20          	sub    $0x20,%rsp
  101d39:	48 8d 05 40 33 01 00 	lea    0x13340(%rip),%rax        # 115080 <_ZL5gates>
  101d40:	48 89 45 f0          	mov    %rax,-0x10(%rbp)
  101d44:	66 c7 45 ee 4f 00    	movw   $0x4f,-0x12(%rbp)
  101d4a:	bf 00 10 00 00       	mov    $0x1000,%edi
  101d4f:	e8 12 b1 00 00       	callq  10ce66 <_Z7kmallocm>
  101d54:	48 89 45 f8          	mov    %rax,-0x8(%rbp)
  101d58:	48 8b 45 f8          	mov    -0x8(%rbp),%rax
  101d5c:	89 05 a2 33 01 00    	mov    %eax,0x133a2(%rip)        # 115104 <_ZL3tss+0x24>
  101d62:	48 8b 45 f8          	mov    -0x8(%rbp),%rax
  101d66:	48 c1 e8 20          	shr    $0x20,%rax
  101d6a:	89 05 98 33 01 00    	mov    %eax,0x13398(%rip)        # 115108 <_ZL3tss+0x28>
  101d70:	48 8b 45 f8          	mov    -0x8(%rbp),%rax
  101d74:	89 05 6a 33 01 00    	mov    %eax,0x1336a(%rip)        # 1150e4 <_ZL3tss+0x4>
  101d7a:	48 8b 45 f8          	mov    -0x8(%rbp),%rax
  101d7e:	48 c1 e8 20          	shr    $0x20,%rax
  101d82:	89 05 60 33 01 00    	mov    %eax,0x13360(%rip)        # 1150e8 <_ZL3tss+0x8>
  101d88:	48 8d 45 ee          	lea    -0x12(%rbp),%rax
  101d8c:	41 b9 00 00 00 00    	mov    $0x0,%r9d
  101d92:	41 b8 00 00 00 00    	mov    $0x0,%r8d
  101d98:	b9 00 00 00 00       	mov    $0x0,%ecx
  101d9d:	ba 00 00 00 00       	mov    $0x0,%edx
  101da2:	be 00 00 00 00       	mov    $0x0,%esi
  101da7:	48 89 c7             	mov    %rax,%rdi
  101daa:	e8 35 fe ff ff       	callq  101be4 <_ZN4GDTR7SetGateEhmjhh>
  101daf:	48 8d 45 ee          	lea    -0x12(%rbp),%rax
  101db3:	41 b9 a0 00 00 00    	mov    $0xa0,%r9d
  101db9:	41 b8 9a 00 00 00    	mov    $0x9a,%r8d
  101dbf:	b9 00 00 00 00       	mov    $0x0,%ecx
  101dc4:	ba 00 00 00 00       	mov    $0x0,%edx
  101dc9:	be 01 00 00 00       	mov    $0x1,%esi
  101dce:	48 89 c7             	mov    %rax,%rdi
  101dd1:	e8 0e fe ff ff       	callq  101be4 <_ZN4GDTR7SetGateEhmjhh>
  101dd6:	48 8d 45 ee          	lea    -0x12(%rbp),%rax
  101dda:	41 b9 a0 00 00 00    	mov    $0xa0,%r9d
  101de0:	41 b8 92 00 00 00    	mov    $0x92,%r8d
  101de6:	b9 00 00 00 00       	mov    $0x0,%ecx
  101deb:	ba 00 00 00 00       	mov    $0x0,%edx
  101df0:	be 02 00 00 00       	mov    $0x2,%esi
  101df5:	48 89 c7             	mov    %rax,%rdi
  101df8:	e8 e7 fd ff ff       	callq  101be4 <_ZN4GDTR7SetGateEhmjhh>
  101dfd:	48 8d 45 ee          	lea    -0x12(%rbp),%rax
  101e01:	41 b9 00 00 00 00    	mov    $0x0,%r9d
  101e07:	41 b8 00 00 00 00    	mov    $0x0,%r8d
  101e0d:	b9 00 00 00 00       	mov    $0x0,%ecx
  101e12:	ba 00 00 00 00       	mov    $0x0,%edx
  101e17:	be 03 00 00 00       	mov    $0x3,%esi
  101e1c:	48 89 c7             	mov    %rax,%rdi
  101e1f:	e8 c0 fd ff ff       	callq  101be4 <_ZN4GDTR7SetGateEhmjhh>
  101e24:	48 8d 45 ee          	lea    -0x12(%rbp),%rax
  101e28:	41 b9 a0 00 00 00    	mov    $0xa0,%r9d
  101e2e:	41 b8 f2 00 00 00    	mov    $0xf2,%r8d
  101e34:	b9 00 00 00 00       	mov    $0x0,%ecx
  101e39:	ba 00 00 00 00       	mov    $0x0,%edx
  101e3e:	be 04 00 00 00       	mov    $0x4,%esi
  101e43:	48 89 c7             	mov    %rax,%rdi
  101e46:	e8 99 fd ff ff       	callq  101be4 <_ZN4GDTR7SetGateEhmjhh>
  101e4b:	48 8d 45 ee          	lea    -0x12(%rbp),%rax
  101e4f:	41 b9 a0 00 00 00    	mov    $0xa0,%r9d
  101e55:	41 b8 fa 00 00 00    	mov    $0xfa,%r8d
  101e5b:	b9 00 00 00 00       	mov    $0x0,%ecx
  101e60:	ba 00 00 00 00       	mov    $0x0,%edx
  101e65:	be 05 00 00 00       	mov    $0x5,%esi
  101e6a:	48 89 c7             	mov    %rax,%rdi
  101e6d:	e8 72 fd ff ff       	callq  101be4 <_ZN4GDTR7SetGateEhmjhh>
  101e72:	48 8d 45 ee          	lea    -0x12(%rbp),%rax
  101e76:	41 b9 a0 00 00 00    	mov    $0xa0,%r9d
  101e7c:	41 b8 92 00 00 00    	mov    $0x92,%r8d
  101e82:	b9 00 00 00 00       	mov    $0x0,%ecx
  101e87:	ba 00 00 00 00       	mov    $0x0,%edx
  101e8c:	be 06 00 00 00       	mov    $0x6,%esi
  101e91:	48 89 c7             	mov    %rax,%rdi
  101e94:	e8 4b fd ff ff       	callq  101be4 <_ZN4GDTR7SetGateEhmjhh>
  101e99:	48 8d 45 ee          	lea    -0x12(%rbp),%rax
  101e9d:	41 b9 a0 00 00 00    	mov    $0xa0,%r9d
  101ea3:	41 b8 9a 00 00 00    	mov    $0x9a,%r8d
  101ea9:	b9 00 00 00 00       	mov    $0x0,%ecx
  101eae:	ba 00 00 00 00       	mov    $0x0,%edx
  101eb3:	be 07 00 00 00       	mov    $0x7,%esi
  101eb8:	48 89 c7             	mov    %rax,%rdi
  101ebb:	e8 24 fd ff ff       	callq  101be4 <_ZN4GDTR7SetGateEhmjhh>
  101ec0:	48 8d 15 19 32 01 00 	lea    0x13219(%rip),%rdx        # 1150e0 <_ZL3tss>
  101ec7:	48 8d 45 ee          	lea    -0x12(%rbp),%rax
  101ecb:	41 b9 40 00 00 00    	mov    $0x40,%r9d
  101ed1:	41 b8 89 00 00 00    	mov    $0x89,%r8d
  101ed7:	b9 68 00 00 00       	mov    $0x68,%ecx
  101edc:	be 08 00 00 00       	mov    $0x8,%esi
  101ee1:	48 89 c7             	mov    %rax,%rdi
  101ee4:	e8 fb fc ff ff       	callq  101be4 <_ZN4GDTR7SetGateEhmjhh>
  101ee9:	48 8d 45 ee          	lea    -0x12(%rbp),%rax
  101eed:	48 89 c7             	mov    %rax,%rdi
  101ef0:	e8 0f fe ff ff       	callq  101d04 <_ZN4GDTR5FlushEv>
  101ef5:	90                   	nop
  101ef6:	c9                   	leaveq 
  101ef7:	c3                   	retq   

0000000000101ef8 <_ZL23DefaultExceptionHandlerP9Registers>:
  101ef8:	f3 0f 1e fa          	endbr64 
  101efc:	55                   	push   %rbp
  101efd:	48 89 e5             	mov    %rsp,%rbp
  101f00:	48 83 ec 10          	sub    $0x10,%rsp
  101f04:	48 89 7d f8          	mov    %rdi,-0x8(%rbp)
  101f08:	48 8b 45 f8          	mov    -0x8(%rbp),%rax
  101f0c:	48 8b 90 88 01 00 00 	mov    0x188(%rax),%rdx
  101f13:	48 8b 45 f8          	mov    -0x8(%rbp),%rax
  101f17:	48 8b 80 80 01 00 00 	mov    0x180(%rax),%rax
  101f1e:	48 89 c6             	mov    %rax,%rsi
  101f21:	48 8d 3d 28 e2 00 00 	lea    0xe228(%rip),%rdi        # 110150 <__rodata+0x150>
  101f28:	b8 00 00 00 00       	mov    $0x0,%eax
  101f2d:	e8 de a8 00 00       	callq  10c810 <_Z7kprintfPKcz>
  101f32:	48 8b 45 f8          	mov    -0x8(%rbp),%rax
  101f36:	48 8b 90 a8 01 00 00 	mov    0x1a8(%rax),%rdx
  101f3d:	48 8b 45 f8          	mov    -0x8(%rbp),%rax
  101f41:	48 8b 80 90 01 00 00 	mov    0x190(%rax),%rax
  101f48:	48 89 c6             	mov    %rax,%rsi
  101f4b:	48 8d 3d 41 e2 00 00 	lea    0xe241(%rip),%rdi        # 110193 <__rodata+0x193>
  101f52:	b8 00 00 00 00       	mov    $0x0,%eax
  101f57:	e8 b4 a8 00 00       	callq  10c810 <_Z7kprintfPKcz>
  101f5c:	fa                   	cli    
  101f5d:	f4                   	hlt    
  101f5e:	90                   	nop
  101f5f:	c9                   	leaveq 
  101f60:	c3                   	retq   
  101f61:	90                   	nop

0000000000101f62 <_ZN4IDTR7SetGateEhhm>:
  101f62:	f3 0f 1e fa          	endbr64 
  101f66:	55                   	push   %rbp
  101f67:	48 89 e5             	mov    %rsp,%rbp
  101f6a:	48 83 ec 18          	sub    $0x18,%rsp
  101f6e:	48 89 7d f8          	mov    %rdi,-0x8(%rbp)
  101f72:	89 d0                	mov    %edx,%eax
  101f74:	48 89 4d e8          	mov    %rcx,-0x18(%rbp)
  101f78:	89 f2                	mov    %esi,%edx
  101f7a:	88 55 f4             	mov    %dl,-0xc(%rbp)
  101f7d:	88 45 f0             	mov    %al,-0x10(%rbp)
  101f80:	48 8b 45 f8          	mov    -0x8(%rbp),%rax
  101f84:	48 8b 40 02          	mov    0x2(%rax),%rax
  101f88:	0f b6 55 f4          	movzbl -0xc(%rbp),%edx
  101f8c:	48 c1 e2 04          	shl    $0x4,%rdx
  101f90:	48 01 d0             	add    %rdx,%rax
  101f93:	48 8b 55 e8          	mov    -0x18(%rbp),%rdx
  101f97:	66 89 10             	mov    %dx,(%rax)
  101f9a:	48 8b 45 e8          	mov    -0x18(%rbp),%rax
  101f9e:	48 c1 e8 10          	shr    $0x10,%rax
  101fa2:	48 89 c1             	mov    %rax,%rcx
  101fa5:	48 8b 45 f8          	mov    -0x8(%rbp),%rax
  101fa9:	48 8b 40 02          	mov    0x2(%rax),%rax
  101fad:	0f b6 55 f4          	movzbl -0xc(%rbp),%edx
  101fb1:	48 c1 e2 04          	shl    $0x4,%rdx
  101fb5:	48 01 d0             	add    %rdx,%rax
  101fb8:	89 ca                	mov    %ecx,%edx
  101fba:	66 89 50 06          	mov    %dx,0x6(%rax)
  101fbe:	48 8b 45 e8          	mov    -0x18(%rbp),%rax
  101fc2:	48 c1 e8 20          	shr    $0x20,%rax
  101fc6:	48 89 c1             	mov    %rax,%rcx
  101fc9:	48 8b 45 f8          	mov    -0x8(%rbp),%rax
  101fcd:	48 8b 40 02          	mov    0x2(%rax),%rax
  101fd1:	0f b6 55 f4          	movzbl -0xc(%rbp),%edx
  101fd5:	48 c1 e2 04          	shl    $0x4,%rdx
  101fd9:	48 01 d0             	add    %rdx,%rax
  101fdc:	89 ca                	mov    %ecx,%edx
  101fde:	89 50 08             	mov    %edx,0x8(%rax)
  101fe1:	48 8b 45 f8          	mov    -0x8(%rbp),%rax
  101fe5:	48 8b 40 02          	mov    0x2(%rax),%rax
  101fe9:	0f b6 55 f4          	movzbl -0xc(%rbp),%edx
  101fed:	48 c1 e2 04          	shl    $0x4,%rdx
  101ff1:	48 01 d0             	add    %rdx,%rax
  101ff4:	66 c7 40 02 08 00    	movw   $0x8,0x2(%rax)
  101ffa:	48 8b 45 f8          	mov    -0x8(%rbp),%rax
  101ffe:	48 8b 40 02          	mov    0x2(%rax),%rax
  102002:	0f b6 55 f4          	movzbl -0xc(%rbp),%edx
  102006:	48 c1 e2 04          	shl    $0x4,%rdx
  10200a:	48 01 c2             	add    %rax,%rdx
  10200d:	0f b6 45 f0          	movzbl -0x10(%rbp),%eax
  102011:	88 42 05             	mov    %al,0x5(%rdx)
  102014:	90                   	nop
  102015:	c9                   	leaveq 
  102016:	c3                   	retq   
  102017:	90                   	nop

0000000000102018 <_ZN4IDTR5FlushEv>:
  102018:	f3 0f 1e fa          	endbr64 
  10201c:	55                   	push   %rbp
  10201d:	48 89 e5             	mov    %rsp,%rbp
  102020:	48 83 ec 10          	sub    $0x10,%rsp
  102024:	48 89 7d f8          	mov    %rdi,-0x8(%rbp)
  102028:	48 8b 45 f8          	mov    -0x8(%rbp),%rax
  10202c:	48 89 c7             	mov    %rax,%rdi
  10202f:	e8 9c b7 00 00       	callq  10d7d0 <__set_idt>
  102034:	90                   	nop
  102035:	c9                   	leaveq 
  102036:	c3                   	retq   

0000000000102037 <_Z13InitialiseIDTv>:
  102037:	f3 0f 1e fa          	endbr64 
  10203b:	55                   	push   %rbp
  10203c:	48 89 e5             	mov    %rsp,%rbp
  10203f:	48 83 ec 10          	sub    $0x10,%rsp
  102043:	66 c7 05 14 31 01 00 	movw   $0xfff,0x13114(%rip)        # 115160 <idtr>
  10204a:	ff 0f 
  10204c:	48 8d 05 2d 31 01 00 	lea    0x1312d(%rip),%rax        # 115180 <_ZL5gates>
  102053:	48 89 05 08 31 01 00 	mov    %rax,0x13108(%rip)        # 115162 <idtr+0x2>
  10205a:	48 c7 c0 83 da 10 00 	mov    $0x10da83,%rax
  102061:	48 89 c1             	mov    %rax,%rcx
  102064:	ba 8e 00 00 00       	mov    $0x8e,%edx
  102069:	be 00 00 00 00       	mov    $0x0,%esi
  10206e:	48 8d 3d eb 30 01 00 	lea    0x130eb(%rip),%rdi        # 115160 <idtr>
  102075:	e8 e8 fe ff ff       	callq  101f62 <_ZN4IDTR7SetGateEhhm>
  10207a:	48 c7 c0 8c da 10 00 	mov    $0x10da8c,%rax
  102081:	48 89 c1             	mov    %rax,%rcx
  102084:	ba 8e 00 00 00       	mov    $0x8e,%edx
  102089:	be 01 00 00 00       	mov    $0x1,%esi
  10208e:	48 8d 3d cb 30 01 00 	lea    0x130cb(%rip),%rdi        # 115160 <idtr>
  102095:	e8 c8 fe ff ff       	callq  101f62 <_ZN4IDTR7SetGateEhhm>
  10209a:	48 c7 c0 95 da 10 00 	mov    $0x10da95,%rax
  1020a1:	48 89 c1             	mov    %rax,%rcx
  1020a4:	ba 8e 00 00 00       	mov    $0x8e,%edx
  1020a9:	be 02 00 00 00       	mov    $0x2,%esi
  1020ae:	48 8d 3d ab 30 01 00 	lea    0x130ab(%rip),%rdi        # 115160 <idtr>
  1020b5:	e8 a8 fe ff ff       	callq  101f62 <_ZN4IDTR7SetGateEhhm>
  1020ba:	48 c7 c0 9e da 10 00 	mov    $0x10da9e,%rax
  1020c1:	48 89 c1             	mov    %rax,%rcx
  1020c4:	ba 8e 00 00 00       	mov    $0x8e,%edx
  1020c9:	be 03 00 00 00       	mov    $0x3,%esi
  1020ce:	48 8d 3d 8b 30 01 00 	lea    0x1308b(%rip),%rdi        # 115160 <idtr>
  1020d5:	e8 88 fe ff ff       	callq  101f62 <_ZN4IDTR7SetGateEhhm>
  1020da:	48 c7 c0 a7 da 10 00 	mov    $0x10daa7,%rax
  1020e1:	48 89 c1             	mov    %rax,%rcx
  1020e4:	ba 8e 00 00 00       	mov    $0x8e,%edx
  1020e9:	be 04 00 00 00       	mov    $0x4,%esi
  1020ee:	48 8d 3d 6b 30 01 00 	lea    0x1306b(%rip),%rdi        # 115160 <idtr>
  1020f5:	e8 68 fe ff ff       	callq  101f62 <_ZN4IDTR7SetGateEhhm>
  1020fa:	48 c7 c0 b0 da 10 00 	mov    $0x10dab0,%rax
  102101:	48 89 c1             	mov    %rax,%rcx
  102104:	ba 8e 00 00 00       	mov    $0x8e,%edx
  102109:	be 05 00 00 00       	mov    $0x5,%esi
  10210e:	48 8d 3d 4b 30 01 00 	lea    0x1304b(%rip),%rdi        # 115160 <idtr>
  102115:	e8 48 fe ff ff       	callq  101f62 <_ZN4IDTR7SetGateEhhm>
  10211a:	48 c7 c0 b9 da 10 00 	mov    $0x10dab9,%rax
  102121:	48 89 c1             	mov    %rax,%rcx
  102124:	ba 8e 00 00 00       	mov    $0x8e,%edx
  102129:	be 06 00 00 00       	mov    $0x6,%esi
  10212e:	48 8d 3d 2b 30 01 00 	lea    0x1302b(%rip),%rdi        # 115160 <idtr>
  102135:	e8 28 fe ff ff       	callq  101f62 <_ZN4IDTR7SetGateEhhm>
  10213a:	48 c7 c0 c2 da 10 00 	mov    $0x10dac2,%rax
  102141:	48 89 c1             	mov    %rax,%rcx
  102144:	ba 8e 00 00 00       	mov    $0x8e,%edx
  102149:	be 07 00 00 00       	mov    $0x7,%esi
  10214e:	48 8d 3d 0b 30 01 00 	lea    0x1300b(%rip),%rdi        # 115160 <idtr>
  102155:	e8 08 fe ff ff       	callq  101f62 <_ZN4IDTR7SetGateEhhm>
  10215a:	48 c7 c0 cb da 10 00 	mov    $0x10dacb,%rax
  102161:	48 89 c1             	mov    %rax,%rcx
  102164:	ba 8e 00 00 00       	mov    $0x8e,%edx
  102169:	be 08 00 00 00       	mov    $0x8,%esi
  10216e:	48 8d 3d eb 2f 01 00 	lea    0x12feb(%rip),%rdi        # 115160 <idtr>
  102175:	e8 e8 fd ff ff       	callq  101f62 <_ZN4IDTR7SetGateEhhm>
  10217a:	48 c7 c0 d2 da 10 00 	mov    $0x10dad2,%rax
  102181:	48 89 c1             	mov    %rax,%rcx
  102184:	ba 8e 00 00 00       	mov    $0x8e,%edx
  102189:	be 09 00 00 00       	mov    $0x9,%esi
  10218e:	48 8d 3d cb 2f 01 00 	lea    0x12fcb(%rip),%rdi        # 115160 <idtr>
  102195:	e8 c8 fd ff ff       	callq  101f62 <_ZN4IDTR7SetGateEhhm>
  10219a:	48 c7 c0 db da 10 00 	mov    $0x10dadb,%rax
  1021a1:	48 89 c1             	mov    %rax,%rcx
  1021a4:	ba 8e 00 00 00       	mov    $0x8e,%edx
  1021a9:	be 0a 00 00 00       	mov    $0xa,%esi
  1021ae:	48 8d 3d ab 2f 01 00 	lea    0x12fab(%rip),%rdi        # 115160 <idtr>
  1021b5:	e8 a8 fd ff ff       	callq  101f62 <_ZN4IDTR7SetGateEhhm>
  1021ba:	48 c7 c0 e2 da 10 00 	mov    $0x10dae2,%rax
  1021c1:	48 89 c1             	mov    %rax,%rcx
  1021c4:	ba 8e 00 00 00       	mov    $0x8e,%edx
  1021c9:	be 0b 00 00 00       	mov    $0xb,%esi
  1021ce:	48 8d 3d 8b 2f 01 00 	lea    0x12f8b(%rip),%rdi        # 115160 <idtr>
  1021d5:	e8 88 fd ff ff       	callq  101f62 <_ZN4IDTR7SetGateEhhm>
  1021da:	48 c7 c0 e9 da 10 00 	mov    $0x10dae9,%rax
  1021e1:	48 89 c1             	mov    %rax,%rcx
  1021e4:	ba 8e 00 00 00       	mov    $0x8e,%edx
  1021e9:	be 0c 00 00 00       	mov    $0xc,%esi
  1021ee:	48 8d 3d 6b 2f 01 00 	lea    0x12f6b(%rip),%rdi        # 115160 <idtr>
  1021f5:	e8 68 fd ff ff       	callq  101f62 <_ZN4IDTR7SetGateEhhm>
  1021fa:	48 c7 c0 f0 da 10 00 	mov    $0x10daf0,%rax
  102201:	48 89 c1             	mov    %rax,%rcx
  102204:	ba 8e 00 00 00       	mov    $0x8e,%edx
  102209:	be 0d 00 00 00       	mov    $0xd,%esi
  10220e:	48 8d 3d 4b 2f 01 00 	lea    0x12f4b(%rip),%rdi        # 115160 <idtr>
  102215:	e8 48 fd ff ff       	callq  101f62 <_ZN4IDTR7SetGateEhhm>
  10221a:	48 c7 c0 f7 da 10 00 	mov    $0x10daf7,%rax
  102221:	48 89 c1             	mov    %rax,%rcx
  102224:	ba 8e 00 00 00       	mov    $0x8e,%edx
  102229:	be 0e 00 00 00       	mov    $0xe,%esi
  10222e:	48 8d 3d 2b 2f 01 00 	lea    0x12f2b(%rip),%rdi        # 115160 <idtr>
  102235:	e8 28 fd ff ff       	callq  101f62 <_ZN4IDTR7SetGateEhhm>
  10223a:	48 c7 c0 fe da 10 00 	mov    $0x10dafe,%rax
  102241:	48 89 c1             	mov    %rax,%rcx
  102244:	ba 8e 00 00 00       	mov    $0x8e,%edx
  102249:	be 0f 00 00 00       	mov    $0xf,%esi
  10224e:	48 8d 3d 0b 2f 01 00 	lea    0x12f0b(%rip),%rdi        # 115160 <idtr>
  102255:	e8 08 fd ff ff       	callq  101f62 <_ZN4IDTR7SetGateEhhm>
  10225a:	48 c7 c0 05 db 10 00 	mov    $0x10db05,%rax
  102261:	48 89 c1             	mov    %rax,%rcx
  102264:	ba 8e 00 00 00       	mov    $0x8e,%edx
  102269:	be 10 00 00 00       	mov    $0x10,%esi
  10226e:	48 8d 3d eb 2e 01 00 	lea    0x12eeb(%rip),%rdi        # 115160 <idtr>
  102275:	e8 e8 fc ff ff       	callq  101f62 <_ZN4IDTR7SetGateEhhm>
  10227a:	48 c7 c0 0c db 10 00 	mov    $0x10db0c,%rax
  102281:	48 89 c1             	mov    %rax,%rcx
  102284:	ba 8e 00 00 00       	mov    $0x8e,%edx
  102289:	be 11 00 00 00       	mov    $0x11,%esi
  10228e:	48 8d 3d cb 2e 01 00 	lea    0x12ecb(%rip),%rdi        # 115160 <idtr>
  102295:	e8 c8 fc ff ff       	callq  101f62 <_ZN4IDTR7SetGateEhhm>
  10229a:	48 c7 c0 13 db 10 00 	mov    $0x10db13,%rax
  1022a1:	48 89 c1             	mov    %rax,%rcx
  1022a4:	ba 8e 00 00 00       	mov    $0x8e,%edx
  1022a9:	be 12 00 00 00       	mov    $0x12,%esi
  1022ae:	48 8d 3d ab 2e 01 00 	lea    0x12eab(%rip),%rdi        # 115160 <idtr>
  1022b5:	e8 a8 fc ff ff       	callq  101f62 <_ZN4IDTR7SetGateEhhm>
  1022ba:	48 c7 c0 1a db 10 00 	mov    $0x10db1a,%rax
  1022c1:	48 89 c1             	mov    %rax,%rcx
  1022c4:	ba 8e 00 00 00       	mov    $0x8e,%edx
  1022c9:	be 13 00 00 00       	mov    $0x13,%esi
  1022ce:	48 8d 3d 8b 2e 01 00 	lea    0x12e8b(%rip),%rdi        # 115160 <idtr>
  1022d5:	e8 88 fc ff ff       	callq  101f62 <_ZN4IDTR7SetGateEhhm>
  1022da:	48 c7 c0 21 db 10 00 	mov    $0x10db21,%rax
  1022e1:	48 89 c1             	mov    %rax,%rcx
  1022e4:	ba 8e 00 00 00       	mov    $0x8e,%edx
  1022e9:	be 14 00 00 00       	mov    $0x14,%esi
  1022ee:	48 8d 3d 6b 2e 01 00 	lea    0x12e6b(%rip),%rdi        # 115160 <idtr>
  1022f5:	e8 68 fc ff ff       	callq  101f62 <_ZN4IDTR7SetGateEhhm>
  1022fa:	48 c7 c0 28 db 10 00 	mov    $0x10db28,%rax
  102301:	48 89 c1             	mov    %rax,%rcx
  102304:	ba 8e 00 00 00       	mov    $0x8e,%edx
  102309:	be 15 00 00 00       	mov    $0x15,%esi
  10230e:	48 8d 3d 4b 2e 01 00 	lea    0x12e4b(%rip),%rdi        # 115160 <idtr>
  102315:	e8 48 fc ff ff       	callq  101f62 <_ZN4IDTR7SetGateEhhm>
  10231a:	48 c7 c0 2f db 10 00 	mov    $0x10db2f,%rax
  102321:	48 89 c1             	mov    %rax,%rcx
  102324:	ba 8e 00 00 00       	mov    $0x8e,%edx
  102329:	be 16 00 00 00       	mov    $0x16,%esi
  10232e:	48 8d 3d 2b 2e 01 00 	lea    0x12e2b(%rip),%rdi        # 115160 <idtr>
  102335:	e8 28 fc ff ff       	callq  101f62 <_ZN4IDTR7SetGateEhhm>
  10233a:	48 c7 c0 36 db 10 00 	mov    $0x10db36,%rax
  102341:	48 89 c1             	mov    %rax,%rcx
  102344:	ba 8e 00 00 00       	mov    $0x8e,%edx
  102349:	be 17 00 00 00       	mov    $0x17,%esi
  10234e:	48 8d 3d 0b 2e 01 00 	lea    0x12e0b(%rip),%rdi        # 115160 <idtr>
  102355:	e8 08 fc ff ff       	callq  101f62 <_ZN4IDTR7SetGateEhhm>
  10235a:	48 c7 c0 3d db 10 00 	mov    $0x10db3d,%rax
  102361:	48 89 c1             	mov    %rax,%rcx
  102364:	ba 8e 00 00 00       	mov    $0x8e,%edx
  102369:	be 18 00 00 00       	mov    $0x18,%esi
  10236e:	48 8d 3d eb 2d 01 00 	lea    0x12deb(%rip),%rdi        # 115160 <idtr>
  102375:	e8 e8 fb ff ff       	callq  101f62 <_ZN4IDTR7SetGateEhhm>
  10237a:	48 c7 c0 44 db 10 00 	mov    $0x10db44,%rax
  102381:	48 89 c1             	mov    %rax,%rcx
  102384:	ba 8e 00 00 00       	mov    $0x8e,%edx
  102389:	be 19 00 00 00       	mov    $0x19,%esi
  10238e:	48 8d 3d cb 2d 01 00 	lea    0x12dcb(%rip),%rdi        # 115160 <idtr>
  102395:	e8 c8 fb ff ff       	callq  101f62 <_ZN4IDTR7SetGateEhhm>
  10239a:	48 c7 c0 4b db 10 00 	mov    $0x10db4b,%rax
  1023a1:	48 89 c1             	mov    %rax,%rcx
  1023a4:	ba 8e 00 00 00       	mov    $0x8e,%edx
  1023a9:	be 1a 00 00 00       	mov    $0x1a,%esi
  1023ae:	48 8d 3d ab 2d 01 00 	lea    0x12dab(%rip),%rdi        # 115160 <idtr>
  1023b5:	e8 a8 fb ff ff       	callq  101f62 <_ZN4IDTR7SetGateEhhm>
  1023ba:	48 c7 c0 52 db 10 00 	mov    $0x10db52,%rax
  1023c1:	48 89 c1             	mov    %rax,%rcx
  1023c4:	ba 8e 00 00 00       	mov    $0x8e,%edx
  1023c9:	be 1b 00 00 00       	mov    $0x1b,%esi
  1023ce:	48 8d 3d 8b 2d 01 00 	lea    0x12d8b(%rip),%rdi        # 115160 <idtr>
  1023d5:	e8 88 fb ff ff       	callq  101f62 <_ZN4IDTR7SetGateEhhm>
  1023da:	48 c7 c0 59 db 10 00 	mov    $0x10db59,%rax
  1023e1:	48 89 c1             	mov    %rax,%rcx
  1023e4:	ba 8e 00 00 00       	mov    $0x8e,%edx
  1023e9:	be 1c 00 00 00       	mov    $0x1c,%esi
  1023ee:	48 8d 3d 6b 2d 01 00 	lea    0x12d6b(%rip),%rdi        # 115160 <idtr>
  1023f5:	e8 68 fb ff ff       	callq  101f62 <_ZN4IDTR7SetGateEhhm>
  1023fa:	48 c7 c0 60 db 10 00 	mov    $0x10db60,%rax
  102401:	48 89 c1             	mov    %rax,%rcx
  102404:	ba 8e 00 00 00       	mov    $0x8e,%edx
  102409:	be 1d 00 00 00       	mov    $0x1d,%esi
  10240e:	48 8d 3d 4b 2d 01 00 	lea    0x12d4b(%rip),%rdi        # 115160 <idtr>
  102415:	e8 48 fb ff ff       	callq  101f62 <_ZN4IDTR7SetGateEhhm>
  10241a:	48 c7 c0 67 db 10 00 	mov    $0x10db67,%rax
  102421:	48 89 c1             	mov    %rax,%rcx
  102424:	ba 8e 00 00 00       	mov    $0x8e,%edx
  102429:	be 1e 00 00 00       	mov    $0x1e,%esi
  10242e:	48 8d 3d 2b 2d 01 00 	lea    0x12d2b(%rip),%rdi        # 115160 <idtr>
  102435:	e8 28 fb ff ff       	callq  101f62 <_ZN4IDTR7SetGateEhhm>
  10243a:	48 c7 c0 6e db 10 00 	mov    $0x10db6e,%rax
  102441:	48 89 c1             	mov    %rax,%rcx
  102444:	ba 8e 00 00 00       	mov    $0x8e,%edx
  102449:	be 1f 00 00 00       	mov    $0x1f,%esi
  10244e:	48 8d 3d 0b 2d 01 00 	lea    0x12d0b(%rip),%rdi        # 115160 <idtr>
  102455:	e8 08 fb ff ff       	callq  101f62 <_ZN4IDTR7SetGateEhhm>
  10245a:	48 c7 c0 75 db 10 00 	mov    $0x10db75,%rax
  102461:	48 89 c1             	mov    %rax,%rcx
  102464:	ba 8e 00 00 00       	mov    $0x8e,%edx
  102469:	be 20 00 00 00       	mov    $0x20,%esi
  10246e:	48 8d 3d eb 2c 01 00 	lea    0x12ceb(%rip),%rdi        # 115160 <idtr>
  102475:	e8 e8 fa ff ff       	callq  101f62 <_ZN4IDTR7SetGateEhhm>
  10247a:	48 c7 c0 7e db 10 00 	mov    $0x10db7e,%rax
  102481:	48 89 c1             	mov    %rax,%rcx
  102484:	ba 8e 00 00 00       	mov    $0x8e,%edx
  102489:	be 21 00 00 00       	mov    $0x21,%esi
  10248e:	48 8d 3d cb 2c 01 00 	lea    0x12ccb(%rip),%rdi        # 115160 <idtr>
  102495:	e8 c8 fa ff ff       	callq  101f62 <_ZN4IDTR7SetGateEhhm>
  10249a:	48 c7 c0 87 db 10 00 	mov    $0x10db87,%rax
  1024a1:	48 89 c1             	mov    %rax,%rcx
  1024a4:	ba 8e 00 00 00       	mov    $0x8e,%edx
  1024a9:	be 22 00 00 00       	mov    $0x22,%esi
  1024ae:	48 8d 3d ab 2c 01 00 	lea    0x12cab(%rip),%rdi        # 115160 <idtr>
  1024b5:	e8 a8 fa ff ff       	callq  101f62 <_ZN4IDTR7SetGateEhhm>
  1024ba:	48 c7 c0 90 db 10 00 	mov    $0x10db90,%rax
  1024c1:	48 89 c1             	mov    %rax,%rcx
  1024c4:	ba 8e 00 00 00       	mov    $0x8e,%edx
  1024c9:	be 23 00 00 00       	mov    $0x23,%esi
  1024ce:	48 8d 3d 8b 2c 01 00 	lea    0x12c8b(%rip),%rdi        # 115160 <idtr>
  1024d5:	e8 88 fa ff ff       	callq  101f62 <_ZN4IDTR7SetGateEhhm>
  1024da:	48 c7 c0 99 db 10 00 	mov    $0x10db99,%rax
  1024e1:	48 89 c1             	mov    %rax,%rcx
  1024e4:	ba 8e 00 00 00       	mov    $0x8e,%edx
  1024e9:	be 24 00 00 00       	mov    $0x24,%esi
  1024ee:	48 8d 3d 6b 2c 01 00 	lea    0x12c6b(%rip),%rdi        # 115160 <idtr>
  1024f5:	e8 68 fa ff ff       	callq  101f62 <_ZN4IDTR7SetGateEhhm>
  1024fa:	48 c7 c0 a2 db 10 00 	mov    $0x10dba2,%rax
  102501:	48 89 c1             	mov    %rax,%rcx
  102504:	ba 8e 00 00 00       	mov    $0x8e,%edx
  102509:	be 25 00 00 00       	mov    $0x25,%esi
  10250e:	48 8d 3d 4b 2c 01 00 	lea    0x12c4b(%rip),%rdi        # 115160 <idtr>
  102515:	e8 48 fa ff ff       	callq  101f62 <_ZN4IDTR7SetGateEhhm>
  10251a:	48 c7 c0 ab db 10 00 	mov    $0x10dbab,%rax
  102521:	48 89 c1             	mov    %rax,%rcx
  102524:	ba 8e 00 00 00       	mov    $0x8e,%edx
  102529:	be 26 00 00 00       	mov    $0x26,%esi
  10252e:	48 8d 3d 2b 2c 01 00 	lea    0x12c2b(%rip),%rdi        # 115160 <idtr>
  102535:	e8 28 fa ff ff       	callq  101f62 <_ZN4IDTR7SetGateEhhm>
  10253a:	48 c7 c0 b4 db 10 00 	mov    $0x10dbb4,%rax
  102541:	48 89 c1             	mov    %rax,%rcx
  102544:	ba 8e 00 00 00       	mov    $0x8e,%edx
  102549:	be 27 00 00 00       	mov    $0x27,%esi
  10254e:	48 8d 3d 0b 2c 01 00 	lea    0x12c0b(%rip),%rdi        # 115160 <idtr>
  102555:	e8 08 fa ff ff       	callq  101f62 <_ZN4IDTR7SetGateEhhm>
  10255a:	48 c7 c0 bd db 10 00 	mov    $0x10dbbd,%rax
  102561:	48 89 c1             	mov    %rax,%rcx
  102564:	ba 8e 00 00 00       	mov    $0x8e,%edx
  102569:	be 28 00 00 00       	mov    $0x28,%esi
  10256e:	48 8d 3d eb 2b 01 00 	lea    0x12beb(%rip),%rdi        # 115160 <idtr>
  102575:	e8 e8 f9 ff ff       	callq  101f62 <_ZN4IDTR7SetGateEhhm>
  10257a:	48 c7 c0 c6 db 10 00 	mov    $0x10dbc6,%rax
  102581:	48 89 c1             	mov    %rax,%rcx
  102584:	ba 8e 00 00 00       	mov    $0x8e,%edx
  102589:	be 29 00 00 00       	mov    $0x29,%esi
  10258e:	48 8d 3d cb 2b 01 00 	lea    0x12bcb(%rip),%rdi        # 115160 <idtr>
  102595:	e8 c8 f9 ff ff       	callq  101f62 <_ZN4IDTR7SetGateEhhm>
  10259a:	48 c7 c0 cf db 10 00 	mov    $0x10dbcf,%rax
  1025a1:	48 89 c1             	mov    %rax,%rcx
  1025a4:	ba 8e 00 00 00       	mov    $0x8e,%edx
  1025a9:	be 2a 00 00 00       	mov    $0x2a,%esi
  1025ae:	48 8d 3d ab 2b 01 00 	lea    0x12bab(%rip),%rdi        # 115160 <idtr>
  1025b5:	e8 a8 f9 ff ff       	callq  101f62 <_ZN4IDTR7SetGateEhhm>
  1025ba:	48 c7 c0 d8 db 10 00 	mov    $0x10dbd8,%rax
  1025c1:	48 89 c1             	mov    %rax,%rcx
  1025c4:	ba 8e 00 00 00       	mov    $0x8e,%edx
  1025c9:	be 2b 00 00 00       	mov    $0x2b,%esi
  1025ce:	48 8d 3d 8b 2b 01 00 	lea    0x12b8b(%rip),%rdi        # 115160 <idtr>
  1025d5:	e8 88 f9 ff ff       	callq  101f62 <_ZN4IDTR7SetGateEhhm>
  1025da:	48 c7 c0 e1 db 10 00 	mov    $0x10dbe1,%rax
  1025e1:	48 89 c1             	mov    %rax,%rcx
  1025e4:	ba 8e 00 00 00       	mov    $0x8e,%edx
  1025e9:	be 2c 00 00 00       	mov    $0x2c,%esi
  1025ee:	48 8d 3d 6b 2b 01 00 	lea    0x12b6b(%rip),%rdi        # 115160 <idtr>
  1025f5:	e8 68 f9 ff ff       	callq  101f62 <_ZN4IDTR7SetGateEhhm>
  1025fa:	48 c7 c0 ea db 10 00 	mov    $0x10dbea,%rax
  102601:	48 89 c1             	mov    %rax,%rcx
  102604:	ba 8e 00 00 00       	mov    $0x8e,%edx
  102609:	be 2d 00 00 00       	mov    $0x2d,%esi
  10260e:	48 8d 3d 4b 2b 01 00 	lea    0x12b4b(%rip),%rdi        # 115160 <idtr>
  102615:	e8 48 f9 ff ff       	callq  101f62 <_ZN4IDTR7SetGateEhhm>
  10261a:	48 c7 c0 f3 db 10 00 	mov    $0x10dbf3,%rax
  102621:	48 89 c1             	mov    %rax,%rcx
  102624:	ba 8e 00 00 00       	mov    $0x8e,%edx
  102629:	be 2e 00 00 00       	mov    $0x2e,%esi
  10262e:	48 8d 3d 2b 2b 01 00 	lea    0x12b2b(%rip),%rdi        # 115160 <idtr>
  102635:	e8 28 f9 ff ff       	callq  101f62 <_ZN4IDTR7SetGateEhhm>
  10263a:	48 c7 c0 fc db 10 00 	mov    $0x10dbfc,%rax
  102641:	48 89 c1             	mov    %rax,%rcx
  102644:	ba 8e 00 00 00       	mov    $0x8e,%edx
  102649:	be 2f 00 00 00       	mov    $0x2f,%esi
  10264e:	48 8d 3d 0b 2b 01 00 	lea    0x12b0b(%rip),%rdi        # 115160 <idtr>
  102655:	e8 08 f9 ff ff       	callq  101f62 <_ZN4IDTR7SetGateEhhm>
  10265a:	c6 45 ff 00          	movb   $0x0,-0x1(%rbp)
  10265e:	80 7d ff 1f          	cmpb   $0x1f,-0x1(%rbp)
  102662:	77 1e                	ja     102682 <_Z13InitialiseIDTv+0x64b>
  102664:	0f b6 45 ff          	movzbl -0x1(%rbp),%eax
  102668:	48 8d 35 89 f8 ff ff 	lea    -0x777(%rip),%rsi        # 101ef8 <_ZL23DefaultExceptionHandlerP9Registers>
  10266f:	89 c7                	mov    %eax,%edi
  102671:	e8 7c 02 00 00       	callq  1028f2 <_Z24RegisterInterruptHandlerhPFvP9RegistersE>
  102676:	0f b6 45 ff          	movzbl -0x1(%rbp),%eax
  10267a:	83 c0 01             	add    $0x1,%eax
  10267d:	88 45 ff             	mov    %al,-0x1(%rbp)
  102680:	eb dc                	jmp    10265e <_Z13InitialiseIDTv+0x627>
  102682:	48 8d 3d d7 2a 01 00 	lea    0x12ad7(%rip),%rdi        # 115160 <idtr>
  102689:	e8 8a f9 ff ff       	callq  102018 <_ZN4IDTR5FlushEv>
  10268e:	bf 21 00 00 00       	mov    $0x21,%edi
  102693:	e8 1a f1 ff ff       	callq  1017b2 <_Z5__inbt>
  102698:	88 45 fe             	mov    %al,-0x2(%rbp)
  10269b:	e8 db f1 ff ff       	callq  10187b <_Z7io_waitv>
  1026a0:	bf a1 00 00 00       	mov    $0xa1,%edi
  1026a5:	e8 08 f1 ff ff       	callq  1017b2 <_Z5__inbt>
  1026aa:	88 45 fd             	mov    %al,-0x3(%rbp)
  1026ad:	e8 c9 f1 ff ff       	callq  10187b <_Z7io_waitv>
  1026b2:	be 11 00 00 00       	mov    $0x11,%esi
  1026b7:	bf 20 00 00 00       	mov    $0x20,%edi
  1026bc:	e8 54 f1 ff ff       	callq  101815 <_Z6__outbth>
  1026c1:	e8 b5 f1 ff ff       	callq  10187b <_Z7io_waitv>
  1026c6:	be 11 00 00 00       	mov    $0x11,%esi
  1026cb:	bf a0 00 00 00       	mov    $0xa0,%edi
  1026d0:	e8 40 f1 ff ff       	callq  101815 <_Z6__outbth>
  1026d5:	e8 a1 f1 ff ff       	callq  10187b <_Z7io_waitv>
  1026da:	be 20 00 00 00       	mov    $0x20,%esi
  1026df:	bf 21 00 00 00       	mov    $0x21,%edi
  1026e4:	e8 2c f1 ff ff       	callq  101815 <_Z6__outbth>
  1026e9:	e8 8d f1 ff ff       	callq  10187b <_Z7io_waitv>
  1026ee:	be 28 00 00 00       	mov    $0x28,%esi
  1026f3:	bf a1 00 00 00       	mov    $0xa1,%edi
  1026f8:	e8 18 f1 ff ff       	callq  101815 <_Z6__outbth>
  1026fd:	e8 79 f1 ff ff       	callq  10187b <_Z7io_waitv>
  102702:	be 04 00 00 00       	mov    $0x4,%esi
  102707:	bf 21 00 00 00       	mov    $0x21,%edi
  10270c:	e8 04 f1 ff ff       	callq  101815 <_Z6__outbth>
  102711:	e8 65 f1 ff ff       	callq  10187b <_Z7io_waitv>
  102716:	be 02 00 00 00       	mov    $0x2,%esi
  10271b:	bf a1 00 00 00       	mov    $0xa1,%edi
  102720:	e8 f0 f0 ff ff       	callq  101815 <_Z6__outbth>
  102725:	e8 51 f1 ff ff       	callq  10187b <_Z7io_waitv>
  10272a:	be 01 00 00 00       	mov    $0x1,%esi
  10272f:	bf 21 00 00 00       	mov    $0x21,%edi
  102734:	e8 dc f0 ff ff       	callq  101815 <_Z6__outbth>
  102739:	e8 3d f1 ff ff       	callq  10187b <_Z7io_waitv>
  10273e:	be 01 00 00 00       	mov    $0x1,%esi
  102743:	bf a1 00 00 00       	mov    $0xa1,%edi
  102748:	e8 c8 f0 ff ff       	callq  101815 <_Z6__outbth>
  10274d:	e8 29 f1 ff ff       	callq  10187b <_Z7io_waitv>
  102752:	0f b6 45 fe          	movzbl -0x2(%rbp),%eax
  102756:	89 c6                	mov    %eax,%esi
  102758:	bf 21 00 00 00       	mov    $0x21,%edi
  10275d:	e8 b3 f0 ff ff       	callq  101815 <_Z6__outbth>
  102762:	e8 14 f1 ff ff       	callq  10187b <_Z7io_waitv>
  102767:	0f b6 45 fd          	movzbl -0x3(%rbp),%eax
  10276b:	89 c6                	mov    %eax,%esi
  10276d:	bf a1 00 00 00       	mov    $0xa1,%edi
  102772:	e8 9e f0 ff ff       	callq  101815 <_Z6__outbth>
  102777:	90                   	nop
  102778:	c9                   	leaveq 
  102779:	c3                   	retq   

000000000010277a <_Z13InitialiseIRQv>:
  10277a:	f3 0f 1e fa          	endbr64 
  10277e:	55                   	push   %rbp
  10277f:	48 89 e5             	mov    %rsp,%rbp
  102782:	53                   	push   %rbx
  102783:	48 83 ec 08          	sub    $0x8,%rsp
  102787:	bf e8 03 00 00       	mov    $0x3e8,%edi
  10278c:	e8 51 f3 ff ff       	callq  101ae2 <_Z9InitTimerj>
  102791:	e8 17 3b 00 00       	callq  1062ad <_Z12InitKeyboardv>
  102796:	e8 91 29 00 00       	callq  10512c <_ZN7Display13SharedDisplayEv>
  10279b:	8b 58 2c             	mov    0x2c(%rax),%ebx
  10279e:	e8 89 29 00 00       	callq  10512c <_ZN7Display13SharedDisplayEv>
  1027a3:	8b 40 28             	mov    0x28(%rax),%eax
  1027a6:	89 de                	mov    %ebx,%esi
  1027a8:	89 c7                	mov    %eax,%edi
  1027aa:	e8 bd 36 00 00       	callq  105e6c <_Z15InitialiseMousejj>
  1027af:	be f8 00 00 00       	mov    $0xf8,%esi
  1027b4:	bf 21 00 00 00       	mov    $0x21,%edi
  1027b9:	e8 57 f0 ff ff       	callq  101815 <_Z6__outbth>
  1027be:	be ff 00 00 00       	mov    $0xff,%esi
  1027c3:	bf a1 00 00 00       	mov    $0xa1,%edi
  1027c8:	e8 48 f0 ff ff       	callq  101815 <_Z6__outbth>
  1027cd:	fb                   	sti    
  1027ce:	90                   	nop
  1027cf:	48 83 c4 08          	add    $0x8,%rsp
  1027d3:	5b                   	pop    %rbx
  1027d4:	5d                   	pop    %rbp
  1027d5:	c3                   	retq   

00000000001027d6 <ISRHandler>:
  1027d6:	f3 0f 1e fa          	endbr64 
  1027da:	55                   	push   %rbp
  1027db:	48 89 e5             	mov    %rsp,%rbp
  1027de:	48 83 ec 20          	sub    $0x20,%rsp
  1027e2:	48 89 7d e8          	mov    %rdi,-0x18(%rbp)
  1027e6:	48 8b 45 e8          	mov    -0x18(%rbp),%rax
  1027ea:	48 8b 80 80 01 00 00 	mov    0x180(%rax),%rax
  1027f1:	48 8d 14 c5 00 00 00 	lea    0x0(,%rax,8),%rdx
  1027f8:	00 
  1027f9:	48 8d 05 80 39 01 00 	lea    0x13980(%rip),%rax        # 116180 <_ZL18interrupt_handlers>
  102800:	48 8b 04 02          	mov    (%rdx,%rax,1),%rax
  102804:	48 85 c0             	test   %rax,%rax
  102807:	74 31                	je     10283a <ISRHandler+0x64>
  102809:	48 8b 45 e8          	mov    -0x18(%rbp),%rax
  10280d:	48 8b 80 80 01 00 00 	mov    0x180(%rax),%rax
  102814:	48 8d 14 c5 00 00 00 	lea    0x0(,%rax,8),%rdx
  10281b:	00 
  10281c:	48 8d 05 5d 39 01 00 	lea    0x1395d(%rip),%rax        # 116180 <_ZL18interrupt_handlers>
  102823:	48 8b 04 02          	mov    (%rdx,%rax,1),%rax
  102827:	48 89 45 f8          	mov    %rax,-0x8(%rbp)
  10282b:	48 8b 45 e8          	mov    -0x18(%rbp),%rax
  10282f:	48 8b 55 f8          	mov    -0x8(%rbp),%rdx
  102833:	48 89 c7             	mov    %rax,%rdi
  102836:	ff d2                	callq  *%rdx
  102838:	eb 22                	jmp    10285c <ISRHandler+0x86>
  10283a:	48 8b 45 e8          	mov    -0x18(%rbp),%rax
  10283e:	48 8b 80 80 01 00 00 	mov    0x180(%rax),%rax
  102845:	48 89 c6             	mov    %rax,%rsi
  102848:	48 8d 3d 59 d9 00 00 	lea    0xd959(%rip),%rdi        # 1101a8 <__rodata+0x1a8>
  10284f:	b8 00 00 00 00       	mov    $0x0,%eax
  102854:	e8 b7 9f 00 00       	callq  10c810 <_Z7kprintfPKcz>
  102859:	f4                   	hlt    
  10285a:	eb fd                	jmp    102859 <ISRHandler+0x83>
  10285c:	c9                   	leaveq 
  10285d:	c3                   	retq   

000000000010285e <IRQHandler>:
  10285e:	f3 0f 1e fa          	endbr64 
  102862:	55                   	push   %rbp
  102863:	48 89 e5             	mov    %rsp,%rbp
  102866:	48 83 ec 20          	sub    $0x20,%rsp
  10286a:	48 89 7d e8          	mov    %rdi,-0x18(%rbp)
  10286e:	48 8b 45 e8          	mov    -0x18(%rbp),%rax
  102872:	48 8b 80 80 01 00 00 	mov    0x180(%rax),%rax
  102879:	48 8d 14 c5 00 00 00 	lea    0x0(,%rax,8),%rdx
  102880:	00 
  102881:	48 8d 05 f8 38 01 00 	lea    0x138f8(%rip),%rax        # 116180 <_ZL18interrupt_handlers>
  102888:	48 8b 04 02          	mov    (%rdx,%rax,1),%rax
  10288c:	48 85 c0             	test   %rax,%rax
  10288f:	74 2f                	je     1028c0 <IRQHandler+0x62>
  102891:	48 8b 45 e8          	mov    -0x18(%rbp),%rax
  102895:	48 8b 80 80 01 00 00 	mov    0x180(%rax),%rax
  10289c:	48 8d 14 c5 00 00 00 	lea    0x0(,%rax,8),%rdx
  1028a3:	00 
  1028a4:	48 8d 05 d5 38 01 00 	lea    0x138d5(%rip),%rax        # 116180 <_ZL18interrupt_handlers>
  1028ab:	48 8b 04 02          	mov    (%rdx,%rax,1),%rax
  1028af:	48 89 45 f8          	mov    %rax,-0x8(%rbp)
  1028b3:	48 8b 45 e8          	mov    -0x18(%rbp),%rax
  1028b7:	48 8b 55 f8          	mov    -0x8(%rbp),%rdx
  1028bb:	48 89 c7             	mov    %rax,%rdi
  1028be:	ff d2                	callq  *%rdx
  1028c0:	48 8b 45 e8          	mov    -0x18(%rbp),%rax
  1028c4:	48 8b 80 80 01 00 00 	mov    0x180(%rax),%rax
  1028cb:	48 83 f8 27          	cmp    $0x27,%rax
  1028cf:	76 0f                	jbe    1028e0 <IRQHandler+0x82>
  1028d1:	be 20 00 00 00       	mov    $0x20,%esi
  1028d6:	bf a0 00 00 00       	mov    $0xa0,%edi
  1028db:	e8 35 ef ff ff       	callq  101815 <_Z6__outbth>
  1028e0:	be 20 00 00 00       	mov    $0x20,%esi
  1028e5:	bf 20 00 00 00       	mov    $0x20,%edi
  1028ea:	e8 26 ef ff ff       	callq  101815 <_Z6__outbth>
  1028ef:	90                   	nop
  1028f0:	c9                   	leaveq 
  1028f1:	c3                   	retq   

00000000001028f2 <_Z24RegisterInterruptHandlerhPFvP9RegistersE>:
  1028f2:	f3 0f 1e fa          	endbr64 
  1028f6:	55                   	push   %rbp
  1028f7:	48 89 e5             	mov    %rsp,%rbp
  1028fa:	48 83 ec 10          	sub    $0x10,%rsp
  1028fe:	89 f8                	mov    %edi,%eax
  102900:	48 89 75 f0          	mov    %rsi,-0x10(%rbp)
  102904:	88 45 fc             	mov    %al,-0x4(%rbp)
  102907:	0f b6 45 fc          	movzbl -0x4(%rbp),%eax
  10290b:	48 98                	cltq   
  10290d:	48 8d 0c c5 00 00 00 	lea    0x0(,%rax,8),%rcx
  102914:	00 
  102915:	48 8d 15 64 38 01 00 	lea    0x13864(%rip),%rdx        # 116180 <_ZL18interrupt_handlers>
  10291c:	48 8b 45 f0          	mov    -0x10(%rbp),%rax
  102920:	48 89 04 11          	mov    %rax,(%rcx,%rdx,1)
  102924:	90                   	nop
  102925:	c9                   	leaveq 
  102926:	c3                   	retq   

0000000000102927 <_Z17get_stack_pointerv>:
  102927:	f3 0f 1e fa          	endbr64 
  10292b:	55                   	push   %rbp
  10292c:	48 89 e5             	mov    %rsp,%rbp
  10292f:	48 89 e0             	mov    %rsp,%rax
  102932:	90                   	nop
  102933:	5d                   	pop    %rbp
  102934:	c3                   	retq   

0000000000102935 <_Z16get_base_pointerv>:
  102935:	f3 0f 1e fa          	endbr64 
  102939:	55                   	push   %rbp
  10293a:	48 89 e5             	mov    %rsp,%rbp
  10293d:	48 89 e8             	mov    %rbp,%rax
  102940:	90                   	nop
  102941:	5d                   	pop    %rbp
  102942:	c3                   	retq   

0000000000102943 <_Z15InitialiseShellv>:
  102943:	f3 0f 1e fa          	endbr64 
  102947:	55                   	push   %rbp
  102948:	48 89 e5             	mov    %rsp,%rbp
  10294b:	ba ff 00 00 00       	mov    $0xff,%edx
  102950:	be 00 00 00 00       	mov    $0x0,%esi
  102955:	48 8d 3d 24 40 01 00 	lea    0x14024(%rip),%rdi        # 116980 <working_dir>
  10295c:	e8 ee a2 00 00       	callq  10cc4f <_Z6memsetPvim>
  102961:	c6 05 18 40 01 00 7e 	movb   $0x7e,0x14018(%rip)        # 116980 <working_dir>
  102968:	90                   	nop
  102969:	5d                   	pop    %rbp
  10296a:	c3                   	retq   

000000000010296b <_Z13shell_commandPc>:
  10296b:	f3 0f 1e fa          	endbr64 
  10296f:	55                   	push   %rbp
  102970:	48 89 e5             	mov    %rsp,%rbp
  102973:	48 83 ec 10          	sub    $0x10,%rsp
  102977:	48 89 7d f8          	mov    %rdi,-0x8(%rbp)
  10297b:	8b 05 ff 40 01 00    	mov    0x140ff(%rip),%eax        # 116a80 <_ZL5state>
  102981:	85 c0                	test   %eax,%eax
  102983:	74 07                	je     10298c <_Z13shell_commandPc+0x21>
  102985:	83 f8 01             	cmp    $0x1,%eax
  102988:	74 10                	je     10299a <_Z13shell_commandPc+0x2f>
  10298a:	eb 1b                	jmp    1029a7 <_Z13shell_commandPc+0x3c>
  10298c:	48 8b 45 f8          	mov    -0x8(%rbp),%rax
  102990:	48 89 c7             	mov    %rax,%rdi
  102993:	e8 2a 00 00 00       	callq  1029c2 <_Z12command_modePc>
  102998:	eb 0d                	jmp    1029a7 <_Z13shell_commandPc+0x3c>
  10299a:	48 8b 45 f8          	mov    -0x8(%rbp),%rax
  10299e:	48 89 c7             	mov    %rax,%rdi
  1029a1:	e8 17 07 00 00       	callq  1030bd <_Z15calculator_modePc>
  1029a6:	90                   	nop
  1029a7:	48 8d 35 d2 3f 01 00 	lea    0x13fd2(%rip),%rsi        # 116980 <working_dir>
  1029ae:	48 8d 3d 5b d9 00 00 	lea    0xd95b(%rip),%rdi        # 110310 <__rodata+0x310>
  1029b5:	b8 00 00 00 00       	mov    $0x0,%eax
  1029ba:	e8 51 9e 00 00       	callq  10c810 <_Z7kprintfPKcz>
  1029bf:	90                   	nop
  1029c0:	c9                   	leaveq 
  1029c1:	c3                   	retq   

00000000001029c2 <_Z12command_modePc>:
  1029c2:	f3 0f 1e fa          	endbr64 
  1029c6:	55                   	push   %rbp
  1029c7:	48 89 e5             	mov    %rsp,%rbp
  1029ca:	48 81 ec c0 00 00 00 	sub    $0xc0,%rsp
  1029d1:	48 89 bd 48 ff ff ff 	mov    %rdi,-0xb8(%rbp)
  1029d8:	48 8b 85 48 ff ff ff 	mov    -0xb8(%rbp),%rax
  1029df:	48 8d 35 39 d9 00 00 	lea    0xd939(%rip),%rsi        # 11031f <__rodata+0x31f>
  1029e6:	48 89 c7             	mov    %rax,%rdi
  1029e9:	e8 0b 08 00 00       	callq  1031f9 <_Z13check_commandPcPKc>
  1029ee:	85 c0                	test   %eax,%eax
  1029f0:	0f 95 c0             	setne  %al
  1029f3:	84 c0                	test   %al,%al
  1029f5:	0f 84 9e 00 00 00    	je     102a99 <_Z12command_modePc+0xd7>
  1029fb:	48 8d 3d 26 d9 00 00 	lea    0xd926(%rip),%rdi        # 110328 <__rodata+0x328>
  102a02:	b8 00 00 00 00       	mov    $0x0,%eax
  102a07:	e8 04 9e 00 00       	callq  10c810 <_Z7kprintfPKcz>
  102a0c:	48 8d 3d 55 d9 00 00 	lea    0xd955(%rip),%rdi        # 110368 <__rodata+0x368>
  102a13:	b8 00 00 00 00       	mov    $0x0,%eax
  102a18:	e8 f3 9d 00 00       	callq  10c810 <_Z7kprintfPKcz>
  102a1d:	48 8d 3d 64 d9 00 00 	lea    0xd964(%rip),%rdi        # 110388 <__rodata+0x388>
  102a24:	b8 00 00 00 00       	mov    $0x0,%eax
  102a29:	e8 e2 9d 00 00       	callq  10c810 <_Z7kprintfPKcz>
  102a2e:	48 8d 3d 9b d9 00 00 	lea    0xd99b(%rip),%rdi        # 1103d0 <__rodata+0x3d0>
  102a35:	b8 00 00 00 00       	mov    $0x0,%eax
  102a3a:	e8 d1 9d 00 00       	callq  10c810 <_Z7kprintfPKcz>
  102a3f:	48 8d 3d d2 d9 00 00 	lea    0xd9d2(%rip),%rdi        # 110418 <__rodata+0x418>
  102a46:	b8 00 00 00 00       	mov    $0x0,%eax
  102a4b:	e8 c0 9d 00 00       	callq  10c810 <_Z7kprintfPKcz>
  102a50:	48 8d 3d f1 d9 00 00 	lea    0xd9f1(%rip),%rdi        # 110448 <__rodata+0x448>
  102a57:	b8 00 00 00 00       	mov    $0x0,%eax
  102a5c:	e8 af 9d 00 00       	callq  10c810 <_Z7kprintfPKcz>
  102a61:	48 8d 3d 28 da 00 00 	lea    0xda28(%rip),%rdi        # 110490 <__rodata+0x490>
  102a68:	b8 00 00 00 00       	mov    $0x0,%eax
  102a6d:	e8 9e 9d 00 00       	callq  10c810 <_Z7kprintfPKcz>
  102a72:	48 8d 3d 57 da 00 00 	lea    0xda57(%rip),%rdi        # 1104d0 <__rodata+0x4d0>
  102a79:	b8 00 00 00 00       	mov    $0x0,%eax
  102a7e:	e8 8d 9d 00 00       	callq  10c810 <_Z7kprintfPKcz>
  102a83:	48 8d 3d 8a da 00 00 	lea    0xda8a(%rip),%rdi        # 110514 <__rodata+0x514>
  102a8a:	b8 00 00 00 00       	mov    $0x0,%eax
  102a8f:	e8 7c 9d 00 00       	callq  10c810 <_Z7kprintfPKcz>
  102a94:	e9 21 06 00 00       	jmpq   1030ba <_Z12command_modePc+0x6f8>
  102a99:	48 8b 85 48 ff ff ff 	mov    -0xb8(%rbp),%rax
  102aa0:	48 8d 35 8a da 00 00 	lea    0xda8a(%rip),%rsi        # 110531 <__rodata+0x531>
  102aa7:	48 89 c7             	mov    %rax,%rdi
  102aaa:	e8 4a 07 00 00       	callq  1031f9 <_Z13check_commandPcPKc>
  102aaf:	85 c0                	test   %eax,%eax
  102ab1:	0f 95 c0             	setne  %al
  102ab4:	84 c0                	test   %al,%al
  102ab6:	74 45                	je     102afd <_Z12command_modePc+0x13b>
  102ab8:	48 8d 45 88          	lea    -0x78(%rbp),%rax
  102abc:	48 89 c2             	mov    %rax,%rdx
  102abf:	be 01 00 00 00       	mov    $0x1,%esi
  102ac4:	bf 00 10 00 00       	mov    $0x1000,%edi
  102ac9:	e8 07 a2 00 00       	callq  10ccd5 <_Z11kmalloc_intmiPm>
  102ace:	48 89 45 90          	mov    %rax,-0x70(%rbp)
  102ad2:	48 8b 55 88          	mov    -0x78(%rbp),%rdx
  102ad6:	48 8b 45 90          	mov    -0x70(%rbp),%rax
  102ada:	48 89 c6             	mov    %rax,%rsi
  102add:	48 8d 3d 54 da 00 00 	lea    0xda54(%rip),%rdi        # 110538 <__rodata+0x538>
  102ae4:	b8 00 00 00 00       	mov    $0x0,%eax
  102ae9:	e8 22 9d 00 00       	callq  10c810 <_Z7kprintfPKcz>
  102aee:	c7 05 88 3f 01 00 00 	movl   $0x0,0x13f88(%rip)        # 116a80 <_ZL5state>
  102af5:	00 00 00 
  102af8:	e9 bd 05 00 00       	jmpq   1030ba <_Z12command_modePc+0x6f8>
  102afd:	48 8b 85 48 ff ff ff 	mov    -0xb8(%rbp),%rax
  102b04:	48 8d 35 4e da 00 00 	lea    0xda4e(%rip),%rsi        # 110559 <__rodata+0x559>
  102b0b:	48 89 c7             	mov    %rax,%rdi
  102b0e:	e8 e6 06 00 00       	callq  1031f9 <_Z13check_commandPcPKc>
  102b13:	85 c0                	test   %eax,%eax
  102b15:	0f 95 c0             	setne  %al
  102b18:	84 c0                	test   %al,%al
  102b1a:	74 25                	je     102b41 <_Z12command_modePc+0x17f>
  102b1c:	e8 42 27 00 00       	callq  105263 <_Z6clrscrv>
  102b21:	48 8d 3d 38 da 00 00 	lea    0xda38(%rip),%rdi        # 110560 <__rodata+0x560>
  102b28:	b8 00 00 00 00       	mov    $0x0,%eax
  102b2d:	e8 de 9c 00 00       	callq  10c810 <_Z7kprintfPKcz>
  102b32:	c7 05 44 3f 01 00 00 	movl   $0x0,0x13f44(%rip)        # 116a80 <_ZL5state>
  102b39:	00 00 00 
  102b3c:	e9 79 05 00 00       	jmpq   1030ba <_Z12command_modePc+0x6f8>
  102b41:	48 8b 85 48 ff ff ff 	mov    -0xb8(%rbp),%rax
  102b48:	48 8d 35 32 da 00 00 	lea    0xda32(%rip),%rsi        # 110581 <__rodata+0x581>
  102b4f:	48 89 c7             	mov    %rax,%rdi
  102b52:	e8 a2 06 00 00       	callq  1031f9 <_Z13check_commandPcPKc>
  102b57:	85 c0                	test   %eax,%eax
  102b59:	0f 95 c0             	setne  %al
  102b5c:	84 c0                	test   %al,%al
  102b5e:	74 20                	je     102b80 <_Z12command_modePc+0x1be>
  102b60:	48 8d 3d 21 da 00 00 	lea    0xda21(%rip),%rdi        # 110588 <__rodata+0x588>
  102b67:	b8 00 00 00 00       	mov    $0x0,%eax
  102b6c:	e8 9f 9c 00 00       	callq  10c810 <_Z7kprintfPKcz>
  102b71:	c7 05 05 3f 01 00 01 	movl   $0x1,0x13f05(%rip)        # 116a80 <_ZL5state>
  102b78:	00 00 00 
  102b7b:	e9 3a 05 00 00       	jmpq   1030ba <_Z12command_modePc+0x6f8>
  102b80:	48 8b 85 48 ff ff ff 	mov    -0xb8(%rbp),%rax
  102b87:	ba 03 00 00 00       	mov    $0x3,%edx
  102b8c:	48 8d 35 37 da 00 00 	lea    0xda37(%rip),%rsi        # 1105ca <__rodata+0x5ca>
  102b93:	48 89 c7             	mov    %rax,%rdi
  102b96:	e8 8f 06 00 00       	callq  10322a <_Z19check_short_commandPcPKci>
  102b9b:	85 c0                	test   %eax,%eax
  102b9d:	0f 95 c0             	setne  %al
  102ba0:	84 c0                	test   %al,%al
  102ba2:	0f 84 10 02 00 00    	je     102db8 <_Z12command_modePc+0x3f6>
  102ba8:	48 8b 85 48 ff ff ff 	mov    -0xb8(%rbp),%rax
  102baf:	48 89 c7             	mov    %rax,%rdi
  102bb2:	e8 99 98 00 00       	callq  10c450 <_Z6strlenPc>
  102bb7:	48 83 f8 03          	cmp    $0x3,%rax
  102bbb:	0f 97 c0             	seta   %al
  102bbe:	84 c0                	test   %al,%al
  102bc0:	0f 84 f4 04 00 00    	je     1030ba <_Z12command_modePc+0x6f8>
  102bc6:	48 8b 85 48 ff ff ff 	mov    -0xb8(%rbp),%rax
  102bcd:	48 83 c0 03          	add    $0x3,%rax
  102bd1:	48 89 45 b8          	mov    %rax,-0x48(%rbp)
  102bd5:	48 8d 3d a4 3d 01 00 	lea    0x13da4(%rip),%rdi        # 116980 <working_dir>
  102bdc:	e8 6f 98 00 00       	callq  10c450 <_Z6strlenPc>
  102be1:	48 89 45 b0          	mov    %rax,-0x50(%rbp)
  102be5:	48 8b 45 b8          	mov    -0x48(%rbp),%rax
  102be9:	48 8d 35 de d9 00 00 	lea    0xd9de(%rip),%rsi        # 1105ce <__rodata+0x5ce>
  102bf0:	48 89 c7             	mov    %rax,%rdi
  102bf3:	e8 76 98 00 00       	callq  10c46e <_Z6strcmpPcS_>
  102bf8:	85 c0                	test   %eax,%eax
  102bfa:	0f 94 c0             	sete   %al
  102bfd:	84 c0                	test   %al,%al
  102bff:	0f 85 b5 04 00 00    	jne    1030ba <_Z12command_modePc+0x6f8>
  102c05:	48 8b 45 b8          	mov    -0x48(%rbp),%rax
  102c09:	48 8d 35 c0 d9 00 00 	lea    0xd9c0(%rip),%rsi        # 1105d0 <__rodata+0x5d0>
  102c10:	48 89 c7             	mov    %rax,%rdi
  102c13:	e8 56 98 00 00       	callq  10c46e <_Z6strcmpPcS_>
  102c18:	85 c0                	test   %eax,%eax
  102c1a:	0f 94 c0             	sete   %al
  102c1d:	84 c0                	test   %al,%al
  102c1f:	74 74                	je     102c95 <_Z12command_modePc+0x2d3>
  102c21:	48 8d 35 ab d9 00 00 	lea    0xd9ab(%rip),%rsi        # 1105d3 <__rodata+0x5d3>
  102c28:	48 8d 3d 51 3d 01 00 	lea    0x13d51(%rip),%rdi        # 116980 <working_dir>
  102c2f:	e8 3a 98 00 00       	callq  10c46e <_Z6strcmpPcS_>
  102c34:	85 c0                	test   %eax,%eax
  102c36:	0f 94 c0             	sete   %al
  102c39:	84 c0                	test   %al,%al
  102c3b:	0f 85 79 04 00 00    	jne    1030ba <_Z12command_modePc+0x6f8>
  102c41:	48 c7 45 f8 00 00 00 	movq   $0x0,-0x8(%rbp)
  102c48:	00 
  102c49:	48 c7 45 f0 00 00 00 	movq   $0x0,-0x10(%rbp)
  102c50:	00 
  102c51:	48 8b 45 f0          	mov    -0x10(%rbp),%rax
  102c55:	48 3b 45 b0          	cmp    -0x50(%rbp),%rax
  102c59:	73 24                	jae    102c7f <_Z12command_modePc+0x2bd>
  102c5b:	48 8d 15 1e 3d 01 00 	lea    0x13d1e(%rip),%rdx        # 116980 <working_dir>
  102c62:	48 8b 45 f0          	mov    -0x10(%rbp),%rax
  102c66:	48 01 d0             	add    %rdx,%rax
  102c69:	0f b6 00             	movzbl (%rax),%eax
  102c6c:	3c 2f                	cmp    $0x2f,%al
  102c6e:	75 08                	jne    102c78 <_Z12command_modePc+0x2b6>
  102c70:	48 8b 45 f0          	mov    -0x10(%rbp),%rax
  102c74:	48 89 45 f8          	mov    %rax,-0x8(%rbp)
  102c78:	48 83 45 f0 01       	addq   $0x1,-0x10(%rbp)
  102c7d:	eb d2                	jmp    102c51 <_Z12command_modePc+0x28f>
  102c7f:	48 8d 15 fa 3c 01 00 	lea    0x13cfa(%rip),%rdx        # 116980 <working_dir>
  102c86:	48 8b 45 f8          	mov    -0x8(%rbp),%rax
  102c8a:	48 01 d0             	add    %rdx,%rax
  102c8d:	c6 00 00             	movb   $0x0,(%rax)
  102c90:	e9 25 04 00 00       	jmpq   1030ba <_Z12command_modePc+0x6f8>
  102c95:	48 8b 05 64 49 01 00 	mov    0x14964(%rip),%rax        # 117600 <filesystems>
  102c9c:	48 89 45 a8          	mov    %rax,-0x58(%rbp)
  102ca0:	48 8b 45 a8          	mov    -0x58(%rbp),%rax
  102ca4:	48 8b 00             	mov    (%rax),%rax
  102ca7:	48 83 c0 28          	add    $0x28,%rax
  102cab:	48 8b 10             	mov    (%rax),%rdx
  102cae:	48 8b 45 a8          	mov    -0x58(%rbp),%rax
  102cb2:	48 8d 35 c7 3c 01 00 	lea    0x13cc7(%rip),%rsi        # 116980 <working_dir>
  102cb9:	48 89 c7             	mov    %rax,%rdi
  102cbc:	ff d2                	callq  *%rdx
  102cbe:	48 89 45 a0          	mov    %rax,-0x60(%rbp)
  102cc2:	48 83 7d a0 00       	cmpq   $0x0,-0x60(%rbp)
  102cc7:	0f 84 d5 00 00 00    	je     102da2 <_Z12command_modePc+0x3e0>
  102ccd:	48 c7 45 e8 00 00 00 	movq   $0x0,-0x18(%rbp)
  102cd4:	00 
  102cd5:	48 8b 45 e8          	mov    -0x18(%rbp),%rax
  102cd9:	48 3b 45 a0          	cmp    -0x60(%rbp),%rax
  102cdd:	0f 83 d7 03 00 00    	jae    1030ba <_Z12command_modePc+0x6f8>
  102ce3:	48 8b 45 a8          	mov    -0x58(%rbp),%rax
  102ce7:	48 8b 00             	mov    (%rax),%rax
  102cea:	48 83 c0 30          	add    $0x30,%rax
  102cee:	48 8b 08             	mov    (%rax),%rcx
  102cf1:	48 8b 55 e8          	mov    -0x18(%rbp),%rdx
  102cf5:	48 8b 45 a8          	mov    -0x58(%rbp),%rax
  102cf9:	48 8d 35 80 3c 01 00 	lea    0x13c80(%rip),%rsi        # 116980 <working_dir>
  102d00:	48 89 c7             	mov    %rax,%rdi
  102d03:	ff d1                	callq  *%rcx
  102d05:	48 89 45 98          	mov    %rax,-0x68(%rbp)
  102d09:	48 8b 45 98          	mov    -0x68(%rbp),%rax
  102d0d:	48 8b 00             	mov    (%rax),%rax
  102d10:	48 83 c0 18          	add    $0x18,%rax
  102d14:	48 8b 10             	mov    (%rax),%rdx
  102d17:	48 8b 45 98          	mov    -0x68(%rbp),%rax
  102d1b:	48 89 c7             	mov    %rax,%rdi
  102d1e:	ff d2                	callq  *%rdx
  102d20:	83 e0 10             	and    $0x10,%eax
  102d23:	83 f8 10             	cmp    $0x10,%eax
  102d26:	0f 95 c0             	setne  %al
  102d29:	84 c0                	test   %al,%al
  102d2b:	74 13                	je     102d40 <_Z12command_modePc+0x37e>
  102d2d:	48 8d 3d a4 d8 00 00 	lea    0xd8a4(%rip),%rdi        # 1105d8 <__rodata+0x5d8>
  102d34:	b8 00 00 00 00       	mov    $0x0,%eax
  102d39:	e8 d2 9a 00 00       	callq  10c810 <_Z7kprintfPKcz>
  102d3e:	eb 58                	jmp    102d98 <_Z12command_modePc+0x3d6>
  102d40:	48 8b 45 98          	mov    -0x68(%rbp),%rax
  102d44:	48 8b 00             	mov    (%rax),%rax
  102d47:	48 83 c0 08          	add    $0x8,%rax
  102d4b:	48 8b 10             	mov    (%rax),%rdx
  102d4e:	48 8b 45 98          	mov    -0x68(%rbp),%rax
  102d52:	48 89 c7             	mov    %rax,%rdi
  102d55:	ff d2                	callq  *%rdx
  102d57:	48 89 c2             	mov    %rax,%rdx
  102d5a:	48 8b 45 b8          	mov    -0x48(%rbp),%rax
  102d5e:	48 89 c6             	mov    %rax,%rsi
  102d61:	48 89 d7             	mov    %rdx,%rdi
  102d64:	e8 05 97 00 00       	callq  10c46e <_Z6strcmpPcS_>
  102d69:	85 c0                	test   %eax,%eax
  102d6b:	0f 94 c0             	sete   %al
  102d6e:	84 c0                	test   %al,%al
  102d70:	74 26                	je     102d98 <_Z12command_modePc+0x3d6>
  102d72:	48 8b 45 98          	mov    -0x68(%rbp),%rax
  102d76:	48 8b 00             	mov    (%rax),%rax
  102d79:	48 83 c0 10          	add    $0x10,%rax
  102d7d:	48 8b 10             	mov    (%rax),%rdx
  102d80:	48 8b 45 98          	mov    -0x68(%rbp),%rax
  102d84:	48 89 c7             	mov    %rax,%rdi
  102d87:	ff d2                	callq  *%rdx
  102d89:	48 89 c6             	mov    %rax,%rsi
  102d8c:	48 8d 3d ed 3b 01 00 	lea    0x13bed(%rip),%rdi        # 116980 <working_dir>
  102d93:	e8 70 97 00 00       	callq  10c508 <_Z6strcpyPcPKc>
  102d98:	48 83 45 e8 01       	addq   $0x1,-0x18(%rbp)
  102d9d:	e9 33 ff ff ff       	jmpq   102cd5 <_Z12command_modePc+0x313>
  102da2:	48 8d 3d 50 d8 00 00 	lea    0xd850(%rip),%rdi        # 1105f9 <__rodata+0x5f9>
  102da9:	b8 00 00 00 00       	mov    $0x0,%eax
  102dae:	e8 5d 9a 00 00       	callq  10c810 <_Z7kprintfPKcz>
  102db3:	e9 02 03 00 00       	jmpq   1030ba <_Z12command_modePc+0x6f8>
  102db8:	48 8b 85 48 ff ff ff 	mov    -0xb8(%rbp),%rax
  102dbf:	48 8d 35 4f d8 00 00 	lea    0xd84f(%rip),%rsi        # 110615 <__rodata+0x615>
  102dc6:	48 89 c7             	mov    %rax,%rdi
  102dc9:	e8 2b 04 00 00       	callq  1031f9 <_Z13check_commandPcPKc>
  102dce:	85 c0                	test   %eax,%eax
  102dd0:	0f 95 c0             	setne  %al
  102dd3:	84 c0                	test   %al,%al
  102dd5:	74 1d                	je     102df4 <_Z12command_modePc+0x432>
  102dd7:	48 8d 35 a2 3b 01 00 	lea    0x13ba2(%rip),%rsi        # 116980 <working_dir>
  102dde:	48 8d 3d 33 d8 00 00 	lea    0xd833(%rip),%rdi        # 110618 <__rodata+0x618>
  102de5:	b8 00 00 00 00       	mov    $0x0,%eax
  102dea:	e8 21 9a 00 00       	callq  10c810 <_Z7kprintfPKcz>
  102def:	e9 c6 02 00 00       	jmpq   1030ba <_Z12command_modePc+0x6f8>
  102df4:	48 8b 85 48 ff ff ff 	mov    -0xb8(%rbp),%rax
  102dfb:	48 8d 35 35 d8 00 00 	lea    0xd835(%rip),%rsi        # 110637 <__rodata+0x637>
  102e02:	48 89 c7             	mov    %rax,%rdi
  102e05:	e8 ef 03 00 00       	callq  1031f9 <_Z13check_commandPcPKc>
  102e0a:	85 c0                	test   %eax,%eax
  102e0c:	0f 95 c0             	setne  %al
  102e0f:	84 c0                	test   %al,%al
  102e11:	0f 84 0e 01 00 00    	je     102f25 <_Z12command_modePc+0x563>
  102e17:	48 8b 05 e2 47 01 00 	mov    0x147e2(%rip),%rax        # 117600 <filesystems>
  102e1e:	48 89 45 d0          	mov    %rax,-0x30(%rbp)
  102e22:	48 8b 45 d0          	mov    -0x30(%rbp),%rax
  102e26:	48 8b 00             	mov    (%rax),%rax
  102e29:	48 83 c0 28          	add    $0x28,%rax
  102e2d:	48 8b 10             	mov    (%rax),%rdx
  102e30:	48 8b 45 d0          	mov    -0x30(%rbp),%rax
  102e34:	48 8d 35 45 3b 01 00 	lea    0x13b45(%rip),%rsi        # 116980 <working_dir>
  102e3b:	48 89 c7             	mov    %rax,%rdi
  102e3e:	ff d2                	callq  *%rdx
  102e40:	48 89 45 c8          	mov    %rax,-0x38(%rbp)
  102e44:	48 c7 45 e0 00 00 00 	movq   $0x0,-0x20(%rbp)
  102e4b:	00 
  102e4c:	48 8b 45 e0          	mov    -0x20(%rbp),%rax
  102e50:	48 3b 45 c8          	cmp    -0x38(%rbp),%rax
  102e54:	0f 83 ab 00 00 00    	jae    102f05 <_Z12command_modePc+0x543>
  102e5a:	48 8b 45 d0          	mov    -0x30(%rbp),%rax
  102e5e:	48 8b 00             	mov    (%rax),%rax
  102e61:	48 83 c0 30          	add    $0x30,%rax
  102e65:	48 8b 08             	mov    (%rax),%rcx
  102e68:	48 8b 55 e0          	mov    -0x20(%rbp),%rdx
  102e6c:	48 8b 45 d0          	mov    -0x30(%rbp),%rax
  102e70:	48 8d 35 09 3b 01 00 	lea    0x13b09(%rip),%rsi        # 116980 <working_dir>
  102e77:	48 89 c7             	mov    %rax,%rdi
  102e7a:	ff d1                	callq  *%rcx
  102e7c:	48 89 45 c0          	mov    %rax,-0x40(%rbp)
  102e80:	48 8b 45 c0          	mov    -0x40(%rbp),%rax
  102e84:	48 8b 00             	mov    (%rax),%rax
  102e87:	48 83 c0 18          	add    $0x18,%rax
  102e8b:	48 8b 10             	mov    (%rax),%rdx
  102e8e:	48 8b 45 c0          	mov    -0x40(%rbp),%rax
  102e92:	48 89 c7             	mov    %rax,%rdi
  102e95:	ff d2                	callq  *%rdx
  102e97:	83 e0 10             	and    $0x10,%eax
  102e9a:	85 c0                	test   %eax,%eax
  102e9c:	0f 95 c0             	setne  %al
  102e9f:	84 c0                	test   %al,%al
  102ea1:	74 2d                	je     102ed0 <_Z12command_modePc+0x50e>
  102ea3:	48 8b 45 c0          	mov    -0x40(%rbp),%rax
  102ea7:	48 8b 00             	mov    (%rax),%rax
  102eaa:	48 83 c0 08          	add    $0x8,%rax
  102eae:	48 8b 10             	mov    (%rax),%rdx
  102eb1:	48 8b 45 c0          	mov    -0x40(%rbp),%rax
  102eb5:	48 89 c7             	mov    %rax,%rdi
  102eb8:	ff d2                	callq  *%rdx
  102eba:	48 89 c6             	mov    %rax,%rsi
  102ebd:	48 8d 3d 76 d7 00 00 	lea    0xd776(%rip),%rdi        # 11063a <__rodata+0x63a>
  102ec4:	b8 00 00 00 00       	mov    $0x0,%eax
  102ec9:	e8 42 99 00 00       	callq  10c810 <_Z7kprintfPKcz>
  102ece:	eb 2b                	jmp    102efb <_Z12command_modePc+0x539>
  102ed0:	48 8b 45 c0          	mov    -0x40(%rbp),%rax
  102ed4:	48 8b 00             	mov    (%rax),%rax
  102ed7:	48 83 c0 08          	add    $0x8,%rax
  102edb:	48 8b 10             	mov    (%rax),%rdx
  102ede:	48 8b 45 c0          	mov    -0x40(%rbp),%rax
  102ee2:	48 89 c7             	mov    %rax,%rdi
  102ee5:	ff d2                	callq  *%rdx
  102ee7:	48 89 c6             	mov    %rax,%rsi
  102eea:	48 8d 3d 4e d7 00 00 	lea    0xd74e(%rip),%rdi        # 11063f <__rodata+0x63f>
  102ef1:	b8 00 00 00 00       	mov    $0x0,%eax
  102ef6:	e8 15 99 00 00       	callq  10c810 <_Z7kprintfPKcz>
  102efb:	48 83 45 e0 01       	addq   $0x1,-0x20(%rbp)
  102f00:	e9 47 ff ff ff       	jmpq   102e4c <_Z12command_modePc+0x48a>
  102f05:	48 8d 3d 37 d7 00 00 	lea    0xd737(%rip),%rdi        # 110643 <__rodata+0x643>
  102f0c:	b8 00 00 00 00       	mov    $0x0,%eax
  102f11:	e8 fa 98 00 00       	callq  10c810 <_Z7kprintfPKcz>
  102f16:	c7 05 60 3b 01 00 00 	movl   $0x0,0x13b60(%rip)        # 116a80 <_ZL5state>
  102f1d:	00 00 00 
  102f20:	e9 95 01 00 00       	jmpq   1030ba <_Z12command_modePc+0x6f8>
  102f25:	48 8b 85 48 ff ff ff 	mov    -0xb8(%rbp),%rax
  102f2c:	ba 05 00 00 00       	mov    $0x5,%edx
  102f31:	48 8d 35 0d d7 00 00 	lea    0xd70d(%rip),%rsi        # 110645 <__rodata+0x645>
  102f38:	48 89 c7             	mov    %rax,%rdi
  102f3b:	e8 ea 02 00 00       	callq  10322a <_Z19check_short_commandPcPKci>
  102f40:	85 c0                	test   %eax,%eax
  102f42:	0f 95 c0             	setne  %al
  102f45:	84 c0                	test   %al,%al
  102f47:	0f 84 48 01 00 00    	je     103095 <_Z12command_modePc+0x6d3>
  102f4d:	48 8b 85 48 ff ff ff 	mov    -0xb8(%rbp),%rax
  102f54:	48 83 c0 06          	add    $0x6,%rax
  102f58:	48 89 45 d8          	mov    %rax,-0x28(%rbp)
  102f5c:	48 8b 45 d8          	mov    -0x28(%rbp),%rax
  102f60:	ba 04 00 00 00       	mov    $0x4,%edx
  102f65:	48 8d 35 df d6 00 00 	lea    0xd6df(%rip),%rsi        # 11064b <__rodata+0x64b>
  102f6c:	48 89 c7             	mov    %rax,%rdi
  102f6f:	e8 b6 02 00 00       	callq  10322a <_Z19check_short_commandPcPKci>
  102f74:	85 c0                	test   %eax,%eax
  102f76:	0f 95 c0             	setne  %al
  102f79:	84 c0                	test   %al,%al
  102f7b:	74 33                	je     102fb0 <_Z12command_modePc+0x5ee>
  102f7d:	48 8d 85 70 ff ff ff 	lea    -0x90(%rbp),%rax
  102f84:	48 89 c7             	mov    %rax,%rdi
  102f87:	e8 15 ea ff ff       	callq  1019a1 <_Z10GetTimeRTCP2tm>
  102f8c:	8b 4d 84             	mov    -0x7c(%rbp),%ecx
  102f8f:	8b 55 80             	mov    -0x80(%rbp),%edx
  102f92:	8b 85 7c ff ff ff    	mov    -0x84(%rbp),%eax
  102f98:	89 c6                	mov    %eax,%esi
  102f9a:	48 8d 3d af d6 00 00 	lea    0xd6af(%rip),%rdi        # 110650 <__rodata+0x650>
  102fa1:	b8 00 00 00 00       	mov    $0x0,%eax
  102fa6:	e8 65 98 00 00       	callq  10c810 <_Z7kprintfPKcz>
  102fab:	e9 00 01 00 00       	jmpq   1030b0 <_Z12command_modePc+0x6ee>
  102fb0:	48 8b 45 d8          	mov    -0x28(%rbp),%rax
  102fb4:	ba 04 00 00 00       	mov    $0x4,%edx
  102fb9:	48 8d 35 a0 d6 00 00 	lea    0xd6a0(%rip),%rsi        # 110660 <__rodata+0x660>
  102fc0:	48 89 c7             	mov    %rax,%rdi
  102fc3:	e8 62 02 00 00       	callq  10322a <_Z19check_short_commandPcPKci>
  102fc8:	85 c0                	test   %eax,%eax
  102fca:	0f 95 c0             	setne  %al
  102fcd:	84 c0                	test   %al,%al
  102fcf:	74 39                	je     10300a <_Z12command_modePc+0x648>
  102fd1:	48 8d 85 50 ff ff ff 	lea    -0xb0(%rbp),%rax
  102fd8:	48 89 c7             	mov    %rax,%rdi
  102fdb:	e8 c1 e9 ff ff       	callq  1019a1 <_Z10GetTimeRTCP2tm>
  102fe0:	8b 8d 58 ff ff ff    	mov    -0xa8(%rbp),%ecx
  102fe6:	8b 95 54 ff ff ff    	mov    -0xac(%rbp),%edx
  102fec:	8b 85 50 ff ff ff    	mov    -0xb0(%rbp),%eax
  102ff2:	89 c6                	mov    %eax,%esi
  102ff4:	48 8d 3d 6a d6 00 00 	lea    0xd66a(%rip),%rdi        # 110665 <__rodata+0x665>
  102ffb:	b8 00 00 00 00       	mov    $0x0,%eax
  103000:	e8 0b 98 00 00       	callq  10c810 <_Z7kprintfPKcz>
  103005:	e9 a6 00 00 00       	jmpq   1030b0 <_Z12command_modePc+0x6ee>
  10300a:	48 8b 45 d8          	mov    -0x28(%rbp),%rax
  10300e:	ba 04 00 00 00       	mov    $0x4,%edx
  103013:	48 8d 35 5d d6 00 00 	lea    0xd65d(%rip),%rsi        # 110677 <__rodata+0x677>
  10301a:	48 89 c7             	mov    %rax,%rdi
  10301d:	e8 08 02 00 00       	callq  10322a <_Z19check_short_commandPcPKci>
  103022:	85 c0                	test   %eax,%eax
  103024:	0f 95 c0             	setne  %al
  103027:	84 c0                	test   %al,%al
  103029:	74 1b                	je     103046 <_Z12command_modePc+0x684>
  10302b:	8b 05 27 20 01 00    	mov    0x12027(%rip),%eax        # 115058 <tick>
  103031:	89 c6                	mov    %eax,%esi
  103033:	48 8d 3d 46 d6 00 00 	lea    0xd646(%rip),%rdi        # 110680 <__rodata+0x680>
  10303a:	b8 00 00 00 00       	mov    $0x0,%eax
  10303f:	e8 cc 97 00 00       	callq  10c810 <_Z7kprintfPKcz>
  103044:	eb 6a                	jmp    1030b0 <_Z12command_modePc+0x6ee>
  103046:	48 8b 45 d8          	mov    -0x28(%rbp),%rax
  10304a:	ba 05 00 00 00       	mov    $0x5,%edx
  10304f:	48 8d 35 4a d6 00 00 	lea    0xd64a(%rip),%rsi        # 1106a0 <__rodata+0x6a0>
  103056:	48 89 c7             	mov    %rax,%rdi
  103059:	e8 cc 01 00 00       	callq  10322a <_Z19check_short_commandPcPKci>
  10305e:	85 c0                	test   %eax,%eax
  103060:	0f 95 c0             	setne  %al
  103063:	84 c0                	test   %al,%al
  103065:	74 1b                	je     103082 <_Z12command_modePc+0x6c0>
  103067:	e8 bb f8 ff ff       	callq  102927 <_Z17get_stack_pointerv>
  10306c:	48 89 c6             	mov    %rax,%rsi
  10306f:	48 8d 3d 30 d6 00 00 	lea    0xd630(%rip),%rdi        # 1106a6 <__rodata+0x6a6>
  103076:	b8 00 00 00 00       	mov    $0x0,%eax
  10307b:	e8 90 97 00 00       	callq  10c810 <_Z7kprintfPKcz>
  103080:	eb 2e                	jmp    1030b0 <_Z12command_modePc+0x6ee>
  103082:	48 8b 45 d8          	mov    -0x28(%rbp),%rax
  103086:	48 89 c7             	mov    %rax,%rdi
  103089:	b8 00 00 00 00       	mov    $0x0,%eax
  10308e:	e8 7d 97 00 00       	callq  10c810 <_Z7kprintfPKcz>
  103093:	eb 1b                	jmp    1030b0 <_Z12command_modePc+0x6ee>
  103095:	48 8b 85 48 ff ff ff 	mov    -0xb8(%rbp),%rax
  10309c:	48 89 c6             	mov    %rax,%rsi
  10309f:	48 8d 3d 16 d6 00 00 	lea    0xd616(%rip),%rdi        # 1106bc <__rodata+0x6bc>
  1030a6:	b8 00 00 00 00       	mov    $0x0,%eax
  1030ab:	e8 60 97 00 00       	callq  10c810 <_Z7kprintfPKcz>
  1030b0:	c7 05 c6 39 01 00 00 	movl   $0x0,0x139c6(%rip)        # 116a80 <_ZL5state>
  1030b7:	00 00 00 
  1030ba:	90                   	nop
  1030bb:	c9                   	leaveq 
  1030bc:	c3                   	retq   

00000000001030bd <_Z15calculator_modePc>:
  1030bd:	f3 0f 1e fa          	endbr64 
  1030c1:	55                   	push   %rbp
  1030c2:	48 89 e5             	mov    %rsp,%rbp
  1030c5:	48 83 ec 10          	sub    $0x10,%rsp
  1030c9:	48 89 7d f8          	mov    %rdi,-0x8(%rbp)
  1030cd:	48 8b 45 f8          	mov    -0x8(%rbp),%rax
  1030d1:	48 8d 35 f2 d5 00 00 	lea    0xd5f2(%rip),%rsi        # 1106ca <__rodata+0x6ca>
  1030d8:	48 89 c7             	mov    %rax,%rdi
  1030db:	e8 19 01 00 00       	callq  1031f9 <_Z13check_commandPcPKc>
  1030e0:	85 c0                	test   %eax,%eax
  1030e2:	0f 95 c0             	setne  %al
  1030e5:	84 c0                	test   %al,%al
  1030e7:	74 20                	je     103109 <_Z15calculator_modePc+0x4c>
  1030e9:	48 8d 3d df d5 00 00 	lea    0xd5df(%rip),%rdi        # 1106cf <__rodata+0x6cf>
  1030f0:	b8 00 00 00 00       	mov    $0x0,%eax
  1030f5:	e8 16 97 00 00       	callq  10c810 <_Z7kprintfPKcz>
  1030fa:	c7 05 7c 39 01 00 00 	movl   $0x0,0x1397c(%rip)        # 116a80 <_ZL5state>
  103101:	00 00 00 
  103104:	e9 ee 00 00 00       	jmpq   1031f7 <_Z15calculator_modePc+0x13a>
  103109:	48 8b 45 f8          	mov    -0x8(%rbp),%rax
  10310d:	ba 03 00 00 00       	mov    $0x3,%edx
  103112:	48 8d 35 d0 d5 00 00 	lea    0xd5d0(%rip),%rsi        # 1106e9 <__rodata+0x6e9>
  103119:	48 89 c7             	mov    %rax,%rdi
  10311c:	e8 09 01 00 00       	callq  10322a <_Z19check_short_commandPcPKci>
  103121:	85 c0                	test   %eax,%eax
  103123:	0f 95 c0             	setne  %al
  103126:	84 c0                	test   %al,%al
  103128:	74 16                	je     103140 <_Z15calculator_modePc+0x83>
  10312a:	48 8d 3d bf d5 00 00 	lea    0xd5bf(%rip),%rdi        # 1106f0 <__rodata+0x6f0>
  103131:	b8 00 00 00 00       	mov    $0x0,%eax
  103136:	e8 d5 96 00 00       	callq  10c810 <_Z7kprintfPKcz>
  10313b:	e9 ad 00 00 00       	jmpq   1031ed <_Z15calculator_modePc+0x130>
  103140:	48 8b 45 f8          	mov    -0x8(%rbp),%rax
  103144:	ba 03 00 00 00       	mov    $0x3,%edx
  103149:	48 8d 35 d1 d5 00 00 	lea    0xd5d1(%rip),%rsi        # 110721 <__rodata+0x721>
  103150:	48 89 c7             	mov    %rax,%rdi
  103153:	e8 d2 00 00 00       	callq  10322a <_Z19check_short_commandPcPKci>
  103158:	85 c0                	test   %eax,%eax
  10315a:	0f 95 c0             	setne  %al
  10315d:	84 c0                	test   %al,%al
  10315f:	74 13                	je     103174 <_Z15calculator_modePc+0xb7>
  103161:	48 8d 3d c0 d5 00 00 	lea    0xd5c0(%rip),%rdi        # 110728 <__rodata+0x728>
  103168:	b8 00 00 00 00       	mov    $0x0,%eax
  10316d:	e8 9e 96 00 00       	callq  10c810 <_Z7kprintfPKcz>
  103172:	eb 79                	jmp    1031ed <_Z15calculator_modePc+0x130>
  103174:	48 8b 45 f8          	mov    -0x8(%rbp),%rax
  103178:	ba 03 00 00 00       	mov    $0x3,%edx
  10317d:	48 8d 35 d5 d5 00 00 	lea    0xd5d5(%rip),%rsi        # 110759 <__rodata+0x759>
  103184:	48 89 c7             	mov    %rax,%rdi
  103187:	e8 9e 00 00 00       	callq  10322a <_Z19check_short_commandPcPKci>
  10318c:	85 c0                	test   %eax,%eax
  10318e:	0f 95 c0             	setne  %al
  103191:	84 c0                	test   %al,%al
  103193:	74 13                	je     1031a8 <_Z15calculator_modePc+0xeb>
  103195:	48 8d 3d c4 d5 00 00 	lea    0xd5c4(%rip),%rdi        # 110760 <__rodata+0x760>
  10319c:	b8 00 00 00 00       	mov    $0x0,%eax
  1031a1:	e8 6a 96 00 00       	callq  10c810 <_Z7kprintfPKcz>
  1031a6:	eb 45                	jmp    1031ed <_Z15calculator_modePc+0x130>
  1031a8:	48 8b 45 f8          	mov    -0x8(%rbp),%rax
  1031ac:	ba 05 00 00 00       	mov    $0x5,%edx
  1031b1:	48 8d 35 d9 d5 00 00 	lea    0xd5d9(%rip),%rsi        # 110791 <__rodata+0x791>
  1031b8:	48 89 c7             	mov    %rax,%rdi
  1031bb:	e8 6a 00 00 00       	callq  10322a <_Z19check_short_commandPcPKci>
  1031c0:	85 c0                	test   %eax,%eax
  1031c2:	0f 95 c0             	setne  %al
  1031c5:	84 c0                	test   %al,%al
  1031c7:	74 13                	je     1031dc <_Z15calculator_modePc+0x11f>
  1031c9:	48 8d 3d c8 d5 00 00 	lea    0xd5c8(%rip),%rdi        # 110798 <__rodata+0x798>
  1031d0:	b8 00 00 00 00       	mov    $0x0,%eax
  1031d5:	e8 36 96 00 00       	callq  10c810 <_Z7kprintfPKcz>
  1031da:	eb 11                	jmp    1031ed <_Z15calculator_modePc+0x130>
  1031dc:	48 8d 3d ed d5 00 00 	lea    0xd5ed(%rip),%rdi        # 1107d0 <__rodata+0x7d0>
  1031e3:	b8 00 00 00 00       	mov    $0x0,%eax
  1031e8:	e8 23 96 00 00       	callq  10c810 <_Z7kprintfPKcz>
  1031ed:	c7 05 89 38 01 00 01 	movl   $0x1,0x13889(%rip)        # 116a80 <_ZL5state>
  1031f4:	00 00 00 
  1031f7:	c9                   	leaveq 
  1031f8:	c3                   	retq   

00000000001031f9 <_Z13check_commandPcPKc>:
  1031f9:	f3 0f 1e fa          	endbr64 
  1031fd:	55                   	push   %rbp
  1031fe:	48 89 e5             	mov    %rsp,%rbp
  103201:	48 83 ec 10          	sub    $0x10,%rsp
  103205:	48 89 7d f8          	mov    %rdi,-0x8(%rbp)
  103209:	48 89 75 f0          	mov    %rsi,-0x10(%rbp)
  10320d:	48 8b 55 f0          	mov    -0x10(%rbp),%rdx
  103211:	48 8b 45 f8          	mov    -0x8(%rbp),%rax
  103215:	48 89 d6             	mov    %rdx,%rsi
  103218:	48 89 c7             	mov    %rax,%rdi
  10321b:	e8 4e 92 00 00       	callq  10c46e <_Z6strcmpPcS_>
  103220:	85 c0                	test   %eax,%eax
  103222:	0f 94 c0             	sete   %al
  103225:	0f b6 c0             	movzbl %al,%eax
  103228:	c9                   	leaveq 
  103229:	c3                   	retq   

000000000010322a <_Z19check_short_commandPcPKci>:
  10322a:	f3 0f 1e fa          	endbr64 
  10322e:	55                   	push   %rbp
  10322f:	48 89 e5             	mov    %rsp,%rbp
  103232:	48 83 ec 28          	sub    $0x28,%rsp
  103236:	48 89 7d e8          	mov    %rdi,-0x18(%rbp)
  10323a:	48 89 75 e0          	mov    %rsi,-0x20(%rbp)
  10323e:	89 55 dc             	mov    %edx,-0x24(%rbp)
  103241:	c7 45 fc 00 00 00 00 	movl   $0x0,-0x4(%rbp)
  103248:	8b 45 fc             	mov    -0x4(%rbp),%eax
  10324b:	48 63 d0             	movslq %eax,%rdx
  10324e:	48 8b 45 e8          	mov    -0x18(%rbp),%rax
  103252:	48 01 d0             	add    %rdx,%rax
  103255:	0f b6 10             	movzbl (%rax),%edx
  103258:	8b 45 fc             	mov    -0x4(%rbp),%eax
  10325b:	48 63 c8             	movslq %eax,%rcx
  10325e:	48 8b 45 e0          	mov    -0x20(%rbp),%rax
  103262:	48 01 c8             	add    %rcx,%rax
  103265:	0f b6 00             	movzbl (%rax),%eax
  103268:	38 c2                	cmp    %al,%dl
  10326a:	75 0e                	jne    10327a <_Z19check_short_commandPcPKci+0x50>
  10326c:	8b 45 fc             	mov    -0x4(%rbp),%eax
  10326f:	3b 45 dc             	cmp    -0x24(%rbp),%eax
  103272:	7d 06                	jge    10327a <_Z19check_short_commandPcPKci+0x50>
  103274:	83 45 fc 01          	addl   $0x1,-0x4(%rbp)
  103278:	eb ce                	jmp    103248 <_Z19check_short_commandPcPKci+0x1e>
  10327a:	8b 45 fc             	mov    -0x4(%rbp),%eax
  10327d:	3b 45 dc             	cmp    -0x24(%rbp),%eax
  103280:	75 07                	jne    103289 <_Z19check_short_commandPcPKci+0x5f>
  103282:	b8 01 00 00 00       	mov    $0x1,%eax
  103287:	eb 05                	jmp    10328e <_Z19check_short_commandPcPKci+0x64>
  103289:	b8 00 00 00 00       	mov    $0x0,%eax
  10328e:	c9                   	leaveq 
  10328f:	c3                   	retq   

0000000000103290 <kernel_main>:
  103290:	f3 0f 1e fa          	endbr64 
  103294:	55                   	push   %rbp
  103295:	48 89 e5             	mov    %rsp,%rbp
  103298:	48 83 ec 10          	sub    $0x10,%rsp
  10329c:	48 89 7d f8          	mov    %rdi,-0x8(%rbp)
  1032a0:	48 8b 45 f8          	mov    -0x8(%rbp),%rax
  1032a4:	48 89 05 e5 37 01 00 	mov    %rax,0x137e5(%rip)        # 116a90 <kInfo>
  1032ab:	48 89 e0             	mov    %rsp,%rax
  1032ae:	48 89 05 d3 37 01 00 	mov    %rax,0x137d3(%rip)        # 116a88 <initial_rsp>
  1032b5:	48 8b 45 f8          	mov    -0x8(%rbp),%rax
  1032b9:	48 89 c7             	mov    %rax,%rdi
  1032bc:	e8 b9 a2 00 00       	callq  10d57a <_Z17InitialiseDisplayP10KernelInfo>
  1032c1:	48 8b 45 f8          	mov    -0x8(%rbp),%rax
  1032c5:	48 89 c7             	mov    %rax,%rdi
  1032c8:	e8 ed a3 00 00       	callq  10d6ba <_Z16InitialiseKernelP10KernelInfo>
  1032cd:	f4                   	hlt    
  1032ce:	eb fd                	jmp    1032cd <kernel_main+0x3d>

00000000001032d0 <_Z9draw_taskv>:
  1032d0:	f3 0f 1e fa          	endbr64 
  1032d4:	55                   	push   %rbp
  1032d5:	48 89 e5             	mov    %rsp,%rbp
  1032d8:	48 83 ec 10          	sub    $0x10,%rsp
  1032dc:	c7 45 fc 00 00 00 00 	movl   $0x0,-0x4(%rbp)
  1032e3:	f4                   	hlt    
  1032e4:	eb fd                	jmp    1032e3 <_Z9draw_taskv+0x13>

00000000001032e6 <_Z11kernel_taskv>:
  1032e6:	f3 0f 1e fa          	endbr64 
  1032ea:	55                   	push   %rbp
  1032eb:	48 89 e5             	mov    %rsp,%rbp
  1032ee:	53                   	push   %rbx
  1032ef:	48 83 ec 08          	sub    $0x8,%rsp
  1032f3:	48 8d 3d 06 d5 00 00 	lea    0xd506(%rip),%rdi        # 110800 <__rodata+0x800>
  1032fa:	b8 00 00 00 00       	mov    $0x0,%eax
  1032ff:	e8 0c 95 00 00       	callq  10c810 <_Z7kprintfPKcz>
  103304:	48 8d 3d 13 d5 00 00 	lea    0xd513(%rip),%rdi        # 11081e <__rodata+0x81e>
  10330b:	b8 00 00 00 00       	mov    $0x0,%eax
  103310:	e8 fb 94 00 00       	callq  10c810 <_Z7kprintfPKcz>
  103315:	48 8d 3d 19 d5 00 00 	lea    0xd519(%rip),%rdi        # 110835 <__rodata+0x835>
  10331c:	b8 00 00 00 00       	mov    $0x0,%eax
  103321:	e8 ea 94 00 00       	callq  10c810 <_Z7kprintfPKcz>
  103326:	bf 40 01 00 00       	mov    $0x140,%edi
  10332b:	e8 5b 06 00 00       	callq  10398b <_Znwm>
  103330:	48 89 c3             	mov    %rax,%rbx
  103333:	48 8d 15 96 ff ff ff 	lea    -0x6a(%rip),%rdx        # 1032d0 <_Z9draw_taskv>
  10333a:	48 8d 35 03 d5 00 00 	lea    0xd503(%rip),%rsi        # 110844 <__rodata+0x844>
  103341:	48 89 df             	mov    %rbx,%rdi
  103344:	e8 c3 82 00 00       	callq  10b60c <_ZN7ProcessC1EPKcPv>
  103349:	48 89 df             	mov    %rbx,%rdi
  10334c:	e8 54 86 00 00       	callq  10b9a5 <_Z10AddProcessP7Process>
  103351:	f4                   	hlt    
  103352:	eb fd                	jmp    103351 <_Z11kernel_taskv+0x6b>

0000000000103354 <_Z10user_inputPc>:
  103354:	f3 0f 1e fa          	endbr64 
  103358:	55                   	push   %rbp
  103359:	48 89 e5             	mov    %rsp,%rbp
  10335c:	48 83 ec 30          	sub    $0x30,%rsp
  103360:	48 89 7d d8          	mov    %rdi,-0x28(%rbp)
  103364:	48 8b 45 d8          	mov    -0x28(%rbp),%rax
  103368:	48 8d 35 da d4 00 00 	lea    0xd4da(%rip),%rsi        # 110849 <__rodata+0x849>
  10336f:	48 89 c7             	mov    %rax,%rdi
  103372:	e8 f7 90 00 00       	callq  10c46e <_Z6strcmpPcS_>
  103377:	85 c0                	test   %eax,%eax
  103379:	0f 94 c0             	sete   %al
  10337c:	84 c0                	test   %al,%al
  10337e:	74 48                	je     1033c8 <_Z10user_inputPc+0x74>
  103380:	48 8d 3d cb d4 00 00 	lea    0xd4cb(%rip),%rdi        # 110852 <__rodata+0x852>
  103387:	b8 00 00 00 00       	mov    $0x0,%eax
  10338c:	e8 7f 94 00 00       	callq  10c810 <_Z7kprintfPKcz>
  103391:	48 8b 05 f8 36 01 00 	mov    0x136f8(%rip),%rax        # 116a90 <kInfo>
  103398:	48 8b 40 30          	mov    0x30(%rax),%rax
  10339c:	48 89 45 f0          	mov    %rax,-0x10(%rbp)
  1033a0:	48 8b 45 f0          	mov    -0x10(%rbp),%rax
  1033a4:	48 8d 35 bf d4 00 00 	lea    0xd4bf(%rip),%rsi        # 11086a <__rodata+0x86a>
  1033ab:	48 89 c7             	mov    %rax,%rdi
  1033ae:	e8 2b 14 00 00       	callq  1047de <_ZN4ACPI4RSDP14GetSystemTableEPKc>
  1033b3:	48 89 45 e8          	mov    %rax,-0x18(%rbp)
  1033b7:	48 8b 45 e8          	mov    -0x18(%rbp),%rax
  1033bb:	48 89 c7             	mov    %rax,%rdi
  1033be:	e8 7b 17 00 00       	callq  104b3e <_ZN4ACPI4FADT8ShutdownEv>
  1033c3:	e9 cf 00 00 00       	jmpq   103497 <_Z10user_inputPc+0x143>
  1033c8:	48 8b 45 d8          	mov    -0x28(%rbp),%rax
  1033cc:	48 8d 35 9c d4 00 00 	lea    0xd49c(%rip),%rsi        # 11086f <__rodata+0x86f>
  1033d3:	48 89 c7             	mov    %rax,%rdi
  1033d6:	e8 93 90 00 00       	callq  10c46e <_Z6strcmpPcS_>
  1033db:	85 c0                	test   %eax,%eax
  1033dd:	0f 94 c0             	sete   %al
  1033e0:	84 c0                	test   %al,%al
  1033e2:	0f 84 a3 00 00 00    	je     10348b <_Z10user_inputPc+0x137>
  1033e8:	48 8d 3d 88 d4 00 00 	lea    0xd488(%rip),%rdi        # 110877 <__rodata+0x877>
  1033ef:	b8 00 00 00 00       	mov    $0x0,%eax
  1033f4:	e8 17 94 00 00       	callq  10c810 <_Z7kprintfPKcz>
  1033f9:	48 8b 45 d8          	mov    -0x28(%rbp),%rax
  1033fd:	ba ff 00 00 00       	mov    $0xff,%edx
  103402:	be 00 00 00 00       	mov    $0x0,%esi
  103407:	48 89 c7             	mov    %rax,%rdi
  10340a:	e8 40 98 00 00       	callq  10cc4f <_Z6memsetPvim>
  10340f:	bf 64 00 00 00       	mov    $0x64,%edi
  103414:	e8 99 e3 ff ff       	callq  1017b2 <_Z5__inbt>
  103419:	0f b6 c0             	movzbl %al,%eax
  10341c:	89 45 fc             	mov    %eax,-0x4(%rbp)
  10341f:	8b 45 fc             	mov    -0x4(%rbp),%eax
  103422:	83 e0 01             	and    $0x1,%eax
  103425:	85 c0                	test   %eax,%eax
  103427:	74 0b                	je     103434 <_Z10user_inputPc+0xe0>
  103429:	bf 60 00 00 00       	mov    $0x60,%edi
  10342e:	e8 7f e3 ff ff       	callq  1017b2 <_Z5__inbt>
  103433:	90                   	nop
  103434:	8b 45 fc             	mov    -0x4(%rbp),%eax
  103437:	83 e0 02             	and    $0x2,%eax
  10343a:	85 c0                	test   %eax,%eax
  10343c:	74 02                	je     103440 <_Z10user_inputPc+0xec>
  10343e:	eb cf                	jmp    10340f <_Z10user_inputPc+0xbb>
  103440:	be 8f 00 00 00       	mov    $0x8f,%esi
  103445:	bf 70 00 00 00       	mov    $0x70,%edi
  10344a:	e8 c6 e3 ff ff       	callq  101815 <_Z6__outbth>
  10344f:	be 00 00 00 00       	mov    $0x0,%esi
  103454:	bf 71 00 00 00       	mov    $0x71,%edi
  103459:	e8 b7 e3 ff ff       	callq  101815 <_Z6__outbth>
  10345e:	be 00 00 00 00       	mov    $0x0,%esi
  103463:	bf 70 00 00 00       	mov    $0x70,%edi
  103468:	e8 a8 e3 ff ff       	callq  101815 <_Z6__outbth>
  10346d:	bf 92 00 00 00       	mov    $0x92,%edi
  103472:	e8 3b e3 ff ff       	callq  1017b2 <_Z5__inbt>
  103477:	83 c8 01             	or     $0x1,%eax
  10347a:	0f b6 c0             	movzbl %al,%eax
  10347d:	89 c6                	mov    %eax,%esi
  10347f:	bf 92 00 00 00       	mov    $0x92,%edi
  103484:	e8 8c e3 ff ff       	callq  101815 <_Z6__outbth>
  103489:	eb 0c                	jmp    103497 <_Z10user_inputPc+0x143>
  10348b:	48 8b 45 d8          	mov    -0x28(%rbp),%rax
  10348f:	48 89 c7             	mov    %rax,%rdi
  103492:	e8 d4 f4 ff ff       	callq  10296b <_Z13shell_commandPc>
  103497:	90                   	nop
  103498:	c9                   	leaveq 
  103499:	c3                   	retq   

000000000010349a <__cxa_pure_virtual>:
  10349a:	f3 0f 1e fa          	endbr64 
  10349e:	55                   	push   %rbp
  10349f:	48 89 e5             	mov    %rsp,%rbp
  1034a2:	48 8d 3d ef d3 00 00 	lea    0xd3ef(%rip),%rdi        # 110898 <__rodata+0x898>
  1034a9:	b8 00 00 00 00       	mov    $0x0,%eax
  1034ae:	e8 5d 93 00 00       	callq  10c810 <_Z7kprintfPKcz>
  1034b3:	90                   	nop
  1034b4:	5d                   	pop    %rbp
  1034b5:	c3                   	retq   

00000000001034b6 <__stack_chk_fail>:
  1034b6:	f3 0f 1e fa          	endbr64 
  1034ba:	55                   	push   %rbp
  1034bb:	48 89 e5             	mov    %rsp,%rbp
  1034be:	48 8d 3d fb d3 00 00 	lea    0xd3fb(%rip),%rdi        # 1108c0 <__rodata+0x8c0>
  1034c5:	b8 00 00 00 00       	mov    $0x0,%eax
  1034ca:	e8 41 93 00 00       	callq  10c810 <_Z7kprintfPKcz>
  1034cf:	90                   	nop
  1034d0:	5d                   	pop    %rbp
  1034d1:	c3                   	retq   

00000000001034d2 <_Z14InitialiseHeapPvm>:
  1034d2:	f3 0f 1e fa          	endbr64 
  1034d6:	55                   	push   %rbp
  1034d7:	48 89 e5             	mov    %rsp,%rbp
  1034da:	48 83 ec 30          	sub    $0x30,%rsp
  1034de:	48 89 7d d8          	mov    %rdi,-0x28(%rbp)
  1034e2:	48 89 75 d0          	mov    %rsi,-0x30(%rbp)
  1034e6:	48 8b 45 d8          	mov    -0x28(%rbp),%rax
  1034ea:	48 89 45 f8          	mov    %rax,-0x8(%rbp)
  1034ee:	48 c7 45 f0 00 00 00 	movq   $0x0,-0x10(%rbp)
  1034f5:	00 
  1034f6:	48 8b 45 f0          	mov    -0x10(%rbp),%rax
  1034fa:	48 3b 45 d0          	cmp    -0x30(%rbp),%rax
  1034fe:	73 3d                	jae    10353d <_Z14InitialiseHeapPvm+0x6b>
  103500:	e8 1d e0 ff ff       	callq  101522 <_ZN18PageFrameAllocator15SharedAllocatorEv>
  103505:	48 89 c7             	mov    %rax,%rdi
  103508:	e8 69 dd ff ff       	callq  101276 <_ZN18PageFrameAllocator11RequestPageEv>
  10350d:	48 89 c2             	mov    %rax,%rdx
  103510:	48 8b 45 f8          	mov    -0x8(%rbp),%rax
  103514:	b9 03 00 00 00       	mov    $0x3,%ecx
  103519:	48 89 c6             	mov    %rax,%rsi
  10351c:	48 8d 3d 25 1b 01 00 	lea    0x11b25(%rip),%rdi        # 115048 <KernelDirectory>
  103523:	e8 ae cb ff ff       	callq  1000d6 <_ZN16PageTableManager9MapMemoryEmmm>
  103528:	48 8b 45 f8          	mov    -0x8(%rbp),%rax
  10352c:	48 05 00 10 00 00    	add    $0x1000,%rax
  103532:	48 89 45 f8          	mov    %rax,-0x8(%rbp)
  103536:	48 83 45 f0 01       	addq   $0x1,-0x10(%rbp)
  10353b:	eb b9                	jmp    1034f6 <_Z14InitialiseHeapPvm+0x24>
  10353d:	48 8b 45 d0          	mov    -0x30(%rbp),%rax
  103541:	48 c1 e0 0c          	shl    $0xc,%rax
  103545:	48 89 45 e8          	mov    %rax,-0x18(%rbp)
  103549:	48 8b 45 d8          	mov    -0x28(%rbp),%rax
  10354d:	48 89 05 4c 35 01 00 	mov    %rax,0x1354c(%rip)        # 116aa0 <heapStart>
  103554:	48 8b 55 d8          	mov    -0x28(%rbp),%rdx
  103558:	48 8b 45 e8          	mov    -0x18(%rbp),%rax
  10355c:	48 01 d0             	add    %rdx,%rax
  10355f:	48 89 05 42 35 01 00 	mov    %rax,0x13542(%rip)        # 116aa8 <heapEnd>
  103566:	48 8b 45 d8          	mov    -0x28(%rbp),%rax
  10356a:	48 89 45 e0          	mov    %rax,-0x20(%rbp)
  10356e:	48 8b 45 e8          	mov    -0x18(%rbp),%rax
  103572:	48 8d 50 e0          	lea    -0x20(%rax),%rdx
  103576:	48 8b 45 e0          	mov    -0x20(%rbp),%rax
  10357a:	48 89 10             	mov    %rdx,(%rax)
  10357d:	48 8b 45 e0          	mov    -0x20(%rbp),%rax
  103581:	48 c7 40 08 00 00 00 	movq   $0x0,0x8(%rax)
  103588:	00 
  103589:	48 8b 45 e0          	mov    -0x20(%rbp),%rax
  10358d:	48 c7 40 10 00 00 00 	movq   $0x0,0x10(%rax)
  103594:	00 
  103595:	48 8b 45 e0          	mov    -0x20(%rbp),%rax
  103599:	c6 40 18 01          	movb   $0x1,0x18(%rax)
  10359d:	48 8b 45 e0          	mov    -0x20(%rbp),%rax
  1035a1:	48 89 05 08 35 01 00 	mov    %rax,0x13508(%rip)        # 116ab0 <LastHdr>
  1035a8:	c6 05 69 43 01 00 01 	movb   $0x1,0x14369(%rip)        # 117918 <heap_init>
  1035af:	90                   	nop
  1035b0:	c9                   	leaveq 
  1035b1:	c3                   	retq   

00000000001035b2 <_Z5allocm>:
  1035b2:	f3 0f 1e fa          	endbr64 
  1035b6:	55                   	push   %rbp
  1035b7:	48 89 e5             	mov    %rsp,%rbp
  1035ba:	48 83 ec 20          	sub    $0x20,%rsp
  1035be:	48 89 7d e8          	mov    %rdi,-0x18(%rbp)
  1035c2:	48 8b 45 e8          	mov    -0x18(%rbp),%rax
  1035c6:	83 e0 0f             	and    $0xf,%eax
  1035c9:	48 85 c0             	test   %rax,%rax
  1035cc:	74 0a                	je     1035d8 <_Z5allocm+0x26>
  1035ce:	48 83 65 e8 f0       	andq   $0xfffffffffffffff0,-0x18(%rbp)
  1035d3:	48 83 45 e8 10       	addq   $0x10,-0x18(%rbp)
  1035d8:	48 83 7d e8 00       	cmpq   $0x0,-0x18(%rbp)
  1035dd:	75 0a                	jne    1035e9 <_Z5allocm+0x37>
  1035df:	b8 00 00 00 00       	mov    $0x0,%eax
  1035e4:	e9 9d 00 00 00       	jmpq   103686 <_Z5allocm+0xd4>
  1035e9:	48 8b 05 b0 34 01 00 	mov    0x134b0(%rip),%rax        # 116aa0 <heapStart>
  1035f0:	48 89 45 f8          	mov    %rax,-0x8(%rbp)
  1035f4:	48 8b 45 f8          	mov    -0x8(%rbp),%rax
  1035f8:	0f b6 40 18          	movzbl 0x18(%rax),%eax
  1035fc:	84 c0                	test   %al,%al
  1035fe:	74 51                	je     103651 <_Z5allocm+0x9f>
  103600:	48 8b 45 f8          	mov    -0x8(%rbp),%rax
  103604:	48 8b 00             	mov    (%rax),%rax
  103607:	48 39 45 e8          	cmp    %rax,-0x18(%rbp)
  10360b:	73 25                	jae    103632 <_Z5allocm+0x80>
  10360d:	48 8b 55 e8          	mov    -0x18(%rbp),%rdx
  103611:	48 8b 45 f8          	mov    -0x8(%rbp),%rax
  103615:	48 89 d6             	mov    %rdx,%rsi
  103618:	48 89 c7             	mov    %rax,%rdi
  10361b:	e8 94 02 00 00       	callq  1038b4 <_ZN17HeapSegmentHeader5SplitEm>
  103620:	48 8b 45 f8          	mov    -0x8(%rbp),%rax
  103624:	c6 40 18 00          	movb   $0x0,0x18(%rax)
  103628:	48 8b 45 f8          	mov    -0x8(%rbp),%rax
  10362c:	48 83 c0 20          	add    $0x20,%rax
  103630:	eb 54                	jmp    103686 <_Z5allocm+0xd4>
  103632:	48 8b 45 f8          	mov    -0x8(%rbp),%rax
  103636:	48 8b 00             	mov    (%rax),%rax
  103639:	48 39 45 e8          	cmp    %rax,-0x18(%rbp)
  10363d:	75 12                	jne    103651 <_Z5allocm+0x9f>
  10363f:	48 8b 45 f8          	mov    -0x8(%rbp),%rax
  103643:	c6 40 18 00          	movb   $0x0,0x18(%rax)
  103647:	48 8b 45 f8          	mov    -0x8(%rbp),%rax
  10364b:	48 83 c0 20          	add    $0x20,%rax
  10364f:	eb 35                	jmp    103686 <_Z5allocm+0xd4>
  103651:	48 8b 45 f8          	mov    -0x8(%rbp),%rax
  103655:	48 8b 40 08          	mov    0x8(%rax),%rax
  103659:	48 85 c0             	test   %rax,%rax
  10365c:	74 0e                	je     10366c <_Z5allocm+0xba>
  10365e:	48 8b 45 f8          	mov    -0x8(%rbp),%rax
  103662:	48 8b 40 08          	mov    0x8(%rax),%rax
  103666:	48 89 45 f8          	mov    %rax,-0x8(%rbp)
  10366a:	eb 88                	jmp    1035f4 <_Z5allocm+0x42>
  10366c:	90                   	nop
  10366d:	48 8b 45 e8          	mov    -0x18(%rbp),%rax
  103671:	48 89 c7             	mov    %rax,%rdi
  103674:	e8 4e 00 00 00       	callq  1036c7 <_Z10ExpandHeapm>
  103679:	48 8b 45 e8          	mov    -0x18(%rbp),%rax
  10367d:	48 89 c7             	mov    %rax,%rdi
  103680:	e8 2d ff ff ff       	callq  1035b2 <_Z5allocm>
  103685:	90                   	nop
  103686:	c9                   	leaveq 
  103687:	c3                   	retq   

0000000000103688 <_Z4freePv>:
  103688:	f3 0f 1e fa          	endbr64 
  10368c:	55                   	push   %rbp
  10368d:	48 89 e5             	mov    %rsp,%rbp
  103690:	48 83 ec 20          	sub    $0x20,%rsp
  103694:	48 89 7d e8          	mov    %rdi,-0x18(%rbp)
  103698:	48 8b 45 e8          	mov    -0x18(%rbp),%rax
  10369c:	48 83 e8 20          	sub    $0x20,%rax
  1036a0:	48 89 45 f8          	mov    %rax,-0x8(%rbp)
  1036a4:	48 8b 45 f8          	mov    -0x8(%rbp),%rax
  1036a8:	c6 40 18 01          	movb   $0x1,0x18(%rax)
  1036ac:	48 8b 45 f8          	mov    -0x8(%rbp),%rax
  1036b0:	48 89 c7             	mov    %rax,%rdi
  1036b3:	e8 08 01 00 00       	callq  1037c0 <_ZN17HeapSegmentHeader14CombineForwardEv>
  1036b8:	48 8b 45 f8          	mov    -0x8(%rbp),%rax
  1036bc:	48 89 c7             	mov    %rax,%rdi
  1036bf:	e8 b0 01 00 00       	callq  103874 <_ZN17HeapSegmentHeader15CombineBackwardEv>
  1036c4:	90                   	nop
  1036c5:	c9                   	leaveq 
  1036c6:	c3                   	retq   

00000000001036c7 <_Z10ExpandHeapm>:
  1036c7:	f3 0f 1e fa          	endbr64 
  1036cb:	55                   	push   %rbp
  1036cc:	48 89 e5             	mov    %rsp,%rbp
  1036cf:	48 83 ec 30          	sub    $0x30,%rsp
  1036d3:	48 89 7d d8          	mov    %rdi,-0x28(%rbp)
  1036d7:	48 8b 45 d8          	mov    -0x28(%rbp),%rax
  1036db:	25 ff 0f 00 00       	and    $0xfff,%eax
  1036e0:	48 85 c0             	test   %rax,%rax
  1036e3:	74 10                	je     1036f5 <_Z10ExpandHeapm+0x2e>
  1036e5:	48 81 65 d8 00 f0 ff 	andq   $0xfffffffffffff000,-0x28(%rbp)
  1036ec:	ff 
  1036ed:	48 81 45 d8 00 10 00 	addq   $0x1000,-0x28(%rbp)
  1036f4:	00 
  1036f5:	48 8b 45 d8          	mov    -0x28(%rbp),%rax
  1036f9:	48 c1 e8 0c          	shr    $0xc,%rax
  1036fd:	48 89 45 f0          	mov    %rax,-0x10(%rbp)
  103701:	48 8b 05 a0 33 01 00 	mov    0x133a0(%rip),%rax        # 116aa8 <heapEnd>
  103708:	48 89 45 e8          	mov    %rax,-0x18(%rbp)
  10370c:	48 c7 45 f8 00 00 00 	movq   $0x0,-0x8(%rbp)
  103713:	00 
  103714:	48 8b 45 f8          	mov    -0x8(%rbp),%rax
  103718:	48 3b 45 f0          	cmp    -0x10(%rbp),%rax
  10371c:	73 46                	jae    103764 <_Z10ExpandHeapm+0x9d>
  10371e:	e8 ff dd ff ff       	callq  101522 <_ZN18PageFrameAllocator15SharedAllocatorEv>
  103723:	48 89 c7             	mov    %rax,%rdi
  103726:	e8 4b db ff ff       	callq  101276 <_ZN18PageFrameAllocator11RequestPageEv>
  10372b:	48 89 c2             	mov    %rax,%rdx
  10372e:	48 8b 05 73 33 01 00 	mov    0x13373(%rip),%rax        # 116aa8 <heapEnd>
  103735:	b9 03 00 00 00       	mov    $0x3,%ecx
  10373a:	48 89 c6             	mov    %rax,%rsi
  10373d:	48 8d 3d 04 19 01 00 	lea    0x11904(%rip),%rdi        # 115048 <KernelDirectory>
  103744:	e8 8d c9 ff ff       	callq  1000d6 <_ZN16PageTableManager9MapMemoryEmmm>
  103749:	48 8b 05 58 33 01 00 	mov    0x13358(%rip),%rax        # 116aa8 <heapEnd>
  103750:	48 05 00 10 00 00    	add    $0x1000,%rax
  103756:	48 89 05 4b 33 01 00 	mov    %rax,0x1334b(%rip)        # 116aa8 <heapEnd>
  10375d:	48 83 45 f8 01       	addq   $0x1,-0x8(%rbp)
  103762:	eb b0                	jmp    103714 <_Z10ExpandHeapm+0x4d>
  103764:	48 8b 45 e8          	mov    -0x18(%rbp),%rax
  103768:	c6 40 18 01          	movb   $0x1,0x18(%rax)
  10376c:	48 8b 15 3d 33 01 00 	mov    0x1333d(%rip),%rdx        # 116ab0 <LastHdr>
  103773:	48 8b 45 e8          	mov    -0x18(%rbp),%rax
  103777:	48 89 50 10          	mov    %rdx,0x10(%rax)
  10377b:	48 8b 05 2e 33 01 00 	mov    0x1332e(%rip),%rax        # 116ab0 <LastHdr>
  103782:	48 8b 55 e8          	mov    -0x18(%rbp),%rdx
  103786:	48 89 50 08          	mov    %rdx,0x8(%rax)
  10378a:	48 8b 45 e8          	mov    -0x18(%rbp),%rax
  10378e:	48 89 05 1b 33 01 00 	mov    %rax,0x1331b(%rip)        # 116ab0 <LastHdr>
  103795:	48 8b 45 e8          	mov    -0x18(%rbp),%rax
  103799:	48 c7 40 08 00 00 00 	movq   $0x0,0x8(%rax)
  1037a0:	00 
  1037a1:	48 8b 45 d8          	mov    -0x28(%rbp),%rax
  1037a5:	48 8d 50 e0          	lea    -0x20(%rax),%rdx
  1037a9:	48 8b 45 e8          	mov    -0x18(%rbp),%rax
  1037ad:	48 89 10             	mov    %rdx,(%rax)
  1037b0:	48 8b 45 e8          	mov    -0x18(%rbp),%rax
  1037b4:	48 89 c7             	mov    %rax,%rdi
  1037b7:	e8 b8 00 00 00       	callq  103874 <_ZN17HeapSegmentHeader15CombineBackwardEv>
  1037bc:	90                   	nop
  1037bd:	c9                   	leaveq 
  1037be:	c3                   	retq   
  1037bf:	90                   	nop

00000000001037c0 <_ZN17HeapSegmentHeader14CombineForwardEv>:
  1037c0:	f3 0f 1e fa          	endbr64 
  1037c4:	55                   	push   %rbp
  1037c5:	48 89 e5             	mov    %rsp,%rbp
  1037c8:	48 83 ec 08          	sub    $0x8,%rsp
  1037cc:	48 89 7d f8          	mov    %rdi,-0x8(%rbp)
  1037d0:	48 8b 45 f8          	mov    -0x8(%rbp),%rax
  1037d4:	48 8b 40 08          	mov    0x8(%rax),%rax
  1037d8:	48 85 c0             	test   %rax,%rax
  1037db:	0f 84 8d 00 00 00    	je     10386e <_ZN17HeapSegmentHeader14CombineForwardEv+0xae>
  1037e1:	48 8b 45 f8          	mov    -0x8(%rbp),%rax
  1037e5:	48 8b 40 08          	mov    0x8(%rax),%rax
  1037e9:	0f b6 40 18          	movzbl 0x18(%rax),%eax
  1037ed:	83 f0 01             	xor    $0x1,%eax
  1037f0:	84 c0                	test   %al,%al
  1037f2:	75 7d                	jne    103871 <_ZN17HeapSegmentHeader14CombineForwardEv+0xb1>
  1037f4:	48 8b 45 f8          	mov    -0x8(%rbp),%rax
  1037f8:	48 8b 50 08          	mov    0x8(%rax),%rdx
  1037fc:	48 8b 05 ad 32 01 00 	mov    0x132ad(%rip),%rax        # 116ab0 <LastHdr>
  103803:	48 39 c2             	cmp    %rax,%rdx
  103806:	75 0b                	jne    103813 <_ZN17HeapSegmentHeader14CombineForwardEv+0x53>
  103808:	48 8b 45 f8          	mov    -0x8(%rbp),%rax
  10380c:	48 89 05 9d 32 01 00 	mov    %rax,0x1329d(%rip)        # 116ab0 <LastHdr>
  103813:	48 8b 45 f8          	mov    -0x8(%rbp),%rax
  103817:	48 8b 40 08          	mov    0x8(%rax),%rax
  10381b:	48 8b 40 08          	mov    0x8(%rax),%rax
  10381f:	48 85 c0             	test   %rax,%rax
  103822:	74 14                	je     103838 <_ZN17HeapSegmentHeader14CombineForwardEv+0x78>
  103824:	48 8b 45 f8          	mov    -0x8(%rbp),%rax
  103828:	48 8b 40 08          	mov    0x8(%rax),%rax
  10382c:	48 8b 40 08          	mov    0x8(%rax),%rax
  103830:	48 8b 55 f8          	mov    -0x8(%rbp),%rdx
  103834:	48 89 50 10          	mov    %rdx,0x10(%rax)
  103838:	48 8b 45 f8          	mov    -0x8(%rbp),%rax
  10383c:	48 8b 10             	mov    (%rax),%rdx
  10383f:	48 8b 45 f8          	mov    -0x8(%rbp),%rax
  103843:	48 8b 40 08          	mov    0x8(%rax),%rax
  103847:	48 8b 00             	mov    (%rax),%rax
  10384a:	48 01 d0             	add    %rdx,%rax
  10384d:	48 8d 50 20          	lea    0x20(%rax),%rdx
  103851:	48 8b 45 f8          	mov    -0x8(%rbp),%rax
  103855:	48 89 10             	mov    %rdx,(%rax)
  103858:	48 8b 45 f8          	mov    -0x8(%rbp),%rax
  10385c:	48 8b 40 08          	mov    0x8(%rax),%rax
  103860:	48 8b 50 08          	mov    0x8(%rax),%rdx
  103864:	48 8b 45 f8          	mov    -0x8(%rbp),%rax
  103868:	48 89 50 08          	mov    %rdx,0x8(%rax)
  10386c:	eb 04                	jmp    103872 <_ZN17HeapSegmentHeader14CombineForwardEv+0xb2>
  10386e:	90                   	nop
  10386f:	eb 01                	jmp    103872 <_ZN17HeapSegmentHeader14CombineForwardEv+0xb2>
  103871:	90                   	nop
  103872:	c9                   	leaveq 
  103873:	c3                   	retq   

0000000000103874 <_ZN17HeapSegmentHeader15CombineBackwardEv>:
  103874:	f3 0f 1e fa          	endbr64 
  103878:	55                   	push   %rbp
  103879:	48 89 e5             	mov    %rsp,%rbp
  10387c:	48 83 ec 08          	sub    $0x8,%rsp
  103880:	48 89 7d f8          	mov    %rdi,-0x8(%rbp)
  103884:	48 8b 45 f8          	mov    -0x8(%rbp),%rax
  103888:	48 8b 40 10          	mov    0x10(%rax),%rax
  10388c:	48 85 c0             	test   %rax,%rax
  10388f:	74 20                	je     1038b1 <_ZN17HeapSegmentHeader15CombineBackwardEv+0x3d>
  103891:	48 8b 45 f8          	mov    -0x8(%rbp),%rax
  103895:	48 8b 40 10          	mov    0x10(%rax),%rax
  103899:	0f b6 40 18          	movzbl 0x18(%rax),%eax
  10389d:	84 c0                	test   %al,%al
  10389f:	74 10                	je     1038b1 <_ZN17HeapSegmentHeader15CombineBackwardEv+0x3d>
  1038a1:	48 8b 45 f8          	mov    -0x8(%rbp),%rax
  1038a5:	48 8b 40 10          	mov    0x10(%rax),%rax
  1038a9:	48 89 c7             	mov    %rax,%rdi
  1038ac:	e8 0f ff ff ff       	callq  1037c0 <_ZN17HeapSegmentHeader14CombineForwardEv>
  1038b1:	90                   	nop
  1038b2:	c9                   	leaveq 
  1038b3:	c3                   	retq   

00000000001038b4 <_ZN17HeapSegmentHeader5SplitEm>:
  1038b4:	f3 0f 1e fa          	endbr64 
  1038b8:	55                   	push   %rbp
  1038b9:	48 89 e5             	mov    %rsp,%rbp
  1038bc:	48 83 ec 20          	sub    $0x20,%rsp
  1038c0:	48 89 7d e8          	mov    %rdi,-0x18(%rbp)
  1038c4:	48 89 75 e0          	mov    %rsi,-0x20(%rbp)
  1038c8:	48 83 7d e0 0f       	cmpq   $0xf,-0x20(%rbp)
  1038cd:	77 0a                	ja     1038d9 <_ZN17HeapSegmentHeader5SplitEm+0x25>
  1038cf:	b8 00 00 00 00       	mov    $0x0,%eax
  1038d4:	e9 b0 00 00 00       	jmpq   103989 <_ZN17HeapSegmentHeader5SplitEm+0xd5>
  1038d9:	48 8b 45 e8          	mov    -0x18(%rbp),%rax
  1038dd:	48 8b 00             	mov    (%rax),%rax
  1038e0:	48 2b 45 e0          	sub    -0x20(%rbp),%rax
  1038e4:	48 83 e8 20          	sub    $0x20,%rax
  1038e8:	48 89 45 f8          	mov    %rax,-0x8(%rbp)
  1038ec:	48 83 7d f8 0f       	cmpq   $0xf,-0x8(%rbp)
  1038f1:	7f 0a                	jg     1038fd <_ZN17HeapSegmentHeader5SplitEm+0x49>
  1038f3:	b8 00 00 00 00       	mov    $0x0,%eax
  1038f8:	e9 8c 00 00 00       	jmpq   103989 <_ZN17HeapSegmentHeader5SplitEm+0xd5>
  1038fd:	48 8b 55 e8          	mov    -0x18(%rbp),%rdx
  103901:	48 8b 45 e0          	mov    -0x20(%rbp),%rax
  103905:	48 01 d0             	add    %rdx,%rax
  103908:	48 83 c0 20          	add    $0x20,%rax
  10390c:	48 89 45 f0          	mov    %rax,-0x10(%rbp)
  103910:	48 8b 45 e8          	mov    -0x18(%rbp),%rax
  103914:	48 8b 40 08          	mov    0x8(%rax),%rax
  103918:	48 8b 55 f0          	mov    -0x10(%rbp),%rdx
  10391c:	48 89 50 10          	mov    %rdx,0x10(%rax)
  103920:	48 8b 45 e8          	mov    -0x18(%rbp),%rax
  103924:	48 8b 50 08          	mov    0x8(%rax),%rdx
  103928:	48 8b 45 f0          	mov    -0x10(%rbp),%rax
  10392c:	48 89 50 08          	mov    %rdx,0x8(%rax)
  103930:	48 8b 45 e8          	mov    -0x18(%rbp),%rax
  103934:	48 8b 55 f0          	mov    -0x10(%rbp),%rdx
  103938:	48 89 50 08          	mov    %rdx,0x8(%rax)
  10393c:	48 8b 45 f0          	mov    -0x10(%rbp),%rax
  103940:	48 8b 55 e8          	mov    -0x18(%rbp),%rdx
  103944:	48 89 50 10          	mov    %rdx,0x10(%rax)
  103948:	48 8b 55 f8          	mov    -0x8(%rbp),%rdx
  10394c:	48 8b 45 f0          	mov    -0x10(%rbp),%rax
  103950:	48 89 10             	mov    %rdx,(%rax)
  103953:	48 8b 45 e8          	mov    -0x18(%rbp),%rax
  103957:	0f b6 50 18          	movzbl 0x18(%rax),%edx
  10395b:	48 8b 45 f0          	mov    -0x10(%rbp),%rax
  10395f:	88 50 18             	mov    %dl,0x18(%rax)
  103962:	48 8b 45 e8          	mov    -0x18(%rbp),%rax
  103966:	48 8b 55 e0          	mov    -0x20(%rbp),%rdx
  10396a:	48 89 10             	mov    %rdx,(%rax)
  10396d:	48 8b 05 3c 31 01 00 	mov    0x1313c(%rip),%rax        # 116ab0 <LastHdr>
  103974:	48 39 45 e8          	cmp    %rax,-0x18(%rbp)
  103978:	75 0b                	jne    103985 <_ZN17HeapSegmentHeader5SplitEm+0xd1>
  10397a:	48 8b 45 f0          	mov    -0x10(%rbp),%rax
  10397e:	48 89 05 2b 31 01 00 	mov    %rax,0x1312b(%rip)        # 116ab0 <LastHdr>
  103985:	48 8b 45 f0          	mov    -0x10(%rbp),%rax
  103989:	c9                   	leaveq 
  10398a:	c3                   	retq   

000000000010398b <_Znwm>:
  10398b:	f3 0f 1e fa          	endbr64 
  10398f:	55                   	push   %rbp
  103990:	48 89 e5             	mov    %rsp,%rbp
  103993:	48 83 ec 10          	sub    $0x10,%rsp
  103997:	48 89 7d f8          	mov    %rdi,-0x8(%rbp)
  10399b:	48 8b 45 f8          	mov    -0x8(%rbp),%rax
  10399f:	48 89 c7             	mov    %rax,%rdi
  1039a2:	e8 bf 94 00 00       	callq  10ce66 <_Z7kmallocm>
  1039a7:	c9                   	leaveq 
  1039a8:	c3                   	retq   

00000000001039a9 <_Znam>:
  1039a9:	f3 0f 1e fa          	endbr64 
  1039ad:	55                   	push   %rbp
  1039ae:	48 89 e5             	mov    %rsp,%rbp
  1039b1:	48 83 ec 10          	sub    $0x10,%rsp
  1039b5:	48 89 7d f8          	mov    %rdi,-0x8(%rbp)
  1039b9:	48 8b 45 f8          	mov    -0x8(%rbp),%rax
  1039bd:	48 89 c7             	mov    %rax,%rdi
  1039c0:	e8 a1 94 00 00       	callq  10ce66 <_Z7kmallocm>
  1039c5:	c9                   	leaveq 
  1039c6:	c3                   	retq   

00000000001039c7 <_ZdlPv>:
  1039c7:	f3 0f 1e fa          	endbr64 
  1039cb:	55                   	push   %rbp
  1039cc:	48 89 e5             	mov    %rsp,%rbp
  1039cf:	48 83 ec 10          	sub    $0x10,%rsp
  1039d3:	48 89 7d f8          	mov    %rdi,-0x8(%rbp)
  1039d7:	48 8b 45 f8          	mov    -0x8(%rbp),%rax
  1039db:	48 89 c7             	mov    %rax,%rdi
  1039de:	e8 db 93 00 00       	callq  10cdbe <_Z5kfreePv>
  1039e3:	90                   	nop
  1039e4:	c9                   	leaveq 
  1039e5:	c3                   	retq   

00000000001039e6 <_ZdaPv>:
  1039e6:	f3 0f 1e fa          	endbr64 
  1039ea:	55                   	push   %rbp
  1039eb:	48 89 e5             	mov    %rsp,%rbp
  1039ee:	48 83 ec 10          	sub    $0x10,%rsp
  1039f2:	48 89 7d f8          	mov    %rdi,-0x8(%rbp)
  1039f6:	48 8b 45 f8          	mov    -0x8(%rbp),%rax
  1039fa:	48 89 c7             	mov    %rax,%rdi
  1039fd:	e8 bc 93 00 00       	callq  10cdbe <_Z5kfreePv>
  103a02:	90                   	nop
  103a03:	c9                   	leaveq 
  103a04:	c3                   	retq   

0000000000103a05 <_ZdlPvm>:
  103a05:	f3 0f 1e fa          	endbr64 
  103a09:	55                   	push   %rbp
  103a0a:	48 89 e5             	mov    %rsp,%rbp
  103a0d:	48 83 ec 10          	sub    $0x10,%rsp
  103a11:	48 89 7d f8          	mov    %rdi,-0x8(%rbp)
  103a15:	48 89 75 f0          	mov    %rsi,-0x10(%rbp)
  103a19:	48 8b 45 f8          	mov    -0x8(%rbp),%rax
  103a1d:	48 89 c7             	mov    %rax,%rdi
  103a20:	e8 99 93 00 00       	callq  10cdbe <_Z5kfreePv>
  103a25:	90                   	nop
  103a26:	c9                   	leaveq 
  103a27:	c3                   	retq   

0000000000103a28 <_ZdaPvm>:
  103a28:	f3 0f 1e fa          	endbr64 
  103a2c:	55                   	push   %rbp
  103a2d:	48 89 e5             	mov    %rsp,%rbp
  103a30:	48 83 ec 10          	sub    $0x10,%rsp
  103a34:	48 89 7d f8          	mov    %rdi,-0x8(%rbp)
  103a38:	48 89 75 f0          	mov    %rsi,-0x10(%rbp)
  103a3c:	48 8b 45 f8          	mov    -0x8(%rbp),%rax
  103a40:	48 89 c7             	mov    %rax,%rdi
  103a43:	e8 76 93 00 00       	callq  10cdbe <_Z5kfreePv>
  103a48:	90                   	nop
  103a49:	c9                   	leaveq 
  103a4a:	c3                   	retq   
  103a4b:	90                   	nop

0000000000103a4c <_ZN9MemoryMap15IsUsuableMemoryEm>:
  103a4c:	f3 0f 1e fa          	endbr64 
  103a50:	55                   	push   %rbp
  103a51:	48 89 e5             	mov    %rsp,%rbp
  103a54:	48 83 ec 10          	sub    $0x10,%rsp
  103a58:	48 89 7d f8          	mov    %rdi,-0x8(%rbp)
  103a5c:	48 89 75 f0          	mov    %rsi,-0x10(%rbp)
  103a60:	48 8b 45 f8          	mov    -0x8(%rbp),%rax
  103a64:	48 8b 40 08          	mov    0x8(%rax),%rax
  103a68:	48 39 45 f0          	cmp    %rax,-0x10(%rbp)
  103a6c:	72 07                	jb     103a75 <_ZN9MemoryMap15IsUsuableMemoryEm+0x29>
  103a6e:	b8 00 00 00 00       	mov    $0x0,%eax
  103a73:	eb 5f                	jmp    103ad4 <_ZN9MemoryMap15IsUsuableMemoryEm+0x88>
  103a75:	8b 05 e5 30 01 00    	mov    0x130e5(%rip),%eax        # 116b60 <_ZL17usuableMemoryType>
  103a7b:	85 c0                	test   %eax,%eax
  103a7d:	75 21                	jne    103aa0 <_ZN9MemoryMap15IsUsuableMemoryEm+0x54>
  103a7f:	0f b6 05 9a 3e 01 00 	movzbl 0x13e9a(%rip),%eax        # 117920 <fromUEFI>
  103a86:	84 c0                	test   %al,%al
  103a88:	74 0c                	je     103a96 <_ZN9MemoryMap15IsUsuableMemoryEm+0x4a>
  103a8a:	c7 05 cc 30 01 00 07 	movl   $0x7,0x130cc(%rip)        # 116b60 <_ZL17usuableMemoryType>
  103a91:	00 00 00 
  103a94:	eb 0a                	jmp    103aa0 <_ZN9MemoryMap15IsUsuableMemoryEm+0x54>
  103a96:	c7 05 c0 30 01 00 01 	movl   $0x1,0x130c0(%rip)        # 116b60 <_ZL17usuableMemoryType>
  103a9d:	00 00 00 
  103aa0:	48 8b 45 f8          	mov    -0x8(%rbp),%rax
  103aa4:	48 8b 08             	mov    (%rax),%rcx
  103aa7:	48 8b 55 f0          	mov    -0x10(%rbp),%rdx
  103aab:	48 89 d0             	mov    %rdx,%rax
  103aae:	48 01 c0             	add    %rax,%rax
  103ab1:	48 01 d0             	add    %rdx,%rax
  103ab4:	48 c1 e0 03          	shl    $0x3,%rax
  103ab8:	48 01 c8             	add    %rcx,%rax
  103abb:	8b 50 10             	mov    0x10(%rax),%edx
  103abe:	8b 05 9c 30 01 00    	mov    0x1309c(%rip),%eax        # 116b60 <_ZL17usuableMemoryType>
  103ac4:	39 c2                	cmp    %eax,%edx
  103ac6:	75 07                	jne    103acf <_ZN9MemoryMap15IsUsuableMemoryEm+0x83>
  103ac8:	b8 01 00 00 00       	mov    $0x1,%eax
  103acd:	eb 05                	jmp    103ad4 <_ZN9MemoryMap15IsUsuableMemoryEm+0x88>
  103acf:	b8 00 00 00 00       	mov    $0x0,%eax
  103ad4:	c9                   	leaveq 
  103ad5:	c3                   	retq   

0000000000103ad6 <_ZN9MemoryMap16GetUsuableMemoryEv>:
  103ad6:	f3 0f 1e fa          	endbr64 
  103ada:	55                   	push   %rbp
  103adb:	48 89 e5             	mov    %rsp,%rbp
  103ade:	48 83 ec 18          	sub    $0x18,%rsp
  103ae2:	48 89 7d e8          	mov    %rdi,-0x18(%rbp)
  103ae6:	0f b6 05 77 30 01 00 	movzbl 0x13077(%rip),%eax        # 116b64 <_ZL16usuableMemoryGot>
  103aed:	84 c0                	test   %al,%al
  103aef:	74 0c                	je     103afd <_ZN9MemoryMap16GetUsuableMemoryEv+0x27>
  103af1:	48 8d 05 c8 2f 01 00 	lea    0x12fc8(%rip),%rax        # 116ac0 <_ZL13usuableMemory>
  103af8:	e9 87 00 00 00       	jmpq   103b84 <_ZN9MemoryMap16GetUsuableMemoryEv+0xae>
  103afd:	48 c7 45 f8 00 00 00 	movq   $0x0,-0x8(%rbp)
  103b04:	00 
  103b05:	48 c7 45 f0 00 00 00 	movq   $0x0,-0x10(%rbp)
  103b0c:	00 
  103b0d:	48 8b 45 e8          	mov    -0x18(%rbp),%rax
  103b11:	48 8b 40 08          	mov    0x8(%rax),%rax
  103b15:	48 39 45 f0          	cmp    %rax,-0x10(%rbp)
  103b19:	73 5b                	jae    103b76 <_ZN9MemoryMap16GetUsuableMemoryEv+0xa0>
  103b1b:	48 8b 55 f0          	mov    -0x10(%rbp),%rdx
  103b1f:	48 8b 45 e8          	mov    -0x18(%rbp),%rax
  103b23:	48 89 d6             	mov    %rdx,%rsi
  103b26:	48 89 c7             	mov    %rax,%rdi
  103b29:	e8 1e ff ff ff       	callq  103a4c <_ZN9MemoryMap15IsUsuableMemoryEm>
  103b2e:	84 c0                	test   %al,%al
  103b30:	74 3d                	je     103b6f <_ZN9MemoryMap16GetUsuableMemoryEv+0x99>
  103b32:	48 8b 45 e8          	mov    -0x18(%rbp),%rax
  103b36:	48 8b 08             	mov    (%rax),%rcx
  103b39:	48 8b 55 f0          	mov    -0x10(%rbp),%rdx
  103b3d:	48 89 d0             	mov    %rdx,%rax
  103b40:	48 01 c0             	add    %rax,%rax
  103b43:	48 01 d0             	add    %rdx,%rax
  103b46:	48 c1 e0 03          	shl    $0x3,%rax
  103b4a:	48 89 c6             	mov    %rax,%rsi
  103b4d:	48 8b 45 f8          	mov    -0x8(%rbp),%rax
  103b51:	48 8d 50 01          	lea    0x1(%rax),%rdx
  103b55:	48 89 55 f8          	mov    %rdx,-0x8(%rbp)
  103b59:	48 01 f1             	add    %rsi,%rcx
  103b5c:	48 8d 14 c5 00 00 00 	lea    0x0(,%rax,8),%rdx
  103b63:	00 
  103b64:	48 8d 05 55 2f 01 00 	lea    0x12f55(%rip),%rax        # 116ac0 <_ZL13usuableMemory>
  103b6b:	48 89 0c 02          	mov    %rcx,(%rdx,%rax,1)
  103b6f:	48 83 45 f0 01       	addq   $0x1,-0x10(%rbp)
  103b74:	eb 97                	jmp    103b0d <_ZN9MemoryMap16GetUsuableMemoryEv+0x37>
  103b76:	c6 05 e7 2f 01 00 01 	movb   $0x1,0x12fe7(%rip)        # 116b64 <_ZL16usuableMemoryGot>
  103b7d:	48 8d 05 3c 2f 01 00 	lea    0x12f3c(%rip),%rax        # 116ac0 <_ZL13usuableMemory>
  103b84:	c9                   	leaveq 
  103b85:	c3                   	retq   

0000000000103b86 <_ZN9MemoryMap20GetTotalSystemMemoryEv>:
  103b86:	f3 0f 1e fa          	endbr64 
  103b8a:	55                   	push   %rbp
  103b8b:	48 89 e5             	mov    %rsp,%rbp
  103b8e:	48 83 ec 28          	sub    $0x28,%rsp
  103b92:	48 89 7d d8          	mov    %rdi,-0x28(%rbp)
  103b96:	48 c7 45 f8 00 00 00 	movq   $0x0,-0x8(%rbp)
  103b9d:	00 
  103b9e:	48 c7 45 f0 00 00 00 	movq   $0x0,-0x10(%rbp)
  103ba5:	00 
  103ba6:	48 8b 45 d8          	mov    -0x28(%rbp),%rax
  103baa:	48 8b 40 08          	mov    0x8(%rax),%rax
  103bae:	48 39 45 f0          	cmp    %rax,-0x10(%rbp)
  103bb2:	73 32                	jae    103be6 <_ZN9MemoryMap20GetTotalSystemMemoryEv+0x60>
  103bb4:	48 8b 45 d8          	mov    -0x28(%rbp),%rax
  103bb8:	48 8b 08             	mov    (%rax),%rcx
  103bbb:	48 8b 55 f0          	mov    -0x10(%rbp),%rdx
  103bbf:	48 89 d0             	mov    %rdx,%rax
  103bc2:	48 01 c0             	add    %rax,%rax
  103bc5:	48 01 d0             	add    %rdx,%rax
  103bc8:	48 c1 e0 03          	shl    $0x3,%rax
  103bcc:	48 01 c8             	add    %rcx,%rax
  103bcf:	48 89 45 e8          	mov    %rax,-0x18(%rbp)
  103bd3:	48 8b 45 e8          	mov    -0x18(%rbp),%rax
  103bd7:	48 8b 40 08          	mov    0x8(%rax),%rax
  103bdb:	48 01 45 f8          	add    %rax,-0x8(%rbp)
  103bdf:	48 83 45 f0 01       	addq   $0x1,-0x10(%rbp)
  103be4:	eb c0                	jmp    103ba6 <_ZN9MemoryMap20GetTotalSystemMemoryEv+0x20>
  103be6:	48 8b 45 f8          	mov    -0x8(%rbp),%rax
  103bea:	c9                   	leaveq 
  103beb:	c3                   	retq   

0000000000103bec <_ZN9MemoryMap22GetUsuableSystemMemoryEv>:
  103bec:	f3 0f 1e fa          	endbr64 
  103bf0:	55                   	push   %rbp
  103bf1:	48 89 e5             	mov    %rsp,%rbp
  103bf4:	48 83 ec 28          	sub    $0x28,%rsp
  103bf8:	48 89 7d d8          	mov    %rdi,-0x28(%rbp)
  103bfc:	48 c7 45 f8 00 00 00 	movq   $0x0,-0x8(%rbp)
  103c03:	00 
  103c04:	48 c7 45 f0 00 00 00 	movq   $0x0,-0x10(%rbp)
  103c0b:	00 
  103c0c:	48 8b 45 d8          	mov    -0x28(%rbp),%rax
  103c10:	48 8b 40 08          	mov    0x8(%rax),%rax
  103c14:	48 39 45 f0          	cmp    %rax,-0x10(%rbp)
  103c18:	73 49                	jae    103c63 <_ZN9MemoryMap22GetUsuableSystemMemoryEv+0x77>
  103c1a:	48 8b 55 f0          	mov    -0x10(%rbp),%rdx
  103c1e:	48 8b 45 d8          	mov    -0x28(%rbp),%rax
  103c22:	48 89 d6             	mov    %rdx,%rsi
  103c25:	48 89 c7             	mov    %rax,%rdi
  103c28:	e8 1f fe ff ff       	callq  103a4c <_ZN9MemoryMap15IsUsuableMemoryEm>
  103c2d:	84 c0                	test   %al,%al
  103c2f:	74 2b                	je     103c5c <_ZN9MemoryMap22GetUsuableSystemMemoryEv+0x70>
  103c31:	48 8b 45 d8          	mov    -0x28(%rbp),%rax
  103c35:	48 8b 08             	mov    (%rax),%rcx
  103c38:	48 8b 55 f0          	mov    -0x10(%rbp),%rdx
  103c3c:	48 89 d0             	mov    %rdx,%rax
  103c3f:	48 01 c0             	add    %rax,%rax
  103c42:	48 01 d0             	add    %rdx,%rax
  103c45:	48 c1 e0 03          	shl    $0x3,%rax
  103c49:	48 01 c8             	add    %rcx,%rax
  103c4c:	48 89 45 e8          	mov    %rax,-0x18(%rbp)
  103c50:	48 8b 45 e8          	mov    -0x18(%rbp),%rax
  103c54:	48 8b 40 08          	mov    0x8(%rax),%rax
  103c58:	48 01 45 f8          	add    %rax,-0x8(%rbp)
  103c5c:	48 83 45 f0 01       	addq   $0x1,-0x10(%rbp)
  103c61:	eb a9                	jmp    103c0c <_ZN9MemoryMap22GetUsuableSystemMemoryEv+0x20>
  103c63:	48 8b 45 f8          	mov    -0x8(%rbp),%rax
  103c67:	c9                   	leaveq 
  103c68:	c3                   	retq   

0000000000103c69 <_ZN3PCI17EnumerateFunctionEmm>:
  103c69:	f3 0f 1e fa          	endbr64 
  103c6d:	55                   	push   %rbp
  103c6e:	48 89 e5             	mov    %rsp,%rbp
  103c71:	41 56                	push   %r14
  103c73:	41 55                	push   %r13
  103c75:	41 54                	push   %r12
  103c77:	53                   	push   %rbx
  103c78:	48 83 ec 50          	sub    $0x50,%rsp
  103c7c:	48 89 7d 98          	mov    %rdi,-0x68(%rbp)
  103c80:	48 89 75 90          	mov    %rsi,-0x70(%rbp)
  103c84:	48 8b 45 90          	mov    -0x70(%rbp),%rax
  103c88:	48 c1 e0 0c          	shl    $0xc,%rax
  103c8c:	48 89 45 d0          	mov    %rax,-0x30(%rbp)
  103c90:	48 8b 55 98          	mov    -0x68(%rbp),%rdx
  103c94:	48 8b 45 d0          	mov    -0x30(%rbp),%rax
  103c98:	48 01 d0             	add    %rdx,%rax
  103c9b:	48 89 45 c8          	mov    %rax,-0x38(%rbp)
  103c9f:	48 8b 55 c8          	mov    -0x38(%rbp),%rdx
  103ca3:	48 8b 45 c8          	mov    -0x38(%rbp),%rax
  103ca7:	b9 03 00 00 00       	mov    $0x3,%ecx
  103cac:	48 89 c6             	mov    %rax,%rsi
  103caf:	48 8d 3d 92 13 01 00 	lea    0x11392(%rip),%rdi        # 115048 <KernelDirectory>
  103cb6:	e8 1b c4 ff ff       	callq  1000d6 <_ZN16PageTableManager9MapMemoryEmmm>
  103cbb:	48 8b 45 c8          	mov    -0x38(%rbp),%rax
  103cbf:	48 89 45 c0          	mov    %rax,-0x40(%rbp)
  103cc3:	48 8b 45 c0          	mov    -0x40(%rbp),%rax
  103cc7:	0f b7 40 02          	movzwl 0x2(%rax),%eax
  103ccb:	66 85 c0             	test   %ax,%ax
  103cce:	0f 84 93 01 00 00    	je     103e67 <_ZN3PCI17EnumerateFunctionEmm+0x1fe>
  103cd4:	48 8b 45 c0          	mov    -0x40(%rbp),%rax
  103cd8:	0f b7 40 02          	movzwl 0x2(%rax),%eax
  103cdc:	66 83 f8 ff          	cmp    $0xffff,%ax
  103ce0:	0f 84 84 01 00 00    	je     103e6a <_ZN3PCI17EnumerateFunctionEmm+0x201>
  103ce6:	48 8b 45 c0          	mov    -0x40(%rbp),%rax
  103cea:	0f b6 40 09          	movzbl 0x9(%rax),%eax
  103cee:	0f b6 d0             	movzbl %al,%edx
  103cf1:	48 8b 45 c0          	mov    -0x40(%rbp),%rax
  103cf5:	0f b6 40 0a          	movzbl 0xa(%rax),%eax
  103cf9:	0f b6 c8             	movzbl %al,%ecx
  103cfc:	48 8b 45 c0          	mov    -0x40(%rbp),%rax
  103d00:	0f b6 40 0b          	movzbl 0xb(%rax),%eax
  103d04:	0f b6 c0             	movzbl %al,%eax
  103d07:	89 ce                	mov    %ecx,%esi
  103d09:	89 c7                	mov    %eax,%edi
  103d0b:	e8 cf 07 00 00       	callq  1044df <_ZN3PCI13GetProgIFNameEhhh>
  103d10:	49 89 c6             	mov    %rax,%r14
  103d13:	48 8b 45 c0          	mov    -0x40(%rbp),%rax
  103d17:	0f b6 40 0a          	movzbl 0xa(%rax),%eax
  103d1b:	0f b6 d0             	movzbl %al,%edx
  103d1e:	48 8b 45 c0          	mov    -0x40(%rbp),%rax
  103d22:	0f b6 40 0b          	movzbl 0xb(%rax),%eax
  103d26:	0f b6 c0             	movzbl %al,%eax
  103d29:	89 d6                	mov    %edx,%esi
  103d2b:	89 c7                	mov    %eax,%edi
  103d2d:	e8 12 07 00 00       	callq  104444 <_ZN3PCI15GetSubclassNameEhh>
  103d32:	49 89 c5             	mov    %rax,%r13
  103d35:	48 8b 45 c0          	mov    -0x40(%rbp),%rax
  103d39:	0f b6 40 0b          	movzbl 0xb(%rax),%eax
  103d3d:	0f b6 c0             	movzbl %al,%eax
  103d40:	48 98                	cltq   
  103d42:	48 8d 14 c5 00 00 00 	lea    0x0(,%rax,8),%rdx
  103d49:	00 
  103d4a:	48 8d 05 ef b3 00 00 	lea    0xb3ef(%rip),%rax        # 10f140 <_ZN3PCI13DeviceClassesE>
  103d51:	48 8b 1c 02          	mov    (%rdx,%rax,1),%rbx
  103d55:	48 8b 45 c0          	mov    -0x40(%rbp),%rax
  103d59:	0f b7 40 02          	movzwl 0x2(%rax),%eax
  103d5d:	0f b7 d0             	movzwl %ax,%edx
  103d60:	48 8b 45 c0          	mov    -0x40(%rbp),%rax
  103d64:	0f b7 00             	movzwl (%rax),%eax
  103d67:	0f b7 c0             	movzwl %ax,%eax
  103d6a:	89 d6                	mov    %edx,%esi
  103d6c:	89 c7                	mov    %eax,%edi
  103d6e:	e8 4f 03 00 00       	callq  1040c2 <_ZN3PCI13GetDeviceNameEtt>
  103d73:	49 89 c4             	mov    %rax,%r12
  103d76:	48 8b 45 c0          	mov    -0x40(%rbp),%rax
  103d7a:	0f b7 00             	movzwl (%rax),%eax
  103d7d:	0f b7 c0             	movzwl %ax,%eax
  103d80:	89 c7                	mov    %eax,%edi
  103d82:	e8 c3 02 00 00       	callq  10404a <_ZN3PCI13GetVendorNameEt>
  103d87:	4d 89 f1             	mov    %r14,%r9
  103d8a:	4d 89 e8             	mov    %r13,%r8
  103d8d:	48 89 d9             	mov    %rbx,%rcx
  103d90:	4c 89 e2             	mov    %r12,%rdx
  103d93:	48 89 c6             	mov    %rax,%rsi
  103d96:	48 8d 3d 3b cb 00 00 	lea    0xcb3b(%rip),%rdi        # 1108d8 <__rodata+0x8d8>
  103d9d:	b8 00 00 00 00       	mov    $0x0,%eax
  103da2:	e8 69 8a 00 00       	callq  10c810 <_Z7kprintfPKcz>
  103da7:	48 8b 45 c0          	mov    -0x40(%rbp),%rax
  103dab:	0f b6 40 0b          	movzbl 0xb(%rax),%eax
  103daf:	0f b6 c0             	movzbl %al,%eax
  103db2:	83 f8 01             	cmp    $0x1,%eax
  103db5:	0f 85 b0 00 00 00    	jne    103e6b <_ZN3PCI17EnumerateFunctionEmm+0x202>
  103dbb:	48 8b 45 c0          	mov    -0x40(%rbp),%rax
  103dbf:	0f b6 40 0a          	movzbl 0xa(%rax),%eax
  103dc3:	0f b6 c0             	movzbl %al,%eax
  103dc6:	83 f8 06             	cmp    $0x6,%eax
  103dc9:	0f 85 9c 00 00 00    	jne    103e6b <_ZN3PCI17EnumerateFunctionEmm+0x202>
  103dcf:	48 8b 45 c0          	mov    -0x40(%rbp),%rax
  103dd3:	0f b6 40 09          	movzbl 0x9(%rax),%eax
  103dd7:	0f b6 c0             	movzbl %al,%eax
  103dda:	83 f8 01             	cmp    $0x1,%eax
  103ddd:	0f 85 88 00 00 00    	jne    103e6b <_ZN3PCI17EnumerateFunctionEmm+0x202>
  103de3:	bf 18 01 00 00       	mov    $0x118,%edi
  103de8:	e8 9e fb ff ff       	callq  10398b <_Znwm>
  103ded:	48 89 c3             	mov    %rax,%rbx
  103df0:	48 8b 45 c0          	mov    -0x40(%rbp),%rax
  103df4:	48 89 c6             	mov    %rax,%rsi
  103df7:	48 89 df             	mov    %rbx,%rdi
  103dfa:	e8 cf 2d 00 00       	callq  106bce <_ZN4AHCI10AHCIDriverC1EPN3PCI15PCIDeviceHeaderE>
  103dff:	48 89 5d b8          	mov    %rbx,-0x48(%rbp)
  103e03:	48 8d 45 a0          	lea    -0x60(%rbp),%rax
  103e07:	48 8b 55 b8          	mov    -0x48(%rbp),%rdx
  103e0b:	48 89 d6             	mov    %rdx,%rsi
  103e0e:	48 89 c7             	mov    %rax,%rdi
  103e11:	e8 4e 25 00 00       	callq  106364 <_ZN4AHCI10AHCIDriver12PreparePortsEv>
  103e16:	c7 45 dc 00 00 00 00 	movl   $0x0,-0x24(%rbp)
  103e1d:	8b 5d dc             	mov    -0x24(%rbp),%ebx
  103e20:	48 8d 45 a0          	lea    -0x60(%rbp),%rax
  103e24:	48 89 c7             	mov    %rax,%rdi
  103e27:	e8 58 a1 00 00       	callq  10df84 <_ZNK6vectorIPN4AHCI10AHCIDeviceEE4sizeEv>
  103e2c:	48 39 c3             	cmp    %rax,%rbx
  103e2f:	0f 92 c0             	setb   %al
  103e32:	84 c0                	test   %al,%al
  103e34:	74 23                	je     103e59 <_ZN3PCI17EnumerateFunctionEmm+0x1f0>
  103e36:	8b 55 dc             	mov    -0x24(%rbp),%edx
  103e39:	48 8d 45 a0          	lea    -0x60(%rbp),%rax
  103e3d:	48 89 d6             	mov    %rdx,%rsi
  103e40:	48 89 c7             	mov    %rax,%rdi
  103e43:	e8 56 a1 00 00       	callq  10df9e <_ZN6vectorIPN4AHCI10AHCIDeviceEEixEm>
  103e48:	48 8b 00             	mov    (%rax),%rax
  103e4b:	48 89 c7             	mov    %rax,%rdi
  103e4e:	e8 c3 2e 00 00       	callq  106d16 <_Z14RegisterDeviceP6Device>
  103e53:	83 45 dc 01          	addl   $0x1,-0x24(%rbp)
  103e57:	eb c4                	jmp    103e1d <_ZN3PCI17EnumerateFunctionEmm+0x1b4>
  103e59:	48 8d 45 a0          	lea    -0x60(%rbp),%rax
  103e5d:	48 89 c7             	mov    %rax,%rdi
  103e60:	e8 ef a0 00 00       	callq  10df54 <_ZN6vectorIPN4AHCI10AHCIDeviceEED1Ev>
  103e65:	eb 04                	jmp    103e6b <_ZN3PCI17EnumerateFunctionEmm+0x202>
  103e67:	90                   	nop
  103e68:	eb 01                	jmp    103e6b <_ZN3PCI17EnumerateFunctionEmm+0x202>
  103e6a:	90                   	nop
  103e6b:	48 83 c4 50          	add    $0x50,%rsp
  103e6f:	5b                   	pop    %rbx
  103e70:	41 5c                	pop    %r12
  103e72:	41 5d                	pop    %r13
  103e74:	41 5e                	pop    %r14
  103e76:	5d                   	pop    %rbp
  103e77:	c3                   	retq   

0000000000103e78 <_ZN3PCI15EnumerateDeviceEmm>:
  103e78:	f3 0f 1e fa          	endbr64 
  103e7c:	55                   	push   %rbp
  103e7d:	48 89 e5             	mov    %rsp,%rbp
  103e80:	48 83 ec 30          	sub    $0x30,%rsp
  103e84:	48 89 7d d8          	mov    %rdi,-0x28(%rbp)
  103e88:	48 89 75 d0          	mov    %rsi,-0x30(%rbp)
  103e8c:	48 8b 45 d0          	mov    -0x30(%rbp),%rax
  103e90:	48 c1 e0 0f          	shl    $0xf,%rax
  103e94:	48 89 45 f0          	mov    %rax,-0x10(%rbp)
  103e98:	48 8b 55 d8          	mov    -0x28(%rbp),%rdx
  103e9c:	48 8b 45 f0          	mov    -0x10(%rbp),%rax
  103ea0:	48 01 d0             	add    %rdx,%rax
  103ea3:	48 89 45 e8          	mov    %rax,-0x18(%rbp)
  103ea7:	48 8b 55 e8          	mov    -0x18(%rbp),%rdx
  103eab:	48 8b 45 e8          	mov    -0x18(%rbp),%rax
  103eaf:	b9 03 00 00 00       	mov    $0x3,%ecx
  103eb4:	48 89 c6             	mov    %rax,%rsi
  103eb7:	48 8d 3d 8a 11 01 00 	lea    0x1118a(%rip),%rdi        # 115048 <KernelDirectory>
  103ebe:	e8 13 c2 ff ff       	callq  1000d6 <_ZN16PageTableManager9MapMemoryEmmm>
  103ec3:	48 8b 45 e8          	mov    -0x18(%rbp),%rax
  103ec7:	48 89 45 e0          	mov    %rax,-0x20(%rbp)
  103ecb:	48 8b 45 e0          	mov    -0x20(%rbp),%rax
  103ecf:	0f b7 40 02          	movzwl 0x2(%rax),%eax
  103ed3:	66 85 c0             	test   %ax,%ax
  103ed6:	74 37                	je     103f0f <_ZN3PCI15EnumerateDeviceEmm+0x97>
  103ed8:	48 8b 45 e0          	mov    -0x20(%rbp),%rax
  103edc:	0f b7 40 02          	movzwl 0x2(%rax),%eax
  103ee0:	66 83 f8 ff          	cmp    $0xffff,%ax
  103ee4:	74 2c                	je     103f12 <_ZN3PCI15EnumerateDeviceEmm+0x9a>
  103ee6:	48 c7 45 f8 00 00 00 	movq   $0x0,-0x8(%rbp)
  103eed:	00 
  103eee:	48 83 7d f8 07       	cmpq   $0x7,-0x8(%rbp)
  103ef3:	77 1e                	ja     103f13 <_ZN3PCI15EnumerateDeviceEmm+0x9b>
  103ef5:	48 8b 55 f8          	mov    -0x8(%rbp),%rdx
  103ef9:	48 8b 45 e8          	mov    -0x18(%rbp),%rax
  103efd:	48 89 d6             	mov    %rdx,%rsi
  103f00:	48 89 c7             	mov    %rax,%rdi
  103f03:	e8 61 fd ff ff       	callq  103c69 <_ZN3PCI17EnumerateFunctionEmm>
  103f08:	48 83 45 f8 01       	addq   $0x1,-0x8(%rbp)
  103f0d:	eb df                	jmp    103eee <_ZN3PCI15EnumerateDeviceEmm+0x76>
  103f0f:	90                   	nop
  103f10:	eb 01                	jmp    103f13 <_ZN3PCI15EnumerateDeviceEmm+0x9b>
  103f12:	90                   	nop
  103f13:	c9                   	leaveq 
  103f14:	c3                   	retq   

0000000000103f15 <_ZN3PCI12EnumerateBusEmm>:
  103f15:	f3 0f 1e fa          	endbr64 
  103f19:	55                   	push   %rbp
  103f1a:	48 89 e5             	mov    %rsp,%rbp
  103f1d:	48 83 ec 30          	sub    $0x30,%rsp
  103f21:	48 89 7d d8          	mov    %rdi,-0x28(%rbp)
  103f25:	48 89 75 d0          	mov    %rsi,-0x30(%rbp)
  103f29:	48 8b 45 d0          	mov    -0x30(%rbp),%rax
  103f2d:	48 c1 e0 14          	shl    $0x14,%rax
  103f31:	48 89 45 f0          	mov    %rax,-0x10(%rbp)
  103f35:	48 8b 55 d8          	mov    -0x28(%rbp),%rdx
  103f39:	48 8b 45 f0          	mov    -0x10(%rbp),%rax
  103f3d:	48 01 d0             	add    %rdx,%rax
  103f40:	48 89 45 e8          	mov    %rax,-0x18(%rbp)
  103f44:	48 8b 55 e8          	mov    -0x18(%rbp),%rdx
  103f48:	48 8b 45 e8          	mov    -0x18(%rbp),%rax
  103f4c:	b9 03 00 00 00       	mov    $0x3,%ecx
  103f51:	48 89 c6             	mov    %rax,%rsi
  103f54:	48 8d 3d ed 10 01 00 	lea    0x110ed(%rip),%rdi        # 115048 <KernelDirectory>
  103f5b:	e8 76 c1 ff ff       	callq  1000d6 <_ZN16PageTableManager9MapMemoryEmmm>
  103f60:	48 8b 45 e8          	mov    -0x18(%rbp),%rax
  103f64:	48 89 45 e0          	mov    %rax,-0x20(%rbp)
  103f68:	48 8b 45 e0          	mov    -0x20(%rbp),%rax
  103f6c:	0f b7 40 02          	movzwl 0x2(%rax),%eax
  103f70:	66 85 c0             	test   %ax,%ax
  103f73:	74 37                	je     103fac <_ZN3PCI12EnumerateBusEmm+0x97>
  103f75:	48 8b 45 e0          	mov    -0x20(%rbp),%rax
  103f79:	0f b7 40 02          	movzwl 0x2(%rax),%eax
  103f7d:	66 83 f8 ff          	cmp    $0xffff,%ax
  103f81:	74 2c                	je     103faf <_ZN3PCI12EnumerateBusEmm+0x9a>
  103f83:	48 c7 45 f8 00 00 00 	movq   $0x0,-0x8(%rbp)
  103f8a:	00 
  103f8b:	48 83 7d f8 1f       	cmpq   $0x1f,-0x8(%rbp)
  103f90:	77 1e                	ja     103fb0 <_ZN3PCI12EnumerateBusEmm+0x9b>
  103f92:	48 8b 55 f8          	mov    -0x8(%rbp),%rdx
  103f96:	48 8b 45 e8          	mov    -0x18(%rbp),%rax
  103f9a:	48 89 d6             	mov    %rdx,%rsi
  103f9d:	48 89 c7             	mov    %rax,%rdi
  103fa0:	e8 d3 fe ff ff       	callq  103e78 <_ZN3PCI15EnumerateDeviceEmm>
  103fa5:	48 83 45 f8 01       	addq   $0x1,-0x8(%rbp)
  103faa:	eb df                	jmp    103f8b <_ZN3PCI12EnumerateBusEmm+0x76>
  103fac:	90                   	nop
  103fad:	eb 01                	jmp    103fb0 <_ZN3PCI12EnumerateBusEmm+0x9b>
  103faf:	90                   	nop
  103fb0:	c9                   	leaveq 
  103fb1:	c3                   	retq   

0000000000103fb2 <_ZN3PCI12EnumeratePCIEPN4ACPI10MCFGHeaderE>:
  103fb2:	f3 0f 1e fa          	endbr64 
  103fb6:	55                   	push   %rbp
  103fb7:	48 89 e5             	mov    %rsp,%rbp
  103fba:	48 83 ec 30          	sub    $0x30,%rsp
  103fbe:	48 89 7d d8          	mov    %rdi,-0x28(%rbp)
  103fc2:	48 8b 45 d8          	mov    -0x28(%rbp),%rax
  103fc6:	8b 40 04             	mov    0x4(%rax),%eax
  103fc9:	89 c0                	mov    %eax,%eax
  103fcb:	48 83 e8 2c          	sub    $0x2c,%rax
  103fcf:	48 c1 e8 04          	shr    $0x4,%rax
  103fd3:	48 89 45 e8          	mov    %rax,-0x18(%rbp)
  103fd7:	48 c7 45 f8 00 00 00 	movq   $0x0,-0x8(%rbp)
  103fde:	00 
  103fdf:	48 8b 45 f8          	mov    -0x8(%rbp),%rax
  103fe3:	48 3b 45 e8          	cmp    -0x18(%rbp),%rax
  103fe7:	73 5e                	jae    104047 <_ZN3PCI12EnumeratePCIEPN4ACPI10MCFGHeaderE+0x95>
  103fe9:	48 8b 45 f8          	mov    -0x8(%rbp),%rax
  103fed:	48 c1 e0 04          	shl    $0x4,%rax
  103ff1:	48 89 c2             	mov    %rax,%rdx
  103ff4:	48 8b 45 d8          	mov    -0x28(%rbp),%rax
  103ff8:	48 01 d0             	add    %rdx,%rax
  103ffb:	48 83 c0 2c          	add    $0x2c,%rax
  103fff:	48 89 45 e0          	mov    %rax,-0x20(%rbp)
  104003:	48 8b 45 e0          	mov    -0x20(%rbp),%rax
  104007:	0f b6 40 0a          	movzbl 0xa(%rax),%eax
  10400b:	0f b6 c0             	movzbl %al,%eax
  10400e:	48 89 45 f0          	mov    %rax,-0x10(%rbp)
  104012:	48 8b 45 e0          	mov    -0x20(%rbp),%rax
  104016:	0f b6 40 0b          	movzbl 0xb(%rax),%eax
  10401a:	0f b6 c0             	movzbl %al,%eax
  10401d:	48 39 45 f0          	cmp    %rax,-0x10(%rbp)
  104021:	73 1d                	jae    104040 <_ZN3PCI12EnumeratePCIEPN4ACPI10MCFGHeaderE+0x8e>
  104023:	48 8b 45 e0          	mov    -0x20(%rbp),%rax
  104027:	48 8b 00             	mov    (%rax),%rax
  10402a:	48 8b 55 f0          	mov    -0x10(%rbp),%rdx
  10402e:	48 89 d6             	mov    %rdx,%rsi
  104031:	48 89 c7             	mov    %rax,%rdi
  104034:	e8 dc fe ff ff       	callq  103f15 <_ZN3PCI12EnumerateBusEmm>
  104039:	48 83 45 f0 01       	addq   $0x1,-0x10(%rbp)
  10403e:	eb d2                	jmp    104012 <_ZN3PCI12EnumeratePCIEPN4ACPI10MCFGHeaderE+0x60>
  104040:	48 83 45 f8 01       	addq   $0x1,-0x8(%rbp)
  104045:	eb 98                	jmp    103fdf <_ZN3PCI12EnumeratePCIEPN4ACPI10MCFGHeaderE+0x2d>
  104047:	90                   	nop
  104048:	c9                   	leaveq 
  104049:	c3                   	retq   

000000000010404a <_ZN3PCI13GetVendorNameEt>:
  10404a:	f3 0f 1e fa          	endbr64 
  10404e:	55                   	push   %rbp
  10404f:	48 89 e5             	mov    %rsp,%rbp
  104052:	48 83 ec 20          	sub    $0x20,%rsp
  104056:	89 f8                	mov    %edi,%eax
  104058:	66 89 45 ec          	mov    %ax,-0x14(%rbp)
  10405c:	0f b7 45 ec          	movzwl -0x14(%rbp),%eax
  104060:	3d 86 80 00 00       	cmp    $0x8086,%eax
  104065:	74 17                	je     10407e <_ZN3PCI13GetVendorNameEt+0x34>
  104067:	3d 86 80 00 00       	cmp    $0x8086,%eax
  10406c:	7f 2b                	jg     104099 <_ZN3PCI13GetVendorNameEt+0x4f>
  10406e:	3d 22 10 00 00       	cmp    $0x1022,%eax
  104073:	74 12                	je     104087 <_ZN3PCI13GetVendorNameEt+0x3d>
  104075:	3d de 10 00 00       	cmp    $0x10de,%eax
  10407a:	74 14                	je     104090 <_ZN3PCI13GetVendorNameEt+0x46>
  10407c:	eb 1b                	jmp    104099 <_ZN3PCI13GetVendorNameEt+0x4f>
  10407e:	48 8d 05 3e ca 00 00 	lea    0xca3e(%rip),%rax        # 110ac3 <__rodata+0xac3>
  104085:	eb 39                	jmp    1040c0 <_ZN3PCI13GetVendorNameEt+0x76>
  104087:	48 8d 05 40 ca 00 00 	lea    0xca40(%rip),%rax        # 110ace <__rodata+0xace>
  10408e:	eb 30                	jmp    1040c0 <_ZN3PCI13GetVendorNameEt+0x76>
  104090:	48 8d 05 3b ca 00 00 	lea    0xca3b(%rip),%rax        # 110ad2 <__rodata+0xad2>
  104097:	eb 27                	jmp    1040c0 <_ZN3PCI13GetVendorNameEt+0x76>
  104099:	bf 04 00 00 00       	mov    $0x4,%edi
  10409e:	e8 06 f9 ff ff       	callq  1039a9 <_Znam>
  1040a3:	48 89 45 f8          	mov    %rax,-0x8(%rbp)
  1040a7:	0f b7 55 ec          	movzwl -0x14(%rbp),%edx
  1040ab:	48 8b 45 f8          	mov    -0x8(%rbp),%rax
  1040af:	be 78 00 00 00       	mov    $0x78,%esi
  1040b4:	48 89 c7             	mov    %rax,%rdi
  1040b7:	e8 a8 81 00 00       	callq  10c264 <_Z4itoaPhjm>
  1040bc:	48 8b 45 f8          	mov    -0x8(%rbp),%rax
  1040c0:	c9                   	leaveq 
  1040c1:	c3                   	retq   

00000000001040c2 <_ZN3PCI13GetDeviceNameEtt>:
  1040c2:	f3 0f 1e fa          	endbr64 
  1040c6:	55                   	push   %rbp
  1040c7:	48 89 e5             	mov    %rsp,%rbp
  1040ca:	48 83 ec 20          	sub    $0x20,%rsp
  1040ce:	89 fa                	mov    %edi,%edx
  1040d0:	89 f0                	mov    %esi,%eax
  1040d2:	66 89 55 ec          	mov    %dx,-0x14(%rbp)
  1040d6:	66 89 45 e8          	mov    %ax,-0x18(%rbp)
  1040da:	0f b7 45 ec          	movzwl -0x14(%rbp),%eax
  1040de:	3d de 10 00 00       	cmp    $0x10de,%eax
  1040e3:	74 5b                	je     104140 <_ZN3PCI13GetDeviceNameEtt+0x7e>
  1040e5:	3d 86 80 00 00       	cmp    $0x8086,%eax
  1040ea:	75 7d                	jne    104169 <_ZN3PCI13GetDeviceNameEtt+0xa7>
  1040ec:	0f b7 45 e8          	movzwl -0x18(%rbp),%eax
  1040f0:	3d c0 29 00 00       	cmp    $0x29c0,%eax
  1040f5:	74 25                	je     10411c <_ZN3PCI13GetDeviceNameEtt+0x5a>
  1040f7:	3d c0 29 00 00       	cmp    $0x29c0,%eax
  1040fc:	7f 42                	jg     104140 <_ZN3PCI13GetDeviceNameEtt+0x7e>
  1040fe:	3d 30 29 00 00       	cmp    $0x2930,%eax
  104103:	74 32                	je     104137 <_ZN3PCI13GetDeviceNameEtt+0x75>
  104105:	3d 30 29 00 00       	cmp    $0x2930,%eax
  10410a:	7f 34                	jg     104140 <_ZN3PCI13GetDeviceNameEtt+0x7e>
  10410c:	3d 18 29 00 00       	cmp    $0x2918,%eax
  104111:	74 12                	je     104125 <_ZN3PCI13GetDeviceNameEtt+0x63>
  104113:	3d 22 29 00 00       	cmp    $0x2922,%eax
  104118:	74 14                	je     10412e <_ZN3PCI13GetDeviceNameEtt+0x6c>
  10411a:	eb 24                	jmp    104140 <_ZN3PCI13GetDeviceNameEtt+0x7e>
  10411c:	48 8d 05 c2 c9 00 00 	lea    0xc9c2(%rip),%rax        # 110ae5 <__rodata+0xae5>
  104123:	eb 6b                	jmp    104190 <_ZN3PCI13GetDeviceNameEtt+0xce>
  104125:	48 8d 05 d1 c9 00 00 	lea    0xc9d1(%rip),%rax        # 110afd <__rodata+0xafd>
  10412c:	eb 62                	jmp    104190 <_ZN3PCI13GetDeviceNameEtt+0xce>
  10412e:	48 8d 05 e3 c9 00 00 	lea    0xc9e3(%rip),%rax        # 110b18 <__rodata+0xb18>
  104135:	eb 59                	jmp    104190 <_ZN3PCI13GetDeviceNameEtt+0xce>
  104137:	48 8d 05 fd c9 00 00 	lea    0xc9fd(%rip),%rax        # 110b3b <__rodata+0xb3b>
  10413e:	eb 50                	jmp    104190 <_ZN3PCI13GetDeviceNameEtt+0xce>
  104140:	0f b7 45 e8          	movzwl -0x18(%rbp),%eax
  104144:	3d c7 1e 00 00       	cmp    $0x1ec7,%eax
  104149:	74 15                	je     104160 <_ZN3PCI13GetDeviceNameEtt+0x9e>
  10414b:	3d c7 1e 00 00       	cmp    $0x1ec7,%eax
  104150:	7f 17                	jg     104169 <_ZN3PCI13GetDeviceNameEtt+0xa7>
  104152:	3d 84 1e 00 00       	cmp    $0x1e84,%eax
  104157:	74 07                	je     104160 <_ZN3PCI13GetDeviceNameEtt+0x9e>
  104159:	3d c2 1e 00 00       	cmp    $0x1ec2,%eax
  10415e:	75 09                	jne    104169 <_ZN3PCI13GetDeviceNameEtt+0xa7>
  104160:	48 8d 05 e5 c9 00 00 	lea    0xc9e5(%rip),%rax        # 110b4c <__rodata+0xb4c>
  104167:	eb 27                	jmp    104190 <_ZN3PCI13GetDeviceNameEtt+0xce>
  104169:	bf 04 00 00 00       	mov    $0x4,%edi
  10416e:	e8 36 f8 ff ff       	callq  1039a9 <_Znam>
  104173:	48 89 45 f8          	mov    %rax,-0x8(%rbp)
  104177:	0f b7 55 e8          	movzwl -0x18(%rbp),%edx
  10417b:	48 8b 45 f8          	mov    -0x8(%rbp),%rax
  10417f:	be 78 00 00 00       	mov    $0x78,%esi
  104184:	48 89 c7             	mov    %rax,%rdi
  104187:	e8 d8 80 00 00       	callq  10c264 <_Z4itoaPhjm>
  10418c:	48 8b 45 f8          	mov    -0x8(%rbp),%rax
  104190:	c9                   	leaveq 
  104191:	c3                   	retq   

0000000000104192 <_ZN3PCI33MassStorageControllerSubclassNameEh>:
  104192:	f3 0f 1e fa          	endbr64 
  104196:	55                   	push   %rbp
  104197:	48 89 e5             	mov    %rsp,%rbp
  10419a:	48 83 ec 20          	sub    $0x20,%rsp
  10419e:	89 f8                	mov    %edi,%eax
  1041a0:	88 45 ec             	mov    %al,-0x14(%rbp)
  1041a3:	0f b6 45 ec          	movzbl -0x14(%rbp),%eax
  1041a7:	83 f8 08             	cmp    $0x8,%eax
  1041aa:	7f 34                	jg     1041e0 <_ZN3PCI33MassStorageControllerSubclassNameEh+0x4e>
  1041ac:	85 c0                	test   %eax,%eax
  1041ae:	0f 88 8f 00 00 00    	js     104243 <_ZN3PCI33MassStorageControllerSubclassNameEh+0xb1>
  1041b4:	83 f8 08             	cmp    $0x8,%eax
  1041b7:	0f 87 86 00 00 00    	ja     104243 <_ZN3PCI33MassStorageControllerSubclassNameEh+0xb1>
  1041bd:	89 c0                	mov    %eax,%eax
  1041bf:	48 8d 14 85 00 00 00 	lea    0x0(,%rax,4),%rdx
  1041c6:	00 
  1041c7:	48 8d 05 4a ca 00 00 	lea    0xca4a(%rip),%rax        # 110c18 <__rodata+0xc18>
  1041ce:	8b 04 02             	mov    (%rdx,%rax,1),%eax
  1041d1:	48 98                	cltq   
  1041d3:	48 8d 15 3e ca 00 00 	lea    0xca3e(%rip),%rdx        # 110c18 <__rodata+0xc18>
  1041da:	48 01 d0             	add    %rdx,%rax
  1041dd:	3e ff e0             	notrack jmpq *%rax
  1041e0:	3d 80 00 00 00       	cmp    $0x80,%eax
  1041e5:	74 53                	je     10423a <_ZN3PCI33MassStorageControllerSubclassNameEh+0xa8>
  1041e7:	eb 5a                	jmp    104243 <_ZN3PCI33MassStorageControllerSubclassNameEh+0xb1>
  1041e9:	48 8d 05 73 c9 00 00 	lea    0xc973(%rip),%rax        # 110b63 <__rodata+0xb63>
  1041f0:	eb 78                	jmp    10426a <_ZN3PCI33MassStorageControllerSubclassNameEh+0xd8>
  1041f2:	48 8d 05 7e c9 00 00 	lea    0xc97e(%rip),%rax        # 110b77 <__rodata+0xb77>
  1041f9:	eb 6f                	jmp    10426a <_ZN3PCI33MassStorageControllerSubclassNameEh+0xd8>
  1041fb:	48 8d 05 84 c9 00 00 	lea    0xc984(%rip),%rax        # 110b86 <__rodata+0xb86>
  104202:	eb 66                	jmp    10426a <_ZN3PCI33MassStorageControllerSubclassNameEh+0xd8>
  104204:	48 8d 05 92 c9 00 00 	lea    0xc992(%rip),%rax        # 110b9d <__rodata+0xb9d>
  10420b:	eb 5d                	jmp    10426a <_ZN3PCI33MassStorageControllerSubclassNameEh+0xd8>
  10420d:	48 8d 05 9c c9 00 00 	lea    0xc99c(%rip),%rax        # 110bb0 <__rodata+0xbb0>
  104214:	eb 54                	jmp    10426a <_ZN3PCI33MassStorageControllerSubclassNameEh+0xd8>
  104216:	48 8d 05 a3 c9 00 00 	lea    0xc9a3(%rip),%rax        # 110bc0 <__rodata+0xbc0>
  10421d:	eb 4b                	jmp    10426a <_ZN3PCI33MassStorageControllerSubclassNameEh+0xd8>
  10421f:	48 8d 05 a9 c9 00 00 	lea    0xc9a9(%rip),%rax        # 110bcf <__rodata+0xbcf>
  104226:	eb 42                	jmp    10426a <_ZN3PCI33MassStorageControllerSubclassNameEh+0xd8>
  104228:	48 8d 05 ab c9 00 00 	lea    0xc9ab(%rip),%rax        # 110bda <__rodata+0xbda>
  10422f:	eb 39                	jmp    10426a <_ZN3PCI33MassStorageControllerSubclassNameEh+0xd8>
  104231:	48 8d 05 b8 c9 00 00 	lea    0xc9b8(%rip),%rax        # 110bf0 <__rodata+0xbf0>
  104238:	eb 30                	jmp    10426a <_ZN3PCI33MassStorageControllerSubclassNameEh+0xd8>
  10423a:	48 8d 05 ce c9 00 00 	lea    0xc9ce(%rip),%rax        # 110c0f <__rodata+0xc0f>
  104241:	eb 27                	jmp    10426a <_ZN3PCI33MassStorageControllerSubclassNameEh+0xd8>
  104243:	bf 04 00 00 00       	mov    $0x4,%edi
  104248:	e8 5c f7 ff ff       	callq  1039a9 <_Znam>
  10424d:	48 89 45 f8          	mov    %rax,-0x8(%rbp)
  104251:	0f b6 55 ec          	movzbl -0x14(%rbp),%edx
  104255:	48 8b 45 f8          	mov    -0x8(%rbp),%rax
  104259:	be 78 00 00 00       	mov    $0x78,%esi
  10425e:	48 89 c7             	mov    %rax,%rdi
  104261:	e8 fe 7f 00 00       	callq  10c264 <_Z4itoaPhjm>
  104266:	48 8b 45 f8          	mov    -0x8(%rbp),%rax
  10426a:	c9                   	leaveq 
  10426b:	c3                   	retq   

000000000010426c <_ZN3PCI31SerialBusControllerSubclassNameEh>:
  10426c:	f3 0f 1e fa          	endbr64 
  104270:	55                   	push   %rbp
  104271:	48 89 e5             	mov    %rsp,%rbp
  104274:	48 83 ec 20          	sub    $0x20,%rsp
  104278:	89 f8                	mov    %edi,%eax
  10427a:	88 45 ec             	mov    %al,-0x14(%rbp)
  10427d:	0f b6 45 ec          	movzbl -0x14(%rbp),%eax
  104281:	83 f8 09             	cmp    $0x9,%eax
  104284:	7f 34                	jg     1042ba <_ZN3PCI31SerialBusControllerSubclassNameEh+0x4e>
  104286:	85 c0                	test   %eax,%eax
  104288:	0f 88 9b 00 00 00    	js     104329 <_ZN3PCI31SerialBusControllerSubclassNameEh+0xbd>
  10428e:	83 f8 09             	cmp    $0x9,%eax
  104291:	0f 87 92 00 00 00    	ja     104329 <_ZN3PCI31SerialBusControllerSubclassNameEh+0xbd>
  104297:	89 c0                	mov    %eax,%eax
  104299:	48 8d 14 85 00 00 00 	lea    0x0(,%rax,4),%rdx
  1042a0:	00 
  1042a1:	48 8d 05 44 ca 00 00 	lea    0xca44(%rip),%rax        # 110cec <__rodata+0xcec>
  1042a8:	8b 04 02             	mov    (%rdx,%rax,1),%eax
  1042ab:	48 98                	cltq   
  1042ad:	48 8d 15 38 ca 00 00 	lea    0xca38(%rip),%rdx        # 110cec <__rodata+0xcec>
  1042b4:	48 01 d0             	add    %rdx,%rax
  1042b7:	3e ff e0             	notrack jmpq *%rax
  1042ba:	3d 80 00 00 00       	cmp    $0x80,%eax
  1042bf:	74 5f                	je     104320 <_ZN3PCI31SerialBusControllerSubclassNameEh+0xb4>
  1042c1:	eb 66                	jmp    104329 <_ZN3PCI31SerialBusControllerSubclassNameEh+0xbd>
  1042c3:	48 8d 05 76 c9 00 00 	lea    0xc976(%rip),%rax        # 110c40 <__rodata+0xc40>
  1042ca:	e9 81 00 00 00       	jmpq   104350 <_ZN3PCI31SerialBusControllerSubclassNameEh+0xe4>
  1042cf:	48 8d 05 8a c9 00 00 	lea    0xc98a(%rip),%rax        # 110c60 <__rodata+0xc60>
  1042d6:	eb 78                	jmp    104350 <_ZN3PCI31SerialBusControllerSubclassNameEh+0xe4>
  1042d8:	48 8d 05 8c c9 00 00 	lea    0xc98c(%rip),%rax        # 110c6b <__rodata+0xc6b>
  1042df:	eb 6f                	jmp    104350 <_ZN3PCI31SerialBusControllerSubclassNameEh+0xe4>
  1042e1:	48 8d 05 87 c9 00 00 	lea    0xc987(%rip),%rax        # 110c6f <__rodata+0xc6f>
  1042e8:	eb 66                	jmp    104350 <_ZN3PCI31SerialBusControllerSubclassNameEh+0xe4>
  1042ea:	48 8d 05 8d c9 00 00 	lea    0xc98d(%rip),%rax        # 110c7e <__rodata+0xc7e>
  1042f1:	eb 5d                	jmp    104350 <_ZN3PCI31SerialBusControllerSubclassNameEh+0xe4>
  1042f3:	48 8d 05 92 c9 00 00 	lea    0xc992(%rip),%rax        # 110c8c <__rodata+0xc8c>
  1042fa:	eb 54                	jmp    104350 <_ZN3PCI31SerialBusControllerSubclassNameEh+0xe4>
  1042fc:	48 8d 05 8f c9 00 00 	lea    0xc98f(%rip),%rax        # 110c92 <__rodata+0xc92>
  104303:	eb 4b                	jmp    104350 <_ZN3PCI31SerialBusControllerSubclassNameEh+0xe4>
  104305:	48 8d 05 91 c9 00 00 	lea    0xc991(%rip),%rax        # 110c9d <__rodata+0xc9d>
  10430c:	eb 42                	jmp    104350 <_ZN3PCI31SerialBusControllerSubclassNameEh+0xe4>
  10430e:	48 8d 05 97 c9 00 00 	lea    0xc997(%rip),%rax        # 110cac <__rodata+0xcac>
  104315:	eb 39                	jmp    104350 <_ZN3PCI31SerialBusControllerSubclassNameEh+0xe4>
  104317:	48 8d 05 ab c9 00 00 	lea    0xc9ab(%rip),%rax        # 110cc9 <__rodata+0xcc9>
  10431e:	eb 30                	jmp    104350 <_ZN3PCI31SerialBusControllerSubclassNameEh+0xe4>
  104320:	48 8d 05 a9 c9 00 00 	lea    0xc9a9(%rip),%rax        # 110cd0 <__rodata+0xcd0>
  104327:	eb 27                	jmp    104350 <_ZN3PCI31SerialBusControllerSubclassNameEh+0xe4>
  104329:	bf 04 00 00 00       	mov    $0x4,%edi
  10432e:	e8 76 f6 ff ff       	callq  1039a9 <_Znam>
  104333:	48 89 45 f8          	mov    %rax,-0x8(%rbp)
  104337:	0f b6 55 ec          	movzbl -0x14(%rbp),%edx
  10433b:	48 8b 45 f8          	mov    -0x8(%rbp),%rax
  10433f:	be 78 00 00 00       	mov    $0x78,%esi
  104344:	48 89 c7             	mov    %rax,%rdi
  104347:	e8 18 7f 00 00       	callq  10c264 <_Z4itoaPhjm>
  10434c:	48 8b 45 f8          	mov    -0x8(%rbp),%rax
  104350:	c9                   	leaveq 
  104351:	c3                   	retq   

0000000000104352 <_ZN3PCI24BridgeDeviceSubclassNameEh>:
  104352:	f3 0f 1e fa          	endbr64 
  104356:	55                   	push   %rbp
  104357:	48 89 e5             	mov    %rsp,%rbp
  10435a:	48 83 ec 20          	sub    $0x20,%rsp
  10435e:	89 f8                	mov    %edi,%eax
  104360:	88 45 ec             	mov    %al,-0x14(%rbp)
  104363:	0f b6 45 ec          	movzbl -0x14(%rbp),%eax
  104367:	83 f8 0a             	cmp    $0xa,%eax
  10436a:	7f 34                	jg     1043a0 <_ZN3PCI24BridgeDeviceSubclassNameEh+0x4e>
  10436c:	85 c0                	test   %eax,%eax
  10436e:	0f 88 a7 00 00 00    	js     10441b <_ZN3PCI24BridgeDeviceSubclassNameEh+0xc9>
  104374:	83 f8 0a             	cmp    $0xa,%eax
  104377:	0f 87 9e 00 00 00    	ja     10441b <_ZN3PCI24BridgeDeviceSubclassNameEh+0xc9>
  10437d:	89 c0                	mov    %eax,%eax
  10437f:	48 8d 14 85 00 00 00 	lea    0x0(,%rax,4),%rdx
  104386:	00 
  104387:	48 8d 05 1e ca 00 00 	lea    0xca1e(%rip),%rax        # 110dac <__rodata+0xdac>
  10438e:	8b 04 02             	mov    (%rdx,%rax,1),%eax
  104391:	48 98                	cltq   
  104393:	48 8d 15 12 ca 00 00 	lea    0xca12(%rip),%rdx        # 110dac <__rodata+0xdac>
  10439a:	48 01 d0             	add    %rdx,%rax
  10439d:	3e ff e0             	notrack jmpq *%rax
  1043a0:	3d 80 00 00 00       	cmp    $0x80,%eax
  1043a5:	74 6b                	je     104412 <_ZN3PCI24BridgeDeviceSubclassNameEh+0xc0>
  1043a7:	eb 72                	jmp    10441b <_ZN3PCI24BridgeDeviceSubclassNameEh+0xc9>
  1043a9:	48 8d 05 64 c9 00 00 	lea    0xc964(%rip),%rax        # 110d14 <__rodata+0xd14>
  1043b0:	e9 8d 00 00 00       	jmpq   104442 <_ZN3PCI24BridgeDeviceSubclassNameEh+0xf0>
  1043b5:	48 8d 05 64 c9 00 00 	lea    0xc964(%rip),%rax        # 110d20 <__rodata+0xd20>
  1043bc:	e9 81 00 00 00       	jmpq   104442 <_ZN3PCI24BridgeDeviceSubclassNameEh+0xf0>
  1043c1:	48 8d 05 63 c9 00 00 	lea    0xc963(%rip),%rax        # 110d2b <__rodata+0xd2b>
  1043c8:	eb 78                	jmp    104442 <_ZN3PCI24BridgeDeviceSubclassNameEh+0xf0>
  1043ca:	48 8d 05 66 c9 00 00 	lea    0xc966(%rip),%rax        # 110d37 <__rodata+0xd37>
  1043d1:	eb 6f                	jmp    104442 <_ZN3PCI24BridgeDeviceSubclassNameEh+0xf0>
  1043d3:	48 8d 05 68 c9 00 00 	lea    0xc968(%rip),%rax        # 110d42 <__rodata+0xd42>
  1043da:	eb 66                	jmp    104442 <_ZN3PCI24BridgeDeviceSubclassNameEh+0xf0>
  1043dc:	48 8d 05 71 c9 00 00 	lea    0xc971(%rip),%rax        # 110d54 <__rodata+0xd54>
  1043e3:	eb 5d                	jmp    104442 <_ZN3PCI24BridgeDeviceSubclassNameEh+0xf0>
  1043e5:	48 8d 05 76 c9 00 00 	lea    0xc976(%rip),%rax        # 110d62 <__rodata+0xd62>
  1043ec:	eb 54                	jmp    104442 <_ZN3PCI24BridgeDeviceSubclassNameEh+0xf0>
  1043ee:	48 8d 05 7a c9 00 00 	lea    0xc97a(%rip),%rax        # 110d6f <__rodata+0xd6f>
  1043f5:	eb 4b                	jmp    104442 <_ZN3PCI24BridgeDeviceSubclassNameEh+0xf0>
  1043f7:	48 8d 05 80 c9 00 00 	lea    0xc980(%rip),%rax        # 110d7e <__rodata+0xd7e>
  1043fe:	eb 42                	jmp    104442 <_ZN3PCI24BridgeDeviceSubclassNameEh+0xf0>
  104400:	48 8d 05 3b c9 00 00 	lea    0xc93b(%rip),%rax        # 110d42 <__rodata+0xd42>
  104407:	eb 39                	jmp    104442 <_ZN3PCI24BridgeDeviceSubclassNameEh+0xf0>
  104409:	48 8d 05 7d c9 00 00 	lea    0xc97d(%rip),%rax        # 110d8d <__rodata+0xd8d>
  104410:	eb 30                	jmp    104442 <_ZN3PCI24BridgeDeviceSubclassNameEh+0xf0>
  104412:	48 8d 05 f6 c7 00 00 	lea    0xc7f6(%rip),%rax        # 110c0f <__rodata+0xc0f>
  104419:	eb 27                	jmp    104442 <_ZN3PCI24BridgeDeviceSubclassNameEh+0xf0>
  10441b:	bf 04 00 00 00       	mov    $0x4,%edi
  104420:	e8 84 f5 ff ff       	callq  1039a9 <_Znam>
  104425:	48 89 45 f8          	mov    %rax,-0x8(%rbp)
  104429:	0f b6 55 ec          	movzbl -0x14(%rbp),%edx
  10442d:	48 8b 45 f8          	mov    -0x8(%rbp),%rax
  104431:	be 78 00 00 00       	mov    $0x78,%esi
  104436:	48 89 c7             	mov    %rax,%rdi
  104439:	e8 26 7e 00 00       	callq  10c264 <_Z4itoaPhjm>
  10443e:	48 8b 45 f8          	mov    -0x8(%rbp),%rax
  104442:	c9                   	leaveq 
  104443:	c3                   	retq   

0000000000104444 <_ZN3PCI15GetSubclassNameEhh>:
  104444:	f3 0f 1e fa          	endbr64 
  104448:	55                   	push   %rbp
  104449:	48 89 e5             	mov    %rsp,%rbp
  10444c:	48 83 ec 20          	sub    $0x20,%rsp
  104450:	89 fa                	mov    %edi,%edx
  104452:	89 f0                	mov    %esi,%eax
  104454:	88 55 ec             	mov    %dl,-0x14(%rbp)
  104457:	88 45 e8             	mov    %al,-0x18(%rbp)
  10445a:	0f b6 45 ec          	movzbl -0x14(%rbp),%eax
  10445e:	83 f8 0c             	cmp    $0xc,%eax
  104461:	74 46                	je     1044a9 <_ZN3PCI15GetSubclassNameEhh+0x65>
  104463:	83 f8 0c             	cmp    $0xc,%eax
  104466:	7f 4e                	jg     1044b6 <_ZN3PCI15GetSubclassNameEhh+0x72>
  104468:	83 f8 06             	cmp    $0x6,%eax
  10446b:	74 2f                	je     10449c <_ZN3PCI15GetSubclassNameEhh+0x58>
  10446d:	83 f8 06             	cmp    $0x6,%eax
  104470:	7f 44                	jg     1044b6 <_ZN3PCI15GetSubclassNameEhh+0x72>
  104472:	83 f8 01             	cmp    $0x1,%eax
  104475:	74 07                	je     10447e <_ZN3PCI15GetSubclassNameEhh+0x3a>
  104477:	83 f8 03             	cmp    $0x3,%eax
  10447a:	74 0f                	je     10448b <_ZN3PCI15GetSubclassNameEhh+0x47>
  10447c:	eb 38                	jmp    1044b6 <_ZN3PCI15GetSubclassNameEhh+0x72>
  10447e:	0f b6 45 e8          	movzbl -0x18(%rbp),%eax
  104482:	89 c7                	mov    %eax,%edi
  104484:	e8 09 fd ff ff       	callq  104192 <_ZN3PCI33MassStorageControllerSubclassNameEh>
  104489:	eb 52                	jmp    1044dd <_ZN3PCI15GetSubclassNameEhh+0x99>
  10448b:	0f b6 45 e8          	movzbl -0x18(%rbp),%eax
  10448f:	85 c0                	test   %eax,%eax
  104491:	75 09                	jne    10449c <_ZN3PCI15GetSubclassNameEhh+0x58>
  104493:	48 8d 05 3e c9 00 00 	lea    0xc93e(%rip),%rax        # 110dd8 <__rodata+0xdd8>
  10449a:	eb 41                	jmp    1044dd <_ZN3PCI15GetSubclassNameEhh+0x99>
  10449c:	0f b6 45 e8          	movzbl -0x18(%rbp),%eax
  1044a0:	89 c7                	mov    %eax,%edi
  1044a2:	e8 ab fe ff ff       	callq  104352 <_ZN3PCI24BridgeDeviceSubclassNameEh>
  1044a7:	eb 34                	jmp    1044dd <_ZN3PCI15GetSubclassNameEhh+0x99>
  1044a9:	0f b6 45 e8          	movzbl -0x18(%rbp),%eax
  1044ad:	89 c7                	mov    %eax,%edi
  1044af:	e8 b8 fd ff ff       	callq  10426c <_ZN3PCI31SerialBusControllerSubclassNameEh>
  1044b4:	eb 27                	jmp    1044dd <_ZN3PCI15GetSubclassNameEhh+0x99>
  1044b6:	bf 04 00 00 00       	mov    $0x4,%edi
  1044bb:	e8 e9 f4 ff ff       	callq  1039a9 <_Znam>
  1044c0:	48 89 45 f8          	mov    %rax,-0x8(%rbp)
  1044c4:	0f b6 55 e8          	movzbl -0x18(%rbp),%edx
  1044c8:	48 8b 45 f8          	mov    -0x8(%rbp),%rax
  1044cc:	be 78 00 00 00       	mov    $0x78,%esi
  1044d1:	48 89 c7             	mov    %rax,%rdi
  1044d4:	e8 8b 7d 00 00       	callq  10c264 <_Z4itoaPhjm>
  1044d9:	48 8b 45 f8          	mov    -0x8(%rbp),%rax
  1044dd:	c9                   	leaveq 
  1044de:	c3                   	retq   

00000000001044df <_ZN3PCI13GetProgIFNameEhhh>:
  1044df:	f3 0f 1e fa          	endbr64 
  1044e3:	55                   	push   %rbp
  1044e4:	48 89 e5             	mov    %rsp,%rbp
  1044e7:	48 83 ec 20          	sub    $0x20,%rsp
  1044eb:	89 f1                	mov    %esi,%ecx
  1044ed:	89 d0                	mov    %edx,%eax
  1044ef:	89 fa                	mov    %edi,%edx
  1044f1:	88 55 ec             	mov    %dl,-0x14(%rbp)
  1044f4:	89 ca                	mov    %ecx,%edx
  1044f6:	88 55 e8             	mov    %dl,-0x18(%rbp)
  1044f9:	88 45 e4             	mov    %al,-0x1c(%rbp)
  1044fc:	0f b6 45 ec          	movzbl -0x14(%rbp),%eax
  104500:	83 f8 0c             	cmp    $0xc,%eax
  104503:	0f 84 8d 00 00 00    	je     104596 <_ZN3PCI13GetProgIFNameEhhh+0xb7>
  104509:	83 f8 0c             	cmp    $0xc,%eax
  10450c:	0f 8f 02 01 00 00    	jg     104614 <_ZN3PCI13GetProgIFNameEhhh+0x135>
  104512:	83 f8 01             	cmp    $0x1,%eax
  104515:	74 0a                	je     104521 <_ZN3PCI13GetProgIFNameEhhh+0x42>
  104517:	83 f8 03             	cmp    $0x3,%eax
  10451a:	74 4b                	je     104567 <_ZN3PCI13GetProgIFNameEhhh+0x88>
  10451c:	e9 f3 00 00 00       	jmpq   104614 <_ZN3PCI13GetProgIFNameEhhh+0x135>
  104521:	0f b6 45 e8          	movzbl -0x18(%rbp),%eax
  104525:	83 f8 06             	cmp    $0x6,%eax
  104528:	75 3d                	jne    104567 <_ZN3PCI13GetProgIFNameEhhh+0x88>
  10452a:	0f b6 45 e4          	movzbl -0x1c(%rbp),%eax
  10452e:	83 f8 02             	cmp    $0x2,%eax
  104531:	74 28                	je     10455b <_ZN3PCI13GetProgIFNameEhhh+0x7c>
  104533:	83 f8 02             	cmp    $0x2,%eax
  104536:	7f 2f                	jg     104567 <_ZN3PCI13GetProgIFNameEhhh+0x88>
  104538:	85 c0                	test   %eax,%eax
  10453a:	74 07                	je     104543 <_ZN3PCI13GetProgIFNameEhhh+0x64>
  10453c:	83 f8 01             	cmp    $0x1,%eax
  10453f:	74 0e                	je     10454f <_ZN3PCI13GetProgIFNameEhhh+0x70>
  104541:	eb 24                	jmp    104567 <_ZN3PCI13GetProgIFNameEhhh+0x88>
  104543:	48 8d 05 a8 c8 00 00 	lea    0xc8a8(%rip),%rax        # 110df2 <__rodata+0xdf2>
  10454a:	e9 ec 00 00 00       	jmpq   10463b <_ZN3PCI13GetProgIFNameEhhh+0x15c>
  10454f:	48 8d 05 b6 c8 00 00 	lea    0xc8b6(%rip),%rax        # 110e0c <__rodata+0xe0c>
  104556:	e9 e0 00 00 00       	jmpq   10463b <_ZN3PCI13GetProgIFNameEhhh+0x15c>
  10455b:	48 8d 05 b3 c8 00 00 	lea    0xc8b3(%rip),%rax        # 110e15 <__rodata+0xe15>
  104562:	e9 d4 00 00 00       	jmpq   10463b <_ZN3PCI13GetProgIFNameEhhh+0x15c>
  104567:	0f b6 45 e8          	movzbl -0x18(%rbp),%eax
  10456b:	85 c0                	test   %eax,%eax
  10456d:	75 27                	jne    104596 <_ZN3PCI13GetProgIFNameEhhh+0xb7>
  10456f:	0f b6 45 e4          	movzbl -0x1c(%rbp),%eax
  104573:	85 c0                	test   %eax,%eax
  104575:	74 07                	je     10457e <_ZN3PCI13GetProgIFNameEhhh+0x9f>
  104577:	83 f8 01             	cmp    $0x1,%eax
  10457a:	74 0e                	je     10458a <_ZN3PCI13GetProgIFNameEhhh+0xab>
  10457c:	eb 18                	jmp    104596 <_ZN3PCI13GetProgIFNameEhhh+0xb7>
  10457e:	48 8d 05 a3 c8 00 00 	lea    0xc8a3(%rip),%rax        # 110e28 <__rodata+0xe28>
  104585:	e9 b1 00 00 00       	jmpq   10463b <_ZN3PCI13GetProgIFNameEhhh+0x15c>
  10458a:	48 8d 05 a6 c8 00 00 	lea    0xc8a6(%rip),%rax        # 110e37 <__rodata+0xe37>
  104591:	e9 a5 00 00 00       	jmpq   10463b <_ZN3PCI13GetProgIFNameEhhh+0x15c>
  104596:	0f b6 45 e8          	movzbl -0x18(%rbp),%eax
  10459a:	83 f8 03             	cmp    $0x3,%eax
  10459d:	75 75                	jne    104614 <_ZN3PCI13GetProgIFNameEhhh+0x135>
  10459f:	0f b6 45 e4          	movzbl -0x1c(%rbp),%eax
  1045a3:	3d fe 00 00 00       	cmp    $0xfe,%eax
  1045a8:	74 61                	je     10460b <_ZN3PCI13GetProgIFNameEhhh+0x12c>
  1045aa:	3d fe 00 00 00       	cmp    $0xfe,%eax
  1045af:	7f 63                	jg     104614 <_ZN3PCI13GetProgIFNameEhhh+0x135>
  1045b1:	3d 80 00 00 00       	cmp    $0x80,%eax
  1045b6:	74 4a                	je     104602 <_ZN3PCI13GetProgIFNameEhhh+0x123>
  1045b8:	3d 80 00 00 00       	cmp    $0x80,%eax
  1045bd:	7f 55                	jg     104614 <_ZN3PCI13GetProgIFNameEhhh+0x135>
  1045bf:	83 f8 30             	cmp    $0x30,%eax
  1045c2:	74 35                	je     1045f9 <_ZN3PCI13GetProgIFNameEhhh+0x11a>
  1045c4:	83 f8 30             	cmp    $0x30,%eax
  1045c7:	7f 4b                	jg     104614 <_ZN3PCI13GetProgIFNameEhhh+0x135>
  1045c9:	83 f8 20             	cmp    $0x20,%eax
  1045cc:	74 22                	je     1045f0 <_ZN3PCI13GetProgIFNameEhhh+0x111>
  1045ce:	83 f8 20             	cmp    $0x20,%eax
  1045d1:	7f 41                	jg     104614 <_ZN3PCI13GetProgIFNameEhhh+0x135>
  1045d3:	85 c0                	test   %eax,%eax
  1045d5:	74 07                	je     1045de <_ZN3PCI13GetProgIFNameEhhh+0xff>
  1045d7:	83 f8 10             	cmp    $0x10,%eax
  1045da:	74 0b                	je     1045e7 <_ZN3PCI13GetProgIFNameEhhh+0x108>
  1045dc:	eb 36                	jmp    104614 <_ZN3PCI13GetProgIFNameEhhh+0x135>
  1045de:	48 8d 05 6d c8 00 00 	lea    0xc86d(%rip),%rax        # 110e52 <__rodata+0xe52>
  1045e5:	eb 54                	jmp    10463b <_ZN3PCI13GetProgIFNameEhhh+0x15c>
  1045e7:	48 8d 05 74 c8 00 00 	lea    0xc874(%rip),%rax        # 110e62 <__rodata+0xe62>
  1045ee:	eb 4b                	jmp    10463b <_ZN3PCI13GetProgIFNameEhhh+0x15c>
  1045f0:	48 8d 05 7b c8 00 00 	lea    0xc87b(%rip),%rax        # 110e72 <__rodata+0xe72>
  1045f7:	eb 42                	jmp    10463b <_ZN3PCI13GetProgIFNameEhhh+0x15c>
  1045f9:	48 8d 05 89 c8 00 00 	lea    0xc889(%rip),%rax        # 110e89 <__rodata+0xe89>
  104600:	eb 39                	jmp    10463b <_ZN3PCI13GetProgIFNameEhhh+0x15c>
  104602:	48 8d 05 97 c8 00 00 	lea    0xc897(%rip),%rax        # 110ea0 <__rodata+0xea0>
  104609:	eb 30                	jmp    10463b <_ZN3PCI13GetProgIFNameEhhh+0x15c>
  10460b:	48 8d 05 9e c8 00 00 	lea    0xc89e(%rip),%rax        # 110eb0 <__rodata+0xeb0>
  104612:	eb 27                	jmp    10463b <_ZN3PCI13GetProgIFNameEhhh+0x15c>
  104614:	bf 04 00 00 00       	mov    $0x4,%edi
  104619:	e8 8b f3 ff ff       	callq  1039a9 <_Znam>
  10461e:	48 89 45 f8          	mov    %rax,-0x8(%rbp)
  104622:	0f b6 55 e4          	movzbl -0x1c(%rbp),%edx
  104626:	48 8b 45 f8          	mov    -0x8(%rbp),%rax
  10462a:	be 78 00 00 00       	mov    $0x78,%esi
  10462f:	48 89 c7             	mov    %rax,%rdi
  104632:	e8 2d 7c 00 00       	callq  10c264 <_Z4itoaPhjm>
  104637:	48 8b 45 f8          	mov    -0x8(%rbp),%rax
  10463b:	c9                   	leaveq 
  10463c:	c3                   	retq   
  10463d:	90                   	nop

000000000010463e <_ZN4ACPI4RSDP18GetRootSystemTableEv>:
  10463e:	f3 0f 1e fa          	endbr64 
  104642:	55                   	push   %rbp
  104643:	48 89 e5             	mov    %rsp,%rbp
  104646:	48 83 ec 18          	sub    $0x18,%rsp
  10464a:	48 89 7d e8          	mov    %rdi,-0x18(%rbp)
  10464e:	48 8b 45 e8          	mov    -0x18(%rbp),%rax
  104652:	0f b6 40 0f          	movzbl 0xf(%rax),%eax
  104656:	84 c0                	test   %al,%al
  104658:	74 0e                	je     104668 <_ZN4ACPI4RSDP18GetRootSystemTableEv+0x2a>
  10465a:	48 8b 45 e8          	mov    -0x18(%rbp),%rax
  10465e:	48 8b 40 18          	mov    0x18(%rax),%rax
  104662:	48 89 45 f8          	mov    %rax,-0x8(%rbp)
  104666:	eb 0d                	jmp    104675 <_ZN4ACPI4RSDP18GetRootSystemTableEv+0x37>
  104668:	48 8b 45 e8          	mov    -0x18(%rbp),%rax
  10466c:	8b 40 10             	mov    0x10(%rax),%eax
  10466f:	89 c0                	mov    %eax,%eax
  104671:	48 89 45 f8          	mov    %rax,-0x8(%rbp)
  104675:	48 8b 45 f8          	mov    -0x8(%rbp),%rax
  104679:	c9                   	leaveq 
  10467a:	c3                   	retq   
  10467b:	90                   	nop

000000000010467c <_ZN4ACPI4RSDP8is_validEv>:
  10467c:	f3 0f 1e fa          	endbr64 
  104680:	55                   	push   %rbp
  104681:	48 89 e5             	mov    %rsp,%rbp
  104684:	48 83 ec 28          	sub    $0x28,%rsp
  104688:	48 89 7d d8          	mov    %rdi,-0x28(%rbp)
  10468c:	48 8b 45 d8          	mov    -0x28(%rbp),%rax
  104690:	48 89 45 e0          	mov    %rax,-0x20(%rbp)
  104694:	48 8b 45 d8          	mov    -0x28(%rbp),%rax
  104698:	0f b6 40 0f          	movzbl 0xf(%rax),%eax
  10469c:	84 c0                	test   %al,%al
  10469e:	74 0a                	je     1046aa <_ZN4ACPI4RSDP8is_validEv+0x2e>
  1046a0:	48 c7 45 f8 24 00 00 	movq   $0x24,-0x8(%rbp)
  1046a7:	00 
  1046a8:	eb 08                	jmp    1046b2 <_ZN4ACPI4RSDP8is_validEv+0x36>
  1046aa:	48 c7 45 f8 14 00 00 	movq   $0x14,-0x8(%rbp)
  1046b1:	00 
  1046b2:	c6 45 f7 00          	movb   $0x0,-0x9(%rbp)
  1046b6:	48 c7 45 e8 00 00 00 	movq   $0x0,-0x18(%rbp)
  1046bd:	00 
  1046be:	48 8b 45 e8          	mov    -0x18(%rbp),%rax
  1046c2:	48 3b 45 f8          	cmp    -0x8(%rbp),%rax
  1046c6:	73 18                	jae    1046e0 <_ZN4ACPI4RSDP8is_validEv+0x64>
  1046c8:	48 8b 55 e0          	mov    -0x20(%rbp),%rdx
  1046cc:	48 8b 45 e8          	mov    -0x18(%rbp),%rax
  1046d0:	48 01 d0             	add    %rdx,%rax
  1046d3:	0f b6 00             	movzbl (%rax),%eax
  1046d6:	00 45 f7             	add    %al,-0x9(%rbp)
  1046d9:	48 83 45 e8 01       	addq   $0x1,-0x18(%rbp)
  1046de:	eb de                	jmp    1046be <_ZN4ACPI4RSDP8is_validEv+0x42>
  1046e0:	80 7d f7 00          	cmpb   $0x0,-0x9(%rbp)
  1046e4:	0f 94 c0             	sete   %al
  1046e7:	c9                   	leaveq 
  1046e8:	c3                   	retq   
  1046e9:	90                   	nop

00000000001046ea <_ZN4ACPI4RSDP13GetTableCountEv>:
  1046ea:	f3 0f 1e fa          	endbr64 
  1046ee:	55                   	push   %rbp
  1046ef:	48 89 e5             	mov    %rsp,%rbp
  1046f2:	48 83 ec 18          	sub    $0x18,%rsp
  1046f6:	48 89 7d e8          	mov    %rdi,-0x18(%rbp)
  1046fa:	48 8b 45 e8          	mov    -0x18(%rbp),%rax
  1046fe:	48 89 c7             	mov    %rax,%rdi
  104701:	e8 38 ff ff ff       	callq  10463e <_ZN4ACPI4RSDP18GetRootSystemTableEv>
  104706:	48 89 45 f0          	mov    %rax,-0x10(%rbp)
  10470a:	48 c7 45 f8 04 00 00 	movq   $0x4,-0x8(%rbp)
  104711:	00 
  104712:	48 8b 45 e8          	mov    -0x18(%rbp),%rax
  104716:	0f b6 40 0f          	movzbl 0xf(%rax),%eax
  10471a:	84 c0                	test   %al,%al
  10471c:	74 08                	je     104726 <_ZN4ACPI4RSDP13GetTableCountEv+0x3c>
  10471e:	48 c7 45 f8 08 00 00 	movq   $0x8,-0x8(%rbp)
  104725:	00 
  104726:	48 8b 45 f0          	mov    -0x10(%rbp),%rax
  10472a:	8b 40 04             	mov    0x4(%rax),%eax
  10472d:	89 c0                	mov    %eax,%eax
  10472f:	48 83 e8 24          	sub    $0x24,%rax
  104733:	ba 00 00 00 00       	mov    $0x0,%edx
  104738:	48 f7 75 f8          	divq   -0x8(%rbp)
  10473c:	c9                   	leaveq 
  10473d:	c3                   	retq   

000000000010473e <_ZN4ACPI4RSDP3GetEm>:
  10473e:	f3 0f 1e fa          	endbr64 
  104742:	55                   	push   %rbp
  104743:	48 89 e5             	mov    %rsp,%rbp
  104746:	48 83 ec 40          	sub    $0x40,%rsp
  10474a:	48 89 7d c8          	mov    %rdi,-0x38(%rbp)
  10474e:	48 89 75 c0          	mov    %rsi,-0x40(%rbp)
  104752:	48 8b 45 c8          	mov    -0x38(%rbp),%rax
  104756:	48 89 c7             	mov    %rax,%rdi
  104759:	e8 8c ff ff ff       	callq  1046ea <_ZN4ACPI4RSDP13GetTableCountEv>
  10475e:	48 89 45 f8          	mov    %rax,-0x8(%rbp)
  104762:	48 8b 45 f8          	mov    -0x8(%rbp),%rax
  104766:	48 3b 45 c0          	cmp    -0x40(%rbp),%rax
  10476a:	77 07                	ja     104773 <_ZN4ACPI4RSDP3GetEm+0x35>
  10476c:	b8 00 00 00 00       	mov    $0x0,%eax
  104771:	eb 68                	jmp    1047db <_ZN4ACPI4RSDP3GetEm+0x9d>
  104773:	48 8b 45 c8          	mov    -0x38(%rbp),%rax
  104777:	48 89 c7             	mov    %rax,%rdi
  10477a:	e8 bf fe ff ff       	callq  10463e <_ZN4ACPI4RSDP18GetRootSystemTableEv>
  10477f:	48 89 45 f0          	mov    %rax,-0x10(%rbp)
  104783:	48 8b 45 f0          	mov    -0x10(%rbp),%rax
  104787:	48 89 45 e8          	mov    %rax,-0x18(%rbp)
  10478b:	48 83 45 e8 24       	addq   $0x24,-0x18(%rbp)
  104790:	48 8b 45 c8          	mov    -0x38(%rbp),%rax
  104794:	0f b6 40 0f          	movzbl 0xf(%rax),%eax
  104798:	84 c0                	test   %al,%al
  10479a:	74 20                	je     1047bc <_ZN4ACPI4RSDP3GetEm+0x7e>
  10479c:	48 8b 45 e8          	mov    -0x18(%rbp),%rax
  1047a0:	48 89 45 d8          	mov    %rax,-0x28(%rbp)
  1047a4:	48 8b 45 c0          	mov    -0x40(%rbp),%rax
  1047a8:	48 8d 14 c5 00 00 00 	lea    0x0(,%rax,8),%rdx
  1047af:	00 
  1047b0:	48 8b 45 d8          	mov    -0x28(%rbp),%rax
  1047b4:	48 01 d0             	add    %rdx,%rax
  1047b7:	48 8b 00             	mov    (%rax),%rax
  1047ba:	eb 1f                	jmp    1047db <_ZN4ACPI4RSDP3GetEm+0x9d>
  1047bc:	48 8b 45 e8          	mov    -0x18(%rbp),%rax
  1047c0:	48 89 45 e0          	mov    %rax,-0x20(%rbp)
  1047c4:	48 8b 45 c0          	mov    -0x40(%rbp),%rax
  1047c8:	48 8d 14 85 00 00 00 	lea    0x0(,%rax,4),%rdx
  1047cf:	00 
  1047d0:	48 8b 45 e0          	mov    -0x20(%rbp),%rax
  1047d4:	48 01 d0             	add    %rdx,%rax
  1047d7:	8b 00                	mov    (%rax),%eax
  1047d9:	89 c0                	mov    %eax,%eax
  1047db:	c9                   	leaveq 
  1047dc:	c3                   	retq   
  1047dd:	90                   	nop

00000000001047de <_ZN4ACPI4RSDP14GetSystemTableEPKc>:
  1047de:	f3 0f 1e fa          	endbr64 
  1047e2:	55                   	push   %rbp
  1047e3:	48 89 e5             	mov    %rsp,%rbp
  1047e6:	48 83 ec 50          	sub    $0x50,%rsp
  1047ea:	48 89 7d b8          	mov    %rdi,-0x48(%rbp)
  1047ee:	48 89 75 b0          	mov    %rsi,-0x50(%rbp)
  1047f2:	48 8b 45 b8          	mov    -0x48(%rbp),%rax
  1047f6:	48 89 c7             	mov    %rax,%rdi
  1047f9:	e8 40 fe ff ff       	callq  10463e <_ZN4ACPI4RSDP18GetRootSystemTableEv>
  1047fe:	48 89 45 e0          	mov    %rax,-0x20(%rbp)
  104802:	48 8b 45 b8          	mov    -0x48(%rbp),%rax
  104806:	48 89 c7             	mov    %rax,%rdi
  104809:	e8 dc fe ff ff       	callq  1046ea <_ZN4ACPI4RSDP13GetTableCountEv>
  10480e:	48 89 45 d8          	mov    %rax,-0x28(%rbp)
  104812:	48 c7 45 f8 00 00 00 	movq   $0x0,-0x8(%rbp)
  104819:	00 
  10481a:	48 8b 45 f8          	mov    -0x8(%rbp),%rax
  10481e:	48 3b 45 d8          	cmp    -0x28(%rbp),%rax
  104822:	0f 83 b3 00 00 00    	jae    1048db <_ZN4ACPI4RSDP14GetSystemTableEPKc+0xfd>
  104828:	48 8b 45 e0          	mov    -0x20(%rbp),%rax
  10482c:	48 89 45 d0          	mov    %rax,-0x30(%rbp)
  104830:	48 83 45 d0 24       	addq   $0x24,-0x30(%rbp)
  104835:	48 c7 45 f0 00 00 00 	movq   $0x0,-0x10(%rbp)
  10483c:	00 
  10483d:	48 8b 45 b8          	mov    -0x48(%rbp),%rax
  104841:	0f b6 40 0f          	movzbl 0xf(%rax),%eax
  104845:	84 c0                	test   %al,%al
  104847:	74 24                	je     10486d <_ZN4ACPI4RSDP14GetSystemTableEPKc+0x8f>
  104849:	48 8b 45 d0          	mov    -0x30(%rbp),%rax
  10484d:	48 89 45 c0          	mov    %rax,-0x40(%rbp)
  104851:	48 8b 45 f8          	mov    -0x8(%rbp),%rax
  104855:	48 8d 14 c5 00 00 00 	lea    0x0(,%rax,8),%rdx
  10485c:	00 
  10485d:	48 8b 45 c0          	mov    -0x40(%rbp),%rax
  104861:	48 01 d0             	add    %rdx,%rax
  104864:	48 8b 00             	mov    (%rax),%rax
  104867:	48 89 45 f0          	mov    %rax,-0x10(%rbp)
  10486b:	eb 23                	jmp    104890 <_ZN4ACPI4RSDP14GetSystemTableEPKc+0xb2>
  10486d:	48 8b 45 d0          	mov    -0x30(%rbp),%rax
  104871:	48 89 45 c8          	mov    %rax,-0x38(%rbp)
  104875:	48 8b 45 f8          	mov    -0x8(%rbp),%rax
  104879:	48 8d 14 85 00 00 00 	lea    0x0(,%rax,4),%rdx
  104880:	00 
  104881:	48 8b 45 c8          	mov    -0x38(%rbp),%rax
  104885:	48 01 d0             	add    %rdx,%rax
  104888:	8b 00                	mov    (%rax),%eax
  10488a:	89 c0                	mov    %eax,%eax
  10488c:	48 89 45 f0          	mov    %rax,-0x10(%rbp)
  104890:	c7 45 ec 00 00 00 00 	movl   $0x0,-0x14(%rbp)
  104897:	83 7d ec 03          	cmpl   $0x3,-0x14(%rbp)
  10489b:	7f 34                	jg     1048d1 <_ZN4ACPI4RSDP14GetSystemTableEPKc+0xf3>
  10489d:	48 8b 55 f0          	mov    -0x10(%rbp),%rdx
  1048a1:	8b 45 ec             	mov    -0x14(%rbp),%eax
  1048a4:	48 98                	cltq   
  1048a6:	0f b6 14 02          	movzbl (%rdx,%rax,1),%edx
  1048aa:	8b 45 ec             	mov    -0x14(%rbp),%eax
  1048ad:	48 63 c8             	movslq %eax,%rcx
  1048b0:	48 8b 45 b0          	mov    -0x50(%rbp),%rax
  1048b4:	48 01 c8             	add    %rcx,%rax
  1048b7:	0f b6 00             	movzbl (%rax),%eax
  1048ba:	38 c2                	cmp    %al,%dl
  1048bc:	75 12                	jne    1048d0 <_ZN4ACPI4RSDP14GetSystemTableEPKc+0xf2>
  1048be:	83 7d ec 03          	cmpl   $0x3,-0x14(%rbp)
  1048c2:	75 06                	jne    1048ca <_ZN4ACPI4RSDP14GetSystemTableEPKc+0xec>
  1048c4:	48 8b 45 f0          	mov    -0x10(%rbp),%rax
  1048c8:	eb 16                	jmp    1048e0 <_ZN4ACPI4RSDP14GetSystemTableEPKc+0x102>
  1048ca:	83 45 ec 01          	addl   $0x1,-0x14(%rbp)
  1048ce:	eb c7                	jmp    104897 <_ZN4ACPI4RSDP14GetSystemTableEPKc+0xb9>
  1048d0:	90                   	nop
  1048d1:	48 83 45 f8 01       	addq   $0x1,-0x8(%rbp)
  1048d6:	e9 3f ff ff ff       	jmpq   10481a <_ZN4ACPI4RSDP14GetSystemTableEPKc+0x3c>
  1048db:	b8 00 00 00 00       	mov    $0x0,%eax
  1048e0:	c9                   	leaveq 
  1048e1:	c3                   	retq   

00000000001048e2 <_ZN4ACPI4FADT8is_validEv>:
  1048e2:	f3 0f 1e fa          	endbr64 
  1048e6:	55                   	push   %rbp
  1048e7:	48 89 e5             	mov    %rsp,%rbp
  1048ea:	48 83 ec 28          	sub    $0x28,%rsp
  1048ee:	48 89 7d d8          	mov    %rdi,-0x28(%rbp)
  1048f2:	48 8b 45 d8          	mov    -0x28(%rbp),%rax
  1048f6:	48 89 45 e8          	mov    %rax,-0x18(%rbp)
  1048fa:	48 c7 45 e0 f4 00 00 	movq   $0xf4,-0x20(%rbp)
  104901:	00 
  104902:	c6 45 ff 00          	movb   $0x0,-0x1(%rbp)
  104906:	48 c7 45 f0 00 00 00 	movq   $0x0,-0x10(%rbp)
  10490d:	00 
  10490e:	48 8b 45 f0          	mov    -0x10(%rbp),%rax
  104912:	48 3b 45 e0          	cmp    -0x20(%rbp),%rax
  104916:	73 18                	jae    104930 <_ZN4ACPI4FADT8is_validEv+0x4e>
  104918:	48 8b 55 e8          	mov    -0x18(%rbp),%rdx
  10491c:	48 8b 45 f0          	mov    -0x10(%rbp),%rax
  104920:	48 01 d0             	add    %rdx,%rax
  104923:	0f b6 00             	movzbl (%rax),%eax
  104926:	00 45 ff             	add    %al,-0x1(%rbp)
  104929:	48 83 45 f0 01       	addq   $0x1,-0x10(%rbp)
  10492e:	eb de                	jmp    10490e <_ZN4ACPI4FADT8is_validEv+0x2c>
  104930:	80 7d ff 00          	cmpb   $0x0,-0x1(%rbp)
  104934:	0f 94 c0             	sete   %al
  104937:	c9                   	leaveq 
  104938:	c3                   	retq   
  104939:	90                   	nop

000000000010493a <_ZN4ACPI4FADT7GetDSDTEv>:
  10493a:	f3 0f 1e fa          	endbr64 
  10493e:	55                   	push   %rbp
  10493f:	48 89 e5             	mov    %rsp,%rbp
  104942:	48 83 ec 08          	sub    $0x8,%rsp
  104946:	48 89 7d f8          	mov    %rdi,-0x8(%rbp)
  10494a:	48 8b 45 f8          	mov    -0x8(%rbp),%rax
  10494e:	8b 40 28             	mov    0x28(%rax),%eax
  104951:	85 c0                	test   %eax,%eax
  104953:	74 0b                	je     104960 <_ZN4ACPI4FADT7GetDSDTEv+0x26>
  104955:	48 8b 45 f8          	mov    -0x8(%rbp),%rax
  104959:	8b 40 28             	mov    0x28(%rax),%eax
  10495c:	89 c0                	mov    %eax,%eax
  10495e:	eb 0b                	jmp    10496b <_ZN4ACPI4FADT7GetDSDTEv+0x31>
  104960:	48 8b 45 f8          	mov    -0x8(%rbp),%rax
  104964:	48 8b 80 8c 00 00 00 	mov    0x8c(%rax),%rax
  10496b:	c9                   	leaveq 
  10496c:	c3                   	retq   
  10496d:	90                   	nop

000000000010496e <_ZN4ACPI4FADT10ACPIEnableEv>:
  10496e:	f3 0f 1e fa          	endbr64 
  104972:	55                   	push   %rbp
  104973:	48 89 e5             	mov    %rsp,%rbp
  104976:	48 83 ec 20          	sub    $0x20,%rsp
  10497a:	48 89 7d e8          	mov    %rdi,-0x18(%rbp)
  10497e:	48 8b 45 e8          	mov    -0x18(%rbp),%rax
  104982:	48 89 c7             	mov    %rax,%rdi
  104985:	e8 b0 ff ff ff       	callq  10493a <_ZN4ACPI4FADT7GetDSDTEv>
  10498a:	48 89 45 f0          	mov    %rax,-0x10(%rbp)
  10498e:	48 8b 45 f0          	mov    -0x10(%rbp),%rax
  104992:	48 89 c7             	mov    %rax,%rdi
  104995:	e8 30 02 00 00       	callq  104bca <_ZN4ACPI4DSDT13Get_S5_ObjectEv>
  10499a:	48 8b 45 e8          	mov    -0x18(%rbp),%rax
  10499e:	8b 40 30             	mov    0x30(%rax),%eax
  1049a1:	89 c0                	mov    %eax,%eax
  1049a3:	48 89 05 be 21 01 00 	mov    %rax,0x121be(%rip)        # 116b68 <_ZN4ACPI7SMI_CMDE>
  1049aa:	48 8b 45 e8          	mov    -0x18(%rbp),%rax
  1049ae:	0f b6 40 34          	movzbl 0x34(%rax),%eax
  1049b2:	88 05 b8 21 01 00    	mov    %al,0x121b8(%rip)        # 116b70 <_ZN4ACPI11ACPI_ENABLEE>
  1049b8:	48 8b 45 e8          	mov    -0x18(%rbp),%rax
  1049bc:	0f b6 40 35          	movzbl 0x35(%rax),%eax
  1049c0:	88 05 ab 21 01 00    	mov    %al,0x121ab(%rip)        # 116b71 <_ZN4ACPI12ACPI_DISABLEE>
  1049c6:	48 8b 45 e8          	mov    -0x18(%rbp),%rax
  1049ca:	8b 40 40             	mov    0x40(%rax),%eax
  1049cd:	89 c0                	mov    %eax,%eax
  1049cf:	48 89 05 a2 21 01 00 	mov    %rax,0x121a2(%rip)        # 116b78 <_ZN4ACPI8PM1a_CNTE>
  1049d6:	48 8b 45 e8          	mov    -0x18(%rbp),%rax
  1049da:	8b 40 44             	mov    0x44(%rax),%eax
  1049dd:	89 c0                	mov    %eax,%eax
  1049df:	48 89 05 9a 21 01 00 	mov    %rax,0x1219a(%rip)        # 116b80 <_ZN4ACPI8PM1b_CNTE>
  1049e6:	48 8b 45 e8          	mov    -0x18(%rbp),%rax
  1049ea:	0f b6 40 59          	movzbl 0x59(%rax),%eax
  1049ee:	88 05 94 21 01 00    	mov    %al,0x12194(%rip)        # 116b88 <_ZN4ACPI11PM1_CNT_LENE>
  1049f4:	66 c7 05 8d 21 01 00 	movw   $0x2000,0x1218d(%rip)        # 116b8a <_ZN4ACPI6SLP_ENE>
  1049fb:	00 20 
  1049fd:	66 c7 05 86 21 01 00 	movw   $0x1,0x12186(%rip)        # 116b8c <_ZN4ACPI6SCI_ENE>
  104a04:	01 00 
  104a06:	48 8b 05 6b 21 01 00 	mov    0x1216b(%rip),%rax        # 116b78 <_ZN4ACPI8PM1a_CNTE>
  104a0d:	0f b7 c0             	movzwl %ax,%eax
  104a10:	89 c7                	mov    %eax,%edi
  104a12:	e8 bd cd ff ff       	callq  1017d4 <_Z5__inwt>
  104a17:	0f b7 15 6e 21 01 00 	movzwl 0x1216e(%rip),%edx        # 116b8c <_ZN4ACPI6SCI_ENE>
  104a1e:	21 d0                	and    %edx,%eax
  104a20:	66 85 c0             	test   %ax,%ax
  104a23:	0f 94 c0             	sete   %al
  104a26:	84 c0                	test   %al,%al
  104a28:	0f 84 0d 01 00 00    	je     104b3b <_ZN4ACPI4FADT10ACPIEnableEv+0x1cd>
  104a2e:	48 8b 05 33 21 01 00 	mov    0x12133(%rip),%rax        # 116b68 <_ZN4ACPI7SMI_CMDE>
  104a35:	48 85 c0             	test   %rax,%rax
  104a38:	0f 84 ec 00 00 00    	je     104b2a <_ZN4ACPI4FADT10ACPIEnableEv+0x1bc>
  104a3e:	0f b6 05 2b 21 01 00 	movzbl 0x1212b(%rip),%eax        # 116b70 <_ZN4ACPI11ACPI_ENABLEE>
  104a45:	84 c0                	test   %al,%al
  104a47:	0f 84 dd 00 00 00    	je     104b2a <_ZN4ACPI4FADT10ACPIEnableEv+0x1bc>
  104a4d:	0f b6 05 1c 21 01 00 	movzbl 0x1211c(%rip),%eax        # 116b70 <_ZN4ACPI11ACPI_ENABLEE>
  104a54:	0f b6 d0             	movzbl %al,%edx
  104a57:	48 8b 05 0a 21 01 00 	mov    0x1210a(%rip),%rax        # 116b68 <_ZN4ACPI7SMI_CMDE>
  104a5e:	0f b6 c0             	movzbl %al,%eax
  104a61:	89 d6                	mov    %edx,%esi
  104a63:	89 c7                	mov    %eax,%edi
  104a65:	e8 ab cd ff ff       	callq  101815 <_Z6__outbth>
  104a6a:	c7 45 fc 00 00 00 00 	movl   $0x0,-0x4(%rbp)
  104a71:	81 7d fc 2b 01 00 00 	cmpl   $0x12b,-0x4(%rbp)
  104a78:	7f 36                	jg     104ab0 <_ZN4ACPI4FADT10ACPIEnableEv+0x142>
  104a7a:	48 8b 05 f7 20 01 00 	mov    0x120f7(%rip),%rax        # 116b78 <_ZN4ACPI8PM1a_CNTE>
  104a81:	0f b7 c0             	movzwl %ax,%eax
  104a84:	89 c7                	mov    %eax,%edi
  104a86:	e8 49 cd ff ff       	callq  1017d4 <_Z5__inwt>
  104a8b:	0f b7 15 fa 20 01 00 	movzwl 0x120fa(%rip),%edx        # 116b8c <_ZN4ACPI6SCI_ENE>
  104a92:	21 d0                	and    %edx,%eax
  104a94:	66 83 f8 01          	cmp    $0x1,%ax
  104a98:	0f 94 c0             	sete   %al
  104a9b:	84 c0                	test   %al,%al
  104a9d:	75 10                	jne    104aaf <_ZN4ACPI4FADT10ACPIEnableEv+0x141>
  104a9f:	bf 0a 00 00 00       	mov    $0xa,%edi
  104aa4:	e8 b3 d0 ff ff       	callq  101b5c <_Z8SleepForj>
  104aa9:	83 45 fc 01          	addl   $0x1,-0x4(%rbp)
  104aad:	eb c2                	jmp    104a71 <_ZN4ACPI4FADT10ACPIEnableEv+0x103>
  104aaf:	90                   	nop
  104ab0:	48 8b 05 c9 20 01 00 	mov    0x120c9(%rip),%rax        # 116b80 <_ZN4ACPI8PM1b_CNTE>
  104ab7:	48 85 c0             	test   %rax,%rax
  104aba:	74 3f                	je     104afb <_ZN4ACPI4FADT10ACPIEnableEv+0x18d>
  104abc:	81 7d fc 2b 01 00 00 	cmpl   $0x12b,-0x4(%rbp)
  104ac3:	7f 36                	jg     104afb <_ZN4ACPI4FADT10ACPIEnableEv+0x18d>
  104ac5:	48 8b 05 b4 20 01 00 	mov    0x120b4(%rip),%rax        # 116b80 <_ZN4ACPI8PM1b_CNTE>
  104acc:	0f b7 c0             	movzwl %ax,%eax
  104acf:	89 c7                	mov    %eax,%edi
  104ad1:	e8 fe cc ff ff       	callq  1017d4 <_Z5__inwt>
  104ad6:	0f b7 15 af 20 01 00 	movzwl 0x120af(%rip),%edx        # 116b8c <_ZN4ACPI6SCI_ENE>
  104add:	21 d0                	and    %edx,%eax
  104adf:	66 83 f8 01          	cmp    $0x1,%ax
  104ae3:	0f 94 c0             	sete   %al
  104ae6:	84 c0                	test   %al,%al
  104ae8:	75 10                	jne    104afa <_ZN4ACPI4FADT10ACPIEnableEv+0x18c>
  104aea:	bf 0a 00 00 00       	mov    $0xa,%edi
  104aef:	e8 68 d0 ff ff       	callq  101b5c <_Z8SleepForj>
  104af4:	83 45 fc 01          	addl   $0x1,-0x4(%rbp)
  104af8:	eb c2                	jmp    104abc <_ZN4ACPI4FADT10ACPIEnableEv+0x14e>
  104afa:	90                   	nop
  104afb:	81 7d fc 2b 01 00 00 	cmpl   $0x12b,-0x4(%rbp)
  104b02:	7f 13                	jg     104b17 <_ZN4ACPI4FADT10ACPIEnableEv+0x1a9>
  104b04:	48 8d 3d c8 c3 00 00 	lea    0xc3c8(%rip),%rdi        # 110ed3 <__rodata+0xed3>
  104b0b:	b8 00 00 00 00       	mov    $0x0,%eax
  104b10:	e8 fb 7c 00 00       	callq  10c810 <_Z7kprintfPKcz>
  104b15:	eb 24                	jmp    104b3b <_ZN4ACPI4FADT10ACPIEnableEv+0x1cd>
  104b17:	48 8d 3d c3 c3 00 00 	lea    0xc3c3(%rip),%rdi        # 110ee1 <__rodata+0xee1>
  104b1e:	b8 00 00 00 00       	mov    $0x0,%eax
  104b23:	e8 e8 7c 00 00       	callq  10c810 <_Z7kprintfPKcz>
  104b28:	eb 11                	jmp    104b3b <_ZN4ACPI4FADT10ACPIEnableEv+0x1cd>
  104b2a:	48 8d 3d c6 c3 00 00 	lea    0xc3c6(%rip),%rdi        # 110ef7 <__rodata+0xef7>
  104b31:	b8 00 00 00 00       	mov    $0x0,%eax
  104b36:	e8 d5 7c 00 00       	callq  10c810 <_Z7kprintfPKcz>
  104b3b:	c9                   	leaveq 
  104b3c:	c3                   	retq   
  104b3d:	90                   	nop

0000000000104b3e <_ZN4ACPI4FADT8ShutdownEv>:
  104b3e:	f3 0f 1e fa          	endbr64 
  104b42:	55                   	push   %rbp
  104b43:	48 89 e5             	mov    %rsp,%rbp
  104b46:	48 83 ec 10          	sub    $0x10,%rsp
  104b4a:	48 89 7d f8          	mov    %rdi,-0x8(%rbp)
  104b4e:	0f b7 05 37 20 01 00 	movzwl 0x12037(%rip),%eax        # 116b8c <_ZN4ACPI6SCI_ENE>
  104b55:	66 83 f8 01          	cmp    $0x1,%ax
  104b59:	75 6b                	jne    104bc6 <_ZN4ACPI4FADT8ShutdownEv+0x88>
  104b5b:	0f b7 15 2c 20 01 00 	movzwl 0x1202c(%rip),%edx        # 116b8e <_ZN4ACPI8SLP_TYPaE>
  104b62:	0f b7 05 21 20 01 00 	movzwl 0x12021(%rip),%eax        # 116b8a <_ZN4ACPI6SLP_ENE>
  104b69:	09 d0                	or     %edx,%eax
  104b6b:	0f b7 d0             	movzwl %ax,%edx
  104b6e:	48 8b 05 03 20 01 00 	mov    0x12003(%rip),%rax        # 116b78 <_ZN4ACPI8PM1a_CNTE>
  104b75:	0f b7 c0             	movzwl %ax,%eax
  104b78:	89 d6                	mov    %edx,%esi
  104b7a:	89 c7                	mov    %eax,%edi
  104b7c:	e8 b9 cc ff ff       	callq  10183a <_Z6__outwtt>
  104b81:	48 8b 05 f8 1f 01 00 	mov    0x11ff8(%rip),%rax        # 116b80 <_ZN4ACPI8PM1b_CNTE>
  104b88:	48 85 c0             	test   %rax,%rax
  104b8b:	74 26                	je     104bb3 <_ZN4ACPI4FADT8ShutdownEv+0x75>
  104b8d:	0f b7 15 fc 1f 01 00 	movzwl 0x11ffc(%rip),%edx        # 116b90 <_ZN4ACPI8SLP_TYPbE>
  104b94:	0f b7 05 ef 1f 01 00 	movzwl 0x11fef(%rip),%eax        # 116b8a <_ZN4ACPI6SLP_ENE>
  104b9b:	09 d0                	or     %edx,%eax
  104b9d:	0f b7 d0             	movzwl %ax,%edx
  104ba0:	48 8b 05 d9 1f 01 00 	mov    0x11fd9(%rip),%rax        # 116b80 <_ZN4ACPI8PM1b_CNTE>
  104ba7:	0f b7 c0             	movzwl %ax,%eax
  104baa:	89 d6                	mov    %edx,%esi
  104bac:	89 c7                	mov    %eax,%edi
  104bae:	e8 87 cc ff ff       	callq  10183a <_Z6__outwtt>
  104bb3:	48 8d 3d 5a c3 00 00 	lea    0xc35a(%rip),%rdi        # 110f14 <__rodata+0xf14>
  104bba:	b8 00 00 00 00       	mov    $0x0,%eax
  104bbf:	e8 4c 7c 00 00       	callq  10c810 <_Z7kprintfPKcz>
  104bc4:	eb 01                	jmp    104bc7 <_ZN4ACPI4FADT8ShutdownEv+0x89>
  104bc6:	90                   	nop
  104bc7:	c9                   	leaveq 
  104bc8:	c3                   	retq   
  104bc9:	90                   	nop

0000000000104bca <_ZN4ACPI4DSDT13Get_S5_ObjectEv>:
  104bca:	f3 0f 1e fa          	endbr64 
  104bce:	55                   	push   %rbp
  104bcf:	48 89 e5             	mov    %rsp,%rbp
  104bd2:	48 83 ec 20          	sub    $0x20,%rsp
  104bd6:	48 89 7d e8          	mov    %rdi,-0x18(%rbp)
  104bda:	0f b7 05 ad 1f 01 00 	movzwl 0x11fad(%rip),%eax        # 116b8e <_ZN4ACPI8SLP_TYPaE>
  104be1:	66 85 c0             	test   %ax,%ax
  104be4:	74 10                	je     104bf6 <_ZN4ACPI4DSDT13Get_S5_ObjectEv+0x2c>
  104be6:	0f b7 05 a3 1f 01 00 	movzwl 0x11fa3(%rip),%eax        # 116b90 <_ZN4ACPI8SLP_TYPbE>
  104bed:	66 85 c0             	test   %ax,%ax
  104bf0:	0f 85 0a 01 00 00    	jne    104d00 <_ZN4ACPI4DSDT13Get_S5_ObjectEv+0x136>
  104bf6:	48 8b 45 e8          	mov    -0x18(%rbp),%rax
  104bfa:	8b 40 04             	mov    0x4(%rax),%eax
  104bfd:	83 e8 24             	sub    $0x24,%eax
  104c00:	89 45 fc             	mov    %eax,-0x4(%rbp)
  104c03:	48 8b 45 e8          	mov    -0x18(%rbp),%rax
  104c07:	48 83 c0 24          	add    $0x24,%rax
  104c0b:	48 89 45 f0          	mov    %rax,-0x10(%rbp)
  104c0f:	8b 45 fc             	mov    -0x4(%rbp),%eax
  104c12:	8d 50 ff             	lea    -0x1(%rax),%edx
  104c15:	89 55 fc             	mov    %edx,-0x4(%rbp)
  104c18:	85 c0                	test   %eax,%eax
  104c1a:	0f 95 c0             	setne  %al
  104c1d:	84 c0                	test   %al,%al
  104c1f:	74 29                	je     104c4a <_ZN4ACPI4DSDT13Get_S5_ObjectEv+0x80>
  104c21:	48 8b 45 f0          	mov    -0x10(%rbp),%rax
  104c25:	ba 04 00 00 00       	mov    $0x4,%edx
  104c2a:	48 8d 35 fa c2 00 00 	lea    0xc2fa(%rip),%rsi        # 110f2b <__rodata+0xf2b>
  104c31:	48 89 c7             	mov    %rax,%rdi
  104c34:	e8 55 80 00 00       	callq  10cc8e <_Z6memcmpPvS_m>
  104c39:	85 c0                	test   %eax,%eax
  104c3b:	0f 94 c0             	sete   %al
  104c3e:	84 c0                	test   %al,%al
  104c40:	75 07                	jne    104c49 <_ZN4ACPI4DSDT13Get_S5_ObjectEv+0x7f>
  104c42:	48 83 45 f0 01       	addq   $0x1,-0x10(%rbp)
  104c47:	eb c6                	jmp    104c0f <_ZN4ACPI4DSDT13Get_S5_ObjectEv+0x45>
  104c49:	90                   	nop
  104c4a:	83 7d fc 00          	cmpl   $0x0,-0x4(%rbp)
  104c4e:	0f 84 ad 00 00 00    	je     104d01 <_ZN4ACPI4DSDT13Get_S5_ObjectEv+0x137>
  104c54:	48 8b 45 f0          	mov    -0x10(%rbp),%rax
  104c58:	48 83 e8 01          	sub    $0x1,%rax
  104c5c:	0f b6 00             	movzbl (%rax),%eax
  104c5f:	3c 08                	cmp    $0x8,%al
  104c61:	74 22                	je     104c85 <_ZN4ACPI4DSDT13Get_S5_ObjectEv+0xbb>
  104c63:	48 8b 45 f0          	mov    -0x10(%rbp),%rax
  104c67:	48 83 e8 02          	sub    $0x2,%rax
  104c6b:	0f b6 00             	movzbl (%rax),%eax
  104c6e:	3c 08                	cmp    $0x8,%al
  104c70:	0f 85 8b 00 00 00    	jne    104d01 <_ZN4ACPI4DSDT13Get_S5_ObjectEv+0x137>
  104c76:	48 8b 45 f0          	mov    -0x10(%rbp),%rax
  104c7a:	48 83 e8 01          	sub    $0x1,%rax
  104c7e:	0f b6 00             	movzbl (%rax),%eax
  104c81:	3c 5c                	cmp    $0x5c,%al
  104c83:	75 7c                	jne    104d01 <_ZN4ACPI4DSDT13Get_S5_ObjectEv+0x137>
  104c85:	48 8b 45 f0          	mov    -0x10(%rbp),%rax
  104c89:	48 83 c0 04          	add    $0x4,%rax
  104c8d:	0f b6 00             	movzbl (%rax),%eax
  104c90:	3c 12                	cmp    $0x12,%al
  104c92:	75 6d                	jne    104d01 <_ZN4ACPI4DSDT13Get_S5_ObjectEv+0x137>
  104c94:	48 83 45 f0 05       	addq   $0x5,-0x10(%rbp)
  104c99:	48 8b 45 f0          	mov    -0x10(%rbp),%rax
  104c9d:	0f b6 00             	movzbl (%rax),%eax
  104ca0:	0f be c0             	movsbl %al,%eax
  104ca3:	c1 f8 06             	sar    $0x6,%eax
  104ca6:	48 98                	cltq   
  104ca8:	83 e0 03             	and    $0x3,%eax
  104cab:	48 83 c0 02          	add    $0x2,%rax
  104caf:	48 01 45 f0          	add    %rax,-0x10(%rbp)
  104cb3:	48 8b 45 f0          	mov    -0x10(%rbp),%rax
  104cb7:	0f b6 00             	movzbl (%rax),%eax
  104cba:	3c 0a                	cmp    $0xa,%al
  104cbc:	75 05                	jne    104cc3 <_ZN4ACPI4DSDT13Get_S5_ObjectEv+0xf9>
  104cbe:	48 83 45 f0 01       	addq   $0x1,-0x10(%rbp)
  104cc3:	48 8b 45 f0          	mov    -0x10(%rbp),%rax
  104cc7:	0f b6 00             	movzbl (%rax),%eax
  104cca:	66 98                	cbtw   
  104ccc:	c1 e0 0a             	shl    $0xa,%eax
  104ccf:	66 89 05 b8 1e 01 00 	mov    %ax,0x11eb8(%rip)        # 116b8e <_ZN4ACPI8SLP_TYPaE>
  104cd6:	48 83 45 f0 01       	addq   $0x1,-0x10(%rbp)
  104cdb:	48 8b 45 f0          	mov    -0x10(%rbp),%rax
  104cdf:	0f b6 00             	movzbl (%rax),%eax
  104ce2:	3c 0a                	cmp    $0xa,%al
  104ce4:	75 05                	jne    104ceb <_ZN4ACPI4DSDT13Get_S5_ObjectEv+0x121>
  104ce6:	48 83 45 f0 01       	addq   $0x1,-0x10(%rbp)
  104ceb:	48 8b 45 f0          	mov    -0x10(%rbp),%rax
  104cef:	0f b6 00             	movzbl (%rax),%eax
  104cf2:	66 98                	cbtw   
  104cf4:	c1 e0 0a             	shl    $0xa,%eax
  104cf7:	66 89 05 92 1e 01 00 	mov    %ax,0x11e92(%rip)        # 116b90 <_ZN4ACPI8SLP_TYPbE>
  104cfe:	eb 01                	jmp    104d01 <_ZN4ACPI4DSDT13Get_S5_ObjectEv+0x137>
  104d00:	90                   	nop
  104d01:	c9                   	leaveq 
  104d02:	c3                   	retq   
  104d03:	90                   	nop

0000000000104d04 <_ZN11Framebuffer8PutPixelEjjj>:
  104d04:	f3 0f 1e fa          	endbr64 
  104d08:	55                   	push   %rbp
  104d09:	48 89 e5             	mov    %rsp,%rbp
  104d0c:	48 83 ec 18          	sub    $0x18,%rsp
  104d10:	48 89 7d f8          	mov    %rdi,-0x8(%rbp)
  104d14:	89 75 f4             	mov    %esi,-0xc(%rbp)
  104d17:	89 55 f0             	mov    %edx,-0x10(%rbp)
  104d1a:	89 4d ec             	mov    %ecx,-0x14(%rbp)
  104d1d:	48 8b 45 f8          	mov    -0x8(%rbp),%rax
  104d21:	48 8b 10             	mov    (%rax),%rdx
  104d24:	48 8b 45 f8          	mov    -0x8(%rbp),%rax
  104d28:	8b 40 08             	mov    0x8(%rax),%eax
  104d2b:	0f af 45 f0          	imul   -0x10(%rbp),%eax
  104d2f:	89 c1                	mov    %eax,%ecx
  104d31:	8b 45 f4             	mov    -0xc(%rbp),%eax
  104d34:	01 c8                	add    %ecx,%eax
  104d36:	89 c0                	mov    %eax,%eax
  104d38:	48 c1 e0 02          	shl    $0x2,%rax
  104d3c:	48 01 c2             	add    %rax,%rdx
  104d3f:	8b 45 ec             	mov    -0x14(%rbp),%eax
  104d42:	89 02                	mov    %eax,(%rdx)
  104d44:	90                   	nop
  104d45:	c9                   	leaveq 
  104d46:	c3                   	retq   
  104d47:	90                   	nop

0000000000104d48 <_ZN11Framebuffer8GetPixelEjj>:
  104d48:	f3 0f 1e fa          	endbr64 
  104d4c:	55                   	push   %rbp
  104d4d:	48 89 e5             	mov    %rsp,%rbp
  104d50:	48 83 ec 10          	sub    $0x10,%rsp
  104d54:	48 89 7d f8          	mov    %rdi,-0x8(%rbp)
  104d58:	89 75 f4             	mov    %esi,-0xc(%rbp)
  104d5b:	89 55 f0             	mov    %edx,-0x10(%rbp)
  104d5e:	48 8b 45 f8          	mov    -0x8(%rbp),%rax
  104d62:	48 8b 10             	mov    (%rax),%rdx
  104d65:	48 8b 45 f8          	mov    -0x8(%rbp),%rax
  104d69:	8b 40 08             	mov    0x8(%rax),%eax
  104d6c:	0f af 45 f0          	imul   -0x10(%rbp),%eax
  104d70:	89 c1                	mov    %eax,%ecx
  104d72:	8b 45 f4             	mov    -0xc(%rbp),%eax
  104d75:	01 c8                	add    %ecx,%eax
  104d77:	89 c0                	mov    %eax,%eax
  104d79:	48 c1 e0 02          	shl    $0x2,%rax
  104d7d:	48 01 d0             	add    %rdx,%rax
  104d80:	8b 00                	mov    (%rax),%eax
  104d82:	c9                   	leaveq 
  104d83:	c3                   	retq   

0000000000104d84 <_ZN11Framebuffer8DrawRectEjjjjj>:
  104d84:	f3 0f 1e fa          	endbr64 
  104d88:	55                   	push   %rbp
  104d89:	48 89 e5             	mov    %rsp,%rbp
  104d8c:	48 83 ec 30          	sub    $0x30,%rsp
  104d90:	48 89 7d e8          	mov    %rdi,-0x18(%rbp)
  104d94:	89 75 e4             	mov    %esi,-0x1c(%rbp)
  104d97:	89 55 e0             	mov    %edx,-0x20(%rbp)
  104d9a:	89 4d dc             	mov    %ecx,-0x24(%rbp)
  104d9d:	44 89 45 d8          	mov    %r8d,-0x28(%rbp)
  104da1:	44 89 4d d4          	mov    %r9d,-0x2c(%rbp)
  104da5:	8b 55 e4             	mov    -0x1c(%rbp),%edx
  104da8:	8b 45 dc             	mov    -0x24(%rbp),%eax
  104dab:	01 d0                	add    %edx,%eax
  104dad:	89 45 f4             	mov    %eax,-0xc(%rbp)
  104db0:	8b 55 e0             	mov    -0x20(%rbp),%edx
  104db3:	8b 45 d8             	mov    -0x28(%rbp),%eax
  104db6:	01 d0                	add    %edx,%eax
  104db8:	89 45 f0             	mov    %eax,-0x10(%rbp)
  104dbb:	c7 45 fc 00 00 00 00 	movl   $0x0,-0x4(%rbp)
  104dc2:	8b 45 fc             	mov    -0x4(%rbp),%eax
  104dc5:	3b 45 f0             	cmp    -0x10(%rbp),%eax
  104dc8:	73 30                	jae    104dfa <_ZN11Framebuffer8DrawRectEjjjjj+0x76>
  104dca:	c7 45 f8 00 00 00 00 	movl   $0x0,-0x8(%rbp)
  104dd1:	8b 45 f8             	mov    -0x8(%rbp),%eax
  104dd4:	3b 45 f4             	cmp    -0xc(%rbp),%eax
  104dd7:	73 1b                	jae    104df4 <_ZN11Framebuffer8DrawRectEjjjjj+0x70>
  104dd9:	8b 4d d4             	mov    -0x2c(%rbp),%ecx
  104ddc:	8b 55 fc             	mov    -0x4(%rbp),%edx
  104ddf:	8b 75 f8             	mov    -0x8(%rbp),%esi
  104de2:	48 8b 45 e8          	mov    -0x18(%rbp),%rax
  104de6:	48 89 c7             	mov    %rax,%rdi
  104de9:	e8 16 ff ff ff       	callq  104d04 <_ZN11Framebuffer8PutPixelEjjj>
  104dee:	83 45 f8 01          	addl   $0x1,-0x8(%rbp)
  104df2:	eb dd                	jmp    104dd1 <_ZN11Framebuffer8DrawRectEjjjjj+0x4d>
  104df4:	83 45 fc 01          	addl   $0x1,-0x4(%rbp)
  104df8:	eb c8                	jmp    104dc2 <_ZN11Framebuffer8DrawRectEjjjjj+0x3e>
  104dfa:	90                   	nop
  104dfb:	c9                   	leaveq 
  104dfc:	c3                   	retq   
  104dfd:	90                   	nop

0000000000104dfe <_ZN11Framebuffer15DrawMouseCursorEPhjjj>:
  104dfe:	f3 0f 1e fa          	endbr64 
  104e02:	55                   	push   %rbp
  104e03:	48 89 e5             	mov    %rsp,%rbp
  104e06:	53                   	push   %rbx
  104e07:	48 83 ec 40          	sub    $0x40,%rsp
  104e0b:	48 89 7d d0          	mov    %rdi,-0x30(%rbp)
  104e0f:	48 89 75 c8          	mov    %rsi,-0x38(%rbp)
  104e13:	89 55 c4             	mov    %edx,-0x3c(%rbp)
  104e16:	89 4d c0             	mov    %ecx,-0x40(%rbp)
  104e19:	44 89 45 bc          	mov    %r8d,-0x44(%rbp)
  104e1d:	c7 45 f4 10 00 00 00 	movl   $0x10,-0xc(%rbp)
  104e24:	c7 45 f0 10 00 00 00 	movl   $0x10,-0x10(%rbp)
  104e2b:	48 8b 45 d0          	mov    -0x30(%rbp),%rax
  104e2f:	8b 40 08             	mov    0x8(%rax),%eax
  104e32:	2b 45 c4             	sub    -0x3c(%rbp),%eax
  104e35:	89 45 e4             	mov    %eax,-0x1c(%rbp)
  104e38:	48 8b 45 d0          	mov    -0x30(%rbp),%rax
  104e3c:	8b 40 0c             	mov    0xc(%rax),%eax
  104e3f:	2b 45 c0             	sub    -0x40(%rbp),%eax
  104e42:	89 45 e0             	mov    %eax,-0x20(%rbp)
  104e45:	83 7d e4 0f          	cmpl   $0xf,-0x1c(%rbp)
  104e49:	7f 06                	jg     104e51 <_ZN11Framebuffer15DrawMouseCursorEPhjjj+0x53>
  104e4b:	8b 45 e4             	mov    -0x1c(%rbp),%eax
  104e4e:	89 45 f4             	mov    %eax,-0xc(%rbp)
  104e51:	83 7d e0 0f          	cmpl   $0xf,-0x20(%rbp)
  104e55:	7f 06                	jg     104e5d <_ZN11Framebuffer15DrawMouseCursorEPhjjj+0x5f>
  104e57:	8b 45 e0             	mov    -0x20(%rbp),%eax
  104e5a:	89 45 f0             	mov    %eax,-0x10(%rbp)
  104e5d:	c7 45 ec 00 00 00 00 	movl   $0x0,-0x14(%rbp)
  104e64:	8b 45 ec             	mov    -0x14(%rbp),%eax
  104e67:	3b 45 f0             	cmp    -0x10(%rbp),%eax
  104e6a:	0f 8d 23 01 00 00    	jge    104f93 <_ZN11Framebuffer15DrawMouseCursorEPhjjj+0x195>
  104e70:	c7 45 e8 00 00 00 00 	movl   $0x0,-0x18(%rbp)
  104e77:	8b 45 e8             	mov    -0x18(%rbp),%eax
  104e7a:	3b 45 f4             	cmp    -0xc(%rbp),%eax
  104e7d:	0f 8d 07 01 00 00    	jge    104f8a <_ZN11Framebuffer15DrawMouseCursorEPhjjj+0x18c>
  104e83:	8b 45 ec             	mov    -0x14(%rbp),%eax
  104e86:	c1 e0 04             	shl    $0x4,%eax
  104e89:	89 c2                	mov    %eax,%edx
  104e8b:	8b 45 e8             	mov    -0x18(%rbp),%eax
  104e8e:	01 d0                	add    %edx,%eax
  104e90:	89 45 dc             	mov    %eax,-0x24(%rbp)
  104e93:	8b 45 dc             	mov    -0x24(%rbp),%eax
  104e96:	8d 50 07             	lea    0x7(%rax),%edx
  104e99:	85 c0                	test   %eax,%eax
  104e9b:	0f 48 c2             	cmovs  %edx,%eax
  104e9e:	c1 f8 03             	sar    $0x3,%eax
  104ea1:	89 45 d8             	mov    %eax,-0x28(%rbp)
  104ea4:	8b 45 d8             	mov    -0x28(%rbp),%eax
  104ea7:	48 63 d0             	movslq %eax,%rdx
  104eaa:	48 8b 45 c8          	mov    -0x38(%rbp),%rax
  104eae:	48 01 d0             	add    %rdx,%rax
  104eb1:	0f b6 00             	movzbl (%rax),%eax
  104eb4:	0f b6 f0             	movzbl %al,%esi
  104eb7:	8b 45 e8             	mov    -0x18(%rbp),%eax
  104eba:	99                   	cltd   
  104ebb:	c1 ea 1d             	shr    $0x1d,%edx
  104ebe:	01 d0                	add    %edx,%eax
  104ec0:	83 e0 07             	and    $0x7,%eax
  104ec3:	29 d0                	sub    %edx,%eax
  104ec5:	ba 80 00 00 00       	mov    $0x80,%edx
  104eca:	89 c1                	mov    %eax,%ecx
  104ecc:	d3 fa                	sar    %cl,%edx
  104ece:	89 d0                	mov    %edx,%eax
  104ed0:	21 f0                	and    %esi,%eax
  104ed2:	85 c0                	test   %eax,%eax
  104ed4:	0f 84 a7 00 00 00    	je     104f81 <_ZN11Framebuffer15DrawMouseCursorEPhjjj+0x183>
  104eda:	8b 55 ec             	mov    -0x14(%rbp),%edx
  104edd:	8b 45 c0             	mov    -0x40(%rbp),%eax
  104ee0:	01 c2                	add    %eax,%edx
  104ee2:	8b 4d e8             	mov    -0x18(%rbp),%ecx
  104ee5:	8b 45 c4             	mov    -0x3c(%rbp),%eax
  104ee8:	01 c1                	add    %eax,%ecx
  104eea:	8b 45 ec             	mov    -0x14(%rbp),%eax
  104eed:	c1 e0 04             	shl    $0x4,%eax
  104ef0:	89 c6                	mov    %eax,%esi
  104ef2:	8b 45 e8             	mov    -0x18(%rbp),%eax
  104ef5:	8d 1c 06             	lea    (%rsi,%rax,1),%ebx
  104ef8:	48 8b 45 d0          	mov    -0x30(%rbp),%rax
  104efc:	89 ce                	mov    %ecx,%esi
  104efe:	48 89 c7             	mov    %rax,%rdi
  104f01:	e8 42 fe ff ff       	callq  104d48 <_ZN11Framebuffer8GetPixelEjj>
  104f06:	48 63 d3             	movslq %ebx,%rdx
  104f09:	48 8d 0c 95 00 00 00 	lea    0x0(,%rdx,4),%rcx
  104f10:	00 
  104f11:	48 8d 15 a8 1c 01 00 	lea    0x11ca8(%rip),%rdx        # 116bc0 <MouseCursorBuffer>
  104f18:	89 04 11             	mov    %eax,(%rcx,%rdx,1)
  104f1b:	8b 55 ec             	mov    -0x14(%rbp),%edx
  104f1e:	8b 45 c0             	mov    -0x40(%rbp),%eax
  104f21:	8d 3c 02             	lea    (%rdx,%rax,1),%edi
  104f24:	8b 55 e8             	mov    -0x18(%rbp),%edx
  104f27:	8b 45 c4             	mov    -0x3c(%rbp),%eax
  104f2a:	8d 34 02             	lea    (%rdx,%rax,1),%esi
  104f2d:	8b 55 bc             	mov    -0x44(%rbp),%edx
  104f30:	48 8b 45 d0          	mov    -0x30(%rbp),%rax
  104f34:	89 d1                	mov    %edx,%ecx
  104f36:	89 fa                	mov    %edi,%edx
  104f38:	48 89 c7             	mov    %rax,%rdi
  104f3b:	e8 c4 fd ff ff       	callq  104d04 <_ZN11Framebuffer8PutPixelEjjj>
  104f40:	8b 55 ec             	mov    -0x14(%rbp),%edx
  104f43:	8b 45 c0             	mov    -0x40(%rbp),%eax
  104f46:	01 c2                	add    %eax,%edx
  104f48:	8b 4d e8             	mov    -0x18(%rbp),%ecx
  104f4b:	8b 45 c4             	mov    -0x3c(%rbp),%eax
  104f4e:	01 c1                	add    %eax,%ecx
  104f50:	8b 45 ec             	mov    -0x14(%rbp),%eax
  104f53:	c1 e0 04             	shl    $0x4,%eax
  104f56:	89 c6                	mov    %eax,%esi
  104f58:	8b 45 e8             	mov    -0x18(%rbp),%eax
  104f5b:	8d 1c 06             	lea    (%rsi,%rax,1),%ebx
  104f5e:	48 8b 45 d0          	mov    -0x30(%rbp),%rax
  104f62:	89 ce                	mov    %ecx,%esi
  104f64:	48 89 c7             	mov    %rax,%rdi
  104f67:	e8 dc fd ff ff       	callq  104d48 <_ZN11Framebuffer8GetPixelEjj>
  104f6c:	48 63 d3             	movslq %ebx,%rdx
  104f6f:	48 8d 0c 95 00 00 00 	lea    0x0(,%rdx,4),%rcx
  104f76:	00 
  104f77:	48 8d 15 42 20 01 00 	lea    0x12042(%rip),%rdx        # 116fc0 <MouseCursorBufferAfter>
  104f7e:	89 04 11             	mov    %eax,(%rcx,%rdx,1)
  104f81:	83 45 e8 01          	addl   $0x1,-0x18(%rbp)
  104f85:	e9 ed fe ff ff       	jmpq   104e77 <_ZN11Framebuffer15DrawMouseCursorEPhjjj+0x79>
  104f8a:	83 45 ec 01          	addl   $0x1,-0x14(%rbp)
  104f8e:	e9 d1 fe ff ff       	jmpq   104e64 <_ZN11Framebuffer15DrawMouseCursorEPhjjj+0x66>
  104f93:	c6 05 06 1c 01 00 01 	movb   $0x1,0x11c06(%rip)        # 116ba0 <MouseDrawn>
  104f9a:	90                   	nop
  104f9b:	48 83 c4 40          	add    $0x40,%rsp
  104f9f:	5b                   	pop    %rbx
  104fa0:	5d                   	pop    %rbp
  104fa1:	c3                   	retq   

0000000000104fa2 <_ZN11Framebuffer16ClearMouseCursorEPhjj>:
  104fa2:	f3 0f 1e fa          	endbr64 
  104fa6:	55                   	push   %rbp
  104fa7:	48 89 e5             	mov    %rsp,%rbp
  104faa:	48 83 ec 38          	sub    $0x38,%rsp
  104fae:	48 89 7d d8          	mov    %rdi,-0x28(%rbp)
  104fb2:	48 89 75 d0          	mov    %rsi,-0x30(%rbp)
  104fb6:	89 55 cc             	mov    %edx,-0x34(%rbp)
  104fb9:	89 4d c8             	mov    %ecx,-0x38(%rbp)
  104fbc:	0f b6 05 dd 1b 01 00 	movzbl 0x11bdd(%rip),%eax        # 116ba0 <MouseDrawn>
  104fc3:	83 f0 01             	xor    $0x1,%eax
  104fc6:	84 c0                	test   %al,%al
  104fc8:	0f 85 5b 01 00 00    	jne    105129 <_ZN11Framebuffer16ClearMouseCursorEPhjj+0x187>
  104fce:	c7 45 fc 10 00 00 00 	movl   $0x10,-0x4(%rbp)
  104fd5:	c7 45 f8 10 00 00 00 	movl   $0x10,-0x8(%rbp)
  104fdc:	48 8b 45 d8          	mov    -0x28(%rbp),%rax
  104fe0:	8b 40 08             	mov    0x8(%rax),%eax
  104fe3:	2b 45 cc             	sub    -0x34(%rbp),%eax
  104fe6:	89 45 ec             	mov    %eax,-0x14(%rbp)
  104fe9:	48 8b 45 d8          	mov    -0x28(%rbp),%rax
  104fed:	8b 40 0c             	mov    0xc(%rax),%eax
  104ff0:	2b 45 c8             	sub    -0x38(%rbp),%eax
  104ff3:	89 45 e8             	mov    %eax,-0x18(%rbp)
  104ff6:	83 7d ec 0f          	cmpl   $0xf,-0x14(%rbp)
  104ffa:	7f 06                	jg     105002 <_ZN11Framebuffer16ClearMouseCursorEPhjj+0x60>
  104ffc:	8b 45 ec             	mov    -0x14(%rbp),%eax
  104fff:	89 45 fc             	mov    %eax,-0x4(%rbp)
  105002:	83 7d e8 0f          	cmpl   $0xf,-0x18(%rbp)
  105006:	7f 06                	jg     10500e <_ZN11Framebuffer16ClearMouseCursorEPhjj+0x6c>
  105008:	8b 45 e8             	mov    -0x18(%rbp),%eax
  10500b:	89 45 f8             	mov    %eax,-0x8(%rbp)
  10500e:	c7 45 f4 00 00 00 00 	movl   $0x0,-0xc(%rbp)
  105015:	8b 45 f4             	mov    -0xc(%rbp),%eax
  105018:	3b 45 f8             	cmp    -0x8(%rbp),%eax
  10501b:	0f 8d 09 01 00 00    	jge    10512a <_ZN11Framebuffer16ClearMouseCursorEPhjj+0x188>
  105021:	c7 45 f0 00 00 00 00 	movl   $0x0,-0x10(%rbp)
  105028:	8b 45 f0             	mov    -0x10(%rbp),%eax
  10502b:	3b 45 fc             	cmp    -0x4(%rbp),%eax
  10502e:	0f 8d ec 00 00 00    	jge    105120 <_ZN11Framebuffer16ClearMouseCursorEPhjj+0x17e>
  105034:	8b 45 f4             	mov    -0xc(%rbp),%eax
  105037:	c1 e0 04             	shl    $0x4,%eax
  10503a:	89 c2                	mov    %eax,%edx
  10503c:	8b 45 f0             	mov    -0x10(%rbp),%eax
  10503f:	01 d0                	add    %edx,%eax
  105041:	89 45 e4             	mov    %eax,-0x1c(%rbp)
  105044:	8b 45 e4             	mov    -0x1c(%rbp),%eax
  105047:	8d 50 07             	lea    0x7(%rax),%edx
  10504a:	85 c0                	test   %eax,%eax
  10504c:	0f 48 c2             	cmovs  %edx,%eax
  10504f:	c1 f8 03             	sar    $0x3,%eax
  105052:	89 45 e0             	mov    %eax,-0x20(%rbp)
  105055:	8b 45 e0             	mov    -0x20(%rbp),%eax
  105058:	48 63 d0             	movslq %eax,%rdx
  10505b:	48 8b 45 d0          	mov    -0x30(%rbp),%rax
  10505f:	48 01 d0             	add    %rdx,%rax
  105062:	0f b6 00             	movzbl (%rax),%eax
  105065:	0f b6 f0             	movzbl %al,%esi
  105068:	8b 45 f0             	mov    -0x10(%rbp),%eax
  10506b:	99                   	cltd   
  10506c:	c1 ea 1d             	shr    $0x1d,%edx
  10506f:	01 d0                	add    %edx,%eax
  105071:	83 e0 07             	and    $0x7,%eax
  105074:	29 d0                	sub    %edx,%eax
  105076:	ba 80 00 00 00       	mov    $0x80,%edx
  10507b:	89 c1                	mov    %eax,%ecx
  10507d:	d3 fa                	sar    %cl,%edx
  10507f:	89 d0                	mov    %edx,%eax
  105081:	21 f0                	and    %esi,%eax
  105083:	85 c0                	test   %eax,%eax
  105085:	0f 84 8c 00 00 00    	je     105117 <_ZN11Framebuffer16ClearMouseCursorEPhjj+0x175>
  10508b:	8b 55 f4             	mov    -0xc(%rbp),%edx
  10508e:	8b 45 c8             	mov    -0x38(%rbp),%eax
  105091:	01 c2                	add    %eax,%edx
  105093:	8b 4d f0             	mov    -0x10(%rbp),%ecx
  105096:	8b 45 cc             	mov    -0x34(%rbp),%eax
  105099:	01 c1                	add    %eax,%ecx
  10509b:	48 8b 45 d8          	mov    -0x28(%rbp),%rax
  10509f:	89 ce                	mov    %ecx,%esi
  1050a1:	48 89 c7             	mov    %rax,%rdi
  1050a4:	e8 9f fc ff ff       	callq  104d48 <_ZN11Framebuffer8GetPixelEjj>
  1050a9:	8b 55 f4             	mov    -0xc(%rbp),%edx
  1050ac:	89 d1                	mov    %edx,%ecx
  1050ae:	c1 e1 04             	shl    $0x4,%ecx
  1050b1:	8b 55 f0             	mov    -0x10(%rbp),%edx
  1050b4:	01 ca                	add    %ecx,%edx
  1050b6:	48 63 d2             	movslq %edx,%rdx
  1050b9:	48 8d 0c 95 00 00 00 	lea    0x0(,%rdx,4),%rcx
  1050c0:	00 
  1050c1:	48 8d 15 f8 1e 01 00 	lea    0x11ef8(%rip),%rdx        # 116fc0 <MouseCursorBufferAfter>
  1050c8:	8b 14 11             	mov    (%rcx,%rdx,1),%edx
  1050cb:	39 d0                	cmp    %edx,%eax
  1050cd:	0f 94 c0             	sete   %al
  1050d0:	84 c0                	test   %al,%al
  1050d2:	74 43                	je     105117 <_ZN11Framebuffer16ClearMouseCursorEPhjj+0x175>
  1050d4:	8b 45 f4             	mov    -0xc(%rbp),%eax
  1050d7:	c1 e0 04             	shl    $0x4,%eax
  1050da:	89 c2                	mov    %eax,%edx
  1050dc:	8b 45 f0             	mov    -0x10(%rbp),%eax
  1050df:	01 d0                	add    %edx,%eax
  1050e1:	48 98                	cltq   
  1050e3:	48 8d 14 85 00 00 00 	lea    0x0(,%rax,4),%rdx
  1050ea:	00 
  1050eb:	48 8d 05 ce 1a 01 00 	lea    0x11ace(%rip),%rax        # 116bc0 <MouseCursorBuffer>
  1050f2:	8b 14 02             	mov    (%rdx,%rax,1),%edx
  1050f5:	8b 4d f4             	mov    -0xc(%rbp),%ecx
  1050f8:	8b 45 c8             	mov    -0x38(%rbp),%eax
  1050fb:	8d 3c 01             	lea    (%rcx,%rax,1),%edi
  1050fe:	8b 4d f0             	mov    -0x10(%rbp),%ecx
  105101:	8b 45 cc             	mov    -0x34(%rbp),%eax
  105104:	8d 34 01             	lea    (%rcx,%rax,1),%esi
  105107:	48 8b 45 d8          	mov    -0x28(%rbp),%rax
  10510b:	89 d1                	mov    %edx,%ecx
  10510d:	89 fa                	mov    %edi,%edx
  10510f:	48 89 c7             	mov    %rax,%rdi
  105112:	e8 ed fb ff ff       	callq  104d04 <_ZN11Framebuffer8PutPixelEjjj>
  105117:	83 45 f0 01          	addl   $0x1,-0x10(%rbp)
  10511b:	e9 08 ff ff ff       	jmpq   105028 <_ZN11Framebuffer16ClearMouseCursorEPhjj+0x86>
  105120:	83 45 f4 01          	addl   $0x1,-0xc(%rbp)
  105124:	e9 ec fe ff ff       	jmpq   105015 <_ZN11Framebuffer16ClearMouseCursorEPhjj+0x73>
  105129:	90                   	nop
  10512a:	c9                   	leaveq 
  10512b:	c3                   	retq   

000000000010512c <_ZN7Display13SharedDisplayEv>:
  10512c:	f3 0f 1e fa          	endbr64 
  105130:	55                   	push   %rbp
  105131:	48 89 e5             	mov    %rsp,%rbp
  105134:	48 8b 05 85 22 01 00 	mov    0x12285(%rip),%rax        # 1173c0 <_ZN7Display9s_DisplayE>
  10513b:	48 85 c0             	test   %rax,%rax
  10513e:	75 0e                	jne    10514e <_ZN7Display13SharedDisplayEv+0x22>
  105140:	48 8d 05 99 22 01 00 	lea    0x12299(%rip),%rax        # 1173e0 <display>
  105147:	48 89 05 72 22 01 00 	mov    %rax,0x12272(%rip)        # 1173c0 <_ZN7Display9s_DisplayE>
  10514e:	48 8b 05 6b 22 01 00 	mov    0x1226b(%rip),%rax        # 1173c0 <_ZN7Display9s_DisplayE>
  105155:	5d                   	pop    %rbp
  105156:	c3                   	retq   

0000000000105157 <_Z17InitialiseDisplay11FramebufferP9psf1_font>:
  105157:	f3 0f 1e fa          	endbr64 
  10515b:	55                   	push   %rbp
  10515c:	48 89 e5             	mov    %rsp,%rbp
  10515f:	48 83 ec 30          	sub    $0x30,%rsp
  105163:	48 89 7d d8          	mov    %rdi,-0x28(%rbp)
  105167:	48 8b 45 10          	mov    0x10(%rbp),%rax
  10516b:	48 89 45 f0          	mov    %rax,-0x10(%rbp)
  10516f:	8b 55 18             	mov    0x18(%rbp),%edx
  105172:	8b 45 1c             	mov    0x1c(%rbp),%eax
  105175:	0f af c2             	imul   %edx,%eax
  105178:	c1 e0 02             	shl    $0x2,%eax
  10517b:	89 c0                	mov    %eax,%eax
  10517d:	48 89 45 e8          	mov    %rax,-0x18(%rbp)
  105181:	48 8b 45 f0          	mov    -0x10(%rbp),%rax
  105185:	48 89 45 f8          	mov    %rax,-0x8(%rbp)
  105189:	48 8b 55 f0          	mov    -0x10(%rbp),%rdx
  10518d:	48 8b 45 e8          	mov    -0x18(%rbp),%rax
  105191:	48 01 d0             	add    %rdx,%rax
  105194:	48 05 00 10 00 00    	add    $0x1000,%rax
  10519a:	48 39 45 f8          	cmp    %rax,-0x8(%rbp)
  10519e:	73 26                	jae    1051c6 <_Z17InitialiseDisplay11FramebufferP9psf1_font+0x6f>
  1051a0:	48 8b 55 f8          	mov    -0x8(%rbp),%rdx
  1051a4:	48 8b 45 f8          	mov    -0x8(%rbp),%rax
  1051a8:	b9 13 00 00 00       	mov    $0x13,%ecx
  1051ad:	48 89 c6             	mov    %rax,%rsi
  1051b0:	48 8d 3d 91 fe 00 00 	lea    0xfe91(%rip),%rdi        # 115048 <KernelDirectory>
  1051b7:	e8 1a af ff ff       	callq  1000d6 <_ZN16PageTableManager9MapMemoryEmmm>
  1051bc:	48 81 45 f8 00 10 00 	addq   $0x1000,-0x8(%rbp)
  1051c3:	00 
  1051c4:	eb c3                	jmp    105189 <_Z17InitialiseDisplay11FramebufferP9psf1_font+0x32>
  1051c6:	48 8b 45 10          	mov    0x10(%rbp),%rax
  1051ca:	48 8b 55 18          	mov    0x18(%rbp),%rdx
  1051ce:	48 89 05 2b 22 01 00 	mov    %rax,0x1222b(%rip)        # 117400 <display+0x20>
  1051d5:	48 89 15 2c 22 01 00 	mov    %rdx,0x1222c(%rip)        # 117408 <display+0x28>
  1051dc:	48 8b 45 20          	mov    0x20(%rbp),%rax
  1051e0:	48 89 05 29 22 01 00 	mov    %rax,0x12229(%rip)        # 117410 <display+0x30>
  1051e7:	c7 05 f3 21 01 00 ff 	movl   $0xff00ffff,0x121f3(%rip)        # 1173e4 <display+0x4>
  1051ee:	ff 00 ff 
  1051f1:	c7 05 e5 21 01 00 50 	movl   $0xff505050,0x121e5(%rip)        # 1173e0 <display>
  1051f8:	50 50 ff 
  1051fb:	c7 05 e3 21 01 00 00 	movl   $0x0,0x121e3(%rip)        # 1173e8 <display+0x8>
  105202:	00 00 00 
  105205:	c7 05 dd 21 01 00 00 	movl   $0x0,0x121dd(%rip)        # 1173ec <display+0xc>
  10520c:	00 00 00 
  10520f:	c7 05 df 21 01 00 08 	movl   $0x8,0x121df(%rip)        # 1173f8 <display+0x18>
  105216:	00 00 00 
  105219:	c7 05 d9 21 01 00 10 	movl   $0x10,0x121d9(%rip)        # 1173fc <display+0x1c>
  105220:	00 00 00 
  105223:	8b 05 df 21 01 00    	mov    0x121df(%rip),%eax        # 117408 <display+0x28>
  105229:	8b 0d c9 21 01 00    	mov    0x121c9(%rip),%ecx        # 1173f8 <display+0x18>
  10522f:	ba 00 00 00 00       	mov    $0x0,%edx
  105234:	f7 f1                	div    %ecx
  105236:	89 05 b4 21 01 00    	mov    %eax,0x121b4(%rip)        # 1173f0 <display+0x10>
  10523c:	8b 05 ca 21 01 00    	mov    0x121ca(%rip),%eax        # 11740c <display+0x2c>
  105242:	8b 35 b4 21 01 00    	mov    0x121b4(%rip),%esi        # 1173fc <display+0x1c>
  105248:	ba 00 00 00 00       	mov    $0x0,%edx
  10524d:	f7 f6                	div    %esi
  10524f:	89 05 9f 21 01 00    	mov    %eax,0x1219f(%rip)        # 1173f4 <display+0x14>
  105255:	48 8b 45 d8          	mov    -0x28(%rbp),%rax
  105259:	48 89 05 d0 21 01 00 	mov    %rax,0x121d0(%rip)        # 117430 <display+0x50>
  105260:	90                   	nop
  105261:	c9                   	leaveq 
  105262:	c3                   	retq   

0000000000105263 <_Z6clrscrv>:
  105263:	f3 0f 1e fa          	endbr64 
  105267:	55                   	push   %rbp
  105268:	48 89 e5             	mov    %rsp,%rbp
  10526b:	48 8d 3d 6e 21 01 00 	lea    0x1216e(%rip),%rdi        # 1173e0 <display>
  105272:	e8 2f 00 00 00       	callq  1052a6 <_ZN7Display5clearEv>
  105277:	c7 05 67 21 01 00 00 	movl   $0x0,0x12167(%rip)        # 1173e8 <display+0x8>
  10527e:	00 00 00 
  105281:	c7 05 61 21 01 00 00 	movl   $0x0,0x12161(%rip)        # 1173ec <display+0xc>
  105288:	00 00 00 
  10528b:	90                   	nop
  10528c:	5d                   	pop    %rbp
  10528d:	c3                   	retq   

000000000010528e <_Z16printf_backspacev>:
  10528e:	f3 0f 1e fa          	endbr64 
  105292:	55                   	push   %rbp
  105293:	48 89 e5             	mov    %rsp,%rbp
  105296:	48 8d 3d 43 21 01 00 	lea    0x12143(%rip),%rdi        # 1173e0 <display>
  10529d:	e8 58 00 00 00       	callq  1052fa <_ZN7Display13put_backspaceEv>
  1052a2:	90                   	nop
  1052a3:	5d                   	pop    %rbp
  1052a4:	c3                   	retq   
  1052a5:	90                   	nop

00000000001052a6 <_ZN7Display5clearEv>:
  1052a6:	f3 0f 1e fa          	endbr64 
  1052aa:	55                   	push   %rbp
  1052ab:	48 89 e5             	mov    %rsp,%rbp
  1052ae:	48 83 ec 20          	sub    $0x20,%rsp
  1052b2:	48 89 7d e8          	mov    %rdi,-0x18(%rbp)
  1052b6:	48 8b 45 e8          	mov    -0x18(%rbp),%rax
  1052ba:	48 8b 40 20          	mov    0x20(%rax),%rax
  1052be:	48 89 45 f8          	mov    %rax,-0x8(%rbp)
  1052c2:	48 8b 45 e8          	mov    -0x18(%rbp),%rax
  1052c6:	8b 50 28             	mov    0x28(%rax),%edx
  1052c9:	48 8b 45 e8          	mov    -0x18(%rbp),%rax
  1052cd:	8b 40 2c             	mov    0x2c(%rax),%eax
  1052d0:	0f af c2             	imul   %edx,%eax
  1052d3:	c1 e0 02             	shl    $0x2,%eax
  1052d6:	89 45 f4             	mov    %eax,-0xc(%rbp)
  1052d9:	48 8b 45 e8          	mov    -0x18(%rbp),%rax
  1052dd:	8b 00                	mov    (%rax),%eax
  1052df:	89 45 f0             	mov    %eax,-0x10(%rbp)
  1052e2:	8b 55 f4             	mov    -0xc(%rbp),%edx
  1052e5:	8b 4d f0             	mov    -0x10(%rbp),%ecx
  1052e8:	48 8b 45 f8          	mov    -0x8(%rbp),%rax
  1052ec:	89 ce                	mov    %ecx,%esi
  1052ee:	48 89 c7             	mov    %rax,%rdi
  1052f1:	e8 59 79 00 00       	callq  10cc4f <_Z6memsetPvim>
  1052f6:	90                   	nop
  1052f7:	c9                   	leaveq 
  1052f8:	c3                   	retq   
  1052f9:	90                   	nop

00000000001052fa <_ZN7Display13put_backspaceEv>:
  1052fa:	f3 0f 1e fa          	endbr64 
  1052fe:	55                   	push   %rbp
  1052ff:	48 89 e5             	mov    %rsp,%rbp
  105302:	48 83 ec 10          	sub    $0x10,%rsp
  105306:	48 89 7d f8          	mov    %rdi,-0x8(%rbp)
  10530a:	48 8b 45 f8          	mov    -0x8(%rbp),%rax
  10530e:	be 08 00 00 00       	mov    $0x8,%esi
  105313:	48 89 c7             	mov    %rax,%rdi
  105316:	e8 ff 02 00 00       	callq  10561a <_ZN7Display4putcEc>
  10531b:	90                   	nop
  10531c:	c9                   	leaveq 
  10531d:	c3                   	retq   

000000000010531e <_ZN7Display4putsEPKc>:
  10531e:	f3 0f 1e fa          	endbr64 
  105322:	55                   	push   %rbp
  105323:	48 89 e5             	mov    %rsp,%rbp
  105326:	48 83 ec 20          	sub    $0x20,%rsp
  10532a:	48 89 7d e8          	mov    %rdi,-0x18(%rbp)
  10532e:	48 89 75 e0          	mov    %rsi,-0x20(%rbp)
  105332:	c7 45 fc 00 00 00 00 	movl   $0x0,-0x4(%rbp)
  105339:	8b 45 fc             	mov    -0x4(%rbp),%eax
  10533c:	8d 50 01             	lea    0x1(%rax),%edx
  10533f:	89 55 fc             	mov    %edx,-0x4(%rbp)
  105342:	48 63 d0             	movslq %eax,%rdx
  105345:	48 8b 45 e0          	mov    -0x20(%rbp),%rax
  105349:	48 01 d0             	add    %rdx,%rax
  10534c:	0f b6 00             	movzbl (%rax),%eax
  10534f:	88 45 fb             	mov    %al,-0x5(%rbp)
  105352:	80 7d fb 00          	cmpb   $0x0,-0x5(%rbp)
  105356:	0f 95 c0             	setne  %al
  105359:	84 c0                	test   %al,%al
  10535b:	74 14                	je     105371 <_ZN7Display4putsEPKc+0x53>
  10535d:	0f be 55 fb          	movsbl -0x5(%rbp),%edx
  105361:	48 8b 45 e8          	mov    -0x18(%rbp),%rax
  105365:	89 d6                	mov    %edx,%esi
  105367:	48 89 c7             	mov    %rax,%rdi
  10536a:	e8 ab 02 00 00       	callq  10561a <_ZN7Display4putcEc>
  10536f:	eb c8                	jmp    105339 <_ZN7Display4putsEPKc+0x1b>
  105371:	8b 45 fc             	mov    -0x4(%rbp),%eax
  105374:	c9                   	leaveq 
  105375:	c3                   	retq   

0000000000105376 <_Z10putchar_atcjj>:
  105376:	f3 0f 1e fa          	endbr64 
  10537a:	55                   	push   %rbp
  10537b:	48 89 e5             	mov    %rsp,%rbp
  10537e:	48 83 ec 40          	sub    $0x40,%rsp
  105382:	89 f8                	mov    %edi,%eax
  105384:	89 75 c8             	mov    %esi,-0x38(%rbp)
  105387:	89 55 c4             	mov    %edx,-0x3c(%rbp)
  10538a:	88 45 cc             	mov    %al,-0x34(%rbp)
  10538d:	48 8b 05 6c 20 01 00 	mov    0x1206c(%rip),%rax        # 117400 <display+0x20>
  105394:	48 89 45 e8          	mov    %rax,-0x18(%rbp)
  105398:	8b 05 6a 20 01 00    	mov    0x1206a(%rip),%eax        # 117408 <display+0x28>
  10539e:	89 45 e4             	mov    %eax,-0x1c(%rbp)
  1053a1:	8b 05 51 20 01 00    	mov    0x12051(%rip),%eax        # 1173f8 <display+0x18>
  1053a7:	89 45 e0             	mov    %eax,-0x20(%rbp)
  1053aa:	8b 05 4c 20 01 00    	mov    0x1204c(%rip),%eax        # 1173fc <display+0x1c>
  1053b0:	89 45 dc             	mov    %eax,-0x24(%rbp)
  1053b3:	48 8b 05 76 20 01 00 	mov    0x12076(%rip),%rax        # 117430 <display+0x50>
  1053ba:	48 89 45 d0          	mov    %rax,-0x30(%rbp)
  1053be:	48 8b 45 d0          	mov    -0x30(%rbp),%rax
  1053c2:	48 8b 50 08          	mov    0x8(%rax),%rdx
  1053c6:	0f be 4d cc          	movsbl -0x34(%rbp),%ecx
  1053ca:	48 8b 45 d0          	mov    -0x30(%rbp),%rax
  1053ce:	48 8b 00             	mov    (%rax),%rax
  1053d1:	0f b6 40 03          	movzbl 0x3(%rax),%eax
  1053d5:	0f b6 c0             	movzbl %al,%eax
  1053d8:	0f af c1             	imul   %ecx,%eax
  1053db:	48 98                	cltq   
  1053dd:	48 01 d0             	add    %rdx,%rax
  1053e0:	48 89 45 f8          	mov    %rax,-0x8(%rbp)
  1053e4:	8b 45 c4             	mov    -0x3c(%rbp),%eax
  1053e7:	0f af 45 dc          	imul   -0x24(%rbp),%eax
  1053eb:	89 45 f4             	mov    %eax,-0xc(%rbp)
  1053ee:	8b 45 c4             	mov    -0x3c(%rbp),%eax
  1053f1:	83 c0 01             	add    $0x1,%eax
  1053f4:	0f af 45 dc          	imul   -0x24(%rbp),%eax
  1053f8:	39 45 f4             	cmp    %eax,-0xc(%rbp)
  1053fb:	73 7d                	jae    10547a <_Z10putchar_atcjj+0x104>
  1053fd:	8b 45 c8             	mov    -0x38(%rbp),%eax
  105400:	0f af 45 e0          	imul   -0x20(%rbp),%eax
  105404:	89 45 f0             	mov    %eax,-0x10(%rbp)
  105407:	8b 45 c8             	mov    -0x38(%rbp),%eax
  10540a:	83 c0 01             	add    $0x1,%eax
  10540d:	0f af 45 e0          	imul   -0x20(%rbp),%eax
  105411:	39 45 f0             	cmp    %eax,-0x10(%rbp)
  105414:	73 56                	jae    10546c <_Z10putchar_atcjj+0xf6>
  105416:	48 8b 45 f8          	mov    -0x8(%rbp),%rax
  10541a:	0f b6 00             	movzbl (%rax),%eax
  10541d:	0f be d0             	movsbl %al,%edx
  105420:	8b 45 c8             	mov    -0x38(%rbp),%eax
  105423:	0f af 45 e0          	imul   -0x20(%rbp),%eax
  105427:	8b 4d f0             	mov    -0x10(%rbp),%ecx
  10542a:	29 c1                	sub    %eax,%ecx
  10542c:	89 c8                	mov    %ecx,%eax
  10542e:	be 80 00 00 00       	mov    $0x80,%esi
  105433:	89 c1                	mov    %eax,%ecx
  105435:	d3 fe                	sar    %cl,%esi
  105437:	89 f0                	mov    %esi,%eax
  105439:	21 d0                	and    %edx,%eax
  10543b:	85 c0                	test   %eax,%eax
  10543d:	7e 27                	jle    105466 <_Z10putchar_atcjj+0xf0>
  10543f:	8b 45 f4             	mov    -0xc(%rbp),%eax
  105442:	0f af 45 e4          	imul   -0x1c(%rbp),%eax
  105446:	89 c2                	mov    %eax,%edx
  105448:	8b 45 f0             	mov    -0x10(%rbp),%eax
  10544b:	01 d0                	add    %edx,%eax
  10544d:	89 c0                	mov    %eax,%eax
  10544f:	48 8d 14 85 00 00 00 	lea    0x0(,%rax,4),%rdx
  105456:	00 
  105457:	48 8b 45 e8          	mov    -0x18(%rbp),%rax
  10545b:	48 01 c2             	add    %rax,%rdx
  10545e:	8b 05 80 1f 01 00    	mov    0x11f80(%rip),%eax        # 1173e4 <display+0x4>
  105464:	89 02                	mov    %eax,(%rdx)
  105466:	83 45 f0 01          	addl   $0x1,-0x10(%rbp)
  10546a:	eb 9b                	jmp    105407 <_Z10putchar_atcjj+0x91>
  10546c:	48 83 45 f8 01       	addq   $0x1,-0x8(%rbp)
  105471:	83 45 f4 01          	addl   $0x1,-0xc(%rbp)
  105475:	e9 74 ff ff ff       	jmpq   1053ee <_Z10putchar_atcjj+0x78>
  10547a:	90                   	nop
  10547b:	c9                   	leaveq 
  10547c:	c3                   	retq   

000000000010547d <_Z13empty_char_atjj>:
  10547d:	f3 0f 1e fa          	endbr64 
  105481:	55                   	push   %rbp
  105482:	48 89 e5             	mov    %rsp,%rbp
  105485:	48 83 ec 38          	sub    $0x38,%rsp
  105489:	89 7d cc             	mov    %edi,-0x34(%rbp)
  10548c:	89 75 c8             	mov    %esi,-0x38(%rbp)
  10548f:	48 8b 05 6a 1f 01 00 	mov    0x11f6a(%rip),%rax        # 117400 <display+0x20>
  105496:	48 89 45 f0          	mov    %rax,-0x10(%rbp)
  10549a:	8b 05 68 1f 01 00    	mov    0x11f68(%rip),%eax        # 117408 <display+0x28>
  1054a0:	89 45 ec             	mov    %eax,-0x14(%rbp)
  1054a3:	8b 05 4f 1f 01 00    	mov    0x11f4f(%rip),%eax        # 1173f8 <display+0x18>
  1054a9:	89 45 e8             	mov    %eax,-0x18(%rbp)
  1054ac:	8b 05 4a 1f 01 00    	mov    0x11f4a(%rip),%eax        # 1173fc <display+0x1c>
  1054b2:	89 45 e4             	mov    %eax,-0x1c(%rbp)
  1054b5:	48 8b 05 74 1f 01 00 	mov    0x11f74(%rip),%rax        # 117430 <display+0x50>
  1054bc:	48 89 45 d8          	mov    %rax,-0x28(%rbp)
  1054c0:	8b 45 c8             	mov    -0x38(%rbp),%eax
  1054c3:	0f af 45 e4          	imul   -0x1c(%rbp),%eax
  1054c7:	89 45 fc             	mov    %eax,-0x4(%rbp)
  1054ca:	8b 45 c8             	mov    -0x38(%rbp),%eax
  1054cd:	83 c0 01             	add    $0x1,%eax
  1054d0:	0f af 45 e4          	imul   -0x1c(%rbp),%eax
  1054d4:	39 45 fc             	cmp    %eax,-0x4(%rbp)
  1054d7:	73 4c                	jae    105525 <_Z13empty_char_atjj+0xa8>
  1054d9:	8b 45 cc             	mov    -0x34(%rbp),%eax
  1054dc:	0f af 45 e8          	imul   -0x18(%rbp),%eax
  1054e0:	89 45 f8             	mov    %eax,-0x8(%rbp)
  1054e3:	8b 45 cc             	mov    -0x34(%rbp),%eax
  1054e6:	83 c0 01             	add    $0x1,%eax
  1054e9:	0f af 45 e8          	imul   -0x18(%rbp),%eax
  1054ed:	39 45 f8             	cmp    %eax,-0x8(%rbp)
  1054f0:	73 2d                	jae    10551f <_Z13empty_char_atjj+0xa2>
  1054f2:	8b 45 fc             	mov    -0x4(%rbp),%eax
  1054f5:	0f af 45 ec          	imul   -0x14(%rbp),%eax
  1054f9:	89 c2                	mov    %eax,%edx
  1054fb:	8b 45 f8             	mov    -0x8(%rbp),%eax
  1054fe:	01 d0                	add    %edx,%eax
  105500:	89 c0                	mov    %eax,%eax
  105502:	48 8d 14 85 00 00 00 	lea    0x0(,%rax,4),%rdx
  105509:	00 
  10550a:	48 8b 45 f0          	mov    -0x10(%rbp),%rax
  10550e:	48 01 c2             	add    %rax,%rdx
  105511:	8b 05 c9 1e 01 00    	mov    0x11ec9(%rip),%eax        # 1173e0 <display>
  105517:	89 02                	mov    %eax,(%rdx)
  105519:	83 45 f8 01          	addl   $0x1,-0x8(%rbp)
  10551d:	eb c4                	jmp    1054e3 <_Z13empty_char_atjj+0x66>
  10551f:	83 45 fc 01          	addl   $0x1,-0x4(%rbp)
  105523:	eb a5                	jmp    1054ca <_Z13empty_char_atjj+0x4d>
  105525:	90                   	nop
  105526:	c9                   	leaveq 
  105527:	c3                   	retq   

0000000000105528 <_Z9scroll_upv>:
  105528:	f3 0f 1e fa          	endbr64 
  10552c:	55                   	push   %rbp
  10552d:	48 89 e5             	mov    %rsp,%rbp
  105530:	48 83 c4 80          	add    $0xffffffffffffff80,%rsp
  105534:	48 8b 05 a5 1e 01 00 	mov    0x11ea5(%rip),%rax        # 1173e0 <display>
  10553b:	48 8b 15 a6 1e 01 00 	mov    0x11ea6(%rip),%rdx        # 1173e8 <display+0x8>
  105542:	48 89 45 a0          	mov    %rax,-0x60(%rbp)
  105546:	48 89 55 a8          	mov    %rdx,-0x58(%rbp)
  10554a:	48 8b 05 9f 1e 01 00 	mov    0x11e9f(%rip),%rax        # 1173f0 <display+0x10>
  105551:	48 8b 15 a0 1e 01 00 	mov    0x11ea0(%rip),%rdx        # 1173f8 <display+0x18>
  105558:	48 89 45 b0          	mov    %rax,-0x50(%rbp)
  10555c:	48 89 55 b8          	mov    %rdx,-0x48(%rbp)
  105560:	48 8b 05 99 1e 01 00 	mov    0x11e99(%rip),%rax        # 117400 <display+0x20>
  105567:	48 8b 15 9a 1e 01 00 	mov    0x11e9a(%rip),%rdx        # 117408 <display+0x28>
  10556e:	48 89 45 80          	mov    %rax,-0x80(%rbp)
  105572:	48 89 55 88          	mov    %rdx,-0x78(%rbp)
  105576:	48 8b 05 93 1e 01 00 	mov    0x11e93(%rip),%rax        # 117410 <display+0x30>
  10557d:	48 89 45 90          	mov    %rax,-0x70(%rbp)
  105581:	8b 45 88             	mov    -0x78(%rbp),%eax
  105584:	89 45 fc             	mov    %eax,-0x4(%rbp)
  105587:	8b 45 8c             	mov    -0x74(%rbp),%eax
  10558a:	89 45 f8             	mov    %eax,-0x8(%rbp)
  10558d:	8b 45 b8             	mov    -0x48(%rbp),%eax
  105590:	89 45 f4             	mov    %eax,-0xc(%rbp)
  105593:	8b 45 bc             	mov    -0x44(%rbp),%eax
  105596:	89 45 f0             	mov    %eax,-0x10(%rbp)
  105599:	8b 45 b4             	mov    -0x4c(%rbp),%eax
  10559c:	83 e8 01             	sub    $0x1,%eax
  10559f:	89 45 ec             	mov    %eax,-0x14(%rbp)
  1055a2:	8b 45 f0             	mov    -0x10(%rbp),%eax
  1055a5:	0f af 45 fc          	imul   -0x4(%rbp),%eax
  1055a9:	c1 e0 02             	shl    $0x2,%eax
  1055ac:	89 c0                	mov    %eax,%eax
  1055ae:	48 89 45 e0          	mov    %rax,-0x20(%rbp)
  1055b2:	48 8b 45 80          	mov    -0x80(%rbp),%rax
  1055b6:	48 89 45 d8          	mov    %rax,-0x28(%rbp)
  1055ba:	8b 45 ec             	mov    -0x14(%rbp),%eax
  1055bd:	48 0f af 45 e0       	imul   -0x20(%rbp),%rax
  1055c2:	48 89 c2             	mov    %rax,%rdx
  1055c5:	48 8b 4d d8          	mov    -0x28(%rbp),%rcx
  1055c9:	48 8b 45 e0          	mov    -0x20(%rbp),%rax
  1055cd:	48 01 c8             	add    %rcx,%rax
  1055d0:	48 89 c1             	mov    %rax,%rcx
  1055d3:	48 8b 45 d8          	mov    -0x28(%rbp),%rax
  1055d7:	48 89 ce             	mov    %rcx,%rsi
  1055da:	48 89 c7             	mov    %rax,%rdi
  1055dd:	e8 2b 76 00 00       	callq  10cc0d <_Z6memcpyPvPKvm>
  1055e2:	8b 45 ec             	mov    -0x14(%rbp),%eax
  1055e5:	48 8b 55 e0          	mov    -0x20(%rbp),%rdx
  1055e9:	48 0f af c2          	imul   %rdx,%rax
  1055ed:	48 89 45 d0          	mov    %rax,-0x30(%rbp)
  1055f1:	48 8b 55 d8          	mov    -0x28(%rbp),%rdx
  1055f5:	48 8b 45 d0          	mov    -0x30(%rbp),%rax
  1055f9:	48 01 d0             	add    %rdx,%rax
  1055fc:	48 89 45 c8          	mov    %rax,-0x38(%rbp)
  105600:	8b 45 a0             	mov    -0x60(%rbp),%eax
  105603:	89 c1                	mov    %eax,%ecx
  105605:	48 8b 55 e0          	mov    -0x20(%rbp),%rdx
  105609:	48 8b 45 c8          	mov    -0x38(%rbp),%rax
  10560d:	89 ce                	mov    %ecx,%esi
  10560f:	48 89 c7             	mov    %rax,%rdi
  105612:	e8 38 76 00 00       	callq  10cc4f <_Z6memsetPvim>
  105617:	90                   	nop
  105618:	c9                   	leaveq 
  105619:	c3                   	retq   

000000000010561a <_ZN7Display4putcEc>:
  10561a:	f3 0f 1e fa          	endbr64 
  10561e:	55                   	push   %rbp
  10561f:	48 89 e5             	mov    %rsp,%rbp
  105622:	48 83 ec 40          	sub    $0x40,%rsp
  105626:	48 89 7d c8          	mov    %rdi,-0x38(%rbp)
  10562a:	89 f0                	mov    %esi,%eax
  10562c:	88 45 c4             	mov    %al,-0x3c(%rbp)
  10562f:	c7 45 fc 00 00 00 00 	movl   $0x0,-0x4(%rbp)
  105636:	c7 45 f8 00 00 00 00 	movl   $0x0,-0x8(%rbp)
  10563d:	c7 45 f4 ff ff ff ff 	movl   $0xffffffff,-0xc(%rbp)
  105644:	c7 45 e4 ff ff ff ff 	movl   $0xffffffff,-0x1c(%rbp)
  10564b:	c7 45 f0 00 00 00 00 	movl   $0x0,-0x10(%rbp)
  105652:	8b 05 90 1d 01 00    	mov    0x11d90(%rip),%eax        # 1173e8 <display+0x8>
  105658:	89 45 ec             	mov    %eax,-0x14(%rbp)
  10565b:	8b 05 8b 1d 01 00    	mov    0x11d8b(%rip),%eax        # 1173ec <display+0xc>
  105661:	89 45 e8             	mov    %eax,-0x18(%rbp)
  105664:	8b 05 86 1d 01 00    	mov    0x11d86(%rip),%eax        # 1173f0 <display+0x10>
  10566a:	89 45 e0             	mov    %eax,-0x20(%rbp)
  10566d:	8b 05 81 1d 01 00    	mov    0x11d81(%rip),%eax        # 1173f4 <display+0x14>
  105673:	89 45 dc             	mov    %eax,-0x24(%rbp)
  105676:	80 7d c4 0a          	cmpb   $0xa,-0x3c(%rbp)
  10567a:	75 10                	jne    10568c <_ZN7Display4putcEc+0x72>
  10567c:	c7 45 f4 00 00 00 00 	movl   $0x0,-0xc(%rbp)
  105683:	c7 45 f8 01 00 00 00 	movl   $0x1,-0x8(%rbp)
  10568a:	eb 42                	jmp    1056ce <_ZN7Display4putcEc+0xb4>
  10568c:	80 7d c4 0d          	cmpb   $0xd,-0x3c(%rbp)
  105690:	75 09                	jne    10569b <_ZN7Display4putcEc+0x81>
  105692:	c7 45 f4 00 00 00 00 	movl   $0x0,-0xc(%rbp)
  105699:	eb 33                	jmp    1056ce <_ZN7Display4putcEc+0xb4>
  10569b:	80 7d c4 09          	cmpb   $0x9,-0x3c(%rbp)
  10569f:	75 09                	jne    1056aa <_ZN7Display4putcEc+0x90>
  1056a1:	c7 45 fc 04 00 00 00 	movl   $0x4,-0x4(%rbp)
  1056a8:	eb 24                	jmp    1056ce <_ZN7Display4putcEc+0xb4>
  1056aa:	80 7d c4 08          	cmpb   $0x8,-0x3c(%rbp)
  1056ae:	75 10                	jne    1056c0 <_ZN7Display4putcEc+0xa6>
  1056b0:	c7 45 fc ff ff ff ff 	movl   $0xffffffff,-0x4(%rbp)
  1056b7:	c7 45 f0 02 00 00 00 	movl   $0x2,-0x10(%rbp)
  1056be:	eb 0e                	jmp    1056ce <_ZN7Display4putcEc+0xb4>
  1056c0:	c7 45 fc 01 00 00 00 	movl   $0x1,-0x4(%rbp)
  1056c7:	c7 45 f0 01 00 00 00 	movl   $0x1,-0x10(%rbp)
  1056ce:	83 7d f0 01          	cmpl   $0x1,-0x10(%rbp)
  1056d2:	75 13                	jne    1056e7 <_ZN7Display4putcEc+0xcd>
  1056d4:	0f be 45 c4          	movsbl -0x3c(%rbp),%eax
  1056d8:	8b 55 e8             	mov    -0x18(%rbp),%edx
  1056db:	8b 4d ec             	mov    -0x14(%rbp),%ecx
  1056de:	89 ce                	mov    %ecx,%esi
  1056e0:	89 c7                	mov    %eax,%edi
  1056e2:	e8 8f fc ff ff       	callq  105376 <_Z10putchar_atcjj>
  1056e7:	83 7d f0 02          	cmpl   $0x2,-0x10(%rbp)
  1056eb:	75 12                	jne    1056ff <_ZN7Display4putcEc+0xe5>
  1056ed:	8b 45 ec             	mov    -0x14(%rbp),%eax
  1056f0:	8d 50 ff             	lea    -0x1(%rax),%edx
  1056f3:	8b 45 e8             	mov    -0x18(%rbp),%eax
  1056f6:	89 c6                	mov    %eax,%esi
  1056f8:	89 d7                	mov    %edx,%edi
  1056fa:	e8 7e fd ff ff       	callq  10547d <_Z13empty_char_atjj>
  1056ff:	83 7d f4 ff          	cmpl   $0xffffffff,-0xc(%rbp)
  105703:	74 06                	je     10570b <_ZN7Display4putcEc+0xf1>
  105705:	8b 45 f4             	mov    -0xc(%rbp),%eax
  105708:	89 45 ec             	mov    %eax,-0x14(%rbp)
  10570b:	83 7d e4 ff          	cmpl   $0xffffffff,-0x1c(%rbp)
  10570f:	74 06                	je     105717 <_ZN7Display4putcEc+0xfd>
  105711:	8b 45 e4             	mov    -0x1c(%rbp),%eax
  105714:	89 45 e8             	mov    %eax,-0x18(%rbp)
  105717:	83 7d fc 00          	cmpl   $0x0,-0x4(%rbp)
  10571b:	74 1b                	je     105738 <_ZN7Display4putcEc+0x11e>
  10571d:	8b 45 fc             	mov    -0x4(%rbp),%eax
  105720:	01 45 ec             	add    %eax,-0x14(%rbp)
  105723:	8b 45 ec             	mov    -0x14(%rbp),%eax
  105726:	3b 45 e0             	cmp    -0x20(%rbp),%eax
  105729:	72 0d                	jb     105738 <_ZN7Display4putcEc+0x11e>
  10572b:	8b 45 e0             	mov    -0x20(%rbp),%eax
  10572e:	2b 45 ec             	sub    -0x14(%rbp),%eax
  105731:	89 45 ec             	mov    %eax,-0x14(%rbp)
  105734:	83 45 f8 01          	addl   $0x1,-0x8(%rbp)
  105738:	83 7d f8 00          	cmpl   $0x0,-0x8(%rbp)
  10573c:	74 1c                	je     10575a <_ZN7Display4putcEc+0x140>
  10573e:	8b 45 f8             	mov    -0x8(%rbp),%eax
  105741:	01 45 e8             	add    %eax,-0x18(%rbp)
  105744:	8b 45 e8             	mov    -0x18(%rbp),%eax
  105747:	3b 45 dc             	cmp    -0x24(%rbp),%eax
  10574a:	72 0e                	jb     10575a <_ZN7Display4putcEc+0x140>
  10574c:	e8 d7 fd ff ff       	callq  105528 <_Z9scroll_upv>
  105751:	8b 45 dc             	mov    -0x24(%rbp),%eax
  105754:	83 e8 01             	sub    $0x1,%eax
  105757:	89 45 e8             	mov    %eax,-0x18(%rbp)
  10575a:	8b 45 ec             	mov    -0x14(%rbp),%eax
  10575d:	89 05 85 1c 01 00    	mov    %eax,0x11c85(%rip)        # 1173e8 <display+0x8>
  105763:	8b 45 e8             	mov    -0x18(%rbp),%eax
  105766:	89 05 80 1c 01 00    	mov    %eax,0x11c80(%rip)        # 1173ec <display+0xc>
  10576c:	b8 00 00 00 00       	mov    $0x0,%eax
  105771:	c9                   	leaveq 
  105772:	c3                   	retq   

0000000000105773 <_Z14ReadSectorsATAmjh>:
  105773:	f3 0f 1e fa          	endbr64 
  105777:	55                   	push   %rbp
  105778:	48 89 e5             	mov    %rsp,%rbp
  10577b:	53                   	push   %rbx
  10577c:	48 83 ec 28          	sub    $0x28,%rsp
  105780:	48 89 7d d8          	mov    %rdi,-0x28(%rbp)
  105784:	89 75 d4             	mov    %esi,-0x2c(%rbp)
  105787:	89 d0                	mov    %edx,%eax
  105789:	88 45 d0             	mov    %al,-0x30(%rbp)
  10578c:	e8 d0 01 00 00       	callq  105961 <_ZL7WaitBSYv>
  105791:	8b 45 d4             	mov    -0x2c(%rbp),%eax
  105794:	c1 e8 18             	shr    $0x18,%eax
  105797:	83 e0 0f             	and    $0xf,%eax
  10579a:	83 c8 e0             	or     $0xffffffe0,%eax
  10579d:	0f b6 c0             	movzbl %al,%eax
  1057a0:	89 c6                	mov    %eax,%esi
  1057a2:	bf f6 01 00 00       	mov    $0x1f6,%edi
  1057a7:	e8 69 c0 ff ff       	callq  101815 <_Z6__outbth>
  1057ac:	0f b6 45 d0          	movzbl -0x30(%rbp),%eax
  1057b0:	89 c6                	mov    %eax,%esi
  1057b2:	bf f2 01 00 00       	mov    $0x1f2,%edi
  1057b7:	e8 59 c0 ff ff       	callq  101815 <_Z6__outbth>
  1057bc:	8b 45 d4             	mov    -0x2c(%rbp),%eax
  1057bf:	0f b6 c0             	movzbl %al,%eax
  1057c2:	89 c6                	mov    %eax,%esi
  1057c4:	bf f3 01 00 00       	mov    $0x1f3,%edi
  1057c9:	e8 47 c0 ff ff       	callq  101815 <_Z6__outbth>
  1057ce:	8b 45 d4             	mov    -0x2c(%rbp),%eax
  1057d1:	c1 e8 08             	shr    $0x8,%eax
  1057d4:	0f b6 c0             	movzbl %al,%eax
  1057d7:	89 c6                	mov    %eax,%esi
  1057d9:	bf f4 01 00 00       	mov    $0x1f4,%edi
  1057de:	e8 32 c0 ff ff       	callq  101815 <_Z6__outbth>
  1057e3:	8b 45 d4             	mov    -0x2c(%rbp),%eax
  1057e6:	c1 e8 10             	shr    $0x10,%eax
  1057e9:	0f b6 c0             	movzbl %al,%eax
  1057ec:	89 c6                	mov    %eax,%esi
  1057ee:	bf f5 01 00 00       	mov    $0x1f5,%edi
  1057f3:	e8 1d c0 ff ff       	callq  101815 <_Z6__outbth>
  1057f8:	be 20 00 00 00       	mov    $0x20,%esi
  1057fd:	bf f7 01 00 00       	mov    $0x1f7,%edi
  105802:	e8 0e c0 ff ff       	callq  101815 <_Z6__outbth>
  105807:	48 8b 45 d8          	mov    -0x28(%rbp),%rax
  10580b:	48 89 45 e8          	mov    %rax,-0x18(%rbp)
  10580f:	c7 45 e4 00 00 00 00 	movl   $0x0,-0x1c(%rbp)
  105816:	0f b6 45 d0          	movzbl -0x30(%rbp),%eax
  10581a:	39 45 e4             	cmp    %eax,-0x1c(%rbp)
  10581d:	7d 4c                	jge    10586b <_Z14ReadSectorsATAmjh+0xf8>
  10581f:	e8 3d 01 00 00       	callq  105961 <_ZL7WaitBSYv>
  105824:	e8 56 01 00 00       	callq  10597f <_ZL7WaitDRQv>
  105829:	c7 45 e0 00 00 00 00 	movl   $0x0,-0x20(%rbp)
  105830:	81 7d e0 ff 00 00 00 	cmpl   $0xff,-0x20(%rbp)
  105837:	7f 24                	jg     10585d <_Z14ReadSectorsATAmjh+0xea>
  105839:	8b 45 e0             	mov    -0x20(%rbp),%eax
  10583c:	48 98                	cltq   
  10583e:	48 8d 14 00          	lea    (%rax,%rax,1),%rdx
  105842:	48 8b 45 e8          	mov    -0x18(%rbp),%rax
  105846:	48 8d 1c 02          	lea    (%rdx,%rax,1),%rbx
  10584a:	bf f0 01 00 00       	mov    $0x1f0,%edi
  10584f:	e8 80 bf ff ff       	callq  1017d4 <_Z5__inwt>
  105854:	66 89 03             	mov    %ax,(%rbx)
  105857:	83 45 e0 01          	addl   $0x1,-0x20(%rbp)
  10585b:	eb d3                	jmp    105830 <_Z14ReadSectorsATAmjh+0xbd>
  10585d:	48 81 45 e8 00 02 00 	addq   $0x200,-0x18(%rbp)
  105864:	00 
  105865:	83 45 e4 01          	addl   $0x1,-0x1c(%rbp)
  105869:	eb ab                	jmp    105816 <_Z14ReadSectorsATAmjh+0xa3>
  10586b:	90                   	nop
  10586c:	48 83 c4 28          	add    $0x28,%rsp
  105870:	5b                   	pop    %rbx
  105871:	5d                   	pop    %rbp
  105872:	c3                   	retq   

0000000000105873 <_Z15WriteSectorsATAjhPj>:
  105873:	f3 0f 1e fa          	endbr64 
  105877:	55                   	push   %rbp
  105878:	48 89 e5             	mov    %rsp,%rbp
  10587b:	48 83 ec 20          	sub    $0x20,%rsp
  10587f:	89 7d ec             	mov    %edi,-0x14(%rbp)
  105882:	89 f0                	mov    %esi,%eax
  105884:	48 89 55 e0          	mov    %rdx,-0x20(%rbp)
  105888:	88 45 e8             	mov    %al,-0x18(%rbp)
  10588b:	e8 d1 00 00 00       	callq  105961 <_ZL7WaitBSYv>
  105890:	8b 45 ec             	mov    -0x14(%rbp),%eax
  105893:	c1 e8 18             	shr    $0x18,%eax
  105896:	83 e0 0f             	and    $0xf,%eax
  105899:	83 c8 e0             	or     $0xffffffe0,%eax
  10589c:	0f b6 c0             	movzbl %al,%eax
  10589f:	89 c6                	mov    %eax,%esi
  1058a1:	bf f6 01 00 00       	mov    $0x1f6,%edi
  1058a6:	e8 6a bf ff ff       	callq  101815 <_Z6__outbth>
  1058ab:	0f b6 45 e8          	movzbl -0x18(%rbp),%eax
  1058af:	89 c6                	mov    %eax,%esi
  1058b1:	bf f2 01 00 00       	mov    $0x1f2,%edi
  1058b6:	e8 5a bf ff ff       	callq  101815 <_Z6__outbth>
  1058bb:	8b 45 ec             	mov    -0x14(%rbp),%eax
  1058be:	0f b6 c0             	movzbl %al,%eax
  1058c1:	89 c6                	mov    %eax,%esi
  1058c3:	bf f3 01 00 00       	mov    $0x1f3,%edi
  1058c8:	e8 48 bf ff ff       	callq  101815 <_Z6__outbth>
  1058cd:	8b 45 ec             	mov    -0x14(%rbp),%eax
  1058d0:	c1 e8 08             	shr    $0x8,%eax
  1058d3:	0f b6 c0             	movzbl %al,%eax
  1058d6:	89 c6                	mov    %eax,%esi
  1058d8:	bf f4 01 00 00       	mov    $0x1f4,%edi
  1058dd:	e8 33 bf ff ff       	callq  101815 <_Z6__outbth>
  1058e2:	8b 45 ec             	mov    -0x14(%rbp),%eax
  1058e5:	c1 e8 10             	shr    $0x10,%eax
  1058e8:	0f b6 c0             	movzbl %al,%eax
  1058eb:	89 c6                	mov    %eax,%esi
  1058ed:	bf f5 01 00 00       	mov    $0x1f5,%edi
  1058f2:	e8 1e bf ff ff       	callq  101815 <_Z6__outbth>
  1058f7:	be 30 00 00 00       	mov    $0x30,%esi
  1058fc:	bf f7 01 00 00       	mov    $0x1f7,%edi
  105901:	e8 0f bf ff ff       	callq  101815 <_Z6__outbth>
  105906:	c7 45 fc 00 00 00 00 	movl   $0x0,-0x4(%rbp)
  10590d:	0f b6 45 e8          	movzbl -0x18(%rbp),%eax
  105911:	39 45 fc             	cmp    %eax,-0x4(%rbp)
  105914:	7d 48                	jge    10595e <_Z15WriteSectorsATAjhPj+0xeb>
  105916:	e8 46 00 00 00       	callq  105961 <_ZL7WaitBSYv>
  10591b:	e8 5f 00 00 00       	callq  10597f <_ZL7WaitDRQv>
  105920:	c7 45 f8 00 00 00 00 	movl   $0x0,-0x8(%rbp)
  105927:	81 7d f8 ff 00 00 00 	cmpl   $0xff,-0x8(%rbp)
  10592e:	7f 28                	jg     105958 <_Z15WriteSectorsATAjhPj+0xe5>
  105930:	8b 45 f8             	mov    -0x8(%rbp),%eax
  105933:	48 98                	cltq   
  105935:	48 8d 14 85 00 00 00 	lea    0x0(,%rax,4),%rdx
  10593c:	00 
  10593d:	48 8b 45 e0          	mov    -0x20(%rbp),%rax
  105941:	48 01 d0             	add    %rdx,%rax
  105944:	8b 00                	mov    (%rax),%eax
  105946:	89 c6                	mov    %eax,%esi
  105948:	bf f0 01 00 00       	mov    $0x1f0,%edi
  10594d:	e8 0d bf ff ff       	callq  10185f <_Z6__outljj>
  105952:	83 45 f8 01          	addl   $0x1,-0x8(%rbp)
  105956:	eb cf                	jmp    105927 <_Z15WriteSectorsATAjhPj+0xb4>
  105958:	83 45 fc 01          	addl   $0x1,-0x4(%rbp)
  10595c:	eb af                	jmp    10590d <_Z15WriteSectorsATAjhPj+0x9a>
  10595e:	90                   	nop
  10595f:	c9                   	leaveq 
  105960:	c3                   	retq   

0000000000105961 <_ZL7WaitBSYv>:
  105961:	f3 0f 1e fa          	endbr64 
  105965:	55                   	push   %rbp
  105966:	48 89 e5             	mov    %rsp,%rbp
  105969:	bf f7 01 00 00       	mov    $0x1f7,%edi
  10596e:	e8 3f be ff ff       	callq  1017b2 <_Z5__inbt>
  105973:	c0 e8 07             	shr    $0x7,%al
  105976:	84 c0                	test   %al,%al
  105978:	74 02                	je     10597c <_ZL7WaitBSYv+0x1b>
  10597a:	eb ed                	jmp    105969 <_ZL7WaitBSYv+0x8>
  10597c:	90                   	nop
  10597d:	5d                   	pop    %rbp
  10597e:	c3                   	retq   

000000000010597f <_ZL7WaitDRQv>:
  10597f:	f3 0f 1e fa          	endbr64 
  105983:	55                   	push   %rbp
  105984:	48 89 e5             	mov    %rsp,%rbp
  105987:	bf f7 01 00 00       	mov    $0x1f7,%edi
  10598c:	e8 21 be ff ff       	callq  1017b2 <_Z5__inbt>
  105991:	0f b6 c0             	movzbl %al,%eax
  105994:	83 e0 40             	and    $0x40,%eax
  105997:	85 c0                	test   %eax,%eax
  105999:	0f 94 c0             	sete   %al
  10599c:	84 c0                	test   %al,%al
  10599e:	74 02                	je     1059a2 <_ZL7WaitDRQv+0x23>
  1059a0:	eb e5                	jmp    105987 <_ZL7WaitDRQv+0x8>
  1059a2:	90                   	nop
  1059a3:	5d                   	pop    %rbp
  1059a4:	c3                   	retq   
  1059a5:	90                   	nop

00000000001059a6 <_ZN9ATADevice4ReadEmPvm>:
  1059a6:	f3 0f 1e fa          	endbr64 
  1059aa:	55                   	push   %rbp
  1059ab:	48 89 e5             	mov    %rsp,%rbp
  1059ae:	48 83 ec 20          	sub    $0x20,%rsp
  1059b2:	48 89 7d f8          	mov    %rdi,-0x8(%rbp)
  1059b6:	48 89 75 f0          	mov    %rsi,-0x10(%rbp)
  1059ba:	48 89 55 e8          	mov    %rdx,-0x18(%rbp)
  1059be:	48 89 4d e0          	mov    %rcx,-0x20(%rbp)
  1059c2:	48 8b 45 e0          	mov    -0x20(%rbp),%rax
  1059c6:	0f b6 d0             	movzbl %al,%edx
  1059c9:	48 8b 45 f0          	mov    -0x10(%rbp),%rax
  1059cd:	89 c1                	mov    %eax,%ecx
  1059cf:	48 8b 45 e8          	mov    -0x18(%rbp),%rax
  1059d3:	89 ce                	mov    %ecx,%esi
  1059d5:	48 89 c7             	mov    %rax,%rdi
  1059d8:	e8 96 fd ff ff       	callq  105773 <_Z14ReadSectorsATAmjh>
  1059dd:	90                   	nop
  1059de:	c9                   	leaveq 
  1059df:	c3                   	retq   

00000000001059e0 <_ZN9ATADevice5WriteEmPvm>:
  1059e0:	f3 0f 1e fa          	endbr64 
  1059e4:	55                   	push   %rbp
  1059e5:	48 89 e5             	mov    %rsp,%rbp
  1059e8:	48 83 ec 20          	sub    $0x20,%rsp
  1059ec:	48 89 7d f8          	mov    %rdi,-0x8(%rbp)
  1059f0:	48 89 75 f0          	mov    %rsi,-0x10(%rbp)
  1059f4:	48 89 55 e8          	mov    %rdx,-0x18(%rbp)
  1059f8:	48 89 4d e0          	mov    %rcx,-0x20(%rbp)
  1059fc:	48 8b 45 e0          	mov    -0x20(%rbp),%rax
  105a00:	0f b6 c0             	movzbl %al,%eax
  105a03:	48 8b 55 f0          	mov    -0x10(%rbp),%rdx
  105a07:	89 d1                	mov    %edx,%ecx
  105a09:	48 8b 55 e8          	mov    -0x18(%rbp),%rdx
  105a0d:	89 c6                	mov    %eax,%esi
  105a0f:	89 cf                	mov    %ecx,%edi
  105a11:	e8 5d fe ff ff       	callq  105873 <_Z15WriteSectorsATAjhPj>
  105a16:	90                   	nop
  105a17:	c9                   	leaveq 
  105a18:	c3                   	retq   

0000000000105a19 <_Z9MouseWaitv>:
  105a19:	f3 0f 1e fa          	endbr64 
  105a1d:	55                   	push   %rbp
  105a1e:	48 89 e5             	mov    %rsp,%rbp
  105a21:	48 83 ec 10          	sub    $0x10,%rsp
  105a25:	48 c7 45 f8 a0 86 01 	movq   $0x186a0,-0x8(%rbp)
  105a2c:	00 
  105a2d:	48 8b 45 f8          	mov    -0x8(%rbp),%rax
  105a31:	48 8d 50 ff          	lea    -0x1(%rax),%rdx
  105a35:	48 89 55 f8          	mov    %rdx,-0x8(%rbp)
  105a39:	48 85 c0             	test   %rax,%rax
  105a3c:	0f 95 c0             	setne  %al
  105a3f:	84 c0                	test   %al,%al
  105a41:	74 1c                	je     105a5f <_Z9MouseWaitv+0x46>
  105a43:	bf 64 00 00 00       	mov    $0x64,%edi
  105a48:	e8 65 bd ff ff       	callq  1017b2 <_Z5__inbt>
  105a4d:	0f b6 c0             	movzbl %al,%eax
  105a50:	83 e0 02             	and    $0x2,%eax
  105a53:	85 c0                	test   %eax,%eax
  105a55:	0f 94 c0             	sete   %al
  105a58:	84 c0                	test   %al,%al
  105a5a:	75 02                	jne    105a5e <_Z9MouseWaitv+0x45>
  105a5c:	eb cf                	jmp    105a2d <_Z9MouseWaitv+0x14>
  105a5e:	90                   	nop
  105a5f:	c9                   	leaveq 
  105a60:	c3                   	retq   

0000000000105a61 <_Z14MouseWaitInputv>:
  105a61:	f3 0f 1e fa          	endbr64 
  105a65:	55                   	push   %rbp
  105a66:	48 89 e5             	mov    %rsp,%rbp
  105a69:	48 83 ec 10          	sub    $0x10,%rsp
  105a6d:	48 c7 45 f8 a0 86 01 	movq   $0x186a0,-0x8(%rbp)
  105a74:	00 
  105a75:	48 8b 45 f8          	mov    -0x8(%rbp),%rax
  105a79:	48 8d 50 ff          	lea    -0x1(%rax),%rdx
  105a7d:	48 89 55 f8          	mov    %rdx,-0x8(%rbp)
  105a81:	48 85 c0             	test   %rax,%rax
  105a84:	0f 95 c0             	setne  %al
  105a87:	84 c0                	test   %al,%al
  105a89:	74 1c                	je     105aa7 <_Z14MouseWaitInputv+0x46>
  105a8b:	bf 64 00 00 00       	mov    $0x64,%edi
  105a90:	e8 1d bd ff ff       	callq  1017b2 <_Z5__inbt>
  105a95:	0f b6 c0             	movzbl %al,%eax
  105a98:	83 e0 01             	and    $0x1,%eax
  105a9b:	85 c0                	test   %eax,%eax
  105a9d:	0f 95 c0             	setne  %al
  105aa0:	84 c0                	test   %al,%al
  105aa2:	75 02                	jne    105aa6 <_Z14MouseWaitInputv+0x45>
  105aa4:	eb cf                	jmp    105a75 <_Z14MouseWaitInputv+0x14>
  105aa6:	90                   	nop
  105aa7:	c9                   	leaveq 
  105aa8:	c3                   	retq   

0000000000105aa9 <_Z10MouseWriteh>:
  105aa9:	f3 0f 1e fa          	endbr64 
  105aad:	55                   	push   %rbp
  105aae:	48 89 e5             	mov    %rsp,%rbp
  105ab1:	48 83 ec 10          	sub    $0x10,%rsp
  105ab5:	89 f8                	mov    %edi,%eax
  105ab7:	88 45 fc             	mov    %al,-0x4(%rbp)
  105aba:	e8 5a ff ff ff       	callq  105a19 <_Z9MouseWaitv>
  105abf:	be d4 00 00 00       	mov    $0xd4,%esi
  105ac4:	bf 64 00 00 00       	mov    $0x64,%edi
  105ac9:	e8 47 bd ff ff       	callq  101815 <_Z6__outbth>
  105ace:	e8 46 ff ff ff       	callq  105a19 <_Z9MouseWaitv>
  105ad3:	0f b6 45 fc          	movzbl -0x4(%rbp),%eax
  105ad7:	89 c6                	mov    %eax,%esi
  105ad9:	bf 60 00 00 00       	mov    $0x60,%edi
  105ade:	e8 32 bd ff ff       	callq  101815 <_Z6__outbth>
  105ae3:	90                   	nop
  105ae4:	c9                   	leaveq 
  105ae5:	c3                   	retq   

0000000000105ae6 <_Z9MouseReadv>:
  105ae6:	f3 0f 1e fa          	endbr64 
  105aea:	55                   	push   %rbp
  105aeb:	48 89 e5             	mov    %rsp,%rbp
  105aee:	e8 6e ff ff ff       	callq  105a61 <_Z14MouseWaitInputv>
  105af3:	bf 60 00 00 00       	mov    $0x60,%edi
  105af8:	e8 b5 bc ff ff       	callq  1017b2 <_Z5__inbt>
  105afd:	5d                   	pop    %rbp
  105afe:	c3                   	retq   

0000000000105aff <_ZL18ProcessMousePacketv>:
  105aff:	f3 0f 1e fa          	endbr64 
  105b03:	55                   	push   %rbp
  105b04:	48 89 e5             	mov    %rsp,%rbp
  105b07:	48 83 ec 10          	sub    $0x10,%rsp
  105b0b:	0f b6 05 2b 19 01 00 	movzbl 0x1192b(%rip),%eax        # 11743d <_ZL16MousePacketReady>
  105b12:	84 c0                	test   %al,%al
  105b14:	0f 84 9a 02 00 00    	je     105db4 <_ZL18ProcessMousePacketv+0x2b5>
  105b1a:	0f b6 05 18 19 01 00 	movzbl 0x11918(%rip),%eax        # 117439 <_ZL11MousePacket>
  105b21:	83 e0 10             	and    $0x10,%eax
  105b24:	88 45 ff             	mov    %al,-0x1(%rbp)
  105b27:	0f b6 05 0b 19 01 00 	movzbl 0x1190b(%rip),%eax        # 117439 <_ZL11MousePacket>
  105b2e:	83 e0 20             	and    $0x20,%eax
  105b31:	88 45 fe             	mov    %al,-0x2(%rbp)
  105b34:	0f b6 05 fe 18 01 00 	movzbl 0x118fe(%rip),%eax        # 117439 <_ZL11MousePacket>
  105b3b:	83 e0 40             	and    $0x40,%eax
  105b3e:	88 45 fd             	mov    %al,-0x3(%rbp)
  105b41:	0f b6 05 f1 18 01 00 	movzbl 0x118f1(%rip),%eax        # 117439 <_ZL11MousePacket>
  105b48:	83 e0 80             	and    $0xffffff80,%eax
  105b4b:	88 45 fc             	mov    %al,-0x4(%rbp)
  105b4e:	80 7d ff 00          	cmpb   $0x0,-0x1(%rbp)
  105b52:	75 31                	jne    105b85 <_ZL18ProcessMousePacketv+0x86>
  105b54:	0f b6 05 df 18 01 00 	movzbl 0x118df(%rip),%eax        # 11743a <_ZL11MousePacket+0x1>
  105b5b:	0f b6 d0             	movzbl %al,%edx
  105b5e:	8b 05 dc 18 01 00    	mov    0x118dc(%rip),%eax        # 117440 <_ZL14MousePositionX>
  105b64:	01 d0                	add    %edx,%eax
  105b66:	89 05 d4 18 01 00    	mov    %eax,0x118d4(%rip)        # 117440 <_ZL14MousePositionX>
  105b6c:	80 7d fd 00          	cmpb   $0x0,-0x3(%rbp)
  105b70:	74 53                	je     105bc5 <_ZL18ProcessMousePacketv+0xc6>
  105b72:	8b 05 c8 18 01 00    	mov    0x118c8(%rip),%eax        # 117440 <_ZL14MousePositionX>
  105b78:	05 ff 00 00 00       	add    $0xff,%eax
  105b7d:	89 05 bd 18 01 00    	mov    %eax,0x118bd(%rip)        # 117440 <_ZL14MousePositionX>
  105b83:	eb 40                	jmp    105bc5 <_ZL18ProcessMousePacketv+0xc6>
  105b85:	0f b6 05 ae 18 01 00 	movzbl 0x118ae(%rip),%eax        # 11743a <_ZL11MousePacket+0x1>
  105b8c:	f7 d8                	neg    %eax
  105b8e:	88 05 a6 18 01 00    	mov    %al,0x118a6(%rip)        # 11743a <_ZL11MousePacket+0x1>
  105b94:	8b 15 a6 18 01 00    	mov    0x118a6(%rip),%edx        # 117440 <_ZL14MousePositionX>
  105b9a:	0f b6 05 99 18 01 00 	movzbl 0x11899(%rip),%eax        # 11743a <_ZL11MousePacket+0x1>
  105ba1:	0f b6 c0             	movzbl %al,%eax
  105ba4:	29 c2                	sub    %eax,%edx
  105ba6:	89 d0                	mov    %edx,%eax
  105ba8:	89 05 92 18 01 00    	mov    %eax,0x11892(%rip)        # 117440 <_ZL14MousePositionX>
  105bae:	80 7d fd 00          	cmpb   $0x0,-0x3(%rbp)
  105bb2:	74 11                	je     105bc5 <_ZL18ProcessMousePacketv+0xc6>
  105bb4:	8b 05 86 18 01 00    	mov    0x11886(%rip),%eax        # 117440 <_ZL14MousePositionX>
  105bba:	2d ff 00 00 00       	sub    $0xff,%eax
  105bbf:	89 05 7b 18 01 00    	mov    %eax,0x1187b(%rip)        # 117440 <_ZL14MousePositionX>
  105bc5:	80 7d fe 00          	cmpb   $0x0,-0x2(%rbp)
  105bc9:	75 33                	jne    105bfe <_ZL18ProcessMousePacketv+0xff>
  105bcb:	8b 15 73 18 01 00    	mov    0x11873(%rip),%edx        # 117444 <_ZL14MousePositionY>
  105bd1:	0f b6 05 63 18 01 00 	movzbl 0x11863(%rip),%eax        # 11743b <_ZL11MousePacket+0x2>
  105bd8:	0f b6 c0             	movzbl %al,%eax
  105bdb:	29 c2                	sub    %eax,%edx
  105bdd:	89 d0                	mov    %edx,%eax
  105bdf:	89 05 5f 18 01 00    	mov    %eax,0x1185f(%rip)        # 117444 <_ZL14MousePositionY>
  105be5:	80 7d fc 00          	cmpb   $0x0,-0x4(%rbp)
  105be9:	74 51                	je     105c3c <_ZL18ProcessMousePacketv+0x13d>
  105beb:	8b 05 53 18 01 00    	mov    0x11853(%rip),%eax        # 117444 <_ZL14MousePositionY>
  105bf1:	2d ff 00 00 00       	sub    $0xff,%eax
  105bf6:	89 05 48 18 01 00    	mov    %eax,0x11848(%rip)        # 117444 <_ZL14MousePositionY>
  105bfc:	eb 3e                	jmp    105c3c <_ZL18ProcessMousePacketv+0x13d>
  105bfe:	0f b6 05 36 18 01 00 	movzbl 0x11836(%rip),%eax        # 11743b <_ZL11MousePacket+0x2>
  105c05:	f7 d8                	neg    %eax
  105c07:	88 05 2e 18 01 00    	mov    %al,0x1182e(%rip)        # 11743b <_ZL11MousePacket+0x2>
  105c0d:	0f b6 05 27 18 01 00 	movzbl 0x11827(%rip),%eax        # 11743b <_ZL11MousePacket+0x2>
  105c14:	0f b6 d0             	movzbl %al,%edx
  105c17:	8b 05 27 18 01 00    	mov    0x11827(%rip),%eax        # 117444 <_ZL14MousePositionY>
  105c1d:	01 d0                	add    %edx,%eax
  105c1f:	89 05 1f 18 01 00    	mov    %eax,0x1181f(%rip)        # 117444 <_ZL14MousePositionY>
  105c25:	80 7d fc 00          	cmpb   $0x0,-0x4(%rbp)
  105c29:	74 11                	je     105c3c <_ZL18ProcessMousePacketv+0x13d>
  105c2b:	8b 05 13 18 01 00    	mov    0x11813(%rip),%eax        # 117444 <_ZL14MousePositionY>
  105c31:	05 ff 00 00 00       	add    $0xff,%eax
  105c36:	89 05 08 18 01 00    	mov    %eax,0x11808(%rip)        # 117444 <_ZL14MousePositionY>
  105c3c:	8b 05 fe 17 01 00    	mov    0x117fe(%rip),%eax        # 117440 <_ZL14MousePositionX>
  105c42:	85 c0                	test   %eax,%eax
  105c44:	79 0a                	jns    105c50 <_ZL18ProcessMousePacketv+0x151>
  105c46:	c7 05 f0 17 01 00 00 	movl   $0x0,0x117f0(%rip)        # 117440 <_ZL14MousePositionX>
  105c4d:	00 00 00 
  105c50:	8b 05 fa 17 01 00    	mov    0x117fa(%rip),%eax        # 117450 <_ZL5Width>
  105c56:	8d 50 ff             	lea    -0x1(%rax),%edx
  105c59:	8b 05 e1 17 01 00    	mov    0x117e1(%rip),%eax        # 117440 <_ZL14MousePositionX>
  105c5f:	39 c2                	cmp    %eax,%edx
  105c61:	73 0f                	jae    105c72 <_ZL18ProcessMousePacketv+0x173>
  105c63:	8b 05 e7 17 01 00    	mov    0x117e7(%rip),%eax        # 117450 <_ZL5Width>
  105c69:	83 e8 01             	sub    $0x1,%eax
  105c6c:	89 05 ce 17 01 00    	mov    %eax,0x117ce(%rip)        # 117440 <_ZL14MousePositionX>
  105c72:	8b 05 cc 17 01 00    	mov    0x117cc(%rip),%eax        # 117444 <_ZL14MousePositionY>
  105c78:	85 c0                	test   %eax,%eax
  105c7a:	79 0a                	jns    105c86 <_ZL18ProcessMousePacketv+0x187>
  105c7c:	c7 05 be 17 01 00 00 	movl   $0x0,0x117be(%rip)        # 117444 <_ZL14MousePositionY>
  105c83:	00 00 00 
  105c86:	8b 05 c8 17 01 00    	mov    0x117c8(%rip),%eax        # 117454 <_ZL6Height>
  105c8c:	8d 50 ff             	lea    -0x1(%rax),%edx
  105c8f:	8b 05 af 17 01 00    	mov    0x117af(%rip),%eax        # 117444 <_ZL14MousePositionY>
  105c95:	39 c2                	cmp    %eax,%edx
  105c97:	73 0f                	jae    105ca8 <_ZL18ProcessMousePacketv+0x1a9>
  105c99:	8b 05 b5 17 01 00    	mov    0x117b5(%rip),%eax        # 117454 <_ZL6Height>
  105c9f:	83 e8 01             	sub    $0x1,%eax
  105ca2:	89 05 9c 17 01 00    	mov    %eax,0x1179c(%rip)        # 117444 <_ZL14MousePositionY>
  105ca8:	e8 7f f4 ff ff       	callq  10512c <_ZN7Display13SharedDisplayEv>
  105cad:	48 83 c0 20          	add    $0x20,%rax
  105cb1:	8b 15 95 17 01 00    	mov    0x11795(%rip),%edx        # 11744c <_ZL17MousePositionOldY>
  105cb7:	89 d1                	mov    %edx,%ecx
  105cb9:	8b 15 89 17 01 00    	mov    0x11789(%rip),%edx        # 117448 <_ZL17MousePositionOldX>
  105cbf:	48 8d 35 3a 93 00 00 	lea    0x933a(%rip),%rsi        # 10f000 <MousePointer>
  105cc6:	48 89 c7             	mov    %rax,%rdi
  105cc9:	e8 d4 f2 ff ff       	callq  104fa2 <_ZN11Framebuffer16ClearMouseCursorEPhjj>
  105cce:	e8 59 f4 ff ff       	callq  10512c <_ZN7Display13SharedDisplayEv>
  105cd3:	48 83 c0 20          	add    $0x20,%rax
  105cd7:	8b 15 67 17 01 00    	mov    0x11767(%rip),%edx        # 117444 <_ZL14MousePositionY>
  105cdd:	89 d1                	mov    %edx,%ecx
  105cdf:	8b 15 5b 17 01 00    	mov    0x1175b(%rip),%edx        # 117440 <_ZL14MousePositionX>
  105ce5:	41 b8 ff ff ff ff    	mov    $0xffffffff,%r8d
  105ceb:	48 8d 35 0e 93 00 00 	lea    0x930e(%rip),%rsi        # 10f000 <MousePointer>
  105cf2:	48 89 c7             	mov    %rax,%rdi
  105cf5:	e8 04 f1 ff ff       	callq  104dfe <_ZN11Framebuffer15DrawMouseCursorEPhjjj>
  105cfa:	0f b6 05 38 17 01 00 	movzbl 0x11738(%rip),%eax        # 117439 <_ZL11MousePacket>
  105d01:	0f b6 c0             	movzbl %al,%eax
  105d04:	83 e0 01             	and    $0x1,%eax
  105d07:	85 c0                	test   %eax,%eax
  105d09:	74 12                	je     105d1d <_ZL18ProcessMousePacketv+0x21e>
  105d0b:	0f b6 05 46 17 01 00 	movzbl 0x11746(%rip),%eax        # 117458 <_ZL7buttons>
  105d12:	83 c8 01             	or     $0x1,%eax
  105d15:	88 05 3d 17 01 00    	mov    %al,0x1173d(%rip)        # 117458 <_ZL7buttons>
  105d1b:	eb 10                	jmp    105d2d <_ZL18ProcessMousePacketv+0x22e>
  105d1d:	0f b6 05 34 17 01 00 	movzbl 0x11734(%rip),%eax        # 117458 <_ZL7buttons>
  105d24:	83 e0 fe             	and    $0xfffffffe,%eax
  105d27:	88 05 2b 17 01 00    	mov    %al,0x1172b(%rip)        # 117458 <_ZL7buttons>
  105d2d:	0f b6 05 05 17 01 00 	movzbl 0x11705(%rip),%eax        # 117439 <_ZL11MousePacket>
  105d34:	0f b6 c0             	movzbl %al,%eax
  105d37:	83 e0 04             	and    $0x4,%eax
  105d3a:	85 c0                	test   %eax,%eax
  105d3c:	74 12                	je     105d50 <_ZL18ProcessMousePacketv+0x251>
  105d3e:	0f b6 05 13 17 01 00 	movzbl 0x11713(%rip),%eax        # 117458 <_ZL7buttons>
  105d45:	83 c8 02             	or     $0x2,%eax
  105d48:	88 05 0a 17 01 00    	mov    %al,0x1170a(%rip)        # 117458 <_ZL7buttons>
  105d4e:	eb 10                	jmp    105d60 <_ZL18ProcessMousePacketv+0x261>
  105d50:	0f b6 05 01 17 01 00 	movzbl 0x11701(%rip),%eax        # 117458 <_ZL7buttons>
  105d57:	83 e0 fd             	and    $0xfffffffd,%eax
  105d5a:	88 05 f8 16 01 00    	mov    %al,0x116f8(%rip)        # 117458 <_ZL7buttons>
  105d60:	0f b6 05 d2 16 01 00 	movzbl 0x116d2(%rip),%eax        # 117439 <_ZL11MousePacket>
  105d67:	0f b6 c0             	movzbl %al,%eax
  105d6a:	83 e0 02             	and    $0x2,%eax
  105d6d:	85 c0                	test   %eax,%eax
  105d6f:	74 12                	je     105d83 <_ZL18ProcessMousePacketv+0x284>
  105d71:	0f b6 05 e0 16 01 00 	movzbl 0x116e0(%rip),%eax        # 117458 <_ZL7buttons>
  105d78:	83 c8 04             	or     $0x4,%eax
  105d7b:	88 05 d7 16 01 00    	mov    %al,0x116d7(%rip)        # 117458 <_ZL7buttons>
  105d81:	eb 10                	jmp    105d93 <_ZL18ProcessMousePacketv+0x294>
  105d83:	0f b6 05 ce 16 01 00 	movzbl 0x116ce(%rip),%eax        # 117458 <_ZL7buttons>
  105d8a:	83 e0 fb             	and    $0xfffffffb,%eax
  105d8d:	88 05 c5 16 01 00    	mov    %al,0x116c5(%rip)        # 117458 <_ZL7buttons>
  105d93:	c6 05 a3 16 01 00 00 	movb   $0x0,0x116a3(%rip)        # 11743d <_ZL16MousePacketReady>
  105d9a:	8b 05 a0 16 01 00    	mov    0x116a0(%rip),%eax        # 117440 <_ZL14MousePositionX>
  105da0:	89 05 a2 16 01 00    	mov    %eax,0x116a2(%rip)        # 117448 <_ZL17MousePositionOldX>
  105da6:	8b 05 98 16 01 00    	mov    0x11698(%rip),%eax        # 117444 <_ZL14MousePositionY>
  105dac:	89 05 9a 16 01 00    	mov    %eax,0x1169a(%rip)        # 11744c <_ZL17MousePositionOldY>
  105db2:	eb 01                	jmp    105db5 <_ZL18ProcessMousePacketv+0x2b6>
  105db4:	90                   	nop
  105db5:	c9                   	leaveq 
  105db6:	c3                   	retq   

0000000000105db7 <_ZL14mouse_callbackP9Registers>:
  105db7:	f3 0f 1e fa          	endbr64 
  105dbb:	55                   	push   %rbp
  105dbc:	48 89 e5             	mov    %rsp,%rbp
  105dbf:	48 83 ec 20          	sub    $0x20,%rsp
  105dc3:	48 89 7d e8          	mov    %rdi,-0x18(%rbp)
  105dc7:	bf 64 00 00 00       	mov    $0x64,%edi
  105dcc:	e8 e1 b9 ff ff       	callq  1017b2 <_Z5__inbt>
  105dd1:	88 45 ff             	mov    %al,-0x1(%rbp)
  105dd4:	e8 26 fd ff ff       	callq  105aff <_ZL18ProcessMousePacketv>
  105dd9:	0f b6 05 40 92 00 00 	movzbl 0x9240(%rip),%eax        # 10f020 <_ZZL14mouse_callbackP9RegistersE4skip>
  105de0:	84 c0                	test   %al,%al
  105de2:	74 09                	je     105ded <_ZL14mouse_callbackP9Registers+0x36>
  105de4:	c6 05 35 92 00 00 00 	movb   $0x0,0x9235(%rip)        # 10f020 <_ZZL14mouse_callbackP9RegistersE4skip>
  105deb:	eb 7d                	jmp    105e6a <_ZL14mouse_callbackP9Registers+0xb3>
  105ded:	0f b6 05 44 16 01 00 	movzbl 0x11644(%rip),%eax        # 117438 <_ZL10MouseCycle>
  105df4:	0f b6 c0             	movzbl %al,%eax
  105df7:	83 f8 02             	cmp    $0x2,%eax
  105dfa:	74 53                	je     105e4f <_ZL14mouse_callbackP9Registers+0x98>
  105dfc:	83 f8 02             	cmp    $0x2,%eax
  105dff:	7f 69                	jg     105e6a <_ZL14mouse_callbackP9Registers+0xb3>
  105e01:	85 c0                	test   %eax,%eax
  105e03:	74 07                	je     105e0c <_ZL14mouse_callbackP9Registers+0x55>
  105e05:	83 f8 01             	cmp    $0x1,%eax
  105e08:	74 29                	je     105e33 <_ZL14mouse_callbackP9Registers+0x7c>
  105e0a:	eb 5e                	jmp    105e6a <_ZL14mouse_callbackP9Registers+0xb3>
  105e0c:	0f b6 45 ff          	movzbl -0x1(%rbp),%eax
  105e10:	83 e0 08             	and    $0x8,%eax
  105e13:	85 c0                	test   %eax,%eax
  105e15:	74 52                	je     105e69 <_ZL14mouse_callbackP9Registers+0xb2>
  105e17:	0f b6 45 ff          	movzbl -0x1(%rbp),%eax
  105e1b:	88 05 18 16 01 00    	mov    %al,0x11618(%rip)        # 117439 <_ZL11MousePacket>
  105e21:	0f b6 05 10 16 01 00 	movzbl 0x11610(%rip),%eax        # 117438 <_ZL10MouseCycle>
  105e28:	83 c0 01             	add    $0x1,%eax
  105e2b:	88 05 07 16 01 00    	mov    %al,0x11607(%rip)        # 117438 <_ZL10MouseCycle>
  105e31:	eb 37                	jmp    105e6a <_ZL14mouse_callbackP9Registers+0xb3>
  105e33:	0f b6 45 ff          	movzbl -0x1(%rbp),%eax
  105e37:	88 05 fd 15 01 00    	mov    %al,0x115fd(%rip)        # 11743a <_ZL11MousePacket+0x1>
  105e3d:	0f b6 05 f4 15 01 00 	movzbl 0x115f4(%rip),%eax        # 117438 <_ZL10MouseCycle>
  105e44:	83 c0 01             	add    $0x1,%eax
  105e47:	88 05 eb 15 01 00    	mov    %al,0x115eb(%rip)        # 117438 <_ZL10MouseCycle>
  105e4d:	eb 1b                	jmp    105e6a <_ZL14mouse_callbackP9Registers+0xb3>
  105e4f:	0f b6 45 ff          	movzbl -0x1(%rbp),%eax
  105e53:	88 05 e2 15 01 00    	mov    %al,0x115e2(%rip)        # 11743b <_ZL11MousePacket+0x2>
  105e59:	c6 05 dd 15 01 00 01 	movb   $0x1,0x115dd(%rip)        # 11743d <_ZL16MousePacketReady>
  105e60:	c6 05 d1 15 01 00 00 	movb   $0x0,0x115d1(%rip)        # 117438 <_ZL10MouseCycle>
  105e67:	eb 01                	jmp    105e6a <_ZL14mouse_callbackP9Registers+0xb3>
  105e69:	90                   	nop
  105e6a:	c9                   	leaveq 
  105e6b:	c3                   	retq   

0000000000105e6c <_Z15InitialiseMousejj>:
  105e6c:	f3 0f 1e fa          	endbr64 
  105e70:	55                   	push   %rbp
  105e71:	48 89 e5             	mov    %rsp,%rbp
  105e74:	48 83 ec 20          	sub    $0x20,%rsp
  105e78:	89 7d ec             	mov    %edi,-0x14(%rbp)
  105e7b:	89 75 e8             	mov    %esi,-0x18(%rbp)
  105e7e:	8b 45 ec             	mov    -0x14(%rbp),%eax
  105e81:	89 05 c9 15 01 00    	mov    %eax,0x115c9(%rip)        # 117450 <_ZL5Width>
  105e87:	8b 45 e8             	mov    -0x18(%rbp),%eax
  105e8a:	89 05 c4 15 01 00    	mov    %eax,0x115c4(%rip)        # 117454 <_ZL6Height>
  105e90:	c6 05 c1 15 01 00 00 	movb   $0x0,0x115c1(%rip)        # 117458 <_ZL7buttons>
  105e97:	be a8 00 00 00       	mov    $0xa8,%esi
  105e9c:	bf 64 00 00 00       	mov    $0x64,%edi
  105ea1:	e8 6f b9 ff ff       	callq  101815 <_Z6__outbth>
  105ea6:	e8 6e fb ff ff       	callq  105a19 <_Z9MouseWaitv>
  105eab:	be 20 00 00 00       	mov    $0x20,%esi
  105eb0:	bf 64 00 00 00       	mov    $0x64,%edi
  105eb5:	e8 5b b9 ff ff       	callq  101815 <_Z6__outbth>
  105eba:	e8 a2 fb ff ff       	callq  105a61 <_Z14MouseWaitInputv>
  105ebf:	bf 60 00 00 00       	mov    $0x60,%edi
  105ec4:	e8 e9 b8 ff ff       	callq  1017b2 <_Z5__inbt>
  105ec9:	88 45 ff             	mov    %al,-0x1(%rbp)
  105ecc:	80 4d ff 02          	orb    $0x2,-0x1(%rbp)
  105ed0:	e8 44 fb ff ff       	callq  105a19 <_Z9MouseWaitv>
  105ed5:	be 60 00 00 00       	mov    $0x60,%esi
  105eda:	bf 64 00 00 00       	mov    $0x64,%edi
  105edf:	e8 31 b9 ff ff       	callq  101815 <_Z6__outbth>
  105ee4:	e8 30 fb ff ff       	callq  105a19 <_Z9MouseWaitv>
  105ee9:	0f b6 45 ff          	movzbl -0x1(%rbp),%eax
  105eed:	89 c6                	mov    %eax,%esi
  105eef:	bf 60 00 00 00       	mov    $0x60,%edi
  105ef4:	e8 1c b9 ff ff       	callq  101815 <_Z6__outbth>
  105ef9:	bf f6 00 00 00       	mov    $0xf6,%edi
  105efe:	e8 a6 fb ff ff       	callq  105aa9 <_Z10MouseWriteh>
  105f03:	e8 de fb ff ff       	callq  105ae6 <_Z9MouseReadv>
  105f08:	bf f4 00 00 00       	mov    $0xf4,%edi
  105f0d:	e8 97 fb ff ff       	callq  105aa9 <_Z10MouseWriteh>
  105f12:	e8 cf fb ff ff       	callq  105ae6 <_Z9MouseReadv>
  105f17:	48 8d 35 99 fe ff ff 	lea    -0x167(%rip),%rsi        # 105db7 <_ZL14mouse_callbackP9Registers>
  105f1e:	bf 2c 00 00 00       	mov    $0x2c,%edi
  105f23:	e8 ca c9 ff ff       	callq  1028f2 <_Z24RegisterInterruptHandlerhPFvP9RegistersE>
  105f28:	90                   	nop
  105f29:	c9                   	leaveq 
  105f2a:	c3                   	retq   

0000000000105f2b <_Z9GetMouseXv>:
  105f2b:	f3 0f 1e fa          	endbr64 
  105f2f:	55                   	push   %rbp
  105f30:	48 89 e5             	mov    %rsp,%rbp
  105f33:	8b 05 07 15 01 00    	mov    0x11507(%rip),%eax        # 117440 <_ZL14MousePositionX>
  105f39:	f2 0f 2a c8          	cvtsi2sd %eax,%xmm1
  105f3d:	8b 05 0d 15 01 00    	mov    0x1150d(%rip),%eax        # 117450 <_ZL5Width>
  105f43:	89 c0                	mov    %eax,%eax
  105f45:	48 85 c0             	test   %rax,%rax
  105f48:	78 07                	js     105f51 <_Z9GetMouseXv+0x26>
  105f4a:	f2 48 0f 2a c0       	cvtsi2sd %rax,%xmm0
  105f4f:	eb 15                	jmp    105f66 <_Z9GetMouseXv+0x3b>
  105f51:	48 89 c2             	mov    %rax,%rdx
  105f54:	48 d1 ea             	shr    %rdx
  105f57:	83 e0 01             	and    $0x1,%eax
  105f5a:	48 09 c2             	or     %rax,%rdx
  105f5d:	f2 48 0f 2a c2       	cvtsi2sd %rdx,%xmm0
  105f62:	f2 0f 58 c0          	addsd  %xmm0,%xmm0
  105f66:	f2 0f 5e c8          	divsd  %xmm0,%xmm1
  105f6a:	66 0f 28 c1          	movapd %xmm1,%xmm0
  105f6e:	f2 0f 58 c0          	addsd  %xmm0,%xmm0
  105f72:	f2 0f 10 0d b6 af 00 	movsd  0xafb6(%rip),%xmm1        # 110f30 <__rodata+0xf30>
  105f79:	00 
  105f7a:	f2 0f 5c c1          	subsd  %xmm1,%xmm0
  105f7e:	5d                   	pop    %rbp
  105f7f:	c3                   	retq   

0000000000105f80 <_Z9GetMouseYv>:
  105f80:	f3 0f 1e fa          	endbr64 
  105f84:	55                   	push   %rbp
  105f85:	48 89 e5             	mov    %rsp,%rbp
  105f88:	8b 05 b6 14 01 00    	mov    0x114b6(%rip),%eax        # 117444 <_ZL14MousePositionY>
  105f8e:	f2 0f 2a c8          	cvtsi2sd %eax,%xmm1
  105f92:	8b 05 bc 14 01 00    	mov    0x114bc(%rip),%eax        # 117454 <_ZL6Height>
  105f98:	89 c0                	mov    %eax,%eax
  105f9a:	48 85 c0             	test   %rax,%rax
  105f9d:	78 07                	js     105fa6 <_Z9GetMouseYv+0x26>
  105f9f:	f2 48 0f 2a c0       	cvtsi2sd %rax,%xmm0
  105fa4:	eb 15                	jmp    105fbb <_Z9GetMouseYv+0x3b>
  105fa6:	48 89 c2             	mov    %rax,%rdx
  105fa9:	48 d1 ea             	shr    %rdx
  105fac:	83 e0 01             	and    $0x1,%eax
  105faf:	48 09 c2             	or     %rax,%rdx
  105fb2:	f2 48 0f 2a c2       	cvtsi2sd %rdx,%xmm0
  105fb7:	f2 0f 58 c0          	addsd  %xmm0,%xmm0
  105fbb:	f2 0f 5e c8          	divsd  %xmm0,%xmm1
  105fbf:	66 0f 28 c1          	movapd %xmm1,%xmm0
  105fc3:	f2 0f 58 c0          	addsd  %xmm0,%xmm0
  105fc7:	f2 0f 10 0d 61 af 00 	movsd  0xaf61(%rip),%xmm1        # 110f30 <__rodata+0xf30>
  105fce:	00 
  105fcf:	f2 0f 5c c1          	subsd  %xmm1,%xmm0
  105fd3:	5d                   	pop    %rbp
  105fd4:	c3                   	retq   

0000000000105fd5 <_Z14GetMouseButtonh>:
  105fd5:	f3 0f 1e fa          	endbr64 
  105fd9:	55                   	push   %rbp
  105fda:	48 89 e5             	mov    %rsp,%rbp
  105fdd:	48 83 ec 08          	sub    $0x8,%rsp
  105fe1:	89 f8                	mov    %edi,%eax
  105fe3:	88 45 fc             	mov    %al,-0x4(%rbp)
  105fe6:	80 7d fc 02          	cmpb   $0x2,-0x4(%rbp)
  105fea:	76 07                	jbe    105ff3 <_Z14GetMouseButtonh+0x1e>
  105fec:	b8 00 00 00 00       	mov    $0x0,%eax
  105ff1:	eb 1a                	jmp    10600d <_Z14GetMouseButtonh+0x38>
  105ff3:	0f b6 45 fc          	movzbl -0x4(%rbp),%eax
  105ff7:	ba 01 00 00 00       	mov    $0x1,%edx
  105ffc:	89 c1                	mov    %eax,%ecx
  105ffe:	d3 e2                	shl    %cl,%edx
  106000:	89 d0                	mov    %edx,%eax
  106002:	89 c2                	mov    %eax,%edx
  106004:	0f b6 05 4d 14 01 00 	movzbl 0x1144d(%rip),%eax        # 117458 <_ZL7buttons>
  10600b:	21 d0                	and    %edx,%eax
  10600d:	c9                   	leaveq 
  10600e:	c3                   	retq   

000000000010600f <_ZL17keyboard_callbackP9Registers>:
  10600f:	f3 0f 1e fa          	endbr64 
  106013:	55                   	push   %rbp
  106014:	48 89 e5             	mov    %rsp,%rbp
  106017:	48 83 ec 20          	sub    $0x20,%rsp
  10601b:	48 89 7d e8          	mov    %rdi,-0x18(%rbp)
  10601f:	bf 60 00 00 00       	mov    $0x60,%edi
  106024:	e8 89 b7 ff ff       	callq  1017b2 <_Z5__inbt>
  106029:	88 45 fe             	mov    %al,-0x2(%rbp)
  10602c:	80 7d fe 0e          	cmpb   $0xe,-0x2(%rbp)
  106030:	75 30                	jne    106062 <_ZL17keyboard_callbackP9Registers+0x53>
  106032:	48 8d 3d 47 14 01 00 	lea    0x11447(%rip),%rdi        # 117480 <_ZL10key_buffer>
  106039:	e8 12 64 00 00       	callq  10c450 <_Z6strlenPc>
  10603e:	48 85 c0             	test   %rax,%rax
  106041:	0f 94 c0             	sete   %al
  106044:	84 c0                	test   %al,%al
  106046:	0f 85 9d 01 00 00    	jne    1061e9 <_ZL17keyboard_callbackP9Registers+0x1da>
  10604c:	48 8d 3d 2d 14 01 00 	lea    0x1142d(%rip),%rdi        # 117480 <_ZL10key_buffer>
  106053:	e8 c3 63 00 00       	callq  10c41b <_Z9backspacePc>
  106058:	e8 8c 6b 00 00       	callq  10cbe9 <_Z17kprintf_backspacev>
  10605d:	e9 8b 01 00 00       	jmpq   1061ed <_ZL17keyboard_callbackP9Registers+0x1de>
  106062:	80 7d fe 1c          	cmpb   $0x1c,-0x2(%rbp)
  106066:	75 38                	jne    1060a0 <_ZL17keyboard_callbackP9Registers+0x91>
  106068:	48 8d 3d 44 b0 00 00 	lea    0xb044(%rip),%rdi        # 1110b3 <_ZL8sc_ascii+0x53>
  10606f:	b8 00 00 00 00       	mov    $0x0,%eax
  106074:	e8 97 67 00 00       	callq  10c810 <_Z7kprintfPKcz>
  106079:	48 8d 3d 00 14 01 00 	lea    0x11400(%rip),%rdi        # 117480 <_ZL10key_buffer>
  106080:	e8 cf d2 ff ff       	callq  103354 <_Z10user_inputPc>
  106085:	ba 00 01 00 00       	mov    $0x100,%edx
  10608a:	be 00 00 00 00       	mov    $0x0,%esi
  10608f:	48 8d 3d ea 13 01 00 	lea    0x113ea(%rip),%rdi        # 117480 <_ZL10key_buffer>
  106096:	e8 b4 6b 00 00       	callq  10cc4f <_Z6memsetPvim>
  10609b:	e9 4d 01 00 00       	jmpq   1061ed <_ZL17keyboard_callbackP9Registers+0x1de>
  1060a0:	48 8d 3d d9 13 01 00 	lea    0x113d9(%rip),%rdi        # 117480 <_ZL10key_buffer>
  1060a7:	e8 a4 63 00 00       	callq  10c450 <_Z6strlenPc>
  1060ac:	48 3d ff 00 00 00    	cmp    $0xff,%rax
  1060b2:	0f 94 c0             	sete   %al
  1060b5:	84 c0                	test   %al,%al
  1060b7:	74 24                	je     1060dd <_ZL17keyboard_callbackP9Registers+0xce>
  1060b9:	48 8d 3d f3 af 00 00 	lea    0xaff3(%rip),%rdi        # 1110b3 <_ZL8sc_ascii+0x53>
  1060c0:	b8 00 00 00 00       	mov    $0x0,%eax
  1060c5:	e8 46 67 00 00       	callq  10c810 <_Z7kprintfPKcz>
  1060ca:	48 8d 3d af 13 01 00 	lea    0x113af(%rip),%rdi        # 117480 <_ZL10key_buffer>
  1060d1:	e8 7e d2 ff ff       	callq  103354 <_Z10user_inputPc>
  1060d6:	c6 05 a3 13 01 00 00 	movb   $0x0,0x113a3(%rip)        # 117480 <_ZL10key_buffer>
  1060dd:	0f b6 45 fe          	movzbl -0x2(%rbp),%eax
  1060e1:	48 98                	cltq   
  1060e3:	48 8d 15 76 af 00 00 	lea    0xaf76(%rip),%rdx        # 111060 <_ZL8sc_ascii>
  1060ea:	0f b6 04 10          	movzbl (%rax,%rdx,1),%eax
  1060ee:	88 45 ff             	mov    %al,-0x1(%rbp)
  1060f1:	0f b6 45 fe          	movzbl -0x2(%rbp),%eax
  1060f5:	84 c0                	test   %al,%al
  1060f7:	79 09                	jns    106102 <_ZL17keyboard_callbackP9Registers+0xf3>
  1060f9:	0f b6 45 fe          	movzbl -0x2(%rbp),%eax
  1060fd:	83 c0 80             	add    $0xffffff80,%eax
  106100:	eb 04                	jmp    106106 <_ZL17keyboard_callbackP9Registers+0xf7>
  106102:	0f b6 45 fe          	movzbl -0x2(%rbp),%eax
  106106:	89 45 f8             	mov    %eax,-0x8(%rbp)
  106109:	8b 45 f8             	mov    -0x8(%rbp),%eax
  10610c:	48 98                	cltq   
  10610e:	48 8d 15 4b af 00 00 	lea    0xaf4b(%rip),%rdx        # 111060 <_ZL8sc_ascii>
  106115:	0f b6 04 10          	movzbl (%rax,%rdx,1),%eax
  106119:	3c 3f                	cmp    $0x3f,%al
  10611b:	75 60                	jne    10617d <_ZL17keyboard_callbackP9Registers+0x16e>
  10611d:	8b 45 f8             	mov    -0x8(%rbp),%eax
  106120:	89 c7                	mov    %eax,%edi
  106122:	e8 c8 00 00 00       	callq  1061ef <_Z24get_index_of_control_keyi>
  106127:	89 45 f4             	mov    %eax,-0xc(%rbp)
  10612a:	83 7d f4 00          	cmpl   $0x0,-0xc(%rbp)
  10612e:	0f 88 b8 00 00 00    	js     1061ec <_ZL17keyboard_callbackP9Registers+0x1dd>
  106134:	0f b6 45 fe          	movzbl -0x2(%rbp),%eax
  106138:	84 c0                	test   %al,%al
  10613a:	79 25                	jns    106161 <_ZL17keyboard_callbackP9Registers+0x152>
  10613c:	8b 45 f4             	mov    -0xc(%rbp),%eax
  10613f:	ba 01 00 00 00       	mov    $0x1,%edx
  106144:	89 c1                	mov    %eax,%ecx
  106146:	d3 e2                	shl    %cl,%edx
  106148:	89 d0                	mov    %edx,%eax
  10614a:	f7 d0                	not    %eax
  10614c:	89 c2                	mov    %eax,%edx
  10614e:	8b 05 0c 13 01 00    	mov    0x1130c(%rip),%eax        # 117460 <control_keys>
  106154:	21 d0                	and    %edx,%eax
  106156:	89 05 04 13 01 00    	mov    %eax,0x11304(%rip)        # 117460 <control_keys>
  10615c:	e9 8c 00 00 00       	jmpq   1061ed <_ZL17keyboard_callbackP9Registers+0x1de>
  106161:	8b 45 f4             	mov    -0xc(%rbp),%eax
  106164:	ba 01 00 00 00       	mov    $0x1,%edx
  106169:	89 c1                	mov    %eax,%ecx
  10616b:	d3 e2                	shl    %cl,%edx
  10616d:	8b 05 ed 12 01 00    	mov    0x112ed(%rip),%eax        # 117460 <control_keys>
  106173:	09 d0                	or     %edx,%eax
  106175:	89 05 e5 12 01 00    	mov    %eax,0x112e5(%rip)        # 117460 <control_keys>
  10617b:	eb 70                	jmp    1061ed <_ZL17keyboard_callbackP9Registers+0x1de>
  10617d:	80 7d fe 39          	cmpb   $0x39,-0x2(%rbp)
  106181:	77 6a                	ja     1061ed <_ZL17keyboard_callbackP9Registers+0x1de>
  106183:	8b 05 d7 12 01 00    	mov    0x112d7(%rip),%eax        # 117460 <control_keys>
  106189:	83 e0 01             	and    $0x1,%eax
  10618c:	85 c0                	test   %eax,%eax
  10618e:	75 16                	jne    1061a6 <_ZL17keyboard_callbackP9Registers+0x197>
  106190:	80 7d ff 40          	cmpb   $0x40,-0x1(%rbp)
  106194:	7e 10                	jle    1061a6 <_ZL17keyboard_callbackP9Registers+0x197>
  106196:	80 7d ff 5a          	cmpb   $0x5a,-0x1(%rbp)
  10619a:	7f 0a                	jg     1061a6 <_ZL17keyboard_callbackP9Registers+0x197>
  10619c:	0f b6 45 ff          	movzbl -0x1(%rbp),%eax
  1061a0:	83 c0 20             	add    $0x20,%eax
  1061a3:	88 45 ff             	mov    %al,-0x1(%rbp)
  1061a6:	8b 05 b4 12 01 00    	mov    0x112b4(%rip),%eax        # 117460 <control_keys>
  1061ac:	83 e0 08             	and    $0x8,%eax
  1061af:	85 c0                	test   %eax,%eax
  1061b1:	74 04                	je     1061b7 <_ZL17keyboard_callbackP9Registers+0x1a8>
  1061b3:	c6 45 ff 7e          	movb   $0x7e,-0x1(%rbp)
  1061b7:	66 c7 45 f2 00 00    	movw   $0x0,-0xe(%rbp)
  1061bd:	0f b6 45 ff          	movzbl -0x1(%rbp),%eax
  1061c1:	88 45 f2             	mov    %al,-0xe(%rbp)
  1061c4:	0f be 45 ff          	movsbl -0x1(%rbp),%eax
  1061c8:	89 c6                	mov    %eax,%esi
  1061ca:	48 8d 3d af 12 01 00 	lea    0x112af(%rip),%rdi        # 117480 <_ZL10key_buffer>
  1061d1:	e8 fa 61 00 00       	callq  10c3d0 <_Z6appendPcc>
  1061d6:	48 8d 45 f2          	lea    -0xe(%rbp),%rax
  1061da:	48 89 c7             	mov    %rax,%rdi
  1061dd:	b8 00 00 00 00       	mov    $0x0,%eax
  1061e2:	e8 29 66 00 00       	callq  10c810 <_Z7kprintfPKcz>
  1061e7:	eb 04                	jmp    1061ed <_ZL17keyboard_callbackP9Registers+0x1de>
  1061e9:	90                   	nop
  1061ea:	eb 01                	jmp    1061ed <_ZL17keyboard_callbackP9Registers+0x1de>
  1061ec:	90                   	nop
  1061ed:	c9                   	leaveq 
  1061ee:	c3                   	retq   

00000000001061ef <_Z24get_index_of_control_keyi>:
  1061ef:	f3 0f 1e fa          	endbr64 
  1061f3:	55                   	push   %rbp
  1061f4:	48 89 e5             	mov    %rsp,%rbp
  1061f7:	48 83 ec 20          	sub    $0x20,%rsp
  1061fb:	89 7d ec             	mov    %edi,-0x14(%rbp)
  1061fe:	8b 45 ec             	mov    -0x14(%rbp),%eax
  106201:	48 98                	cltq   
  106203:	48 8d 14 c5 00 00 00 	lea    0x0(,%rax,8),%rdx
  10620a:	00 
  10620b:	48 8d 05 ce 8f 00 00 	lea    0x8fce(%rip),%rax        # 10f1e0 <sc_name>
  106212:	48 8b 04 02          	mov    (%rdx,%rax,1),%rax
  106216:	48 89 45 f8          	mov    %rax,-0x8(%rbp)
  10621a:	48 8b 45 f8          	mov    -0x8(%rbp),%rax
  10621e:	48 8d 35 69 ad 00 00 	lea    0xad69(%rip),%rsi        # 110f8e <__rodata+0xf8e>
  106225:	48 89 c7             	mov    %rax,%rdi
  106228:	e8 41 62 00 00       	callq  10c46e <_Z6strcmpPcS_>
  10622d:	85 c0                	test   %eax,%eax
  10622f:	0f 94 c0             	sete   %al
  106232:	84 c0                	test   %al,%al
  106234:	74 07                	je     10623d <_Z24get_index_of_control_keyi+0x4e>
  106236:	b8 01 00 00 00       	mov    $0x1,%eax
  10623b:	eb 6e                	jmp    1062ab <_Z24get_index_of_control_keyi+0xbc>
  10623d:	48 8b 45 f8          	mov    -0x8(%rbp),%rax
  106241:	48 8d 35 64 ad 00 00 	lea    0xad64(%rip),%rsi        # 110fac <__rodata+0xfac>
  106248:	48 89 c7             	mov    %rax,%rdi
  10624b:	e8 1e 62 00 00       	callq  10c46e <_Z6strcmpPcS_>
  106250:	85 c0                	test   %eax,%eax
  106252:	0f 94 c0             	sete   %al
  106255:	84 c0                	test   %al,%al
  106257:	74 07                	je     106260 <_Z24get_index_of_control_keyi+0x71>
  106259:	b8 00 00 00 00       	mov    $0x0,%eax
  10625e:	eb 4b                	jmp    1062ab <_Z24get_index_of_control_keyi+0xbc>
  106260:	48 8b 45 f8          	mov    -0x8(%rbp),%rax
  106264:	48 8d 35 5e ad 00 00 	lea    0xad5e(%rip),%rsi        # 110fc9 <__rodata+0xfc9>
  10626b:	48 89 c7             	mov    %rax,%rdi
  10626e:	e8 fb 61 00 00       	callq  10c46e <_Z6strcmpPcS_>
  106273:	85 c0                	test   %eax,%eax
  106275:	0f 94 c0             	sete   %al
  106278:	84 c0                	test   %al,%al
  10627a:	74 07                	je     106283 <_Z24get_index_of_control_keyi+0x94>
  10627c:	b8 00 00 00 00       	mov    $0x0,%eax
  106281:	eb 28                	jmp    1062ab <_Z24get_index_of_control_keyi+0xbc>
  106283:	48 8b 45 f8          	mov    -0x8(%rbp),%rax
  106287:	48 8d 35 4b ad 00 00 	lea    0xad4b(%rip),%rsi        # 110fd9 <__rodata+0xfd9>
  10628e:	48 89 c7             	mov    %rax,%rdi
  106291:	e8 d8 61 00 00       	callq  10c46e <_Z6strcmpPcS_>
  106296:	85 c0                	test   %eax,%eax
  106298:	0f 94 c0             	sete   %al
  10629b:	84 c0                	test   %al,%al
  10629d:	74 07                	je     1062a6 <_Z24get_index_of_control_keyi+0xb7>
  10629f:	b8 03 00 00 00       	mov    $0x3,%eax
  1062a4:	eb 05                	jmp    1062ab <_Z24get_index_of_control_keyi+0xbc>
  1062a6:	b8 ff ff ff ff       	mov    $0xffffffff,%eax
  1062ab:	c9                   	leaveq 
  1062ac:	c3                   	retq   

00000000001062ad <_Z12InitKeyboardv>:
  1062ad:	f3 0f 1e fa          	endbr64 
  1062b1:	55                   	push   %rbp
  1062b2:	48 89 e5             	mov    %rsp,%rbp
  1062b5:	48 8d 35 53 fd ff ff 	lea    -0x2ad(%rip),%rsi        # 10600f <_ZL17keyboard_callbackP9Registers>
  1062bc:	bf 21 00 00 00       	mov    $0x21,%edi
  1062c1:	e8 2c c6 ff ff       	callq  1028f2 <_Z24RegisterInterruptHandlerhPFvP9RegistersE>
  1062c6:	90                   	nop
  1062c7:	5d                   	pop    %rbp
  1062c8:	c3                   	retq   
  1062c9:	90                   	nop

00000000001062ca <_ZN4AHCI13CheckPortTypeEPNS_7HBAPortE>:
  1062ca:	f3 0f 1e fa          	endbr64 
  1062ce:	55                   	push   %rbp
  1062cf:	48 89 e5             	mov    %rsp,%rbp
  1062d2:	48 83 ec 18          	sub    $0x18,%rsp
  1062d6:	48 89 7d e8          	mov    %rdi,-0x18(%rbp)
  1062da:	48 8b 45 e8          	mov    -0x18(%rbp),%rax
  1062de:	8b 40 28             	mov    0x28(%rax),%eax
  1062e1:	89 45 fc             	mov    %eax,-0x4(%rbp)
  1062e4:	8b 45 fc             	mov    -0x4(%rbp),%eax
  1062e7:	c1 e8 08             	shr    $0x8,%eax
  1062ea:	83 e0 07             	and    $0x7,%eax
  1062ed:	88 45 fb             	mov    %al,-0x5(%rbp)
  1062f0:	8b 45 fc             	mov    -0x4(%rbp),%eax
  1062f3:	83 e0 07             	and    $0x7,%eax
  1062f6:	88 45 fa             	mov    %al,-0x6(%rbp)
  1062f9:	80 7d fa 03          	cmpb   $0x3,-0x6(%rbp)
  1062fd:	74 07                	je     106306 <_ZN4AHCI13CheckPortTypeEPNS_7HBAPortE+0x3c>
  1062ff:	b8 00 00 00 00       	mov    $0x0,%eax
  106304:	eb 5c                	jmp    106362 <_ZN4AHCI13CheckPortTypeEPNS_7HBAPortE+0x98>
  106306:	80 7d fb 01          	cmpb   $0x1,-0x5(%rbp)
  10630a:	74 07                	je     106313 <_ZN4AHCI13CheckPortTypeEPNS_7HBAPortE+0x49>
  10630c:	b8 00 00 00 00       	mov    $0x0,%eax
  106311:	eb 4f                	jmp    106362 <_ZN4AHCI13CheckPortTypeEPNS_7HBAPortE+0x98>
  106313:	48 8b 45 e8          	mov    -0x18(%rbp),%rax
  106317:	8b 40 24             	mov    0x24(%rax),%eax
  10631a:	3d 01 01 14 eb       	cmp    $0xeb140101,%eax
  10631f:	74 25                	je     106346 <_ZN4AHCI13CheckPortTypeEPNS_7HBAPortE+0x7c>
  106321:	3d 01 01 14 eb       	cmp    $0xeb140101,%eax
  106326:	77 3a                	ja     106362 <_ZN4AHCI13CheckPortTypeEPNS_7HBAPortE+0x98>
  106328:	3d 01 01 3c c3       	cmp    $0xc33c0101,%eax
  10632d:	74 2c                	je     10635b <_ZN4AHCI13CheckPortTypeEPNS_7HBAPortE+0x91>
  10632f:	3d 01 01 3c c3       	cmp    $0xc33c0101,%eax
  106334:	77 2c                	ja     106362 <_ZN4AHCI13CheckPortTypeEPNS_7HBAPortE+0x98>
  106336:	3d 01 01 00 00       	cmp    $0x101,%eax
  10633b:	74 10                	je     10634d <_ZN4AHCI13CheckPortTypeEPNS_7HBAPortE+0x83>
  10633d:	3d 01 01 69 96       	cmp    $0x96690101,%eax
  106342:	74 10                	je     106354 <_ZN4AHCI13CheckPortTypeEPNS_7HBAPortE+0x8a>
  106344:	eb 1c                	jmp    106362 <_ZN4AHCI13CheckPortTypeEPNS_7HBAPortE+0x98>
  106346:	b8 04 00 00 00       	mov    $0x4,%eax
  10634b:	eb 15                	jmp    106362 <_ZN4AHCI13CheckPortTypeEPNS_7HBAPortE+0x98>
  10634d:	b8 01 00 00 00       	mov    $0x1,%eax
  106352:	eb 0e                	jmp    106362 <_ZN4AHCI13CheckPortTypeEPNS_7HBAPortE+0x98>
  106354:	b8 03 00 00 00       	mov    $0x3,%eax
  106359:	eb 07                	jmp    106362 <_ZN4AHCI13CheckPortTypeEPNS_7HBAPortE+0x98>
  10635b:	b8 02 00 00 00       	mov    $0x2,%eax
  106360:	eb 00                	jmp    106362 <_ZN4AHCI13CheckPortTypeEPNS_7HBAPortE+0x98>
  106362:	c9                   	leaveq 
  106363:	c3                   	retq   

0000000000106364 <_ZN4AHCI10AHCIDriver12PreparePortsEv>:
  106364:	f3 0f 1e fa          	endbr64 
  106368:	55                   	push   %rbp
  106369:	48 89 e5             	mov    %rsp,%rbp
  10636c:	53                   	push   %rbx
  10636d:	48 83 ec 38          	sub    $0x38,%rsp
  106371:	48 89 7d c8          	mov    %rdi,-0x38(%rbp)
  106375:	48 89 75 c0          	mov    %rsi,-0x40(%rbp)
  106379:	48 8b 45 c8          	mov    -0x38(%rbp),%rax
  10637d:	48 89 c7             	mov    %rax,%rdi
  106380:	e8 55 7d 00 00       	callq  10e0da <_ZN6vectorIPN4AHCI10AHCIDeviceEEC1Ev>
  106385:	48 8b 45 c0          	mov    -0x40(%rbp),%rax
  106389:	48 8b 40 08          	mov    0x8(%rax),%rax
  10638d:	8b 40 0c             	mov    0xc(%rax),%eax
  106390:	89 45 e8             	mov    %eax,-0x18(%rbp)
  106393:	c7 45 ec 00 00 00 00 	movl   $0x0,-0x14(%rbp)
  10639a:	83 7d ec 1f          	cmpl   $0x1f,-0x14(%rbp)
  10639e:	0f 8f 7a 01 00 00    	jg     10651e <_ZN4AHCI10AHCIDriver12PreparePortsEv+0x1ba>
  1063a4:	8b 45 ec             	mov    -0x14(%rbp),%eax
  1063a7:	ba 01 00 00 00       	mov    $0x1,%edx
  1063ac:	89 c1                	mov    %eax,%ecx
  1063ae:	d3 e2                	shl    %cl,%edx
  1063b0:	89 d0                	mov    %edx,%eax
  1063b2:	23 45 e8             	and    -0x18(%rbp),%eax
  1063b5:	85 c0                	test   %eax,%eax
  1063b7:	0f 84 58 01 00 00    	je     106515 <_ZN4AHCI10AHCIDriver12PreparePortsEv+0x1b1>
  1063bd:	48 8b 45 c0          	mov    -0x40(%rbp),%rax
  1063c1:	48 8b 40 08          	mov    0x8(%rax),%rax
  1063c5:	8b 55 ec             	mov    -0x14(%rbp),%edx
  1063c8:	48 63 d2             	movslq %edx,%rdx
  1063cb:	48 83 c2 02          	add    $0x2,%rdx
  1063cf:	48 c1 e2 07          	shl    $0x7,%rdx
  1063d3:	48 01 d0             	add    %rdx,%rax
  1063d6:	48 89 c7             	mov    %rax,%rdi
  1063d9:	e8 ec fe ff ff       	callq  1062ca <_ZN4AHCI13CheckPortTypeEPNS_7HBAPortE>
  1063de:	89 45 e4             	mov    %eax,-0x1c(%rbp)
  1063e1:	83 7d e4 01          	cmpl   $0x1,-0x1c(%rbp)
  1063e5:	74 0a                	je     1063f1 <_ZN4AHCI10AHCIDriver12PreparePortsEv+0x8d>
  1063e7:	83 7d e4 04          	cmpl   $0x4,-0x1c(%rbp)
  1063eb:	0f 85 24 01 00 00    	jne    106515 <_ZN4AHCI10AHCIDriver12PreparePortsEv+0x1b1>
  1063f1:	bf 10 00 00 00       	mov    $0x10,%edi
  1063f6:	e8 90 d5 ff ff       	callq  10398b <_Znwm>
  1063fb:	48 c7 00 00 00 00 00 	movq   $0x0,(%rax)
  106402:	c7 40 08 00 00 00 00 	movl   $0x0,0x8(%rax)
  106409:	c6 40 0c 00          	movb   $0x0,0xc(%rax)
  10640d:	48 8b 55 c0          	mov    -0x40(%rbp),%rdx
  106411:	0f b6 92 10 01 00 00 	movzbl 0x110(%rdx),%edx
  106418:	0f b6 ca             	movzbl %dl,%ecx
  10641b:	48 8b 55 c0          	mov    -0x40(%rbp),%rdx
  10641f:	48 63 c9             	movslq %ecx,%rcx
  106422:	48 83 c1 02          	add    $0x2,%rcx
  106426:	48 89 04 ca          	mov    %rax,(%rdx,%rcx,8)
  10642a:	48 8b 45 c0          	mov    -0x40(%rbp),%rax
  10642e:	0f b6 80 10 01 00 00 	movzbl 0x110(%rax),%eax
  106435:	0f b6 d0             	movzbl %al,%edx
  106438:	48 8b 45 c0          	mov    -0x40(%rbp),%rax
  10643c:	48 63 d2             	movslq %edx,%rdx
  10643f:	48 83 c2 02          	add    $0x2,%rdx
  106443:	48 8b 04 d0          	mov    (%rax,%rdx,8),%rax
  106447:	8b 55 e4             	mov    -0x1c(%rbp),%edx
  10644a:	89 50 08             	mov    %edx,0x8(%rax)
  10644d:	48 8b 45 c0          	mov    -0x40(%rbp),%rax
  106451:	48 8b 50 08          	mov    0x8(%rax),%rdx
  106455:	48 8b 45 c0          	mov    -0x40(%rbp),%rax
  106459:	0f b6 80 10 01 00 00 	movzbl 0x110(%rax),%eax
  106460:	0f b6 c8             	movzbl %al,%ecx
  106463:	48 8b 45 c0          	mov    -0x40(%rbp),%rax
  106467:	48 63 c9             	movslq %ecx,%rcx
  10646a:	48 83 c1 02          	add    $0x2,%rcx
  10646e:	48 8b 04 c8          	mov    (%rax,%rcx,8),%rax
  106472:	8b 4d ec             	mov    -0x14(%rbp),%ecx
  106475:	48 63 c9             	movslq %ecx,%rcx
  106478:	48 83 c1 02          	add    $0x2,%rcx
  10647c:	48 c1 e1 07          	shl    $0x7,%rcx
  106480:	48 01 ca             	add    %rcx,%rdx
  106483:	48 89 10             	mov    %rdx,(%rax)
  106486:	48 8b 45 c0          	mov    -0x40(%rbp),%rax
  10648a:	0f b6 80 10 01 00 00 	movzbl 0x110(%rax),%eax
  106491:	0f b6 d0             	movzbl %al,%edx
  106494:	48 8b 45 c0          	mov    -0x40(%rbp),%rax
  106498:	48 63 d2             	movslq %edx,%rdx
  10649b:	48 83 c2 02          	add    $0x2,%rdx
  10649f:	48 8b 04 d0          	mov    (%rax,%rdx,8),%rax
  1064a3:	48 8b 55 c0          	mov    -0x40(%rbp),%rdx
  1064a7:	0f b6 92 10 01 00 00 	movzbl 0x110(%rdx),%edx
  1064ae:	88 50 0c             	mov    %dl,0xc(%rax)
  1064b1:	48 8b 45 c0          	mov    -0x40(%rbp),%rax
  1064b5:	0f b6 80 10 01 00 00 	movzbl 0x110(%rax),%eax
  1064bc:	8d 50 01             	lea    0x1(%rax),%edx
  1064bf:	48 8b 45 c0          	mov    -0x40(%rbp),%rax
  1064c3:	88 90 10 01 00 00    	mov    %dl,0x110(%rax)
  1064c9:	bf 10 00 00 00       	mov    $0x10,%edi
  1064ce:	e8 b8 d4 ff ff       	callq  10398b <_Znwm>
  1064d3:	48 89 c3             	mov    %rax,%rbx
  1064d6:	48 8b 45 c0          	mov    -0x40(%rbp),%rax
  1064da:	0f b6 80 10 01 00 00 	movzbl 0x110(%rax),%eax
  1064e1:	0f b6 d0             	movzbl %al,%edx
  1064e4:	48 8b 45 c0          	mov    -0x40(%rbp),%rax
  1064e8:	48 63 d2             	movslq %edx,%rdx
  1064eb:	48 83 c2 02          	add    $0x2,%rdx
  1064ef:	48 8b 04 d0          	mov    (%rax,%rdx,8),%rax
  1064f3:	48 89 c6             	mov    %rax,%rsi
  1064f6:	48 89 df             	mov    %rbx,%rdi
  1064f9:	e8 3e 07 00 00       	callq  106c3c <_ZN4AHCI10AHCIDeviceC1EPNS_4PortE>
  1064fe:	48 89 5d d8          	mov    %rbx,-0x28(%rbp)
  106502:	48 8d 55 d8          	lea    -0x28(%rbp),%rdx
  106506:	48 8b 45 c8          	mov    -0x38(%rbp),%rax
  10650a:	48 89 d6             	mov    %rdx,%rsi
  10650d:	48 89 c7             	mov    %rax,%rdi
  106510:	e8 05 7c 00 00       	callq  10e11a <_ZN6vectorIPN4AHCI10AHCIDeviceEE9push_backERKS2_>
  106515:	83 45 ec 01          	addl   $0x1,-0x14(%rbp)
  106519:	e9 7c fe ff ff       	jmpq   10639a <_ZN4AHCI10AHCIDriver12PreparePortsEv+0x36>
  10651e:	90                   	nop
  10651f:	48 8b 45 c8          	mov    -0x38(%rbp),%rax
  106523:	48 83 c4 38          	add    $0x38,%rsp
  106527:	5b                   	pop    %rbx
  106528:	5d                   	pop    %rbp
  106529:	c3                   	retq   

000000000010652a <_ZN4AHCI4Port9ConfigureEv>:
  10652a:	f3 0f 1e fa          	endbr64 
  10652e:	55                   	push   %rbp
  10652f:	48 89 e5             	mov    %rsp,%rbp
  106532:	48 83 ec 40          	sub    $0x40,%rsp
  106536:	48 89 7d c8          	mov    %rdi,-0x38(%rbp)
  10653a:	48 8b 45 c8          	mov    -0x38(%rbp),%rax
  10653e:	48 89 c7             	mov    %rax,%rdi
  106541:	e8 74 01 00 00       	callq  1066ba <_ZN4AHCI4Port7StopCMDEv>
  106546:	e8 d7 af ff ff       	callq  101522 <_ZN18PageFrameAllocator15SharedAllocatorEv>
  10654b:	48 89 c7             	mov    %rax,%rdi
  10654e:	e8 23 ad ff ff       	callq  101276 <_ZN18PageFrameAllocator11RequestPageEv>
  106553:	48 89 45 f0          	mov    %rax,-0x10(%rbp)
  106557:	48 8b 55 f0          	mov    -0x10(%rbp),%rdx
  10655b:	48 8b 45 c8          	mov    -0x38(%rbp),%rax
  10655f:	48 8b 00             	mov    (%rax),%rax
  106562:	89 10                	mov    %edx,(%rax)
  106564:	48 8b 45 f0          	mov    -0x10(%rbp),%rax
  106568:	48 c1 e8 20          	shr    $0x20,%rax
  10656c:	48 89 c2             	mov    %rax,%rdx
  10656f:	48 8b 45 c8          	mov    -0x38(%rbp),%rax
  106573:	48 8b 00             	mov    (%rax),%rax
  106576:	89 50 04             	mov    %edx,0x4(%rax)
  106579:	48 8b 45 c8          	mov    -0x38(%rbp),%rax
  10657d:	48 8b 00             	mov    (%rax),%rax
  106580:	8b 00                	mov    (%rax),%eax
  106582:	89 c0                	mov    %eax,%eax
  106584:	ba 00 04 00 00       	mov    $0x400,%edx
  106589:	be 00 00 00 00       	mov    $0x0,%esi
  10658e:	48 89 c7             	mov    %rax,%rdi
  106591:	e8 b9 66 00 00       	callq  10cc4f <_Z6memsetPvim>
  106596:	e8 87 af ff ff       	callq  101522 <_ZN18PageFrameAllocator15SharedAllocatorEv>
  10659b:	48 89 c7             	mov    %rax,%rdi
  10659e:	e8 d3 ac ff ff       	callq  101276 <_ZN18PageFrameAllocator11RequestPageEv>
  1065a3:	48 89 45 e8          	mov    %rax,-0x18(%rbp)
  1065a7:	48 8b 55 e8          	mov    -0x18(%rbp),%rdx
  1065ab:	48 8b 45 c8          	mov    -0x38(%rbp),%rax
  1065af:	48 8b 00             	mov    (%rax),%rax
  1065b2:	89 50 08             	mov    %edx,0x8(%rax)
  1065b5:	48 8b 45 e8          	mov    -0x18(%rbp),%rax
  1065b9:	48 c1 e8 20          	shr    $0x20,%rax
  1065bd:	48 89 c2             	mov    %rax,%rdx
  1065c0:	48 8b 45 c8          	mov    -0x38(%rbp),%rax
  1065c4:	48 8b 00             	mov    (%rax),%rax
  1065c7:	89 50 0c             	mov    %edx,0xc(%rax)
  1065ca:	48 8b 45 e8          	mov    -0x18(%rbp),%rax
  1065ce:	ba 00 01 00 00       	mov    $0x100,%edx
  1065d3:	be 00 00 00 00       	mov    $0x0,%esi
  1065d8:	48 89 c7             	mov    %rax,%rdi
  1065db:	e8 6f 66 00 00       	callq  10cc4f <_Z6memsetPvim>
  1065e0:	48 8b 45 c8          	mov    -0x38(%rbp),%rax
  1065e4:	48 8b 00             	mov    (%rax),%rax
  1065e7:	8b 00                	mov    (%rax),%eax
  1065e9:	89 c2                	mov    %eax,%edx
  1065eb:	48 8b 45 c8          	mov    -0x38(%rbp),%rax
  1065ef:	48 8b 00             	mov    (%rax),%rax
  1065f2:	8b 40 04             	mov    0x4(%rax),%eax
  1065f5:	89 c0                	mov    %eax,%eax
  1065f7:	48 c1 e0 20          	shl    $0x20,%rax
  1065fb:	48 01 d0             	add    %rdx,%rax
  1065fe:	48 89 45 e0          	mov    %rax,-0x20(%rbp)
  106602:	c7 45 fc 00 00 00 00 	movl   $0x0,-0x4(%rbp)
  106609:	83 7d fc 1f          	cmpl   $0x1f,-0x4(%rbp)
  10660d:	0f 8f 98 00 00 00    	jg     1066ab <_ZN4AHCI4Port9ConfigureEv+0x181>
  106613:	8b 45 fc             	mov    -0x4(%rbp),%eax
  106616:	48 98                	cltq   
  106618:	48 c1 e0 05          	shl    $0x5,%rax
  10661c:	48 89 c2             	mov    %rax,%rdx
  10661f:	48 8b 45 e0          	mov    -0x20(%rbp),%rax
  106623:	48 01 d0             	add    %rdx,%rax
  106626:	66 c7 40 02 08 00    	movw   $0x8,0x2(%rax)
  10662c:	e8 f1 ae ff ff       	callq  101522 <_ZN18PageFrameAllocator15SharedAllocatorEv>
  106631:	48 89 c7             	mov    %rax,%rdi
  106634:	e8 3d ac ff ff       	callq  101276 <_ZN18PageFrameAllocator11RequestPageEv>
  106639:	48 89 45 d8          	mov    %rax,-0x28(%rbp)
  10663d:	8b 45 fc             	mov    -0x4(%rbp),%eax
  106640:	c1 e0 08             	shl    $0x8,%eax
  106643:	48 63 d0             	movslq %eax,%rdx
  106646:	48 8b 45 d8          	mov    -0x28(%rbp),%rax
  10664a:	48 01 d0             	add    %rdx,%rax
  10664d:	48 89 45 d0          	mov    %rax,-0x30(%rbp)
  106651:	8b 45 fc             	mov    -0x4(%rbp),%eax
  106654:	48 98                	cltq   
  106656:	48 c1 e0 05          	shl    $0x5,%rax
  10665a:	48 89 c2             	mov    %rax,%rdx
  10665d:	48 8b 45 e0          	mov    -0x20(%rbp),%rax
  106661:	48 01 d0             	add    %rdx,%rax
  106664:	48 8b 55 d0          	mov    -0x30(%rbp),%rdx
  106668:	89 50 08             	mov    %edx,0x8(%rax)
  10666b:	48 8b 45 d0          	mov    -0x30(%rbp),%rax
  10666f:	48 c1 e8 20          	shr    $0x20,%rax
  106673:	48 89 c2             	mov    %rax,%rdx
  106676:	8b 45 fc             	mov    -0x4(%rbp),%eax
  106679:	48 98                	cltq   
  10667b:	48 c1 e0 05          	shl    $0x5,%rax
  10667f:	48 89 c1             	mov    %rax,%rcx
  106682:	48 8b 45 e0          	mov    -0x20(%rbp),%rax
  106686:	48 01 c8             	add    %rcx,%rax
  106689:	89 50 0c             	mov    %edx,0xc(%rax)
  10668c:	48 8b 45 d8          	mov    -0x28(%rbp),%rax
  106690:	ba 00 01 00 00       	mov    $0x100,%edx
  106695:	be 00 00 00 00       	mov    $0x0,%esi
  10669a:	48 89 c7             	mov    %rax,%rdi
  10669d:	e8 ad 65 00 00       	callq  10cc4f <_Z6memsetPvim>
  1066a2:	83 45 fc 01          	addl   $0x1,-0x4(%rbp)
  1066a6:	e9 5e ff ff ff       	jmpq   106609 <_ZN4AHCI4Port9ConfigureEv+0xdf>
  1066ab:	48 8b 45 c8          	mov    -0x38(%rbp),%rax
  1066af:	48 89 c7             	mov    %rax,%rdi
  1066b2:	e8 71 00 00 00       	callq  106728 <_ZN4AHCI4Port8StartCMDEv>
  1066b7:	90                   	nop
  1066b8:	c9                   	leaveq 
  1066b9:	c3                   	retq   

00000000001066ba <_ZN4AHCI4Port7StopCMDEv>:
  1066ba:	f3 0f 1e fa          	endbr64 
  1066be:	55                   	push   %rbp
  1066bf:	48 89 e5             	mov    %rsp,%rbp
  1066c2:	48 83 ec 08          	sub    $0x8,%rsp
  1066c6:	48 89 7d f8          	mov    %rdi,-0x8(%rbp)
  1066ca:	48 8b 45 f8          	mov    -0x8(%rbp),%rax
  1066ce:	48 8b 00             	mov    (%rax),%rax
  1066d1:	8b 50 18             	mov    0x18(%rax),%edx
  1066d4:	48 8b 45 f8          	mov    -0x8(%rbp),%rax
  1066d8:	48 8b 00             	mov    (%rax),%rax
  1066db:	83 e2 fe             	and    $0xfffffffe,%edx
  1066de:	89 50 18             	mov    %edx,0x18(%rax)
  1066e1:	48 8b 45 f8          	mov    -0x8(%rbp),%rax
  1066e5:	48 8b 00             	mov    (%rax),%rax
  1066e8:	8b 50 18             	mov    0x18(%rax),%edx
  1066eb:	48 8b 45 f8          	mov    -0x8(%rbp),%rax
  1066ef:	48 8b 00             	mov    (%rax),%rax
  1066f2:	83 e2 ef             	and    $0xffffffef,%edx
  1066f5:	89 50 18             	mov    %edx,0x18(%rax)
  1066f8:	48 8b 45 f8          	mov    -0x8(%rbp),%rax
  1066fc:	48 8b 00             	mov    (%rax),%rax
  1066ff:	8b 40 18             	mov    0x18(%rax),%eax
  106702:	25 00 40 00 00       	and    $0x4000,%eax
  106707:	85 c0                	test   %eax,%eax
  106709:	75 15                	jne    106720 <_ZN4AHCI4Port7StopCMDEv+0x66>
  10670b:	48 8b 45 f8          	mov    -0x8(%rbp),%rax
  10670f:	48 8b 00             	mov    (%rax),%rax
  106712:	8b 40 18             	mov    0x18(%rax),%eax
  106715:	25 00 80 00 00       	and    $0x8000,%eax
  10671a:	85 c0                	test   %eax,%eax
  10671c:	74 05                	je     106723 <_ZN4AHCI4Port7StopCMDEv+0x69>
  10671e:	eb 01                	jmp    106721 <_ZN4AHCI4Port7StopCMDEv+0x67>
  106720:	90                   	nop
  106721:	eb d5                	jmp    1066f8 <_ZN4AHCI4Port7StopCMDEv+0x3e>
  106723:	90                   	nop
  106724:	90                   	nop
  106725:	c9                   	leaveq 
  106726:	c3                   	retq   
  106727:	90                   	nop

0000000000106728 <_ZN4AHCI4Port8StartCMDEv>:
  106728:	f3 0f 1e fa          	endbr64 
  10672c:	55                   	push   %rbp
  10672d:	48 89 e5             	mov    %rsp,%rbp
  106730:	48 83 ec 08          	sub    $0x8,%rsp
  106734:	48 89 7d f8          	mov    %rdi,-0x8(%rbp)
  106738:	48 8b 45 f8          	mov    -0x8(%rbp),%rax
  10673c:	48 8b 00             	mov    (%rax),%rax
  10673f:	8b 40 18             	mov    0x18(%rax),%eax
  106742:	25 00 80 00 00       	and    $0x8000,%eax
  106747:	85 c0                	test   %eax,%eax
  106749:	74 02                	je     10674d <_ZN4AHCI4Port8StartCMDEv+0x25>
  10674b:	eb eb                	jmp    106738 <_ZN4AHCI4Port8StartCMDEv+0x10>
  10674d:	48 8b 45 f8          	mov    -0x8(%rbp),%rax
  106751:	48 8b 00             	mov    (%rax),%rax
  106754:	8b 50 18             	mov    0x18(%rax),%edx
  106757:	48 8b 45 f8          	mov    -0x8(%rbp),%rax
  10675b:	48 8b 00             	mov    (%rax),%rax
  10675e:	83 ca 10             	or     $0x10,%edx
  106761:	89 50 18             	mov    %edx,0x18(%rax)
  106764:	48 8b 45 f8          	mov    -0x8(%rbp),%rax
  106768:	48 8b 00             	mov    (%rax),%rax
  10676b:	8b 50 18             	mov    0x18(%rax),%edx
  10676e:	48 8b 45 f8          	mov    -0x8(%rbp),%rax
  106772:	48 8b 00             	mov    (%rax),%rax
  106775:	83 ca 01             	or     $0x1,%edx
  106778:	89 50 18             	mov    %edx,0x18(%rax)
  10677b:	90                   	nop
  10677c:	c9                   	leaveq 
  10677d:	c3                   	retq   

000000000010677e <_ZN4AHCI4Port4ReadEmPvj>:
  10677e:	f3 0f 1e fa          	endbr64 
  106782:	55                   	push   %rbp
  106783:	48 89 e5             	mov    %rsp,%rbp
  106786:	48 83 ec 50          	sub    $0x50,%rsp
  10678a:	48 89 7d c8          	mov    %rdi,-0x38(%rbp)
  10678e:	48 89 75 c0          	mov    %rsi,-0x40(%rbp)
  106792:	48 89 55 b8          	mov    %rdx,-0x48(%rbp)
  106796:	89 4d b4             	mov    %ecx,-0x4c(%rbp)
  106799:	48 8b 45 c0          	mov    -0x40(%rbp),%rax
  10679d:	89 45 f4             	mov    %eax,-0xc(%rbp)
  1067a0:	48 8b 45 c0          	mov    -0x40(%rbp),%rax
  1067a4:	48 c1 e8 20          	shr    $0x20,%rax
  1067a8:	89 45 f0             	mov    %eax,-0x10(%rbp)
  1067ab:	48 8b 45 c8          	mov    -0x38(%rbp),%rax
  1067af:	48 8b 00             	mov    (%rax),%rax
  1067b2:	c7 40 10 ff ff ff ff 	movl   $0xffffffff,0x10(%rax)
  1067b9:	48 8b 45 c8          	mov    -0x38(%rbp),%rax
  1067bd:	48 8b 00             	mov    (%rax),%rax
  1067c0:	8b 00                	mov    (%rax),%eax
  1067c2:	89 c0                	mov    %eax,%eax
  1067c4:	48 89 45 e8          	mov    %rax,-0x18(%rbp)
  1067c8:	48 8b 45 e8          	mov    -0x18(%rbp),%rax
  1067cc:	0f b6 10             	movzbl (%rax),%edx
  1067cf:	83 e2 e0             	and    $0xffffffe0,%edx
  1067d2:	83 ca 05             	or     $0x5,%edx
  1067d5:	88 10                	mov    %dl,(%rax)
  1067d7:	48 8b 45 e8          	mov    -0x18(%rbp),%rax
  1067db:	0f b6 10             	movzbl (%rax),%edx
  1067de:	83 e2 bf             	and    $0xffffffbf,%edx
  1067e1:	88 10                	mov    %dl,(%rax)
  1067e3:	48 8b 45 e8          	mov    -0x18(%rbp),%rax
  1067e7:	66 c7 40 02 01 00    	movw   $0x1,0x2(%rax)
  1067ed:	48 8b 45 e8          	mov    -0x18(%rbp),%rax
  1067f1:	8b 40 08             	mov    0x8(%rax),%eax
  1067f4:	89 c0                	mov    %eax,%eax
  1067f6:	48 89 45 e0          	mov    %rax,-0x20(%rbp)
  1067fa:	48 8b 45 e8          	mov    -0x18(%rbp),%rax
  1067fe:	0f b7 40 02          	movzwl 0x2(%rax),%eax
  106802:	0f b7 c0             	movzwl %ax,%eax
  106805:	83 e8 01             	sub    $0x1,%eax
  106808:	48 98                	cltq   
  10680a:	48 83 c0 08          	add    $0x8,%rax
  10680e:	48 c1 e0 04          	shl    $0x4,%rax
  106812:	48 89 c2             	mov    %rax,%rdx
  106815:	48 8b 45 e0          	mov    -0x20(%rbp),%rax
  106819:	be 00 00 00 00       	mov    $0x0,%esi
  10681e:	48 89 c7             	mov    %rax,%rdi
  106821:	e8 29 64 00 00       	callq  10cc4f <_Z6memsetPvim>
  106826:	48 8b 45 b8          	mov    -0x48(%rbp),%rax
  10682a:	89 c2                	mov    %eax,%edx
  10682c:	48 8b 45 e0          	mov    -0x20(%rbp),%rax
  106830:	89 90 80 00 00 00    	mov    %edx,0x80(%rax)
  106836:	48 8b 45 b8          	mov    -0x48(%rbp),%rax
  10683a:	48 c1 e8 20          	shr    $0x20,%rax
  10683e:	89 c2                	mov    %eax,%edx
  106840:	48 8b 45 e0          	mov    -0x20(%rbp),%rax
  106844:	89 90 84 00 00 00    	mov    %edx,0x84(%rax)
  10684a:	8b 45 b4             	mov    -0x4c(%rbp),%eax
  10684d:	c1 e0 09             	shl    $0x9,%eax
  106850:	83 e8 01             	sub    $0x1,%eax
  106853:	25 ff ff 3f 00       	and    $0x3fffff,%eax
  106858:	89 c2                	mov    %eax,%edx
  10685a:	48 8b 45 e0          	mov    -0x20(%rbp),%rax
  10685e:	89 d1                	mov    %edx,%ecx
  106860:	81 e1 ff ff 3f 00    	and    $0x3fffff,%ecx
  106866:	8b 90 8c 00 00 00    	mov    0x8c(%rax),%edx
  10686c:	81 e2 00 00 c0 ff    	and    $0xffc00000,%edx
  106872:	09 ca                	or     %ecx,%edx
  106874:	89 90 8c 00 00 00    	mov    %edx,0x8c(%rax)
  10687a:	48 8b 45 e0          	mov    -0x20(%rbp),%rax
  10687e:	0f b6 90 8f 00 00 00 	movzbl 0x8f(%rax),%edx
  106885:	83 ca 80             	or     $0xffffff80,%edx
  106888:	88 90 8f 00 00 00    	mov    %dl,0x8f(%rax)
  10688e:	48 8b 45 e0          	mov    -0x20(%rbp),%rax
  106892:	48 89 45 d8          	mov    %rax,-0x28(%rbp)
  106896:	48 8b 45 d8          	mov    -0x28(%rbp),%rax
  10689a:	c6 00 27             	movb   $0x27,(%rax)
  10689d:	48 8b 45 d8          	mov    -0x28(%rbp),%rax
  1068a1:	0f b6 50 01          	movzbl 0x1(%rax),%edx
  1068a5:	83 ca 80             	or     $0xffffff80,%edx
  1068a8:	88 50 01             	mov    %dl,0x1(%rax)
  1068ab:	48 8b 45 d8          	mov    -0x28(%rbp),%rax
  1068af:	c6 40 02 25          	movb   $0x25,0x2(%rax)
  1068b3:	8b 45 f4             	mov    -0xc(%rbp),%eax
  1068b6:	89 c2                	mov    %eax,%edx
  1068b8:	48 8b 45 d8          	mov    -0x28(%rbp),%rax
  1068bc:	88 50 04             	mov    %dl,0x4(%rax)
  1068bf:	8b 45 f4             	mov    -0xc(%rbp),%eax
  1068c2:	c1 e8 08             	shr    $0x8,%eax
  1068c5:	89 c2                	mov    %eax,%edx
  1068c7:	48 8b 45 d8          	mov    -0x28(%rbp),%rax
  1068cb:	88 50 05             	mov    %dl,0x5(%rax)
  1068ce:	8b 45 f4             	mov    -0xc(%rbp),%eax
  1068d1:	c1 e8 10             	shr    $0x10,%eax
  1068d4:	89 c2                	mov    %eax,%edx
  1068d6:	48 8b 45 d8          	mov    -0x28(%rbp),%rax
  1068da:	88 50 06             	mov    %dl,0x6(%rax)
  1068dd:	8b 45 f0             	mov    -0x10(%rbp),%eax
  1068e0:	89 c2                	mov    %eax,%edx
  1068e2:	48 8b 45 d8          	mov    -0x28(%rbp),%rax
  1068e6:	88 50 08             	mov    %dl,0x8(%rax)
  1068e9:	8b 45 f0             	mov    -0x10(%rbp),%eax
  1068ec:	c1 e8 08             	shr    $0x8,%eax
  1068ef:	89 c2                	mov    %eax,%edx
  1068f1:	48 8b 45 d8          	mov    -0x28(%rbp),%rax
  1068f5:	88 50 09             	mov    %dl,0x9(%rax)
  1068f8:	8b 45 f0             	mov    -0x10(%rbp),%eax
  1068fb:	c1 e8 10             	shr    $0x10,%eax
  1068fe:	89 c2                	mov    %eax,%edx
  106900:	48 8b 45 d8          	mov    -0x28(%rbp),%rax
  106904:	88 50 09             	mov    %dl,0x9(%rax)
  106907:	48 8b 45 d8          	mov    -0x28(%rbp),%rax
  10690b:	c6 40 07 40          	movb   $0x40,0x7(%rax)
  10690f:	8b 45 b4             	mov    -0x4c(%rbp),%eax
  106912:	89 c2                	mov    %eax,%edx
  106914:	48 8b 45 d8          	mov    -0x28(%rbp),%rax
  106918:	88 50 0c             	mov    %dl,0xc(%rax)
  10691b:	8b 45 b4             	mov    -0x4c(%rbp),%eax
  10691e:	c1 e8 08             	shr    $0x8,%eax
  106921:	89 c2                	mov    %eax,%edx
  106923:	48 8b 45 d8          	mov    -0x28(%rbp),%rax
  106927:	88 50 0d             	mov    %dl,0xd(%rax)
  10692a:	48 c7 45 f8 00 00 00 	movq   $0x0,-0x8(%rbp)
  106931:	00 
  106932:	48 8b 45 c8          	mov    -0x38(%rbp),%rax
  106936:	48 8b 00             	mov    (%rax),%rax
  106939:	8b 40 20             	mov    0x20(%rax),%eax
  10693c:	25 88 00 00 00       	and    $0x88,%eax
  106941:	85 c0                	test   %eax,%eax
  106943:	74 11                	je     106956 <_ZN4AHCI4Port4ReadEmPvj+0x1d8>
  106945:	48 81 7d f8 3f 42 0f 	cmpq   $0xf423f,-0x8(%rbp)
  10694c:	00 
  10694d:	77 07                	ja     106956 <_ZN4AHCI4Port4ReadEmPvj+0x1d8>
  10694f:	48 83 45 f8 01       	addq   $0x1,-0x8(%rbp)
  106954:	eb dc                	jmp    106932 <_ZN4AHCI4Port4ReadEmPvj+0x1b4>
  106956:	48 81 7d f8 40 42 0f 	cmpq   $0xf4240,-0x8(%rbp)
  10695d:	00 
  10695e:	75 07                	jne    106967 <_ZN4AHCI4Port4ReadEmPvj+0x1e9>
  106960:	b8 00 00 00 00       	mov    $0x0,%eax
  106965:	eb 3c                	jmp    1069a3 <_ZN4AHCI4Port4ReadEmPvj+0x225>
  106967:	48 8b 45 c8          	mov    -0x38(%rbp),%rax
  10696b:	48 8b 00             	mov    (%rax),%rax
  10696e:	c7 40 38 01 00 00 00 	movl   $0x1,0x38(%rax)
  106975:	48 8b 45 c8          	mov    -0x38(%rbp),%rax
  106979:	48 8b 00             	mov    (%rax),%rax
  10697c:	8b 40 38             	mov    0x38(%rax),%eax
  10697f:	85 c0                	test   %eax,%eax
  106981:	74 1a                	je     10699d <_ZN4AHCI4Port4ReadEmPvj+0x21f>
  106983:	48 8b 45 c8          	mov    -0x38(%rbp),%rax
  106987:	48 8b 00             	mov    (%rax),%rax
  10698a:	8b 40 10             	mov    0x10(%rax),%eax
  10698d:	25 00 00 00 40       	and    $0x40000000,%eax
  106992:	85 c0                	test   %eax,%eax
  106994:	74 df                	je     106975 <_ZN4AHCI4Port4ReadEmPvj+0x1f7>
  106996:	b8 00 00 00 00       	mov    $0x0,%eax
  10699b:	eb 06                	jmp    1069a3 <_ZN4AHCI4Port4ReadEmPvj+0x225>
  10699d:	90                   	nop
  10699e:	b8 01 00 00 00       	mov    $0x1,%eax
  1069a3:	c9                   	leaveq 
  1069a4:	c3                   	retq   
  1069a5:	90                   	nop

00000000001069a6 <_ZN4AHCI4Port5WriteEmPvj>:
  1069a6:	f3 0f 1e fa          	endbr64 
  1069aa:	55                   	push   %rbp
  1069ab:	48 89 e5             	mov    %rsp,%rbp
  1069ae:	48 83 ec 50          	sub    $0x50,%rsp
  1069b2:	48 89 7d c8          	mov    %rdi,-0x38(%rbp)
  1069b6:	48 89 75 c0          	mov    %rsi,-0x40(%rbp)
  1069ba:	48 89 55 b8          	mov    %rdx,-0x48(%rbp)
  1069be:	89 4d b4             	mov    %ecx,-0x4c(%rbp)
  1069c1:	48 8b 45 c0          	mov    -0x40(%rbp),%rax
  1069c5:	89 45 f4             	mov    %eax,-0xc(%rbp)
  1069c8:	48 8b 45 c0          	mov    -0x40(%rbp),%rax
  1069cc:	48 c1 e8 20          	shr    $0x20,%rax
  1069d0:	89 45 f0             	mov    %eax,-0x10(%rbp)
  1069d3:	48 8b 45 c8          	mov    -0x38(%rbp),%rax
  1069d7:	48 8b 00             	mov    (%rax),%rax
  1069da:	c7 40 10 ff ff ff ff 	movl   $0xffffffff,0x10(%rax)
  1069e1:	48 8b 45 c8          	mov    -0x38(%rbp),%rax
  1069e5:	48 8b 00             	mov    (%rax),%rax
  1069e8:	8b 00                	mov    (%rax),%eax
  1069ea:	89 c0                	mov    %eax,%eax
  1069ec:	48 89 45 e8          	mov    %rax,-0x18(%rbp)
  1069f0:	48 8b 45 e8          	mov    -0x18(%rbp),%rax
  1069f4:	0f b6 10             	movzbl (%rax),%edx
  1069f7:	83 e2 e0             	and    $0xffffffe0,%edx
  1069fa:	83 ca 05             	or     $0x5,%edx
  1069fd:	88 10                	mov    %dl,(%rax)
  1069ff:	48 8b 45 e8          	mov    -0x18(%rbp),%rax
  106a03:	0f b6 10             	movzbl (%rax),%edx
  106a06:	83 ca 40             	or     $0x40,%edx
  106a09:	88 10                	mov    %dl,(%rax)
  106a0b:	48 8b 45 e8          	mov    -0x18(%rbp),%rax
  106a0f:	66 c7 40 02 01 00    	movw   $0x1,0x2(%rax)
  106a15:	48 8b 45 e8          	mov    -0x18(%rbp),%rax
  106a19:	8b 40 08             	mov    0x8(%rax),%eax
  106a1c:	89 c0                	mov    %eax,%eax
  106a1e:	48 89 45 e0          	mov    %rax,-0x20(%rbp)
  106a22:	48 8b 45 e8          	mov    -0x18(%rbp),%rax
  106a26:	0f b7 40 02          	movzwl 0x2(%rax),%eax
  106a2a:	0f b7 c0             	movzwl %ax,%eax
  106a2d:	83 e8 01             	sub    $0x1,%eax
  106a30:	48 98                	cltq   
  106a32:	48 83 c0 08          	add    $0x8,%rax
  106a36:	48 c1 e0 04          	shl    $0x4,%rax
  106a3a:	48 89 c2             	mov    %rax,%rdx
  106a3d:	48 8b 45 e0          	mov    -0x20(%rbp),%rax
  106a41:	be 00 00 00 00       	mov    $0x0,%esi
  106a46:	48 89 c7             	mov    %rax,%rdi
  106a49:	e8 01 62 00 00       	callq  10cc4f <_Z6memsetPvim>
  106a4e:	48 8b 45 b8          	mov    -0x48(%rbp),%rax
  106a52:	89 c2                	mov    %eax,%edx
  106a54:	48 8b 45 e0          	mov    -0x20(%rbp),%rax
  106a58:	89 90 80 00 00 00    	mov    %edx,0x80(%rax)
  106a5e:	48 8b 45 b8          	mov    -0x48(%rbp),%rax
  106a62:	48 c1 e8 20          	shr    $0x20,%rax
  106a66:	89 c2                	mov    %eax,%edx
  106a68:	48 8b 45 e0          	mov    -0x20(%rbp),%rax
  106a6c:	89 90 84 00 00 00    	mov    %edx,0x84(%rax)
  106a72:	8b 45 b4             	mov    -0x4c(%rbp),%eax
  106a75:	c1 e0 09             	shl    $0x9,%eax
  106a78:	83 e8 01             	sub    $0x1,%eax
  106a7b:	25 ff ff 3f 00       	and    $0x3fffff,%eax
  106a80:	89 c2                	mov    %eax,%edx
  106a82:	48 8b 45 e0          	mov    -0x20(%rbp),%rax
  106a86:	89 d1                	mov    %edx,%ecx
  106a88:	81 e1 ff ff 3f 00    	and    $0x3fffff,%ecx
  106a8e:	8b 90 8c 00 00 00    	mov    0x8c(%rax),%edx
  106a94:	81 e2 00 00 c0 ff    	and    $0xffc00000,%edx
  106a9a:	09 ca                	or     %ecx,%edx
  106a9c:	89 90 8c 00 00 00    	mov    %edx,0x8c(%rax)
  106aa2:	48 8b 45 e0          	mov    -0x20(%rbp),%rax
  106aa6:	0f b6 90 8f 00 00 00 	movzbl 0x8f(%rax),%edx
  106aad:	83 ca 80             	or     $0xffffff80,%edx
  106ab0:	88 90 8f 00 00 00    	mov    %dl,0x8f(%rax)
  106ab6:	48 8b 45 e0          	mov    -0x20(%rbp),%rax
  106aba:	48 89 45 d8          	mov    %rax,-0x28(%rbp)
  106abe:	48 8b 45 d8          	mov    -0x28(%rbp),%rax
  106ac2:	c6 00 27             	movb   $0x27,(%rax)
  106ac5:	48 8b 45 d8          	mov    -0x28(%rbp),%rax
  106ac9:	0f b6 50 01          	movzbl 0x1(%rax),%edx
  106acd:	83 ca 80             	or     $0xffffff80,%edx
  106ad0:	88 50 01             	mov    %dl,0x1(%rax)
  106ad3:	48 8b 45 d8          	mov    -0x28(%rbp),%rax
  106ad7:	c6 40 02 25          	movb   $0x25,0x2(%rax)
  106adb:	8b 45 f4             	mov    -0xc(%rbp),%eax
  106ade:	89 c2                	mov    %eax,%edx
  106ae0:	48 8b 45 d8          	mov    -0x28(%rbp),%rax
  106ae4:	88 50 04             	mov    %dl,0x4(%rax)
  106ae7:	8b 45 f4             	mov    -0xc(%rbp),%eax
  106aea:	c1 e8 08             	shr    $0x8,%eax
  106aed:	89 c2                	mov    %eax,%edx
  106aef:	48 8b 45 d8          	mov    -0x28(%rbp),%rax
  106af3:	88 50 05             	mov    %dl,0x5(%rax)
  106af6:	8b 45 f4             	mov    -0xc(%rbp),%eax
  106af9:	c1 e8 10             	shr    $0x10,%eax
  106afc:	89 c2                	mov    %eax,%edx
  106afe:	48 8b 45 d8          	mov    -0x28(%rbp),%rax
  106b02:	88 50 06             	mov    %dl,0x6(%rax)
  106b05:	8b 45 f0             	mov    -0x10(%rbp),%eax
  106b08:	89 c2                	mov    %eax,%edx
  106b0a:	48 8b 45 d8          	mov    -0x28(%rbp),%rax
  106b0e:	88 50 08             	mov    %dl,0x8(%rax)
  106b11:	8b 45 f0             	mov    -0x10(%rbp),%eax
  106b14:	c1 e8 08             	shr    $0x8,%eax
  106b17:	89 c2                	mov    %eax,%edx
  106b19:	48 8b 45 d8          	mov    -0x28(%rbp),%rax
  106b1d:	88 50 09             	mov    %dl,0x9(%rax)
  106b20:	8b 45 f0             	mov    -0x10(%rbp),%eax
  106b23:	c1 e8 10             	shr    $0x10,%eax
  106b26:	89 c2                	mov    %eax,%edx
  106b28:	48 8b 45 d8          	mov    -0x28(%rbp),%rax
  106b2c:	88 50 09             	mov    %dl,0x9(%rax)
  106b2f:	48 8b 45 d8          	mov    -0x28(%rbp),%rax
  106b33:	c6 40 07 40          	movb   $0x40,0x7(%rax)
  106b37:	8b 45 b4             	mov    -0x4c(%rbp),%eax
  106b3a:	89 c2                	mov    %eax,%edx
  106b3c:	48 8b 45 d8          	mov    -0x28(%rbp),%rax
  106b40:	88 50 0c             	mov    %dl,0xc(%rax)
  106b43:	8b 45 b4             	mov    -0x4c(%rbp),%eax
  106b46:	c1 e8 08             	shr    $0x8,%eax
  106b49:	89 c2                	mov    %eax,%edx
  106b4b:	48 8b 45 d8          	mov    -0x28(%rbp),%rax
  106b4f:	88 50 0d             	mov    %dl,0xd(%rax)
  106b52:	48 c7 45 f8 00 00 00 	movq   $0x0,-0x8(%rbp)
  106b59:	00 
  106b5a:	48 8b 45 c8          	mov    -0x38(%rbp),%rax
  106b5e:	48 8b 00             	mov    (%rax),%rax
  106b61:	8b 40 20             	mov    0x20(%rax),%eax
  106b64:	25 88 00 00 00       	and    $0x88,%eax
  106b69:	85 c0                	test   %eax,%eax
  106b6b:	74 11                	je     106b7e <_ZN4AHCI4Port5WriteEmPvj+0x1d8>
  106b6d:	48 81 7d f8 3f 42 0f 	cmpq   $0xf423f,-0x8(%rbp)
  106b74:	00 
  106b75:	77 07                	ja     106b7e <_ZN4AHCI4Port5WriteEmPvj+0x1d8>
  106b77:	48 83 45 f8 01       	addq   $0x1,-0x8(%rbp)
  106b7c:	eb dc                	jmp    106b5a <_ZN4AHCI4Port5WriteEmPvj+0x1b4>
  106b7e:	48 81 7d f8 40 42 0f 	cmpq   $0xf4240,-0x8(%rbp)
  106b85:	00 
  106b86:	75 07                	jne    106b8f <_ZN4AHCI4Port5WriteEmPvj+0x1e9>
  106b88:	b8 00 00 00 00       	mov    $0x0,%eax
  106b8d:	eb 3c                	jmp    106bcb <_ZN4AHCI4Port5WriteEmPvj+0x225>
  106b8f:	48 8b 45 c8          	mov    -0x38(%rbp),%rax
  106b93:	48 8b 00             	mov    (%rax),%rax
  106b96:	c7 40 38 01 00 00 00 	movl   $0x1,0x38(%rax)
  106b9d:	48 8b 45 c8          	mov    -0x38(%rbp),%rax
  106ba1:	48 8b 00             	mov    (%rax),%rax
  106ba4:	8b 40 38             	mov    0x38(%rax),%eax
  106ba7:	85 c0                	test   %eax,%eax
  106ba9:	74 1a                	je     106bc5 <_ZN4AHCI4Port5WriteEmPvj+0x21f>
  106bab:	48 8b 45 c8          	mov    -0x38(%rbp),%rax
  106baf:	48 8b 00             	mov    (%rax),%rax
  106bb2:	8b 40 10             	mov    0x10(%rax),%eax
  106bb5:	25 00 00 00 40       	and    $0x40000000,%eax
  106bba:	85 c0                	test   %eax,%eax
  106bbc:	74 df                	je     106b9d <_ZN4AHCI4Port5WriteEmPvj+0x1f7>
  106bbe:	b8 00 00 00 00       	mov    $0x0,%eax
  106bc3:	eb 06                	jmp    106bcb <_ZN4AHCI4Port5WriteEmPvj+0x225>
  106bc5:	90                   	nop
  106bc6:	b8 01 00 00 00       	mov    $0x1,%eax
  106bcb:	c9                   	leaveq 
  106bcc:	c3                   	retq   
  106bcd:	90                   	nop

0000000000106bce <_ZN4AHCI10AHCIDriverC1EPN3PCI15PCIDeviceHeaderE>:
  106bce:	f3 0f 1e fa          	endbr64 
  106bd2:	55                   	push   %rbp
  106bd3:	48 89 e5             	mov    %rsp,%rbp
  106bd6:	48 83 ec 10          	sub    $0x10,%rsp
  106bda:	48 89 7d f8          	mov    %rdi,-0x8(%rbp)
  106bde:	48 89 75 f0          	mov    %rsi,-0x10(%rbp)
  106be2:	48 8b 45 f8          	mov    -0x8(%rbp),%rax
  106be6:	48 8b 55 f0          	mov    -0x10(%rbp),%rdx
  106bea:	48 89 10             	mov    %rdx,(%rax)
  106bed:	48 8d 3d c4 a4 00 00 	lea    0xa4c4(%rip),%rdi        # 1110b8 <_ZL8sc_ascii+0x58>
  106bf4:	b8 00 00 00 00       	mov    $0x0,%eax
  106bf9:	e8 12 5c 00 00       	callq  10c810 <_Z7kprintfPKcz>
  106bfe:	48 8b 45 f0          	mov    -0x10(%rbp),%rax
  106c02:	8b 40 24             	mov    0x24(%rax),%eax
  106c05:	89 c0                	mov    %eax,%eax
  106c07:	48 89 c2             	mov    %rax,%rdx
  106c0a:	48 8b 45 f8          	mov    -0x8(%rbp),%rax
  106c0e:	48 89 50 08          	mov    %rdx,0x8(%rax)
  106c12:	48 8b 45 f8          	mov    -0x8(%rbp),%rax
  106c16:	48 8b 40 08          	mov    0x8(%rax),%rax
  106c1a:	48 89 c2             	mov    %rax,%rdx
  106c1d:	48 8b 45 f8          	mov    -0x8(%rbp),%rax
  106c21:	48 8b 40 08          	mov    0x8(%rax),%rax
  106c25:	b9 03 00 00 00       	mov    $0x3,%ecx
  106c2a:	48 89 c6             	mov    %rax,%rsi
  106c2d:	48 8d 3d 14 e4 00 00 	lea    0xe414(%rip),%rdi        # 115048 <KernelDirectory>
  106c34:	e8 9d 94 ff ff       	callq  1000d6 <_ZN16PageTableManager9MapMemoryEmmm>
  106c39:	90                   	nop
  106c3a:	c9                   	leaveq 
  106c3b:	c3                   	retq   

0000000000106c3c <_ZN4AHCI10AHCIDeviceC1EPNS_4PortE>:
  106c3c:	f3 0f 1e fa          	endbr64 
  106c40:	55                   	push   %rbp
  106c41:	48 89 e5             	mov    %rsp,%rbp
  106c44:	48 83 ec 10          	sub    $0x10,%rsp
  106c48:	48 89 7d f8          	mov    %rdi,-0x8(%rbp)
  106c4c:	48 89 75 f0          	mov    %rsi,-0x10(%rbp)
  106c50:	48 8b 45 f8          	mov    -0x8(%rbp),%rax
  106c54:	48 89 c7             	mov    %rax,%rdi
  106c57:	e8 44 74 00 00       	callq  10e0a0 <_ZN6DeviceC1Ev>
  106c5c:	48 8d 15 b5 88 00 00 	lea    0x88b5(%rip),%rdx        # 10f518 <_ZTVN4AHCI10AHCIDeviceE+0x10>
  106c63:	48 8b 45 f8          	mov    -0x8(%rbp),%rax
  106c67:	48 89 10             	mov    %rdx,(%rax)
  106c6a:	48 8b 45 f8          	mov    -0x8(%rbp),%rax
  106c6e:	48 8b 55 f0          	mov    -0x10(%rbp),%rdx
  106c72:	48 89 50 08          	mov    %rdx,0x8(%rax)
  106c76:	90                   	nop
  106c77:	c9                   	leaveq 
  106c78:	c3                   	retq   
  106c79:	90                   	nop

0000000000106c7a <_ZN4AHCI10AHCIDevice4ReadEmPvm>:
  106c7a:	f3 0f 1e fa          	endbr64 
  106c7e:	55                   	push   %rbp
  106c7f:	48 89 e5             	mov    %rsp,%rbp
  106c82:	48 83 ec 20          	sub    $0x20,%rsp
  106c86:	48 89 7d f8          	mov    %rdi,-0x8(%rbp)
  106c8a:	48 89 75 f0          	mov    %rsi,-0x10(%rbp)
  106c8e:	48 89 55 e8          	mov    %rdx,-0x18(%rbp)
  106c92:	48 89 4d e0          	mov    %rcx,-0x20(%rbp)
  106c96:	48 8b 45 f8          	mov    -0x8(%rbp),%rax
  106c9a:	48 8b 40 08          	mov    0x8(%rax),%rax
  106c9e:	48 8b 55 e0          	mov    -0x20(%rbp),%rdx
  106ca2:	89 d1                	mov    %edx,%ecx
  106ca4:	48 8b 55 e8          	mov    -0x18(%rbp),%rdx
  106ca8:	48 8b 75 f0          	mov    -0x10(%rbp),%rsi
  106cac:	48 89 c7             	mov    %rax,%rdi
  106caf:	e8 ca fa ff ff       	callq  10677e <_ZN4AHCI4Port4ReadEmPvj>
  106cb4:	90                   	nop
  106cb5:	c9                   	leaveq 
  106cb6:	c3                   	retq   
  106cb7:	90                   	nop

0000000000106cb8 <_ZN4AHCI10AHCIDevice5WriteEmPvm>:
  106cb8:	f3 0f 1e fa          	endbr64 
  106cbc:	55                   	push   %rbp
  106cbd:	48 89 e5             	mov    %rsp,%rbp
  106cc0:	48 83 ec 20          	sub    $0x20,%rsp
  106cc4:	48 89 7d f8          	mov    %rdi,-0x8(%rbp)
  106cc8:	48 89 75 f0          	mov    %rsi,-0x10(%rbp)
  106ccc:	48 89 55 e8          	mov    %rdx,-0x18(%rbp)
  106cd0:	48 89 4d e0          	mov    %rcx,-0x20(%rbp)
  106cd4:	48 8b 45 f8          	mov    -0x8(%rbp),%rax
  106cd8:	48 8b 40 08          	mov    0x8(%rax),%rax
  106cdc:	48 8b 55 e0          	mov    -0x20(%rbp),%rdx
  106ce0:	89 d1                	mov    %edx,%ecx
  106ce2:	48 8b 55 e8          	mov    -0x18(%rbp),%rdx
  106ce6:	48 8b 75 f0          	mov    -0x10(%rbp),%rsi
  106cea:	48 89 c7             	mov    %rax,%rdi
  106ced:	e8 b4 fc ff ff       	callq  1069a6 <_ZN4AHCI4Port5WriteEmPvj>
  106cf2:	90                   	nop
  106cf3:	c9                   	leaveq 
  106cf4:	c3                   	retq   

0000000000106cf5 <_Z17InitialiseDevicesv>:
  106cf5:	f3 0f 1e fa          	endbr64 
  106cf9:	55                   	push   %rbp
  106cfa:	48 89 e5             	mov    %rsp,%rbp
  106cfd:	ba 80 00 00 00       	mov    $0x80,%edx
  106d02:	be 00 00 00 00       	mov    $0x0,%esi
  106d07:	48 8d 3d 72 08 01 00 	lea    0x10872(%rip),%rdi        # 117580 <devices>
  106d0e:	e8 3c 5f 00 00       	callq  10cc4f <_Z6memsetPvim>
  106d13:	90                   	nop
  106d14:	5d                   	pop    %rbp
  106d15:	c3                   	retq   

0000000000106d16 <_Z14RegisterDeviceP6Device>:
  106d16:	f3 0f 1e fa          	endbr64 
  106d1a:	55                   	push   %rbp
  106d1b:	48 89 e5             	mov    %rsp,%rbp
  106d1e:	48 83 ec 20          	sub    $0x20,%rsp
  106d22:	48 89 7d e8          	mov    %rdi,-0x18(%rbp)
  106d26:	c7 45 fc 00 00 00 00 	movl   $0x0,-0x4(%rbp)
  106d2d:	83 7d fc 0f          	cmpl   $0xf,-0x4(%rbp)
  106d31:	77 3d                	ja     106d70 <_Z14RegisterDeviceP6Device+0x5a>
  106d33:	8b 45 fc             	mov    -0x4(%rbp),%eax
  106d36:	48 8d 14 c5 00 00 00 	lea    0x0(,%rax,8),%rdx
  106d3d:	00 
  106d3e:	48 8d 05 3b 08 01 00 	lea    0x1083b(%rip),%rax        # 117580 <devices>
  106d45:	48 8b 04 02          	mov    (%rdx,%rax,1),%rax
  106d49:	48 85 c0             	test   %rax,%rax
  106d4c:	75 1c                	jne    106d6a <_Z14RegisterDeviceP6Device+0x54>
  106d4e:	8b 45 fc             	mov    -0x4(%rbp),%eax
  106d51:	48 8d 0c c5 00 00 00 	lea    0x0(,%rax,8),%rcx
  106d58:	00 
  106d59:	48 8d 15 20 08 01 00 	lea    0x10820(%rip),%rdx        # 117580 <devices>
  106d60:	48 8b 45 e8          	mov    -0x18(%rbp),%rax
  106d64:	48 89 04 11          	mov    %rax,(%rcx,%rdx,1)
  106d68:	eb 18                	jmp    106d82 <_Z14RegisterDeviceP6Device+0x6c>
  106d6a:	83 45 fc 01          	addl   $0x1,-0x4(%rbp)
  106d6e:	eb bd                	jmp    106d2d <_Z14RegisterDeviceP6Device+0x17>
  106d70:	48 8d 3d 69 a3 00 00 	lea    0xa369(%rip),%rdi        # 1110e0 <_ZL8sc_ascii+0x80>
  106d77:	b8 00 00 00 00       	mov    $0x0,%eax
  106d7c:	e8 8f 5a 00 00       	callq  10c810 <_Z7kprintfPKcz>
  106d81:	f4                   	hlt    
  106d82:	c9                   	leaveq 
  106d83:	c3                   	retq   

0000000000106d84 <_Z16UnregisterDeviceP6Device>:
  106d84:	f3 0f 1e fa          	endbr64 
  106d88:	55                   	push   %rbp
  106d89:	48 89 e5             	mov    %rsp,%rbp
  106d8c:	48 83 ec 20          	sub    $0x20,%rsp
  106d90:	48 89 7d e8          	mov    %rdi,-0x18(%rbp)
  106d94:	c7 45 fc 00 00 00 00 	movl   $0x0,-0x4(%rbp)
  106d9b:	83 7d fc 0f          	cmpl   $0xf,-0x4(%rbp)
  106d9f:	77 3e                	ja     106ddf <_Z16UnregisterDeviceP6Device+0x5b>
  106da1:	8b 45 fc             	mov    -0x4(%rbp),%eax
  106da4:	48 8d 14 c5 00 00 00 	lea    0x0(,%rax,8),%rdx
  106dab:	00 
  106dac:	48 8d 05 cd 07 01 00 	lea    0x107cd(%rip),%rax        # 117580 <devices>
  106db3:	48 8b 04 02          	mov    (%rdx,%rax,1),%rax
  106db7:	48 39 45 e8          	cmp    %rax,-0x18(%rbp)
  106dbb:	75 1c                	jne    106dd9 <_Z16UnregisterDeviceP6Device+0x55>
  106dbd:	8b 45 fc             	mov    -0x4(%rbp),%eax
  106dc0:	48 8d 14 c5 00 00 00 	lea    0x0(,%rax,8),%rdx
  106dc7:	00 
  106dc8:	48 8d 05 b1 07 01 00 	lea    0x107b1(%rip),%rax        # 117580 <devices>
  106dcf:	48 c7 04 02 00 00 00 	movq   $0x0,(%rdx,%rax,1)
  106dd6:	00 
  106dd7:	eb 18                	jmp    106df1 <_Z16UnregisterDeviceP6Device+0x6d>
  106dd9:	83 45 fc 01          	addl   $0x1,-0x4(%rbp)
  106ddd:	eb bc                	jmp    106d9b <_Z16UnregisterDeviceP6Device+0x17>
  106ddf:	48 8d 3d 22 a3 00 00 	lea    0xa322(%rip),%rdi        # 111108 <_ZL8sc_ascii+0xa8>
  106de6:	b8 00 00 00 00       	mov    $0x0,%eax
  106deb:	e8 20 5a 00 00       	callq  10c810 <_Z7kprintfPKcz>
  106df0:	f4                   	hlt    
  106df1:	c9                   	leaveq 
  106df2:	c3                   	retq   
  106df3:	90                   	nop

0000000000106df4 <_Z22LocateFilesystemsFAT32P6Device>:
  106df4:	f3 0f 1e fa          	endbr64 
  106df8:	55                   	push   %rbp
  106df9:	48 89 e5             	mov    %rsp,%rbp
  106dfc:	53                   	push   %rbx
  106dfd:	48 83 ec 38          	sub    $0x38,%rsp
  106e01:	48 89 7d c8          	mov    %rdi,-0x38(%rbp)
  106e05:	48 c7 45 d8 00 06 00 	movq   $0x600,-0x28(%rbp)
  106e0c:	00 
  106e0d:	0f b6 05 0c 0b 01 00 	movzbl 0x10b0c(%rip),%eax        # 117920 <fromUEFI>
  106e14:	84 c0                	test   %al,%al
  106e16:	75 66                	jne    106e7e <_Z22LocateFilesystemsFAT32P6Device+0x8a>
  106e18:	48 c7 45 d0 be 01 00 	movq   $0x1be,-0x30(%rbp)
  106e1f:	00 
  106e20:	48 8b 55 d8          	mov    -0x28(%rbp),%rdx
  106e24:	48 8b 45 d0          	mov    -0x30(%rbp),%rax
  106e28:	48 01 d0             	add    %rdx,%rax
  106e2b:	48 89 45 e8          	mov    %rax,-0x18(%rbp)
  106e2f:	c7 45 e4 00 00 00 00 	movl   $0x0,-0x1c(%rbp)
  106e36:	83 7d e4 03          	cmpl   $0x3,-0x1c(%rbp)
  106e3a:	77 42                	ja     106e7e <_Z22LocateFilesystemsFAT32P6Device+0x8a>
  106e3c:	48 8b 45 e8          	mov    -0x18(%rbp),%rax
  106e40:	0f b6 40 04          	movzbl 0x4(%rax),%eax
  106e44:	3c 0b                	cmp    $0xb,%al
  106e46:	75 2b                	jne    106e73 <_Z22LocateFilesystemsFAT32P6Device+0x7f>
  106e48:	bf 20 00 00 00       	mov    $0x20,%edi
  106e4d:	e8 39 cb ff ff       	callq  10398b <_Znwm>
  106e52:	48 89 c3             	mov    %rax,%rbx
  106e55:	48 8b 45 e8          	mov    -0x18(%rbp),%rax
  106e59:	8b 50 08             	mov    0x8(%rax),%edx
  106e5c:	48 8b 45 c8          	mov    -0x38(%rbp),%rax
  106e60:	48 89 c6             	mov    %rax,%rsi
  106e63:	48 89 df             	mov    %rbx,%rdi
  106e66:	e8 91 00 00 00       	callq  106efc <_ZN5FAT32C1EP6Devicej>
  106e6b:	48 89 df             	mov    %rbx,%rdi
  106e6e:	e8 a0 43 00 00       	callq  10b213 <_Z18RegisterFilesystemP10Filesystem>
  106e73:	48 83 45 e8 10       	addq   $0x10,-0x18(%rbp)
  106e78:	83 45 e4 01          	addl   $0x1,-0x1c(%rbp)
  106e7c:	eb b8                	jmp    106e36 <_Z22LocateFilesystemsFAT32P6Device+0x42>
  106e7e:	90                   	nop
  106e7f:	48 83 c4 38          	add    $0x38,%rsp
  106e83:	5b                   	pop    %rbx
  106e84:	5d                   	pop    %rbp
  106e85:	c3                   	retq   

0000000000106e86 <_ZNK16FAT32_ActiveFile7GetSizeEv>:
  106e86:	f3 0f 1e fa          	endbr64 
  106e8a:	55                   	push   %rbp
  106e8b:	48 89 e5             	mov    %rsp,%rbp
  106e8e:	48 83 ec 08          	sub    $0x8,%rsp
  106e92:	48 89 7d f8          	mov    %rdi,-0x8(%rbp)
  106e96:	48 8b 45 f8          	mov    -0x8(%rbp),%rax
  106e9a:	8b 80 94 00 00 00    	mov    0x94(%rax),%eax
  106ea0:	89 c0                	mov    %eax,%eax
  106ea2:	c9                   	leaveq 
  106ea3:	c3                   	retq   

0000000000106ea4 <_ZNK16FAT32_ActiveFile7GetNameEv>:
  106ea4:	f3 0f 1e fa          	endbr64 
  106ea8:	55                   	push   %rbp
  106ea9:	48 89 e5             	mov    %rsp,%rbp
  106eac:	48 83 ec 08          	sub    $0x8,%rsp
  106eb0:	48 89 7d f8          	mov    %rdi,-0x8(%rbp)
  106eb4:	48 8b 45 f8          	mov    -0x8(%rbp),%rax
  106eb8:	48 83 c0 10          	add    $0x10,%rax
  106ebc:	c9                   	leaveq 
  106ebd:	c3                   	retq   

0000000000106ebe <_ZNK16FAT32_ActiveFile7GetPathEv>:
  106ebe:	f3 0f 1e fa          	endbr64 
  106ec2:	55                   	push   %rbp
  106ec3:	48 89 e5             	mov    %rsp,%rbp
  106ec6:	48 83 ec 08          	sub    $0x8,%rsp
  106eca:	48 89 7d f8          	mov    %rdi,-0x8(%rbp)
  106ece:	48 8b 45 f8          	mov    -0x8(%rbp),%rax
  106ed2:	48 8b 80 a8 00 00 00 	mov    0xa8(%rax),%rax
  106ed9:	c9                   	leaveq 
  106eda:	c3                   	retq   
  106edb:	90                   	nop

0000000000106edc <_ZNK16FAT32_ActiveFile13GetAttributesEv>:
  106edc:	f3 0f 1e fa          	endbr64 
  106ee0:	55                   	push   %rbp
  106ee1:	48 89 e5             	mov    %rsp,%rbp
  106ee4:	48 83 ec 08          	sub    $0x8,%rsp
  106ee8:	48 89 7d f8          	mov    %rdi,-0x8(%rbp)
  106eec:	48 8b 45 f8          	mov    -0x8(%rbp),%rax
  106ef0:	0f b6 80 98 00 00 00 	movzbl 0x98(%rax),%eax
  106ef7:	0f b6 c0             	movzbl %al,%eax
  106efa:	c9                   	leaveq 
  106efb:	c3                   	retq   

0000000000106efc <_ZN5FAT32C1EP6Devicej>:
  106efc:	f3 0f 1e fa          	endbr64 
  106f00:	55                   	push   %rbp
  106f01:	48 89 e5             	mov    %rsp,%rbp
  106f04:	53                   	push   %rbx
  106f05:	48 83 ec 28          	sub    $0x28,%rsp
  106f09:	48 89 7d e8          	mov    %rdi,-0x18(%rbp)
  106f0d:	48 89 75 e0          	mov    %rsi,-0x20(%rbp)
  106f11:	89 55 dc             	mov    %edx,-0x24(%rbp)
  106f14:	48 8b 45 e8          	mov    -0x18(%rbp),%rax
  106f18:	8b 55 dc             	mov    -0x24(%rbp),%edx
  106f1b:	48 8b 4d e0          	mov    -0x20(%rbp),%rcx
  106f1f:	48 89 ce             	mov    %rcx,%rsi
  106f22:	48 89 c7             	mov    %rax,%rdi
  106f25:	e8 b4 73 00 00       	callq  10e2de <_ZN10FilesystemC1EP6Devicej>
  106f2a:	48 8d 15 1f 86 00 00 	lea    0x861f(%rip),%rdx        # 10f550 <_ZTV5FAT32+0x10>
  106f31:	48 8b 45 e8          	mov    -0x18(%rbp),%rax
  106f35:	48 89 10             	mov    %rdx,(%rax)
  106f38:	bf 48 00 00 00       	mov    $0x48,%edi
  106f3d:	e8 49 ca ff ff       	callq  10398b <_Znwm>
  106f42:	48 89 c3             	mov    %rax,%rbx
  106f45:	8b 55 dc             	mov    -0x24(%rbp),%edx
  106f48:	48 8b 45 e0          	mov    -0x20(%rbp),%rax
  106f4c:	48 89 c6             	mov    %rax,%rsi
  106f4f:	48 89 df             	mov    %rbx,%rdi
  106f52:	e8 1d 0d 00 00       	callq  107c74 <_ZN11FAT32DriverC1EP6Devicej>
  106f57:	48 8b 45 e8          	mov    -0x18(%rbp),%rax
  106f5b:	48 89 58 18          	mov    %rbx,0x18(%rax)
  106f5f:	90                   	nop
  106f60:	48 83 c4 28          	add    $0x28,%rsp
  106f64:	5b                   	pop    %rbx
  106f65:	5d                   	pop    %rbp
  106f66:	c3                   	retq   
  106f67:	90                   	nop

0000000000106f68 <_ZN5FAT32D1Ev>:
  106f68:	f3 0f 1e fa          	endbr64 
  106f6c:	55                   	push   %rbp
  106f6d:	48 89 e5             	mov    %rsp,%rbp
  106f70:	53                   	push   %rbx
  106f71:	48 83 ec 18          	sub    $0x18,%rsp
  106f75:	48 89 7d e8          	mov    %rdi,-0x18(%rbp)
  106f79:	48 8d 15 d0 85 00 00 	lea    0x85d0(%rip),%rdx        # 10f550 <_ZTV5FAT32+0x10>
  106f80:	48 8b 45 e8          	mov    -0x18(%rbp),%rax
  106f84:	48 89 10             	mov    %rdx,(%rax)
  106f87:	48 8b 45 e8          	mov    -0x18(%rbp),%rax
  106f8b:	48 8b 58 18          	mov    0x18(%rax),%rbx
  106f8f:	48 85 db             	test   %rbx,%rbx
  106f92:	74 15                	je     106fa9 <_ZN5FAT32D1Ev+0x41>
  106f94:	48 89 df             	mov    %rbx,%rdi
  106f97:	e8 bc 0f 00 00       	callq  107f58 <_ZN11FAT32DriverD1Ev>
  106f9c:	be 48 00 00 00       	mov    $0x48,%esi
  106fa1:	48 89 df             	mov    %rbx,%rdi
  106fa4:	e8 5c ca ff ff       	callq  103a05 <_ZdlPvm>
  106fa9:	48 8b 45 e8          	mov    -0x18(%rbp),%rax
  106fad:	48 89 c7             	mov    %rax,%rdi
  106fb0:	e8 67 73 00 00       	callq  10e31c <_ZN10FilesystemD1Ev>
  106fb5:	90                   	nop
  106fb6:	48 83 c4 18          	add    $0x18,%rsp
  106fba:	5b                   	pop    %rbx
  106fbb:	5d                   	pop    %rbp
  106fbc:	c3                   	retq   
  106fbd:	90                   	nop

0000000000106fbe <_ZN5FAT328OpenFileEPKc>:
  106fbe:	f3 0f 1e fa          	endbr64 
  106fc2:	55                   	push   %rbp
  106fc3:	48 89 e5             	mov    %rsp,%rbp
  106fc6:	53                   	push   %rbx
  106fc7:	48 81 ec c8 00 00 00 	sub    $0xc8,%rsp
  106fce:	48 89 bd 38 ff ff ff 	mov    %rdi,-0xc8(%rbp)
  106fd5:	48 89 b5 30 ff ff ff 	mov    %rsi,-0xd0(%rbp)
  106fdc:	48 8b 85 38 ff ff ff 	mov    -0xc8(%rbp),%rax
  106fe3:	48 8b 40 18          	mov    0x18(%rax),%rax
  106fe7:	48 8d 95 40 ff ff ff 	lea    -0xc0(%rbp),%rdx
  106fee:	48 8b 8d 30 ff ff ff 	mov    -0xd0(%rbp),%rcx
  106ff5:	48 89 ce             	mov    %rcx,%rsi
  106ff8:	48 89 c7             	mov    %rax,%rdi
  106ffb:	e8 ac 28 00 00       	callq  1098ac <_ZN11FAT32Driver8OpenFileEPKcP8DirEntry>
  107000:	89 45 ec             	mov    %eax,-0x14(%rbp)
  107003:	83 7d ec 00          	cmpl   $0x0,-0x14(%rbp)
  107007:	74 0a                	je     107013 <_ZN5FAT328OpenFileEPKc+0x55>
  107009:	b8 00 00 00 00       	mov    $0x0,%eax
  10700e:	e9 38 01 00 00       	jmpq   10714b <_ZN5FAT328OpenFileEPKc+0x18d>
  107013:	48 8b 85 30 ff ff ff 	mov    -0xd0(%rbp),%rax
  10701a:	48 89 c7             	mov    %rax,%rdi
  10701d:	e8 2e 54 00 00       	callq  10c450 <_Z6strlenPc>
  107022:	48 83 c0 01          	add    $0x1,%rax
  107026:	48 89 c7             	mov    %rax,%rdi
  107029:	e8 7b c9 ff ff       	callq  1039a9 <_Znam>
  10702e:	48 89 45 e0          	mov    %rax,-0x20(%rbp)
  107032:	48 8b 95 30 ff ff ff 	mov    -0xd0(%rbp),%rdx
  107039:	48 8b 45 e0          	mov    -0x20(%rbp),%rax
  10703d:	48 89 d6             	mov    %rdx,%rsi
  107040:	48 89 c7             	mov    %rax,%rdi
  107043:	e8 c0 54 00 00       	callq  10c508 <_Z6strcpyPcPKc>
  107048:	bf b0 00 00 00       	mov    $0xb0,%edi
  10704d:	e8 39 c9 ff ff       	callq  10398b <_Znwm>
  107052:	48 89 c3             	mov    %rax,%rbx
  107055:	48 89 de             	mov    %rbx,%rsi
  107058:	b8 00 00 00 00       	mov    $0x0,%eax
  10705d:	ba 16 00 00 00       	mov    $0x16,%edx
  107062:	48 89 f7             	mov    %rsi,%rdi
  107065:	48 89 d1             	mov    %rdx,%rcx
  107068:	f3 48 ab             	rep stos %rax,%es:(%rdi)
  10706b:	48 89 df             	mov    %rbx,%rdi
  10706e:	e8 cb 72 00 00       	callq  10e33e <_ZN16FAT32_ActiveFileC1Ev>
  107073:	48 89 5d d8          	mov    %rbx,-0x28(%rbp)
  107077:	48 8b 45 d8          	mov    -0x28(%rbp),%rax
  10707b:	48 8b 55 e0          	mov    -0x20(%rbp),%rdx
  10707f:	48 89 90 a8 00 00 00 	mov    %rdx,0xa8(%rax)
  107086:	48 8b 45 d8          	mov    -0x28(%rbp),%rax
  10708a:	48 8b 8d 40 ff ff ff 	mov    -0xc0(%rbp),%rcx
  107091:	48 8b 9d 48 ff ff ff 	mov    -0xb8(%rbp),%rbx
  107098:	48 89 48 10          	mov    %rcx,0x10(%rax)
  10709c:	48 89 58 18          	mov    %rbx,0x18(%rax)
  1070a0:	48 8b 8d 50 ff ff ff 	mov    -0xb0(%rbp),%rcx
  1070a7:	48 8b 9d 58 ff ff ff 	mov    -0xa8(%rbp),%rbx
  1070ae:	48 89 48 20          	mov    %rcx,0x20(%rax)
  1070b2:	48 89 58 28          	mov    %rbx,0x28(%rax)
  1070b6:	48 8b 8d 60 ff ff ff 	mov    -0xa0(%rbp),%rcx
  1070bd:	48 8b 9d 68 ff ff ff 	mov    -0x98(%rbp),%rbx
  1070c4:	48 89 48 30          	mov    %rcx,0x30(%rax)
  1070c8:	48 89 58 38          	mov    %rbx,0x38(%rax)
  1070cc:	48 8b 8d 70 ff ff ff 	mov    -0x90(%rbp),%rcx
  1070d3:	48 8b 9d 78 ff ff ff 	mov    -0x88(%rbp),%rbx
  1070da:	48 89 48 40          	mov    %rcx,0x40(%rax)
  1070de:	48 89 58 48          	mov    %rbx,0x48(%rax)
  1070e2:	48 8b 4d 80          	mov    -0x80(%rbp),%rcx
  1070e6:	48 8b 5d 88          	mov    -0x78(%rbp),%rbx
  1070ea:	48 89 48 50          	mov    %rcx,0x50(%rax)
  1070ee:	48 89 58 58          	mov    %rbx,0x58(%rax)
  1070f2:	48 8b 4d 90          	mov    -0x70(%rbp),%rcx
  1070f6:	48 8b 5d 98          	mov    -0x68(%rbp),%rbx
  1070fa:	48 89 48 60          	mov    %rcx,0x60(%rax)
  1070fe:	48 89 58 68          	mov    %rbx,0x68(%rax)
  107102:	48 8b 4d a0          	mov    -0x60(%rbp),%rcx
  107106:	48 8b 5d a8          	mov    -0x58(%rbp),%rbx
  10710a:	48 89 48 70          	mov    %rcx,0x70(%rax)
  10710e:	48 89 58 78          	mov    %rbx,0x78(%rax)
  107112:	48 8b 4d b0          	mov    -0x50(%rbp),%rcx
  107116:	48 8b 5d b8          	mov    -0x48(%rbp),%rbx
  10711a:	48 89 88 80 00 00 00 	mov    %rcx,0x80(%rax)
  107121:	48 89 98 88 00 00 00 	mov    %rbx,0x88(%rax)
  107128:	48 8b 4d c0          	mov    -0x40(%rbp),%rcx
  10712c:	48 8b 5d c8          	mov    -0x38(%rbp),%rbx
  107130:	48 89 88 90 00 00 00 	mov    %rcx,0x90(%rax)
  107137:	48 89 98 98 00 00 00 	mov    %rbx,0x98(%rax)
  10713e:	8b 55 d0             	mov    -0x30(%rbp),%edx
  107141:	89 90 a0 00 00 00    	mov    %edx,0xa0(%rax)
  107147:	48 8b 45 d8          	mov    -0x28(%rbp),%rax
  10714b:	48 81 c4 c8 00 00 00 	add    $0xc8,%rsp
  107152:	5b                   	pop    %rbx
  107153:	5d                   	pop    %rbp
  107154:	c3                   	retq   
  107155:	90                   	nop

0000000000107156 <_ZN5FAT329CloseFileEP10ActiveFile>:
  107156:	f3 0f 1e fa          	endbr64 
  10715a:	55                   	push   %rbp
  10715b:	48 89 e5             	mov    %rsp,%rbp
  10715e:	53                   	push   %rbx
  10715f:	48 83 ec 18          	sub    $0x18,%rsp
  107163:	48 89 7d e8          	mov    %rdi,-0x18(%rbp)
  107167:	48 89 75 e0          	mov    %rsi,-0x20(%rbp)
  10716b:	48 8b 45 e0          	mov    -0x20(%rbp),%rax
  10716f:	48 8b 80 a8 00 00 00 	mov    0xa8(%rax),%rax
  107176:	48 85 c0             	test   %rax,%rax
  107179:	74 13                	je     10718e <_ZN5FAT329CloseFileEP10ActiveFile+0x38>
  10717b:	48 8b 45 e0          	mov    -0x20(%rbp),%rax
  10717f:	48 8b 80 a8 00 00 00 	mov    0xa8(%rax),%rax
  107186:	48 89 c7             	mov    %rax,%rdi
  107189:	e8 58 c8 ff ff       	callq  1039e6 <_ZdaPv>
  10718e:	48 8b 5d e0          	mov    -0x20(%rbp),%rbx
  107192:	48 85 db             	test   %rbx,%rbx
  107195:	74 15                	je     1071ac <_ZN5FAT329CloseFileEP10ActiveFile+0x56>
  107197:	48 89 df             	mov    %rbx,%rdi
  10719a:	e8 1d 71 00 00       	callq  10e2bc <_ZN10ActiveFileD1Ev>
  10719f:	be 10 00 00 00       	mov    $0x10,%esi
  1071a4:	48 89 df             	mov    %rbx,%rdi
  1071a7:	e8 59 c8 ff ff       	callq  103a05 <_ZdlPvm>
  1071ac:	90                   	nop
  1071ad:	48 83 c4 18          	add    $0x18,%rsp
  1071b1:	5b                   	pop    %rbx
  1071b2:	5d                   	pop    %rbp
  1071b3:	c3                   	retq   

00000000001071b4 <_ZN5FAT3210CreateFileEPKcS1_j>:
  1071b4:	f3 0f 1e fa          	endbr64 
  1071b8:	55                   	push   %rbp
  1071b9:	48 89 e5             	mov    %rsp,%rbp
  1071bc:	53                   	push   %rbx
  1071bd:	48 81 ec f8 00 00 00 	sub    $0xf8,%rsp
  1071c4:	48 89 bd 18 ff ff ff 	mov    %rdi,-0xe8(%rbp)
  1071cb:	48 89 b5 10 ff ff ff 	mov    %rsi,-0xf0(%rbp)
  1071d2:	48 89 95 08 ff ff ff 	mov    %rdx,-0xf8(%rbp)
  1071d9:	89 8d 04 ff ff ff    	mov    %ecx,-0xfc(%rbp)
  1071df:	c7 45 ec 00 02 00 00 	movl   $0x200,-0x14(%rbp)
  1071e6:	c6 45 eb 00          	movb   $0x0,-0x15(%rbp)
  1071ea:	8b 85 04 ff ff ff    	mov    -0xfc(%rbp),%eax
  1071f0:	83 e0 01             	and    $0x1,%eax
  1071f3:	85 c0                	test   %eax,%eax
  1071f5:	0f 95 c0             	setne  %al
  1071f8:	89 c2                	mov    %eax,%edx
  1071fa:	0f b6 45 eb          	movzbl -0x15(%rbp),%eax
  1071fe:	09 d0                	or     %edx,%eax
  107200:	88 45 eb             	mov    %al,-0x15(%rbp)
  107203:	8b 85 04 ff ff ff    	mov    -0xfc(%rbp),%eax
  107209:	83 e0 02             	and    $0x2,%eax
  10720c:	89 c2                	mov    %eax,%edx
  10720e:	0f b6 45 eb          	movzbl -0x15(%rbp),%eax
  107212:	09 d0                	or     %edx,%eax
  107214:	88 45 eb             	mov    %al,-0x15(%rbp)
  107217:	8b 85 04 ff ff ff    	mov    -0xfc(%rbp),%eax
  10721d:	83 e0 04             	and    $0x4,%eax
  107220:	89 c2                	mov    %eax,%edx
  107222:	0f b6 45 eb          	movzbl -0x15(%rbp),%eax
  107226:	09 d0                	or     %edx,%eax
  107228:	88 45 eb             	mov    %al,-0x15(%rbp)
  10722b:	8b 85 04 ff ff ff    	mov    -0xfc(%rbp),%eax
  107231:	83 e0 08             	and    $0x8,%eax
  107234:	89 c2                	mov    %eax,%edx
  107236:	0f b6 45 eb          	movzbl -0x15(%rbp),%eax
  10723a:	09 d0                	or     %edx,%eax
  10723c:	88 45 eb             	mov    %al,-0x15(%rbp)
  10723f:	8b 85 04 ff ff ff    	mov    -0xfc(%rbp),%eax
  107245:	83 e0 10             	and    $0x10,%eax
  107248:	89 c2                	mov    %eax,%edx
  10724a:	0f b6 45 eb          	movzbl -0x15(%rbp),%eax
  10724e:	09 d0                	or     %edx,%eax
  107250:	88 45 eb             	mov    %al,-0x15(%rbp)
  107253:	8b 85 04 ff ff ff    	mov    -0xfc(%rbp),%eax
  107259:	83 e0 20             	and    $0x20,%eax
  10725c:	89 c2                	mov    %eax,%edx
  10725e:	0f b6 45 eb          	movzbl -0x15(%rbp),%eax
  107262:	09 d0                	or     %edx,%eax
  107264:	88 45 eb             	mov    %al,-0x15(%rbp)
  107267:	48 8b 95 08 ff ff ff 	mov    -0xf8(%rbp),%rdx
  10726e:	48 8d 85 20 ff ff ff 	lea    -0xe0(%rbp),%rax
  107275:	48 89 d6             	mov    %rdx,%rsi
  107278:	48 89 c7             	mov    %rax,%rdi
  10727b:	e8 88 52 00 00       	callq  10c508 <_Z6strcpyPcPKc>
  107280:	c7 45 a0 00 00 00 00 	movl   $0x0,-0x60(%rbp)
  107287:	0f b6 45 eb          	movzbl -0x15(%rbp),%eax
  10728b:	88 45 a8             	mov    %al,-0x58(%rbp)
  10728e:	8b 45 ec             	mov    -0x14(%rbp),%eax
  107291:	89 45 a4             	mov    %eax,-0x5c(%rbp)
  107294:	48 8b 85 18 ff ff ff 	mov    -0xe8(%rbp),%rax
  10729b:	48 8b 40 18          	mov    0x18(%rax),%rax
  10729f:	48 8d 95 20 ff ff ff 	lea    -0xe0(%rbp),%rdx
  1072a6:	48 8b 8d 10 ff ff ff 	mov    -0xf0(%rbp),%rcx
  1072ad:	48 89 ce             	mov    %rcx,%rsi
  1072b0:	48 89 c7             	mov    %rax,%rdi
  1072b3:	e8 38 26 00 00       	callq  1098f0 <_ZN11FAT32Driver10CreateFileEPKcP8DirEntry>
  1072b8:	48 8b 85 10 ff ff ff 	mov    -0xf0(%rbp),%rax
  1072bf:	48 89 c7             	mov    %rax,%rdi
  1072c2:	e8 89 51 00 00       	callq  10c450 <_Z6strlenPc>
  1072c7:	48 89 45 e0          	mov    %rax,-0x20(%rbp)
  1072cb:	48 8b 85 08 ff ff ff 	mov    -0xf8(%rbp),%rax
  1072d2:	48 89 c7             	mov    %rax,%rdi
  1072d5:	e8 76 51 00 00       	callq  10c450 <_Z6strlenPc>
  1072da:	48 89 45 d8          	mov    %rax,-0x28(%rbp)
  1072de:	48 8b 55 e0          	mov    -0x20(%rbp),%rdx
  1072e2:	48 8b 45 d8          	mov    -0x28(%rbp),%rax
  1072e6:	48 01 d0             	add    %rdx,%rax
  1072e9:	48 83 c0 02          	add    $0x2,%rax
  1072ed:	48 89 45 d0          	mov    %rax,-0x30(%rbp)
  1072f1:	48 8b 45 d0          	mov    -0x30(%rbp),%rax
  1072f5:	48 89 c7             	mov    %rax,%rdi
  1072f8:	e8 ac c6 ff ff       	callq  1039a9 <_Znam>
  1072fd:	48 89 45 c8          	mov    %rax,-0x38(%rbp)
  107301:	48 8b 55 e0          	mov    -0x20(%rbp),%rdx
  107305:	48 8b 8d 10 ff ff ff 	mov    -0xf0(%rbp),%rcx
  10730c:	48 8b 45 c8          	mov    -0x38(%rbp),%rax
  107310:	48 89 ce             	mov    %rcx,%rsi
  107313:	48 89 c7             	mov    %rax,%rdi
  107316:	e8 f2 58 00 00       	callq  10cc0d <_Z6memcpyPvPKvm>
  10731b:	48 8b 55 c8          	mov    -0x38(%rbp),%rdx
  10731f:	48 8b 45 e0          	mov    -0x20(%rbp),%rax
  107323:	48 01 d0             	add    %rdx,%rax
  107326:	c6 00 2f             	movb   $0x2f,(%rax)
  107329:	48 8b 45 e0          	mov    -0x20(%rbp),%rax
  10732d:	48 8d 50 01          	lea    0x1(%rax),%rdx
  107331:	48 8b 45 c8          	mov    -0x38(%rbp),%rax
  107335:	48 8d 0c 02          	lea    (%rdx,%rax,1),%rcx
  107339:	48 8b 55 d8          	mov    -0x28(%rbp),%rdx
  10733d:	48 8b 85 08 ff ff ff 	mov    -0xf8(%rbp),%rax
  107344:	48 89 c6             	mov    %rax,%rsi
  107347:	48 89 cf             	mov    %rcx,%rdi
  10734a:	e8 be 58 00 00       	callq  10cc0d <_Z6memcpyPvPKvm>
  10734f:	48 8b 55 e0          	mov    -0x20(%rbp),%rdx
  107353:	48 8b 45 d8          	mov    -0x28(%rbp),%rax
  107357:	48 01 d0             	add    %rdx,%rax
  10735a:	48 8d 50 01          	lea    0x1(%rax),%rdx
  10735e:	48 8b 45 c8          	mov    -0x38(%rbp),%rax
  107362:	48 01 d0             	add    %rdx,%rax
  107365:	c6 00 00             	movb   $0x0,(%rax)
  107368:	bf b0 00 00 00       	mov    $0xb0,%edi
  10736d:	e8 19 c6 ff ff       	callq  10398b <_Znwm>
  107372:	48 89 c3             	mov    %rax,%rbx
  107375:	48 89 de             	mov    %rbx,%rsi
  107378:	b8 00 00 00 00       	mov    $0x0,%eax
  10737d:	ba 16 00 00 00       	mov    $0x16,%edx
  107382:	48 89 f7             	mov    %rsi,%rdi
  107385:	48 89 d1             	mov    %rdx,%rcx
  107388:	f3 48 ab             	rep stos %rax,%es:(%rdi)
  10738b:	48 89 df             	mov    %rbx,%rdi
  10738e:	e8 ab 6f 00 00       	callq  10e33e <_ZN16FAT32_ActiveFileC1Ev>
  107393:	48 89 5d c0          	mov    %rbx,-0x40(%rbp)
  107397:	48 8b 45 c0          	mov    -0x40(%rbp),%rax
  10739b:	48 8b 55 c8          	mov    -0x38(%rbp),%rdx
  10739f:	48 89 90 a8 00 00 00 	mov    %rdx,0xa8(%rax)
  1073a6:	48 8b 45 c0          	mov    -0x40(%rbp),%rax
  1073aa:	48 8b 8d 20 ff ff ff 	mov    -0xe0(%rbp),%rcx
  1073b1:	48 8b 9d 28 ff ff ff 	mov    -0xd8(%rbp),%rbx
  1073b8:	48 89 48 10          	mov    %rcx,0x10(%rax)
  1073bc:	48 89 58 18          	mov    %rbx,0x18(%rax)
  1073c0:	48 8b 8d 30 ff ff ff 	mov    -0xd0(%rbp),%rcx
  1073c7:	48 8b 9d 38 ff ff ff 	mov    -0xc8(%rbp),%rbx
  1073ce:	48 89 48 20          	mov    %rcx,0x20(%rax)
  1073d2:	48 89 58 28          	mov    %rbx,0x28(%rax)
  1073d6:	48 8b 8d 40 ff ff ff 	mov    -0xc0(%rbp),%rcx
  1073dd:	48 8b 9d 48 ff ff ff 	mov    -0xb8(%rbp),%rbx
  1073e4:	48 89 48 30          	mov    %rcx,0x30(%rax)
  1073e8:	48 89 58 38          	mov    %rbx,0x38(%rax)
  1073ec:	48 8b 8d 50 ff ff ff 	mov    -0xb0(%rbp),%rcx
  1073f3:	48 8b 9d 58 ff ff ff 	mov    -0xa8(%rbp),%rbx
  1073fa:	48 89 48 40          	mov    %rcx,0x40(%rax)
  1073fe:	48 89 58 48          	mov    %rbx,0x48(%rax)
  107402:	48 8b 8d 60 ff ff ff 	mov    -0xa0(%rbp),%rcx
  107409:	48 8b 9d 68 ff ff ff 	mov    -0x98(%rbp),%rbx
  107410:	48 89 48 50          	mov    %rcx,0x50(%rax)
  107414:	48 89 58 58          	mov    %rbx,0x58(%rax)
  107418:	48 8b 8d 70 ff ff ff 	mov    -0x90(%rbp),%rcx
  10741f:	48 8b 9d 78 ff ff ff 	mov    -0x88(%rbp),%rbx
  107426:	48 89 48 60          	mov    %rcx,0x60(%rax)
  10742a:	48 89 58 68          	mov    %rbx,0x68(%rax)
  10742e:	48 8b 4d 80          	mov    -0x80(%rbp),%rcx
  107432:	48 8b 5d 88          	mov    -0x78(%rbp),%rbx
  107436:	48 89 48 70          	mov    %rcx,0x70(%rax)
  10743a:	48 89 58 78          	mov    %rbx,0x78(%rax)
  10743e:	48 8b 4d 90          	mov    -0x70(%rbp),%rcx
  107442:	48 8b 5d 98          	mov    -0x68(%rbp),%rbx
  107446:	48 89 88 80 00 00 00 	mov    %rcx,0x80(%rax)
  10744d:	48 89 98 88 00 00 00 	mov    %rbx,0x88(%rax)
  107454:	48 8b 4d a0          	mov    -0x60(%rbp),%rcx
  107458:	48 8b 5d a8          	mov    -0x58(%rbp),%rbx
  10745c:	48 89 88 90 00 00 00 	mov    %rcx,0x90(%rax)
  107463:	48 89 98 98 00 00 00 	mov    %rbx,0x98(%rax)
  10746a:	8b 55 b0             	mov    -0x50(%rbp),%edx
  10746d:	89 90 a0 00 00 00    	mov    %edx,0xa0(%rax)
  107473:	48 8b 45 c0          	mov    -0x40(%rbp),%rax
  107477:	48 81 c4 f8 00 00 00 	add    $0xf8,%rsp
  10747e:	5b                   	pop    %rbx
  10747f:	5d                   	pop    %rbp
  107480:	c3                   	retq   
  107481:	90                   	nop

0000000000107482 <_ZN5FAT3210ResizeFileEP10ActiveFilem>:
  107482:	f3 0f 1e fa          	endbr64 
  107486:	55                   	push   %rbp
  107487:	48 89 e5             	mov    %rsp,%rbp
  10748a:	53                   	push   %rbx
  10748b:	48 83 ec 28          	sub    $0x28,%rsp
  10748f:	48 89 7d e8          	mov    %rdi,-0x18(%rbp)
  107493:	48 89 75 e0          	mov    %rsi,-0x20(%rbp)
  107497:	48 89 55 d8          	mov    %rdx,-0x28(%rbp)
  10749b:	48 8b 45 e8          	mov    -0x18(%rbp),%rax
  10749f:	48 8b 78 18          	mov    0x18(%rax),%rdi
  1074a3:	48 8b 45 d8          	mov    -0x28(%rbp),%rax
  1074a7:	89 c6                	mov    %eax,%esi
  1074a9:	48 83 ec 08          	sub    $0x8,%rsp
  1074ad:	48 8b 45 e0          	mov    -0x20(%rbp),%rax
  1074b1:	48 81 ec 98 00 00 00 	sub    $0x98,%rsp
  1074b8:	48 89 e2             	mov    %rsp,%rdx
  1074bb:	48 8b 48 10          	mov    0x10(%rax),%rcx
  1074bf:	48 8b 58 18          	mov    0x18(%rax),%rbx
  1074c3:	48 89 0a             	mov    %rcx,(%rdx)
  1074c6:	48 89 5a 08          	mov    %rbx,0x8(%rdx)
  1074ca:	48 8b 48 20          	mov    0x20(%rax),%rcx
  1074ce:	48 8b 58 28          	mov    0x28(%rax),%rbx
  1074d2:	48 89 4a 10          	mov    %rcx,0x10(%rdx)
  1074d6:	48 89 5a 18          	mov    %rbx,0x18(%rdx)
  1074da:	48 8b 48 30          	mov    0x30(%rax),%rcx
  1074de:	48 8b 58 38          	mov    0x38(%rax),%rbx
  1074e2:	48 89 4a 20          	mov    %rcx,0x20(%rdx)
  1074e6:	48 89 5a 28          	mov    %rbx,0x28(%rdx)
  1074ea:	48 8b 48 40          	mov    0x40(%rax),%rcx
  1074ee:	48 8b 58 48          	mov    0x48(%rax),%rbx
  1074f2:	48 89 4a 30          	mov    %rcx,0x30(%rdx)
  1074f6:	48 89 5a 38          	mov    %rbx,0x38(%rdx)
  1074fa:	48 8b 48 50          	mov    0x50(%rax),%rcx
  1074fe:	48 8b 58 58          	mov    0x58(%rax),%rbx
  107502:	48 89 4a 40          	mov    %rcx,0x40(%rdx)
  107506:	48 89 5a 48          	mov    %rbx,0x48(%rdx)
  10750a:	48 8b 48 60          	mov    0x60(%rax),%rcx
  10750e:	48 8b 58 68          	mov    0x68(%rax),%rbx
  107512:	48 89 4a 50          	mov    %rcx,0x50(%rdx)
  107516:	48 89 5a 58          	mov    %rbx,0x58(%rdx)
  10751a:	48 8b 48 70          	mov    0x70(%rax),%rcx
  10751e:	48 8b 58 78          	mov    0x78(%rax),%rbx
  107522:	48 89 4a 60          	mov    %rcx,0x60(%rdx)
  107526:	48 89 5a 68          	mov    %rbx,0x68(%rdx)
  10752a:	48 8b 88 80 00 00 00 	mov    0x80(%rax),%rcx
  107531:	48 8b 98 88 00 00 00 	mov    0x88(%rax),%rbx
  107538:	48 89 4a 70          	mov    %rcx,0x70(%rdx)
  10753c:	48 89 5a 78          	mov    %rbx,0x78(%rdx)
  107540:	48 8b 88 90 00 00 00 	mov    0x90(%rax),%rcx
  107547:	48 8b 98 98 00 00 00 	mov    0x98(%rax),%rbx
  10754e:	48 89 8a 80 00 00 00 	mov    %rcx,0x80(%rdx)
  107555:	48 89 9a 88 00 00 00 	mov    %rbx,0x88(%rdx)
  10755c:	8b 80 a0 00 00 00    	mov    0xa0(%rax),%eax
  107562:	89 82 90 00 00 00    	mov    %eax,0x90(%rdx)
  107568:	e8 1f 2c 00 00       	callq  10a18c <_ZN11FAT32Driver10ResizeFileE8DirEntryj>
  10756d:	48 81 c4 a0 00 00 00 	add    $0xa0,%rsp
  107574:	48 8b 45 d8          	mov    -0x28(%rbp),%rax
  107578:	89 c2                	mov    %eax,%edx
  10757a:	48 8b 45 e0          	mov    -0x20(%rbp),%rax
  10757e:	89 90 94 00 00 00    	mov    %edx,0x94(%rax)
  107584:	48 8b 45 e0          	mov    -0x20(%rbp),%rax
  107588:	48 c7 40 08 00 00 00 	movq   $0x0,0x8(%rax)
  10758f:	00 
  107590:	90                   	nop
  107591:	48 8b 5d f8          	mov    -0x8(%rbp),%rbx
  107595:	c9                   	leaveq 
  107596:	c3                   	retq   
  107597:	90                   	nop

0000000000107598 <_ZN5FAT3210DeleteFileEP10ActiveFile>:
  107598:	f3 0f 1e fa          	endbr64 
  10759c:	55                   	push   %rbp
  10759d:	48 89 e5             	mov    %rsp,%rbp
  1075a0:	53                   	push   %rbx
  1075a1:	48 83 ec 18          	sub    $0x18,%rsp
  1075a5:	48 89 7d e8          	mov    %rdi,-0x18(%rbp)
  1075a9:	48 89 75 e0          	mov    %rsi,-0x20(%rbp)
  1075ad:	48 8b 45 e8          	mov    -0x18(%rbp),%rax
  1075b1:	48 8b 70 18          	mov    0x18(%rax),%rsi
  1075b5:	48 83 ec 08          	sub    $0x8,%rsp
  1075b9:	48 8b 45 e0          	mov    -0x20(%rbp),%rax
  1075bd:	48 81 ec 98 00 00 00 	sub    $0x98,%rsp
  1075c4:	48 89 e2             	mov    %rsp,%rdx
  1075c7:	48 8b 48 10          	mov    0x10(%rax),%rcx
  1075cb:	48 8b 58 18          	mov    0x18(%rax),%rbx
  1075cf:	48 89 0a             	mov    %rcx,(%rdx)
  1075d2:	48 89 5a 08          	mov    %rbx,0x8(%rdx)
  1075d6:	48 8b 48 20          	mov    0x20(%rax),%rcx
  1075da:	48 8b 58 28          	mov    0x28(%rax),%rbx
  1075de:	48 89 4a 10          	mov    %rcx,0x10(%rdx)
  1075e2:	48 89 5a 18          	mov    %rbx,0x18(%rdx)
  1075e6:	48 8b 48 30          	mov    0x30(%rax),%rcx
  1075ea:	48 8b 58 38          	mov    0x38(%rax),%rbx
  1075ee:	48 89 4a 20          	mov    %rcx,0x20(%rdx)
  1075f2:	48 89 5a 28          	mov    %rbx,0x28(%rdx)
  1075f6:	48 8b 48 40          	mov    0x40(%rax),%rcx
  1075fa:	48 8b 58 48          	mov    0x48(%rax),%rbx
  1075fe:	48 89 4a 30          	mov    %rcx,0x30(%rdx)
  107602:	48 89 5a 38          	mov    %rbx,0x38(%rdx)
  107606:	48 8b 48 50          	mov    0x50(%rax),%rcx
  10760a:	48 8b 58 58          	mov    0x58(%rax),%rbx
  10760e:	48 89 4a 40          	mov    %rcx,0x40(%rdx)
  107612:	48 89 5a 48          	mov    %rbx,0x48(%rdx)
  107616:	48 8b 48 60          	mov    0x60(%rax),%rcx
  10761a:	48 8b 58 68          	mov    0x68(%rax),%rbx
  10761e:	48 89 4a 50          	mov    %rcx,0x50(%rdx)
  107622:	48 89 5a 58          	mov    %rbx,0x58(%rdx)
  107626:	48 8b 48 70          	mov    0x70(%rax),%rcx
  10762a:	48 8b 58 78          	mov    0x78(%rax),%rbx
  10762e:	48 89 4a 60          	mov    %rcx,0x60(%rdx)
  107632:	48 89 5a 68          	mov    %rbx,0x68(%rdx)
  107636:	48 8b 88 80 00 00 00 	mov    0x80(%rax),%rcx
  10763d:	48 8b 98 88 00 00 00 	mov    0x88(%rax),%rbx
  107644:	48 89 4a 70          	mov    %rcx,0x70(%rdx)
  107648:	48 89 5a 78          	mov    %rbx,0x78(%rdx)
  10764c:	48 8b 88 90 00 00 00 	mov    0x90(%rax),%rcx
  107653:	48 8b 98 98 00 00 00 	mov    0x98(%rax),%rbx
  10765a:	48 89 8a 80 00 00 00 	mov    %rcx,0x80(%rdx)
  107661:	48 89 9a 88 00 00 00 	mov    %rbx,0x88(%rdx)
  107668:	8b 80 a0 00 00 00    	mov    0xa0(%rax),%eax
  10766e:	89 82 90 00 00 00    	mov    %eax,0x90(%rdx)
  107674:	48 89 f7             	mov    %rsi,%rdi
  107677:	e8 1c 24 00 00       	callq  109a98 <_ZN11FAT32Driver10DeleteFileE8DirEntry>
  10767c:	48 81 c4 a0 00 00 00 	add    $0xa0,%rsp
  107683:	48 8b 45 e8          	mov    -0x18(%rbp),%rax
  107687:	48 8b 00             	mov    (%rax),%rax
  10768a:	48 83 c0 08          	add    $0x8,%rax
  10768e:	48 8b 08             	mov    (%rax),%rcx
  107691:	48 8b 55 e0          	mov    -0x20(%rbp),%rdx
  107695:	48 8b 45 e8          	mov    -0x18(%rbp),%rax
  107699:	48 89 d6             	mov    %rdx,%rsi
  10769c:	48 89 c7             	mov    %rax,%rdi
  10769f:	ff d1                	callq  *%rcx
  1076a1:	90                   	nop
  1076a2:	48 8b 5d f8          	mov    -0x8(%rbp),%rbx
  1076a6:	c9                   	leaveq 
  1076a7:	c3                   	retq   

00000000001076a8 <_ZN5FAT3222GetDirectoryEntryCountEPKc>:
  1076a8:	f3 0f 1e fa          	endbr64 
  1076ac:	55                   	push   %rbp
  1076ad:	48 89 e5             	mov    %rsp,%rbp
  1076b0:	53                   	push   %rbx
  1076b1:	48 81 ec d8 00 00 00 	sub    $0xd8,%rsp
  1076b8:	48 89 bd 28 ff ff ff 	mov    %rdi,-0xd8(%rbp)
  1076bf:	48 89 b5 20 ff ff ff 	mov    %rsi,-0xe0(%rbp)
  1076c6:	48 8b 85 28 ff ff ff 	mov    -0xd8(%rbp),%rax
  1076cd:	48 8b 40 18          	mov    0x18(%rax),%rax
  1076d1:	48 8d 95 50 ff ff ff 	lea    -0xb0(%rbp),%rdx
  1076d8:	48 8b 8d 20 ff ff ff 	mov    -0xe0(%rbp),%rcx
  1076df:	48 89 ce             	mov    %rcx,%rsi
  1076e2:	48 89 c7             	mov    %rax,%rdi
  1076e5:	e8 c2 21 00 00       	callq  1098ac <_ZN11FAT32Driver8OpenFileEPKcP8DirEntry>
  1076ea:	89 45 ec             	mov    %eax,-0x14(%rbp)
  1076ed:	83 7d ec 00          	cmpl   $0x0,-0x14(%rbp)
  1076f1:	74 07                	je     1076fa <_ZN5FAT3222GetDirectoryEntryCountEPKc+0x52>
  1076f3:	bb 00 00 00 00       	mov    $0x0,%ebx
  1076f8:	eb 4a                	jmp    107744 <_ZN5FAT3222GetDirectoryEntryCountEPKc+0x9c>
  1076fa:	48 8b 85 28 ff ff ff 	mov    -0xd8(%rbp),%rax
  107701:	48 8b 70 18          	mov    0x18(%rax),%rsi
  107705:	8b 55 d0             	mov    -0x30(%rbp),%edx
  107708:	48 8d 85 30 ff ff ff 	lea    -0xd0(%rbp),%rax
  10770f:	41 b8 00 00 00 00    	mov    $0x0,%r8d
  107715:	b9 00 00 00 00       	mov    $0x0,%ecx
  10771a:	48 89 c7             	mov    %rax,%rdi
  10771d:	e8 34 12 00 00       	callq  108956 <_ZN11FAT32Driver14GetDirectoriesEjjb>
  107722:	48 8d 85 30 ff ff ff 	lea    -0xd0(%rbp),%rax
  107729:	48 89 c7             	mov    %rax,%rdi
  10772c:	e8 6b 6c 00 00       	callq  10e39c <_ZNK6vectorI8DirEntryE4sizeEv>
  107731:	48 89 c3             	mov    %rax,%rbx
  107734:	90                   	nop
  107735:	48 8d 85 30 ff ff ff 	lea    -0xd0(%rbp),%rax
  10773c:	48 89 c7             	mov    %rax,%rdi
  10773f:	e8 28 6c 00 00       	callq  10e36c <_ZN6vectorI8DirEntryED1Ev>
  107744:	48 89 d8             	mov    %rbx,%rax
  107747:	48 81 c4 d8 00 00 00 	add    $0xd8,%rsp
  10774e:	5b                   	pop    %rbx
  10774f:	5d                   	pop    %rbp
  107750:	c3                   	retq   
  107751:	90                   	nop

0000000000107752 <_ZN5FAT327GetFileEPKcm>:
  107752:	f3 0f 1e fa          	endbr64 
  107756:	55                   	push   %rbp
  107757:	48 89 e5             	mov    %rsp,%rbp
  10775a:	53                   	push   %rbx
  10775b:	48 81 ec a8 01 00 00 	sub    $0x1a8,%rsp
  107762:	48 89 bd 68 fe ff ff 	mov    %rdi,-0x198(%rbp)
  107769:	48 89 b5 60 fe ff ff 	mov    %rsi,-0x1a0(%rbp)
  107770:	48 89 95 58 fe ff ff 	mov    %rdx,-0x1a8(%rbp)
  107777:	48 8b 85 68 fe ff ff 	mov    -0x198(%rbp),%rax
  10777e:	48 8b 40 18          	mov    0x18(%rax),%rax
  107782:	48 8d 95 30 ff ff ff 	lea    -0xd0(%rbp),%rdx
  107789:	48 8b 8d 60 fe ff ff 	mov    -0x1a0(%rbp),%rcx
  107790:	48 89 ce             	mov    %rcx,%rsi
  107793:	48 89 c7             	mov    %rax,%rdi
  107796:	e8 11 21 00 00       	callq  1098ac <_ZN11FAT32Driver8OpenFileEPKcP8DirEntry>
  10779b:	48 8b 85 68 fe ff ff 	mov    -0x198(%rbp),%rax
  1077a2:	48 8b 70 18          	mov    0x18(%rax),%rsi
  1077a6:	8b 55 b0             	mov    -0x50(%rbp),%edx
  1077a9:	48 8d 85 10 ff ff ff 	lea    -0xf0(%rbp),%rax
  1077b0:	41 b8 00 00 00 00    	mov    $0x0,%r8d
  1077b6:	b9 00 00 00 00       	mov    $0x0,%ecx
  1077bb:	48 89 c7             	mov    %rax,%rdi
  1077be:	e8 93 11 00 00       	callq  108956 <_ZN11FAT32Driver14GetDirectoriesEjjb>
  1077c3:	48 8d 85 10 ff ff ff 	lea    -0xf0(%rbp),%rax
  1077ca:	48 89 c7             	mov    %rax,%rdi
  1077cd:	e8 ca 6b 00 00       	callq  10e39c <_ZNK6vectorI8DirEntryE4sizeEv>
  1077d2:	48 39 85 58 fe ff ff 	cmp    %rax,-0x1a8(%rbp)
  1077d9:	0f 92 c0             	setb   %al
  1077dc:	84 c0                	test   %al,%al
  1077de:	0f 84 e1 01 00 00    	je     1079c5 <_ZN5FAT327GetFileEPKcm+0x273>
  1077e4:	48 8b 95 58 fe ff ff 	mov    -0x1a8(%rbp),%rdx
  1077eb:	48 8d 85 10 ff ff ff 	lea    -0xf0(%rbp),%rax
  1077f2:	48 89 d6             	mov    %rdx,%rsi
  1077f5:	48 89 c7             	mov    %rax,%rdi
  1077f8:	e8 b9 6b 00 00       	callq  10e3b6 <_ZN6vectorI8DirEntryEixEm>
  1077fd:	48 8b 08             	mov    (%rax),%rcx
  107800:	48 8b 58 08          	mov    0x8(%rax),%rbx
  107804:	48 89 8d 70 fe ff ff 	mov    %rcx,-0x190(%rbp)
  10780b:	48 89 9d 78 fe ff ff 	mov    %rbx,-0x188(%rbp)
  107812:	48 8b 48 10          	mov    0x10(%rax),%rcx
  107816:	48 8b 58 18          	mov    0x18(%rax),%rbx
  10781a:	48 89 8d 80 fe ff ff 	mov    %rcx,-0x180(%rbp)
  107821:	48 89 9d 88 fe ff ff 	mov    %rbx,-0x178(%rbp)
  107828:	48 8b 48 20          	mov    0x20(%rax),%rcx
  10782c:	48 8b 58 28          	mov    0x28(%rax),%rbx
  107830:	48 89 8d 90 fe ff ff 	mov    %rcx,-0x170(%rbp)
  107837:	48 89 9d 98 fe ff ff 	mov    %rbx,-0x168(%rbp)
  10783e:	48 8b 48 30          	mov    0x30(%rax),%rcx
  107842:	48 8b 58 38          	mov    0x38(%rax),%rbx
  107846:	48 89 8d a0 fe ff ff 	mov    %rcx,-0x160(%rbp)
  10784d:	48 89 9d a8 fe ff ff 	mov    %rbx,-0x158(%rbp)
  107854:	48 8b 48 40          	mov    0x40(%rax),%rcx
  107858:	48 8b 58 48          	mov    0x48(%rax),%rbx
  10785c:	48 89 8d b0 fe ff ff 	mov    %rcx,-0x150(%rbp)
  107863:	48 89 9d b8 fe ff ff 	mov    %rbx,-0x148(%rbp)
  10786a:	48 8b 48 50          	mov    0x50(%rax),%rcx
  10786e:	48 8b 58 58          	mov    0x58(%rax),%rbx
  107872:	48 89 8d c0 fe ff ff 	mov    %rcx,-0x140(%rbp)
  107879:	48 89 9d c8 fe ff ff 	mov    %rbx,-0x138(%rbp)
  107880:	48 8b 48 60          	mov    0x60(%rax),%rcx
  107884:	48 8b 58 68          	mov    0x68(%rax),%rbx
  107888:	48 89 8d d0 fe ff ff 	mov    %rcx,-0x130(%rbp)
  10788f:	48 89 9d d8 fe ff ff 	mov    %rbx,-0x128(%rbp)
  107896:	48 8b 48 70          	mov    0x70(%rax),%rcx
  10789a:	48 8b 58 78          	mov    0x78(%rax),%rbx
  10789e:	48 89 8d e0 fe ff ff 	mov    %rcx,-0x120(%rbp)
  1078a5:	48 89 9d e8 fe ff ff 	mov    %rbx,-0x118(%rbp)
  1078ac:	48 8b 88 80 00 00 00 	mov    0x80(%rax),%rcx
  1078b3:	48 8b 98 88 00 00 00 	mov    0x88(%rax),%rbx
  1078ba:	48 89 8d f0 fe ff ff 	mov    %rcx,-0x110(%rbp)
  1078c1:	48 89 9d f8 fe ff ff 	mov    %rbx,-0x108(%rbp)
  1078c8:	8b 80 90 00 00 00    	mov    0x90(%rax),%eax
  1078ce:	89 85 00 ff ff ff    	mov    %eax,-0x100(%rbp)
  1078d4:	48 8b 85 60 fe ff ff 	mov    -0x1a0(%rbp),%rax
  1078db:	48 89 c7             	mov    %rax,%rdi
  1078de:	e8 6d 4b 00 00       	callq  10c450 <_Z6strlenPc>
  1078e3:	48 89 45 e8          	mov    %rax,-0x18(%rbp)
  1078e7:	48 8d 85 70 fe ff ff 	lea    -0x190(%rbp),%rax
  1078ee:	48 89 c7             	mov    %rax,%rdi
  1078f1:	e8 5a 4b 00 00       	callq  10c450 <_Z6strlenPc>
  1078f6:	48 89 45 e0          	mov    %rax,-0x20(%rbp)
  1078fa:	48 8b 55 e8          	mov    -0x18(%rbp),%rdx
  1078fe:	48 8b 45 e0          	mov    -0x20(%rbp),%rax
  107902:	48 01 d0             	add    %rdx,%rax
  107905:	48 83 c0 01          	add    $0x1,%rax
  107909:	48 89 45 d8          	mov    %rax,-0x28(%rbp)
  10790d:	48 8b 45 d8          	mov    -0x28(%rbp),%rax
  107911:	48 83 c0 01          	add    $0x1,%rax
  107915:	48 89 c7             	mov    %rax,%rdi
  107918:	e8 8c c0 ff ff       	callq  1039a9 <_Znam>
  10791d:	48 89 45 d0          	mov    %rax,-0x30(%rbp)
  107921:	48 8b 55 e8          	mov    -0x18(%rbp),%rdx
  107925:	48 8b 8d 60 fe ff ff 	mov    -0x1a0(%rbp),%rcx
  10792c:	48 8b 45 d0          	mov    -0x30(%rbp),%rax
  107930:	48 89 ce             	mov    %rcx,%rsi
  107933:	48 89 c7             	mov    %rax,%rdi
  107936:	e8 d2 52 00 00       	callq  10cc0d <_Z6memcpyPvPKvm>
  10793b:	48 8b 55 d0          	mov    -0x30(%rbp),%rdx
  10793f:	48 8b 45 e8          	mov    -0x18(%rbp),%rax
  107943:	48 01 d0             	add    %rdx,%rax
  107946:	c6 00 2f             	movb   $0x2f,(%rax)
  107949:	48 8b 45 e8          	mov    -0x18(%rbp),%rax
  10794d:	48 8d 50 01          	lea    0x1(%rax),%rdx
  107951:	48 8b 45 d0          	mov    -0x30(%rbp),%rax
  107955:	48 8d 0c 02          	lea    (%rdx,%rax,1),%rcx
  107959:	48 8b 55 e0          	mov    -0x20(%rbp),%rdx
  10795d:	48 8d 85 70 fe ff ff 	lea    -0x190(%rbp),%rax
  107964:	48 89 c6             	mov    %rax,%rsi
  107967:	48 89 cf             	mov    %rcx,%rdi
  10796a:	e8 9e 52 00 00       	callq  10cc0d <_Z6memcpyPvPKvm>
  10796f:	48 8b 55 e8          	mov    -0x18(%rbp),%rdx
  107973:	48 8b 45 e0          	mov    -0x20(%rbp),%rax
  107977:	48 01 d0             	add    %rdx,%rax
  10797a:	48 8d 50 01          	lea    0x1(%rax),%rdx
  10797e:	48 8b 45 d0          	mov    -0x30(%rbp),%rax
  107982:	48 01 d0             	add    %rdx,%rax
  107985:	c6 00 00             	movb   $0x0,(%rax)
  107988:	48 8b 85 68 fe ff ff 	mov    -0x198(%rbp),%rax
  10798f:	48 8b 00             	mov    (%rax),%rax
  107992:	48 8b 08             	mov    (%rax),%rcx
  107995:	48 8b 55 d0          	mov    -0x30(%rbp),%rdx
  107999:	48 8b 85 68 fe ff ff 	mov    -0x198(%rbp),%rax
  1079a0:	48 89 d6             	mov    %rdx,%rsi
  1079a3:	48 89 c7             	mov    %rax,%rdi
  1079a6:	ff d1                	callq  *%rcx
  1079a8:	48 89 45 c8          	mov    %rax,-0x38(%rbp)
  1079ac:	48 83 7d d0 00       	cmpq   $0x0,-0x30(%rbp)
  1079b1:	74 0c                	je     1079bf <_ZN5FAT327GetFileEPKcm+0x26d>
  1079b3:	48 8b 45 d0          	mov    -0x30(%rbp),%rax
  1079b7:	48 89 c7             	mov    %rax,%rdi
  1079ba:	e8 27 c0 ff ff       	callq  1039e6 <_ZdaPv>
  1079bf:	48 8b 5d c8          	mov    -0x38(%rbp),%rbx
  1079c3:	eb 05                	jmp    1079ca <_ZN5FAT327GetFileEPKcm+0x278>
  1079c5:	bb 00 00 00 00       	mov    $0x0,%ebx
  1079ca:	48 8d 85 10 ff ff ff 	lea    -0xf0(%rbp),%rax
  1079d1:	48 89 c7             	mov    %rax,%rdi
  1079d4:	e8 93 69 00 00       	callq  10e36c <_ZN6vectorI8DirEntryED1Ev>
  1079d9:	48 89 d8             	mov    %rbx,%rax
  1079dc:	48 81 c4 a8 01 00 00 	add    $0x1a8,%rsp
  1079e3:	5b                   	pop    %rbx
  1079e4:	5d                   	pop    %rbp
  1079e5:	c3                   	retq   

00000000001079e6 <_ZN5FAT324ReadEP10ActiveFilePvm>:
  1079e6:	f3 0f 1e fa          	endbr64 
  1079ea:	55                   	push   %rbp
  1079eb:	48 89 e5             	mov    %rsp,%rbp
  1079ee:	53                   	push   %rbx
  1079ef:	48 83 ec 38          	sub    $0x38,%rsp
  1079f3:	48 89 7d d8          	mov    %rdi,-0x28(%rbp)
  1079f7:	48 89 75 d0          	mov    %rsi,-0x30(%rbp)
  1079fb:	48 89 55 c8          	mov    %rdx,-0x38(%rbp)
  1079ff:	48 89 4d c0          	mov    %rcx,-0x40(%rbp)
  107a03:	48 8b 45 d0          	mov    -0x30(%rbp),%rax
  107a07:	48 8b 40 08          	mov    0x8(%rax),%rax
  107a0b:	48 89 45 e8          	mov    %rax,-0x18(%rbp)
  107a0f:	48 8b 45 d8          	mov    -0x28(%rbp),%rax
  107a13:	48 8b 78 18          	mov    0x18(%rax),%rdi
  107a17:	4c 8b 4d c0          	mov    -0x40(%rbp),%r9
  107a1b:	4c 8b 45 c8          	mov    -0x38(%rbp),%r8
  107a1f:	48 8b 75 e8          	mov    -0x18(%rbp),%rsi
  107a23:	48 83 ec 08          	sub    $0x8,%rsp
  107a27:	48 8b 45 d0          	mov    -0x30(%rbp),%rax
  107a2b:	48 81 ec 98 00 00 00 	sub    $0x98,%rsp
  107a32:	48 89 e2             	mov    %rsp,%rdx
  107a35:	48 8b 48 10          	mov    0x10(%rax),%rcx
  107a39:	48 8b 58 18          	mov    0x18(%rax),%rbx
  107a3d:	48 89 0a             	mov    %rcx,(%rdx)
  107a40:	48 89 5a 08          	mov    %rbx,0x8(%rdx)
  107a44:	48 8b 48 20          	mov    0x20(%rax),%rcx
  107a48:	48 8b 58 28          	mov    0x28(%rax),%rbx
  107a4c:	48 89 4a 10          	mov    %rcx,0x10(%rdx)
  107a50:	48 89 5a 18          	mov    %rbx,0x18(%rdx)
  107a54:	48 8b 48 30          	mov    0x30(%rax),%rcx
  107a58:	48 8b 58 38          	mov    0x38(%rax),%rbx
  107a5c:	48 89 4a 20          	mov    %rcx,0x20(%rdx)
  107a60:	48 89 5a 28          	mov    %rbx,0x28(%rdx)
  107a64:	48 8b 48 40          	mov    0x40(%rax),%rcx
  107a68:	48 8b 58 48          	mov    0x48(%rax),%rbx
  107a6c:	48 89 4a 30          	mov    %rcx,0x30(%rdx)
  107a70:	48 89 5a 38          	mov    %rbx,0x38(%rdx)
  107a74:	48 8b 48 50          	mov    0x50(%rax),%rcx
  107a78:	48 8b 58 58          	mov    0x58(%rax),%rbx
  107a7c:	48 89 4a 40          	mov    %rcx,0x40(%rdx)
  107a80:	48 89 5a 48          	mov    %rbx,0x48(%rdx)
  107a84:	48 8b 48 60          	mov    0x60(%rax),%rcx
  107a88:	48 8b 58 68          	mov    0x68(%rax),%rbx
  107a8c:	48 89 4a 50          	mov    %rcx,0x50(%rdx)
  107a90:	48 89 5a 58          	mov    %rbx,0x58(%rdx)
  107a94:	48 8b 48 70          	mov    0x70(%rax),%rcx
  107a98:	48 8b 58 78          	mov    0x78(%rax),%rbx
  107a9c:	48 89 4a 60          	mov    %rcx,0x60(%rdx)
  107aa0:	48 89 5a 68          	mov    %rbx,0x68(%rdx)
  107aa4:	48 8b 88 80 00 00 00 	mov    0x80(%rax),%rcx
  107aab:	48 8b 98 88 00 00 00 	mov    0x88(%rax),%rbx
  107ab2:	48 89 4a 70          	mov    %rcx,0x70(%rdx)
  107ab6:	48 89 5a 78          	mov    %rbx,0x78(%rdx)
  107aba:	48 8b 88 90 00 00 00 	mov    0x90(%rax),%rcx
  107ac1:	48 8b 98 98 00 00 00 	mov    0x98(%rax),%rbx
  107ac8:	48 89 8a 80 00 00 00 	mov    %rcx,0x80(%rdx)
  107acf:	48 89 9a 88 00 00 00 	mov    %rbx,0x88(%rdx)
  107ad6:	8b 80 a0 00 00 00    	mov    0xa0(%rax),%eax
  107adc:	89 82 90 00 00 00    	mov    %eax,0x90(%rdx)
  107ae2:	4c 89 c9             	mov    %r9,%rcx
  107ae5:	4c 89 c2             	mov    %r8,%rdx
  107ae8:	e8 1b 22 00 00       	callq  109d08 <_ZN11FAT32Driver8ReadFileE8DirEntrymPvm>
  107aed:	48 81 c4 a0 00 00 00 	add    $0xa0,%rsp
  107af4:	48 8b 45 d0          	mov    -0x30(%rbp),%rax
  107af8:	48 8b 50 08          	mov    0x8(%rax),%rdx
  107afc:	48 8b 45 c0          	mov    -0x40(%rbp),%rax
  107b00:	48 01 c2             	add    %rax,%rdx
  107b03:	48 8b 45 d0          	mov    -0x30(%rbp),%rax
  107b07:	48 89 50 08          	mov    %rdx,0x8(%rax)
  107b0b:	b8 00 00 00 00       	mov    $0x0,%eax
  107b10:	48 8b 5d f8          	mov    -0x8(%rbp),%rbx
  107b14:	c9                   	leaveq 
  107b15:	c3                   	retq   

0000000000107b16 <_ZN5FAT325WriteEP10ActiveFilePvm>:
  107b16:	f3 0f 1e fa          	endbr64 
  107b1a:	55                   	push   %rbp
  107b1b:	48 89 e5             	mov    %rsp,%rbp
  107b1e:	53                   	push   %rbx
  107b1f:	48 83 ec 38          	sub    $0x38,%rsp
  107b23:	48 89 7d d8          	mov    %rdi,-0x28(%rbp)
  107b27:	48 89 75 d0          	mov    %rsi,-0x30(%rbp)
  107b2b:	48 89 55 c8          	mov    %rdx,-0x38(%rbp)
  107b2f:	48 89 4d c0          	mov    %rcx,-0x40(%rbp)
  107b33:	48 8b 45 d0          	mov    -0x30(%rbp),%rax
  107b37:	48 8b 40 08          	mov    0x8(%rax),%rax
  107b3b:	48 89 45 e8          	mov    %rax,-0x18(%rbp)
  107b3f:	48 8b 45 d8          	mov    -0x28(%rbp),%rax
  107b43:	48 8b 78 18          	mov    0x18(%rax),%rdi
  107b47:	4c 8b 4d c0          	mov    -0x40(%rbp),%r9
  107b4b:	4c 8b 45 c8          	mov    -0x38(%rbp),%r8
  107b4f:	48 8b 75 e8          	mov    -0x18(%rbp),%rsi
  107b53:	48 83 ec 08          	sub    $0x8,%rsp
  107b57:	48 8b 45 d0          	mov    -0x30(%rbp),%rax
  107b5b:	48 81 ec 98 00 00 00 	sub    $0x98,%rsp
  107b62:	48 89 e2             	mov    %rsp,%rdx
  107b65:	48 8b 48 10          	mov    0x10(%rax),%rcx
  107b69:	48 8b 58 18          	mov    0x18(%rax),%rbx
  107b6d:	48 89 0a             	mov    %rcx,(%rdx)
  107b70:	48 89 5a 08          	mov    %rbx,0x8(%rdx)
  107b74:	48 8b 48 20          	mov    0x20(%rax),%rcx
  107b78:	48 8b 58 28          	mov    0x28(%rax),%rbx
  107b7c:	48 89 4a 10          	mov    %rcx,0x10(%rdx)
  107b80:	48 89 5a 18          	mov    %rbx,0x18(%rdx)
  107b84:	48 8b 48 30          	mov    0x30(%rax),%rcx
  107b88:	48 8b 58 38          	mov    0x38(%rax),%rbx
  107b8c:	48 89 4a 20          	mov    %rcx,0x20(%rdx)
  107b90:	48 89 5a 28          	mov    %rbx,0x28(%rdx)
  107b94:	48 8b 48 40          	mov    0x40(%rax),%rcx
  107b98:	48 8b 58 48          	mov    0x48(%rax),%rbx
  107b9c:	48 89 4a 30          	mov    %rcx,0x30(%rdx)
  107ba0:	48 89 5a 38          	mov    %rbx,0x38(%rdx)
  107ba4:	48 8b 48 50          	mov    0x50(%rax),%rcx
  107ba8:	48 8b 58 58          	mov    0x58(%rax),%rbx
  107bac:	48 89 4a 40          	mov    %rcx,0x40(%rdx)
  107bb0:	48 89 5a 48          	mov    %rbx,0x48(%rdx)
  107bb4:	48 8b 48 60          	mov    0x60(%rax),%rcx
  107bb8:	48 8b 58 68          	mov    0x68(%rax),%rbx
  107bbc:	48 89 4a 50          	mov    %rcx,0x50(%rdx)
  107bc0:	48 89 5a 58          	mov    %rbx,0x58(%rdx)
  107bc4:	48 8b 48 70          	mov    0x70(%rax),%rcx
  107bc8:	48 8b 58 78          	mov    0x78(%rax),%rbx
  107bcc:	48 89 4a 60          	mov    %rcx,0x60(%rdx)
  107bd0:	48 89 5a 68          	mov    %rbx,0x68(%rdx)
  107bd4:	48 8b 88 80 00 00 00 	mov    0x80(%rax),%rcx
  107bdb:	48 8b 98 88 00 00 00 	mov    0x88(%rax),%rbx
  107be2:	48 89 4a 70          	mov    %rcx,0x70(%rdx)
  107be6:	48 89 5a 78          	mov    %rbx,0x78(%rdx)
  107bea:	48 8b 88 90 00 00 00 	mov    0x90(%rax),%rcx
  107bf1:	48 8b 98 98 00 00 00 	mov    0x98(%rax),%rbx
  107bf8:	48 89 8a 80 00 00 00 	mov    %rcx,0x80(%rdx)
  107bff:	48 89 9a 88 00 00 00 	mov    %rbx,0x88(%rdx)
  107c06:	8b 80 a0 00 00 00    	mov    0xa0(%rax),%eax
  107c0c:	89 82 90 00 00 00    	mov    %eax,0x90(%rdx)
  107c12:	4c 89 c9             	mov    %r9,%rcx
  107c15:	4c 89 c2             	mov    %r8,%rdx
  107c18:	e8 9d 22 00 00       	callq  109eba <_ZN11FAT32Driver9WriteFileE8DirEntrymPvm>
  107c1d:	48 81 c4 a0 00 00 00 	add    $0xa0,%rsp
  107c24:	48 8b 45 d0          	mov    -0x30(%rbp),%rax
  107c28:	48 8b 50 08          	mov    0x8(%rax),%rdx
  107c2c:	48 8b 45 c0          	mov    -0x40(%rbp),%rax
  107c30:	48 01 c2             	add    %rax,%rdx
  107c33:	48 8b 45 d0          	mov    -0x30(%rbp),%rax
  107c37:	48 89 50 08          	mov    %rdx,0x8(%rax)
  107c3b:	48 8b 45 d0          	mov    -0x30(%rbp),%rax
  107c3f:	8b 80 94 00 00 00    	mov    0x94(%rax),%eax
  107c45:	89 c2                	mov    %eax,%edx
  107c47:	48 8b 45 d0          	mov    -0x30(%rbp),%rax
  107c4b:	48 8b 40 08          	mov    0x8(%rax),%rax
  107c4f:	48 39 c2             	cmp    %rax,%rdx
  107c52:	73 14                	jae    107c68 <_ZN5FAT325WriteEP10ActiveFilePvm+0x152>
  107c54:	48 8b 45 d0          	mov    -0x30(%rbp),%rax
  107c58:	48 8b 40 08          	mov    0x8(%rax),%rax
  107c5c:	89 c2                	mov    %eax,%edx
  107c5e:	48 8b 45 d0          	mov    -0x30(%rbp),%rax
  107c62:	89 90 94 00 00 00    	mov    %edx,0x94(%rax)
  107c68:	b8 00 00 00 00       	mov    $0x0,%eax
  107c6d:	48 8b 5d f8          	mov    -0x8(%rbp),%rbx
  107c71:	c9                   	leaveq 
  107c72:	c3                   	retq   
  107c73:	90                   	nop

0000000000107c74 <_ZN11FAT32DriverC1EP6Devicej>:
  107c74:	f3 0f 1e fa          	endbr64 
  107c78:	55                   	push   %rbp
  107c79:	48 89 e5             	mov    %rsp,%rbp
  107c7c:	48 83 ec 40          	sub    $0x40,%rsp
  107c80:	48 89 7d d8          	mov    %rdi,-0x28(%rbp)
  107c84:	48 89 75 d0          	mov    %rsi,-0x30(%rbp)
  107c88:	89 55 cc             	mov    %edx,-0x34(%rbp)
  107c8b:	48 8b 45 d8          	mov    -0x28(%rbp),%rax
  107c8f:	48 8b 55 d0          	mov    -0x30(%rbp),%rdx
  107c93:	48 89 10             	mov    %rdx,(%rax)
  107c96:	48 8b 45 d8          	mov    -0x28(%rbp),%rax
  107c9a:	8b 55 cc             	mov    -0x34(%rbp),%edx
  107c9d:	89 50 08             	mov    %edx,0x8(%rax)
  107ca0:	48 c7 45 f8 00 06 00 	movq   $0x600,-0x8(%rbp)
  107ca7:	00 
  107ca8:	48 8b 45 d8          	mov    -0x28(%rbp),%rax
  107cac:	c7 40 08 00 00 00 00 	movl   $0x0,0x8(%rax)
  107cb3:	0f b6 05 66 fc 00 00 	movzbl 0xfc66(%rip),%eax        # 117920 <fromUEFI>
  107cba:	84 c0                	test   %al,%al
  107cbc:	75 29                	jne    107ce7 <_ZN11FAT32DriverC1EP6Devicej+0x73>
  107cbe:	48 c7 45 f0 be 01 00 	movq   $0x1be,-0x10(%rbp)
  107cc5:	00 
  107cc6:	48 8b 55 f8          	mov    -0x8(%rbp),%rdx
  107cca:	48 8b 45 f0          	mov    -0x10(%rbp),%rax
  107cce:	48 01 d0             	add    %rdx,%rax
  107cd1:	48 83 c0 10          	add    $0x10,%rax
  107cd5:	48 89 45 e8          	mov    %rax,-0x18(%rbp)
  107cd9:	48 8b 45 e8          	mov    -0x18(%rbp),%rax
  107cdd:	8b 50 08             	mov    0x8(%rax),%edx
  107ce0:	48 8b 45 d8          	mov    -0x28(%rbp),%rax
  107ce4:	89 50 08             	mov    %edx,0x8(%rax)
  107ce7:	bf 00 02 00 00       	mov    $0x200,%edi
  107cec:	e8 75 51 00 00       	callq  10ce66 <_Z7kmallocm>
  107cf1:	48 89 c2             	mov    %rax,%rdx
  107cf4:	48 8b 45 d8          	mov    -0x28(%rbp),%rax
  107cf8:	48 89 50 10          	mov    %rdx,0x10(%rax)
  107cfc:	48 8b 45 d0          	mov    -0x30(%rbp),%rax
  107d00:	48 8b 00             	mov    (%rax),%rax
  107d03:	48 83 c0 18          	add    $0x18,%rax
  107d07:	4c 8b 00             	mov    (%rax),%r8
  107d0a:	48 8b 45 d8          	mov    -0x28(%rbp),%rax
  107d0e:	48 8b 50 10          	mov    0x10(%rax),%rdx
  107d12:	48 8b 45 d8          	mov    -0x28(%rbp),%rax
  107d16:	8b 40 08             	mov    0x8(%rax),%eax
  107d19:	89 c6                	mov    %eax,%esi
  107d1b:	48 8b 45 d0          	mov    -0x30(%rbp),%rax
  107d1f:	b9 01 00 00 00       	mov    $0x1,%ecx
  107d24:	48 89 c7             	mov    %rax,%rdi
  107d27:	41 ff d0             	callq  *%r8
  107d2a:	48 8d 3d ff 93 00 00 	lea    0x93ff(%rip),%rdi        # 111130 <_ZL8sc_ascii+0xd0>
  107d31:	b8 00 00 00 00       	mov    $0x0,%eax
  107d36:	e8 d5 4a 00 00       	callq  10c810 <_Z7kprintfPKcz>
  107d3b:	48 8b 45 d8          	mov    -0x28(%rbp),%rax
  107d3f:	48 8b 40 10          	mov    0x10(%rax),%rax
  107d43:	0f b6 40 10          	movzbl 0x10(%rax),%eax
  107d47:	0f b6 d0             	movzbl %al,%edx
  107d4a:	48 8b 45 d8          	mov    -0x28(%rbp),%rax
  107d4e:	48 8b 40 10          	mov    0x10(%rax),%rax
  107d52:	8b 40 24             	mov    0x24(%rax),%eax
  107d55:	0f af d0             	imul   %eax,%edx
  107d58:	48 8b 45 d8          	mov    -0x28(%rbp),%rax
  107d5c:	48 8b 40 10          	mov    0x10(%rax),%rax
  107d60:	0f b7 40 0e          	movzwl 0xe(%rax),%eax
  107d64:	0f b7 c0             	movzwl %ax,%eax
  107d67:	01 c2                	add    %eax,%edx
  107d69:	48 8b 45 d8          	mov    -0x28(%rbp),%rax
  107d6d:	89 50 34             	mov    %edx,0x34(%rax)
  107d70:	48 8b 45 d8          	mov    -0x28(%rbp),%rax
  107d74:	48 8b 40 10          	mov    0x10(%rax),%rax
  107d78:	8b 50 2c             	mov    0x2c(%rax),%edx
  107d7b:	48 8b 45 d8          	mov    -0x28(%rbp),%rax
  107d7f:	89 50 38             	mov    %edx,0x38(%rax)
  107d82:	48 8b 45 d8          	mov    -0x28(%rbp),%rax
  107d86:	48 8b 40 10          	mov    0x10(%rax),%rax
  107d8a:	0f b7 40 13          	movzwl 0x13(%rax),%eax
  107d8e:	66 85 c0             	test   %ax,%ax
  107d91:	75 14                	jne    107da7 <_ZN11FAT32DriverC1EP6Devicej+0x133>
  107d93:	48 8b 45 d8          	mov    -0x28(%rbp),%rax
  107d97:	48 8b 40 10          	mov    0x10(%rax),%rax
  107d9b:	8b 50 20             	mov    0x20(%rax),%edx
  107d9e:	48 8b 45 d8          	mov    -0x28(%rbp),%rax
  107da2:	89 50 3c             	mov    %edx,0x3c(%rax)
  107da5:	eb 16                	jmp    107dbd <_ZN11FAT32DriverC1EP6Devicej+0x149>
  107da7:	48 8b 45 d8          	mov    -0x28(%rbp),%rax
  107dab:	48 8b 40 10          	mov    0x10(%rax),%rax
  107daf:	0f b7 40 13          	movzwl 0x13(%rax),%eax
  107db3:	0f b7 d0             	movzwl %ax,%edx
  107db6:	48 8b 45 d8          	mov    -0x28(%rbp),%rax
  107dba:	89 50 3c             	mov    %edx,0x3c(%rax)
  107dbd:	48 8b 45 d8          	mov    -0x28(%rbp),%rax
  107dc1:	8b 40 3c             	mov    0x3c(%rax),%eax
  107dc4:	48 8b 55 d8          	mov    -0x28(%rbp),%rdx
  107dc8:	48 8b 52 10          	mov    0x10(%rdx),%rdx
  107dcc:	0f b6 52 0d          	movzbl 0xd(%rdx),%edx
  107dd0:	0f b6 ca             	movzbl %dl,%ecx
  107dd3:	ba 00 00 00 00       	mov    $0x0,%edx
  107dd8:	f7 f1                	div    %ecx
  107dda:	89 c2                	mov    %eax,%edx
  107ddc:	48 8b 45 d8          	mov    -0x28(%rbp),%rax
  107de0:	89 50 40             	mov    %edx,0x40(%rax)
  107de3:	48 8b 45 d8          	mov    -0x28(%rbp),%rax
  107de7:	48 8b 40 10          	mov    0x10(%rax),%rax
  107deb:	0f b6 40 0d          	movzbl 0xd(%rax),%eax
  107def:	0f b6 d0             	movzbl %al,%edx
  107df2:	48 8b 45 d8          	mov    -0x28(%rbp),%rax
  107df6:	48 8b 40 10          	mov    0x10(%rax),%rax
  107dfa:	0f b7 40 0b          	movzwl 0xb(%rax),%eax
  107dfe:	0f b7 c0             	movzwl %ax,%eax
  107e01:	0f af c2             	imul   %edx,%eax
  107e04:	89 c2                	mov    %eax,%edx
  107e06:	48 8b 45 d8          	mov    -0x28(%rbp),%rax
  107e0a:	89 50 30             	mov    %edx,0x30(%rax)
  107e0d:	48 8b 45 d8          	mov    -0x28(%rbp),%rax
  107e11:	8b 40 30             	mov    0x30(%rax),%eax
  107e14:	89 c0                	mov    %eax,%eax
  107e16:	48 89 c7             	mov    %rax,%rdi
  107e19:	e8 48 50 00 00       	callq  10ce66 <_Z7kmallocm>
  107e1e:	48 89 c2             	mov    %rax,%rdx
  107e21:	48 8b 45 d8          	mov    -0x28(%rbp),%rax
  107e25:	48 89 50 18          	mov    %rdx,0x18(%rax)
  107e29:	48 8b 45 d8          	mov    -0x28(%rbp),%rax
  107e2d:	8b 40 30             	mov    0x30(%rax),%eax
  107e30:	89 c0                	mov    %eax,%eax
  107e32:	48 89 c7             	mov    %rax,%rdi
  107e35:	e8 2c 50 00 00       	callq  10ce66 <_Z7kmallocm>
  107e3a:	48 89 c2             	mov    %rax,%rdx
  107e3d:	48 8b 45 d8          	mov    -0x28(%rbp),%rax
  107e41:	48 89 50 20          	mov    %rdx,0x20(%rax)
  107e45:	48 8b 45 d8          	mov    -0x28(%rbp),%rax
  107e49:	48 8b 40 10          	mov    0x10(%rax),%rax
  107e4d:	8b 50 24             	mov    0x24(%rax),%edx
  107e50:	48 8b 45 d8          	mov    -0x28(%rbp),%rax
  107e54:	48 8b 40 10          	mov    0x10(%rax),%rax
  107e58:	0f b7 40 0b          	movzwl 0xb(%rax),%eax
  107e5c:	0f b7 c0             	movzwl %ax,%eax
  107e5f:	0f af c2             	imul   %edx,%eax
  107e62:	89 c0                	mov    %eax,%eax
  107e64:	48 89 c7             	mov    %rax,%rdi
  107e67:	e8 fa 4f 00 00       	callq  10ce66 <_Z7kmallocm>
  107e6c:	48 89 c2             	mov    %rax,%rdx
  107e6f:	48 8b 45 d8          	mov    -0x28(%rbp),%rax
  107e73:	48 89 50 28          	mov    %rdx,0x28(%rax)
  107e77:	48 8b 45 d0          	mov    -0x30(%rbp),%rax
  107e7b:	48 8b 00             	mov    (%rax),%rax
  107e7e:	48 83 c0 18          	add    $0x18,%rax
  107e82:	4c 8b 00             	mov    (%rax),%r8
  107e85:	48 8b 45 d8          	mov    -0x28(%rbp),%rax
  107e89:	48 8b 40 10          	mov    0x10(%rax),%rax
  107e8d:	8b 40 24             	mov    0x24(%rax),%eax
  107e90:	89 c7                	mov    %eax,%edi
  107e92:	48 8b 45 d8          	mov    -0x28(%rbp),%rax
  107e96:	48 8b 50 28          	mov    0x28(%rax),%rdx
  107e9a:	48 8b 45 d8          	mov    -0x28(%rbp),%rax
  107e9e:	8b 48 08             	mov    0x8(%rax),%ecx
  107ea1:	48 8b 45 d8          	mov    -0x28(%rbp),%rax
  107ea5:	48 8b 40 10          	mov    0x10(%rax),%rax
  107ea9:	0f b7 40 0e          	movzwl 0xe(%rax),%eax
  107ead:	0f b7 c0             	movzwl %ax,%eax
  107eb0:	01 c8                	add    %ecx,%eax
  107eb2:	89 c6                	mov    %eax,%esi
  107eb4:	48 8b 45 d0          	mov    -0x30(%rbp),%rax
  107eb8:	48 89 f9             	mov    %rdi,%rcx
  107ebb:	48 89 c7             	mov    %rax,%rdi
  107ebe:	41 ff d0             	callq  *%r8
  107ec1:	48 8d 3d a5 92 00 00 	lea    0x92a5(%rip),%rdi        # 11116d <_ZL8sc_ascii+0x10d>
  107ec8:	b8 00 00 00 00       	mov    $0x0,%eax
  107ecd:	e8 3e 49 00 00       	callq  10c810 <_Z7kprintfPKcz>
  107ed2:	48 8b 45 d8          	mov    -0x28(%rbp),%rax
  107ed6:	8b 40 34             	mov    0x34(%rax),%eax
  107ed9:	89 c6                	mov    %eax,%esi
  107edb:	48 8d 3d 99 92 00 00 	lea    0x9299(%rip),%rdi        # 11117b <_ZL8sc_ascii+0x11b>
  107ee2:	b8 00 00 00 00       	mov    $0x0,%eax
  107ee7:	e8 24 49 00 00       	callq  10c810 <_Z7kprintfPKcz>
  107eec:	48 8b 45 d8          	mov    -0x28(%rbp),%rax
  107ef0:	8b 40 38             	mov    0x38(%rax),%eax
  107ef3:	89 c6                	mov    %eax,%esi
  107ef5:	48 8d 3d 9c 92 00 00 	lea    0x929c(%rip),%rdi        # 111198 <_ZL8sc_ascii+0x138>
  107efc:	b8 00 00 00 00       	mov    $0x0,%eax
  107f01:	e8 0a 49 00 00       	callq  10c810 <_Z7kprintfPKcz>
  107f06:	48 8b 45 d8          	mov    -0x28(%rbp),%rax
  107f0a:	8b 40 3c             	mov    0x3c(%rax),%eax
  107f0d:	89 c6                	mov    %eax,%esi
  107f0f:	48 8d 3d a5 92 00 00 	lea    0x92a5(%rip),%rdi        # 1111bb <_ZL8sc_ascii+0x15b>
  107f16:	b8 00 00 00 00       	mov    $0x0,%eax
  107f1b:	e8 f0 48 00 00       	callq  10c810 <_Z7kprintfPKcz>
  107f20:	48 8b 45 d8          	mov    -0x28(%rbp),%rax
  107f24:	8b 40 40             	mov    0x40(%rax),%eax
  107f27:	89 c6                	mov    %eax,%esi
  107f29:	48 8d 3d a7 92 00 00 	lea    0x92a7(%rip),%rdi        # 1111d7 <_ZL8sc_ascii+0x177>
  107f30:	b8 00 00 00 00       	mov    $0x0,%eax
  107f35:	e8 d6 48 00 00       	callq  10c810 <_Z7kprintfPKcz>
  107f3a:	48 8b 45 d8          	mov    -0x28(%rbp),%rax
  107f3e:	8b 40 30             	mov    0x30(%rax),%eax
  107f41:	89 c6                	mov    %eax,%esi
  107f43:	48 8d 3d a6 92 00 00 	lea    0x92a6(%rip),%rdi        # 1111f0 <_ZL8sc_ascii+0x190>
  107f4a:	b8 00 00 00 00       	mov    $0x0,%eax
  107f4f:	e8 bc 48 00 00       	callq  10c810 <_Z7kprintfPKcz>
  107f54:	90                   	nop
  107f55:	c9                   	leaveq 
  107f56:	c3                   	retq   
  107f57:	90                   	nop

0000000000107f58 <_ZN11FAT32DriverD1Ev>:
  107f58:	f3 0f 1e fa          	endbr64 
  107f5c:	55                   	push   %rbp
  107f5d:	48 89 e5             	mov    %rsp,%rbp
  107f60:	48 83 ec 20          	sub    $0x20,%rsp
  107f64:	48 89 7d e8          	mov    %rdi,-0x18(%rbp)
  107f68:	48 8b 45 e8          	mov    -0x18(%rbp),%rax
  107f6c:	48 8b 00             	mov    (%rax),%rax
  107f6f:	48 8b 55 e8          	mov    -0x18(%rbp),%rdx
  107f73:	48 8b 12             	mov    (%rdx),%rdx
  107f76:	48 8b 12             	mov    (%rdx),%rdx
  107f79:	48 83 c2 20          	add    $0x20,%rdx
  107f7d:	4c 8b 02             	mov    (%rdx),%r8
  107f80:	48 8b 55 e8          	mov    -0x18(%rbp),%rdx
  107f84:	48 8b 52 10          	mov    0x10(%rdx),%rdx
  107f88:	48 8b 4d e8          	mov    -0x18(%rbp),%rcx
  107f8c:	8b 49 08             	mov    0x8(%rcx),%ecx
  107f8f:	89 ce                	mov    %ecx,%esi
  107f91:	b9 01 00 00 00       	mov    $0x1,%ecx
  107f96:	48 89 c7             	mov    %rax,%rdi
  107f99:	41 ff d0             	callq  *%r8
  107f9c:	48 8b 45 e8          	mov    -0x18(%rbp),%rax
  107fa0:	48 8b 00             	mov    (%rax),%rax
  107fa3:	48 8b 55 e8          	mov    -0x18(%rbp),%rdx
  107fa7:	48 8b 12             	mov    (%rdx),%rdx
  107faa:	48 8b 12             	mov    (%rdx),%rdx
  107fad:	48 83 c2 20          	add    $0x20,%rdx
  107fb1:	4c 8b 02             	mov    (%rdx),%r8
  107fb4:	48 8b 55 e8          	mov    -0x18(%rbp),%rdx
  107fb8:	48 8b 52 10          	mov    0x10(%rdx),%rdx
  107fbc:	48 8b 4d e8          	mov    -0x18(%rbp),%rcx
  107fc0:	8b 71 08             	mov    0x8(%rcx),%esi
  107fc3:	48 8b 4d e8          	mov    -0x18(%rbp),%rcx
  107fc7:	48 8b 49 10          	mov    0x10(%rcx),%rcx
  107fcb:	0f b7 49 32          	movzwl 0x32(%rcx),%ecx
  107fcf:	0f b7 c9             	movzwl %cx,%ecx
  107fd2:	01 f1                	add    %esi,%ecx
  107fd4:	89 ce                	mov    %ecx,%esi
  107fd6:	b9 01 00 00 00       	mov    $0x1,%ecx
  107fdb:	48 89 c7             	mov    %rax,%rdi
  107fde:	41 ff d0             	callq  *%r8
  107fe1:	c7 45 fc 00 00 00 00 	movl   $0x0,-0x4(%rbp)
  107fe8:	48 8b 45 e8          	mov    -0x18(%rbp),%rax
  107fec:	48 8b 40 10          	mov    0x10(%rax),%rax
  107ff0:	0f b6 40 10          	movzbl 0x10(%rax),%eax
  107ff4:	0f b6 c0             	movzbl %al,%eax
  107ff7:	39 45 fc             	cmp    %eax,-0x4(%rbp)
  107ffa:	73 67                	jae    108063 <_ZN11FAT32DriverD1Ev+0x10b>
  107ffc:	48 8b 45 e8          	mov    -0x18(%rbp),%rax
  108000:	48 8b 00             	mov    (%rax),%rax
  108003:	48 8b 55 e8          	mov    -0x18(%rbp),%rdx
  108007:	48 8b 12             	mov    (%rdx),%rdx
  10800a:	48 8b 12             	mov    (%rdx),%rdx
  10800d:	48 83 c2 20          	add    $0x20,%rdx
  108011:	4c 8b 02             	mov    (%rdx),%r8
  108014:	48 8b 55 e8          	mov    -0x18(%rbp),%rdx
  108018:	48 8b 52 10          	mov    0x10(%rdx),%rdx
  10801c:	8b 52 24             	mov    0x24(%rdx),%edx
  10801f:	89 d7                	mov    %edx,%edi
  108021:	48 8b 55 e8          	mov    -0x18(%rbp),%rdx
  108025:	48 8b 52 28          	mov    0x28(%rdx),%rdx
  108029:	48 8b 4d e8          	mov    -0x18(%rbp),%rcx
  10802d:	8b 71 08             	mov    0x8(%rcx),%esi
  108030:	48 8b 4d e8          	mov    -0x18(%rbp),%rcx
  108034:	48 8b 49 10          	mov    0x10(%rcx),%rcx
  108038:	0f b7 49 0e          	movzwl 0xe(%rcx),%ecx
  10803c:	0f b7 c9             	movzwl %cx,%ecx
  10803f:	01 ce                	add    %ecx,%esi
  108041:	48 8b 4d e8          	mov    -0x18(%rbp),%rcx
  108045:	48 8b 49 10          	mov    0x10(%rcx),%rcx
  108049:	8b 49 24             	mov    0x24(%rcx),%ecx
  10804c:	0f af 4d fc          	imul   -0x4(%rbp),%ecx
  108050:	01 f1                	add    %esi,%ecx
  108052:	89 ce                	mov    %ecx,%esi
  108054:	48 89 f9             	mov    %rdi,%rcx
  108057:	48 89 c7             	mov    %rax,%rdi
  10805a:	41 ff d0             	callq  *%r8
  10805d:	83 45 fc 01          	addl   $0x1,-0x4(%rbp)
  108061:	eb 85                	jmp    107fe8 <_ZN11FAT32DriverD1Ev+0x90>
  108063:	48 8b 45 e8          	mov    -0x18(%rbp),%rax
  108067:	48 8b 40 18          	mov    0x18(%rax),%rax
  10806b:	48 89 c7             	mov    %rax,%rdi
  10806e:	e8 4b 4d 00 00       	callq  10cdbe <_Z5kfreePv>
  108073:	48 8b 45 e8          	mov    -0x18(%rbp),%rax
  108077:	48 8b 40 20          	mov    0x20(%rax),%rax
  10807b:	48 89 c7             	mov    %rax,%rdi
  10807e:	e8 3b 4d 00 00       	callq  10cdbe <_Z5kfreePv>
  108083:	48 8b 45 e8          	mov    -0x18(%rbp),%rax
  108087:	48 8b 40 28          	mov    0x28(%rax),%rax
  10808b:	48 89 c7             	mov    %rax,%rdi
  10808e:	e8 2b 4d 00 00       	callq  10cdbe <_Z5kfreePv>
  108093:	48 8b 45 e8          	mov    -0x18(%rbp),%rax
  108097:	48 8b 40 10          	mov    0x10(%rax),%rax
  10809b:	48 89 c7             	mov    %rax,%rdi
  10809e:	e8 1b 4d 00 00       	callq  10cdbe <_Z5kfreePv>
  1080a3:	90                   	nop
  1080a4:	c9                   	leaveq 
  1080a5:	c3                   	retq   

00000000001080a6 <_ZN11FAT32Driver7ReadFATEj>:
  1080a6:	f3 0f 1e fa          	endbr64 
  1080aa:	55                   	push   %rbp
  1080ab:	48 89 e5             	mov    %rsp,%rbp
  1080ae:	48 83 ec 10          	sub    $0x10,%rsp
  1080b2:	48 89 7d f8          	mov    %rdi,-0x8(%rbp)
  1080b6:	89 75 f4             	mov    %esi,-0xc(%rbp)
  1080b9:	83 7d f4 01          	cmpl   $0x1,-0xc(%rbp)
  1080bd:	76 0c                	jbe    1080cb <_ZN11FAT32Driver7ReadFATEj+0x25>
  1080bf:	48 8b 45 f8          	mov    -0x8(%rbp),%rax
  1080c3:	8b 40 40             	mov    0x40(%rax),%eax
  1080c6:	39 45 f4             	cmp    %eax,-0xc(%rbp)
  1080c9:	76 07                	jbe    1080d2 <_ZN11FAT32Driver7ReadFATEj+0x2c>
  1080cb:	b8 ff ff ff ff       	mov    $0xffffffff,%eax
  1080d0:	eb 19                	jmp    1080eb <_ZN11FAT32Driver7ReadFATEj+0x45>
  1080d2:	48 8b 45 f8          	mov    -0x8(%rbp),%rax
  1080d6:	48 8b 40 28          	mov    0x28(%rax),%rax
  1080da:	8b 55 f4             	mov    -0xc(%rbp),%edx
  1080dd:	48 c1 e2 02          	shl    $0x2,%rdx
  1080e1:	48 01 d0             	add    %rdx,%rax
  1080e4:	8b 00                	mov    (%rax),%eax
  1080e6:	25 ff ff ff 0f       	and    $0xfffffff,%eax
  1080eb:	c9                   	leaveq 
  1080ec:	c3                   	retq   
  1080ed:	90                   	nop

00000000001080ee <_ZN11FAT32Driver8WriteFATEjj>:
  1080ee:	f3 0f 1e fa          	endbr64 
  1080f2:	55                   	push   %rbp
  1080f3:	48 89 e5             	mov    %rsp,%rbp
  1080f6:	48 83 ec 10          	sub    $0x10,%rsp
  1080fa:	48 89 7d f8          	mov    %rdi,-0x8(%rbp)
  1080fe:	89 75 f4             	mov    %esi,-0xc(%rbp)
  108101:	89 55 f0             	mov    %edx,-0x10(%rbp)
  108104:	83 7d f4 01          	cmpl   $0x1,-0xc(%rbp)
  108108:	76 0c                	jbe    108116 <_ZN11FAT32Driver8WriteFATEjj+0x28>
  10810a:	48 8b 45 f8          	mov    -0x8(%rbp),%rax
  10810e:	8b 40 40             	mov    0x40(%rax),%eax
  108111:	39 45 f4             	cmp    %eax,-0xc(%rbp)
  108114:	76 07                	jbe    10811d <_ZN11FAT32Driver8WriteFATEjj+0x2f>
  108116:	b8 ff ff ff ff       	mov    $0xffffffff,%eax
  10811b:	eb 67                	jmp    108184 <_ZN11FAT32Driver8WriteFATEjj+0x96>
  10811d:	48 8b 45 f8          	mov    -0x8(%rbp),%rax
  108121:	48 8b 40 28          	mov    0x28(%rax),%rax
  108125:	8b 55 f4             	mov    -0xc(%rbp),%edx
  108128:	48 c1 e2 02          	shl    $0x2,%rdx
  10812c:	48 01 d0             	add    %rdx,%rax
  10812f:	8b 10                	mov    (%rax),%edx
  108131:	48 8b 45 f8          	mov    -0x8(%rbp),%rax
  108135:	48 8b 40 28          	mov    0x28(%rax),%rax
  108139:	8b 4d f4             	mov    -0xc(%rbp),%ecx
  10813c:	48 c1 e1 02          	shl    $0x2,%rcx
  108140:	48 01 c8             	add    %rcx,%rax
  108143:	81 e2 00 00 00 f0    	and    $0xf0000000,%edx
  108149:	89 10                	mov    %edx,(%rax)
  10814b:	48 8b 45 f8          	mov    -0x8(%rbp),%rax
  10814f:	48 8b 40 28          	mov    0x28(%rax),%rax
  108153:	8b 55 f4             	mov    -0xc(%rbp),%edx
  108156:	48 c1 e2 02          	shl    $0x2,%rdx
  10815a:	48 01 d0             	add    %rdx,%rax
  10815d:	8b 10                	mov    (%rax),%edx
  10815f:	8b 45 f0             	mov    -0x10(%rbp),%eax
  108162:	25 ff ff ff 0f       	and    $0xfffffff,%eax
  108167:	89 c6                	mov    %eax,%esi
  108169:	48 8b 45 f8          	mov    -0x8(%rbp),%rax
  10816d:	48 8b 40 28          	mov    0x28(%rax),%rax
  108171:	8b 4d f4             	mov    -0xc(%rbp),%ecx
  108174:	48 c1 e1 02          	shl    $0x2,%rcx
  108178:	48 01 c8             	add    %rcx,%rax
  10817b:	09 f2                	or     %esi,%edx
  10817d:	89 10                	mov    %edx,(%rax)
  10817f:	b8 00 00 00 00       	mov    $0x0,%eax
  108184:	c9                   	leaveq 
  108185:	c3                   	retq   

0000000000108186 <_ZN11FAT32Driver11ReadClusterEjPv>:
  108186:	f3 0f 1e fa          	endbr64 
  10818a:	55                   	push   %rbp
  10818b:	48 89 e5             	mov    %rsp,%rbp
  10818e:	48 83 ec 30          	sub    $0x30,%rsp
  108192:	48 89 7d e8          	mov    %rdi,-0x18(%rbp)
  108196:	89 75 e4             	mov    %esi,-0x1c(%rbp)
  108199:	48 89 55 d8          	mov    %rdx,-0x28(%rbp)
  10819d:	83 7d e4 01          	cmpl   $0x1,-0x1c(%rbp)
  1081a1:	76 0c                	jbe    1081af <_ZN11FAT32Driver11ReadClusterEjPv+0x29>
  1081a3:	48 8b 45 e8          	mov    -0x18(%rbp),%rax
  1081a7:	8b 40 40             	mov    0x40(%rax),%eax
  1081aa:	39 45 e4             	cmp    %eax,-0x1c(%rbp)
  1081ad:	76 07                	jbe    1081b6 <_ZN11FAT32Driver11ReadClusterEjPv+0x30>
  1081af:	b8 ff ff ff ff       	mov    $0xffffffff,%eax
  1081b4:	eb 78                	jmp    10822e <_ZN11FAT32Driver11ReadClusterEjPv+0xa8>
  1081b6:	8b 45 e4             	mov    -0x1c(%rbp),%eax
  1081b9:	8d 50 fe             	lea    -0x2(%rax),%edx
  1081bc:	48 8b 45 e8          	mov    -0x18(%rbp),%rax
  1081c0:	48 8b 40 10          	mov    0x10(%rax),%rax
  1081c4:	0f b6 40 0d          	movzbl 0xd(%rax),%eax
  1081c8:	0f b6 c0             	movzbl %al,%eax
  1081cb:	0f af d0             	imul   %eax,%edx
  1081ce:	48 8b 45 e8          	mov    -0x18(%rbp),%rax
  1081d2:	8b 40 34             	mov    0x34(%rax),%eax
  1081d5:	01 d0                	add    %edx,%eax
  1081d7:	89 45 fc             	mov    %eax,-0x4(%rbp)
  1081da:	48 8b 45 e8          	mov    -0x18(%rbp),%rax
  1081de:	48 8b 38             	mov    (%rax),%rdi
  1081e1:	48 8b 45 e8          	mov    -0x18(%rbp),%rax
  1081e5:	48 8b 00             	mov    (%rax),%rax
  1081e8:	48 8b 00             	mov    (%rax),%rax
  1081eb:	48 83 c0 18          	add    $0x18,%rax
  1081ef:	4c 8b 00             	mov    (%rax),%r8
  1081f2:	48 8b 45 e8          	mov    -0x18(%rbp),%rax
  1081f6:	8b 40 30             	mov    0x30(%rax),%eax
  1081f9:	48 8b 55 e8          	mov    -0x18(%rbp),%rdx
  1081fd:	48 8b 52 10          	mov    0x10(%rdx),%rdx
  108201:	0f b7 52 0b          	movzwl 0xb(%rdx),%edx
  108205:	0f b7 ca             	movzwl %dx,%ecx
  108208:	ba 00 00 00 00       	mov    $0x0,%edx
  10820d:	f7 f1                	div    %ecx
  10820f:	89 c1                	mov    %eax,%ecx
  108211:	48 8b 45 e8          	mov    -0x18(%rbp),%rax
  108215:	8b 50 08             	mov    0x8(%rax),%edx
  108218:	8b 45 fc             	mov    -0x4(%rbp),%eax
  10821b:	01 d0                	add    %edx,%eax
  10821d:	89 c6                	mov    %eax,%esi
  10821f:	48 8b 45 d8          	mov    -0x28(%rbp),%rax
  108223:	48 89 c2             	mov    %rax,%rdx
  108226:	41 ff d0             	callq  *%r8
  108229:	b8 00 00 00 00       	mov    $0x0,%eax
  10822e:	c9                   	leaveq 
  10822f:	c3                   	retq   

0000000000108230 <_ZN11FAT32Driver12WriteClusterEjPv>:
  108230:	f3 0f 1e fa          	endbr64 
  108234:	55                   	push   %rbp
  108235:	48 89 e5             	mov    %rsp,%rbp
  108238:	48 83 ec 30          	sub    $0x30,%rsp
  10823c:	48 89 7d e8          	mov    %rdi,-0x18(%rbp)
  108240:	89 75 e4             	mov    %esi,-0x1c(%rbp)
  108243:	48 89 55 d8          	mov    %rdx,-0x28(%rbp)
  108247:	83 7d e4 01          	cmpl   $0x1,-0x1c(%rbp)
  10824b:	76 0c                	jbe    108259 <_ZN11FAT32Driver12WriteClusterEjPv+0x29>
  10824d:	48 8b 45 e8          	mov    -0x18(%rbp),%rax
  108251:	8b 40 40             	mov    0x40(%rax),%eax
  108254:	39 45 e4             	cmp    %eax,-0x1c(%rbp)
  108257:	76 07                	jbe    108260 <_ZN11FAT32Driver12WriteClusterEjPv+0x30>
  108259:	b8 ff ff ff ff       	mov    $0xffffffff,%eax
  10825e:	eb 78                	jmp    1082d8 <_ZN11FAT32Driver12WriteClusterEjPv+0xa8>
  108260:	8b 45 e4             	mov    -0x1c(%rbp),%eax
  108263:	8d 50 fe             	lea    -0x2(%rax),%edx
  108266:	48 8b 45 e8          	mov    -0x18(%rbp),%rax
  10826a:	48 8b 40 10          	mov    0x10(%rax),%rax
  10826e:	0f b6 40 0d          	movzbl 0xd(%rax),%eax
  108272:	0f b6 c0             	movzbl %al,%eax
  108275:	0f af d0             	imul   %eax,%edx
  108278:	48 8b 45 e8          	mov    -0x18(%rbp),%rax
  10827c:	8b 40 34             	mov    0x34(%rax),%eax
  10827f:	01 d0                	add    %edx,%eax
  108281:	89 45 fc             	mov    %eax,-0x4(%rbp)
  108284:	48 8b 45 e8          	mov    -0x18(%rbp),%rax
  108288:	48 8b 38             	mov    (%rax),%rdi
  10828b:	48 8b 45 e8          	mov    -0x18(%rbp),%rax
  10828f:	48 8b 00             	mov    (%rax),%rax
  108292:	48 8b 00             	mov    (%rax),%rax
  108295:	48 83 c0 20          	add    $0x20,%rax
  108299:	4c 8b 00             	mov    (%rax),%r8
  10829c:	48 8b 45 e8          	mov    -0x18(%rbp),%rax
  1082a0:	8b 40 30             	mov    0x30(%rax),%eax
  1082a3:	48 8b 55 e8          	mov    -0x18(%rbp),%rdx
  1082a7:	48 8b 52 10          	mov    0x10(%rdx),%rdx
  1082ab:	0f b7 52 0b          	movzwl 0xb(%rdx),%edx
  1082af:	0f b7 ca             	movzwl %dx,%ecx
  1082b2:	ba 00 00 00 00       	mov    $0x0,%edx
  1082b7:	f7 f1                	div    %ecx
  1082b9:	89 c1                	mov    %eax,%ecx
  1082bb:	48 8b 45 e8          	mov    -0x18(%rbp),%rax
  1082bf:	8b 50 08             	mov    0x8(%rax),%edx
  1082c2:	8b 45 fc             	mov    -0x4(%rbp),%eax
  1082c5:	01 d0                	add    %edx,%eax
  1082c7:	89 c6                	mov    %eax,%esi
  1082c9:	48 8b 45 d8          	mov    -0x28(%rbp),%rax
  1082cd:	48 89 c2             	mov    %rax,%rdx
  1082d0:	41 ff d0             	callq  *%r8
  1082d3:	b8 00 00 00 00       	mov    $0x0,%eax
  1082d8:	c9                   	leaveq 
  1082d9:	c3                   	retq   

00000000001082da <_ZN11FAT32Driver15GetClusterChainEj>:
  1082da:	f3 0f 1e fa          	endbr64 
  1082de:	55                   	push   %rbp
  1082df:	48 89 e5             	mov    %rsp,%rbp
  1082e2:	48 83 ec 50          	sub    $0x50,%rsp
  1082e6:	48 89 7d c8          	mov    %rdi,-0x38(%rbp)
  1082ea:	48 89 75 c0          	mov    %rsi,-0x40(%rbp)
  1082ee:	89 55 bc             	mov    %edx,-0x44(%rbp)
  1082f1:	8b 45 bc             	mov    -0x44(%rbp),%eax
  1082f4:	83 f8 01             	cmp    $0x1,%eax
  1082f7:	76 0e                	jbe    108307 <_ZN11FAT32Driver15GetClusterChainEj+0x2d>
  1082f9:	48 8b 45 c0          	mov    -0x40(%rbp),%rax
  1082fd:	8b 50 40             	mov    0x40(%rax),%edx
  108300:	8b 45 bc             	mov    -0x44(%rbp),%eax
  108303:	39 c2                	cmp    %eax,%edx
  108305:	73 11                	jae    108318 <_ZN11FAT32Driver15GetClusterChainEj+0x3e>
  108307:	48 8b 45 c8          	mov    -0x38(%rbp),%rax
  10830b:	48 89 c7             	mov    %rax,%rdi
  10830e:	e8 ed 60 00 00       	callq  10e400 <_ZN6vectorIjEC1Ev>
  108313:	e9 90 00 00 00       	jmpq   1083a8 <_ZN11FAT32Driver15GetClusterChainEj+0xce>
  108318:	48 8d 45 e0          	lea    -0x20(%rbp),%rax
  10831c:	48 89 c7             	mov    %rax,%rdi
  10831f:	e8 dc 60 00 00       	callq  10e400 <_ZN6vectorIjEC1Ev>
  108324:	48 8d 55 bc          	lea    -0x44(%rbp),%rdx
  108328:	48 8d 45 e0          	lea    -0x20(%rbp),%rax
  10832c:	48 89 d6             	mov    %rdx,%rsi
  10832f:	48 89 c7             	mov    %rax,%rdi
  108332:	e8 39 61 00 00       	callq  10e470 <_ZN6vectorIjE9push_backERKj>
  108337:	8b 45 bc             	mov    -0x44(%rbp),%eax
  10833a:	89 45 dc             	mov    %eax,-0x24(%rbp)
  10833d:	8b 55 dc             	mov    -0x24(%rbp),%edx
  108340:	48 8b 45 c0          	mov    -0x40(%rbp),%rax
  108344:	89 d6                	mov    %edx,%esi
  108346:	48 89 c7             	mov    %rax,%rdi
  108349:	e8 58 fd ff ff       	callq  1080a6 <_ZN11FAT32Driver7ReadFATEj>
  10834e:	89 45 dc             	mov    %eax,-0x24(%rbp)
  108351:	8b 45 dc             	mov    -0x24(%rbp),%eax
  108354:	3d f7 ff ff 0f       	cmp    $0xffffff7,%eax
  108359:	75 0e                	jne    108369 <_ZN11FAT32Driver15GetClusterChainEj+0x8f>
  10835b:	48 8b 45 c8          	mov    -0x38(%rbp),%rax
  10835f:	48 89 c7             	mov    %rax,%rdi
  108362:	e8 99 60 00 00       	callq  10e400 <_ZN6vectorIjEC1Ev>
  108367:	eb 33                	jmp    10839c <_ZN11FAT32Driver15GetClusterChainEj+0xc2>
  108369:	8b 45 dc             	mov    -0x24(%rbp),%eax
  10836c:	3d f7 ff ff 0f       	cmp    $0xffffff7,%eax
  108371:	77 15                	ja     108388 <_ZN11FAT32Driver15GetClusterChainEj+0xae>
  108373:	48 8d 55 dc          	lea    -0x24(%rbp),%rdx
  108377:	48 8d 45 e0          	lea    -0x20(%rbp),%rax
  10837b:	48 89 d6             	mov    %rdx,%rsi
  10837e:	48 89 c7             	mov    %rax,%rdi
  108381:	e8 ea 60 00 00       	callq  10e470 <_ZN6vectorIjE9push_backERKj>
  108386:	eb b5                	jmp    10833d <_ZN11FAT32Driver15GetClusterChainEj+0x63>
  108388:	90                   	nop
  108389:	48 8d 55 e0          	lea    -0x20(%rbp),%rdx
  10838d:	48 8b 45 c8          	mov    -0x38(%rbp),%rax
  108391:	48 89 d6             	mov    %rdx,%rsi
  108394:	48 89 c7             	mov    %rax,%rdi
  108397:	e8 46 61 00 00       	callq  10e4e2 <_ZN6vectorIjEC1ERKS0_>
  10839c:	48 8d 45 e0          	lea    -0x20(%rbp),%rax
  1083a0:	48 89 c7             	mov    %rax,%rdi
  1083a3:	e8 98 60 00 00       	callq  10e440 <_ZN6vectorIjED1Ev>
  1083a8:	48 8b 45 c8          	mov    -0x38(%rbp),%rax
  1083ac:	c9                   	leaveq 
  1083ad:	c3                   	retq   

00000000001083ae <_ZN11FAT32Driver20AllocateClusterChainEj>:
  1083ae:	f3 0f 1e fa          	endbr64 
  1083b2:	55                   	push   %rbp
  1083b3:	48 89 e5             	mov    %rsp,%rbp
  1083b6:	48 83 ec 30          	sub    $0x30,%rsp
  1083ba:	48 89 7d d8          	mov    %rdi,-0x28(%rbp)
  1083be:	89 75 d4             	mov    %esi,-0x2c(%rbp)
  1083c1:	c7 45 fc 00 00 00 00 	movl   $0x0,-0x4(%rbp)
  1083c8:	c7 45 f8 02 00 00 00 	movl   $0x2,-0x8(%rbp)
  1083cf:	8b 45 f8             	mov    -0x8(%rbp),%eax
  1083d2:	89 45 f4             	mov    %eax,-0xc(%rbp)
  1083d5:	c7 45 f0 00 00 00 00 	movl   $0x0,-0x10(%rbp)
  1083dc:	c7 45 ec 00 00 00 00 	movl   $0x0,-0x14(%rbp)
  1083e3:	8b 45 fc             	mov    -0x4(%rbp),%eax
  1083e6:	3b 45 d4             	cmp    -0x2c(%rbp),%eax
  1083e9:	0f 83 a4 00 00 00    	jae    108493 <_ZN11FAT32Driver20AllocateClusterChainEj+0xe5>
  1083ef:	48 8b 45 d8          	mov    -0x28(%rbp),%rax
  1083f3:	8b 40 40             	mov    0x40(%rax),%eax
  1083f6:	39 45 f8             	cmp    %eax,-0x8(%rbp)
  1083f9:	72 0a                	jb     108405 <_ZN11FAT32Driver20AllocateClusterChainEj+0x57>
  1083fb:	b8 f7 ff ff 0f       	mov    $0xffffff7,%eax
  108400:	e9 91 00 00 00       	jmpq   108496 <_ZN11FAT32Driver20AllocateClusterChainEj+0xe8>
  108405:	8b 55 f8             	mov    -0x8(%rbp),%edx
  108408:	48 8b 45 d8          	mov    -0x28(%rbp),%rax
  10840c:	89 d6                	mov    %edx,%esi
  10840e:	48 89 c7             	mov    %rax,%rdi
  108411:	e8 90 fc ff ff       	callq  1080a6 <_ZN11FAT32Driver7ReadFATEj>
  108416:	89 45 ec             	mov    %eax,-0x14(%rbp)
  108419:	83 7d ec 00          	cmpl   $0x0,-0x14(%rbp)
  10841d:	75 6b                	jne    10848a <_ZN11FAT32Driver20AllocateClusterChainEj+0xdc>
  10841f:	83 7d fc 00          	cmpl   $0x0,-0x4(%rbp)
  108423:	74 24                	je     108449 <_ZN11FAT32Driver20AllocateClusterChainEj+0x9b>
  108425:	8b 55 f8             	mov    -0x8(%rbp),%edx
  108428:	8b 4d f4             	mov    -0xc(%rbp),%ecx
  10842b:	48 8b 45 d8          	mov    -0x28(%rbp),%rax
  10842f:	89 ce                	mov    %ecx,%esi
  108431:	48 89 c7             	mov    %rax,%rdi
  108434:	e8 b5 fc ff ff       	callq  1080ee <_ZN11FAT32Driver8WriteFATEjj>
  108439:	85 c0                	test   %eax,%eax
  10843b:	0f 95 c0             	setne  %al
  10843e:	84 c0                	test   %al,%al
  108440:	74 0d                	je     10844f <_ZN11FAT32Driver20AllocateClusterChainEj+0xa1>
  108442:	b8 f7 ff ff 0f       	mov    $0xffffff7,%eax
  108447:	eb 4d                	jmp    108496 <_ZN11FAT32Driver20AllocateClusterChainEj+0xe8>
  108449:	8b 45 f8             	mov    -0x8(%rbp),%eax
  10844c:	89 45 f0             	mov    %eax,-0x10(%rbp)
  10844f:	8b 45 d4             	mov    -0x2c(%rbp),%eax
  108452:	83 e8 01             	sub    $0x1,%eax
  108455:	39 45 fc             	cmp    %eax,-0x4(%rbp)
  108458:	75 26                	jne    108480 <_ZN11FAT32Driver20AllocateClusterChainEj+0xd2>
  10845a:	8b 4d f8             	mov    -0x8(%rbp),%ecx
  10845d:	48 8b 45 d8          	mov    -0x28(%rbp),%rax
  108461:	ba f8 ff ff 0f       	mov    $0xffffff8,%edx
  108466:	89 ce                	mov    %ecx,%esi
  108468:	48 89 c7             	mov    %rax,%rdi
  10846b:	e8 7e fc ff ff       	callq  1080ee <_ZN11FAT32Driver8WriteFATEjj>
  108470:	85 c0                	test   %eax,%eax
  108472:	0f 95 c0             	setne  %al
  108475:	84 c0                	test   %al,%al
  108477:	74 07                	je     108480 <_ZN11FAT32Driver20AllocateClusterChainEj+0xd2>
  108479:	b8 f7 ff ff 0f       	mov    $0xffffff7,%eax
  10847e:	eb 16                	jmp    108496 <_ZN11FAT32Driver20AllocateClusterChainEj+0xe8>
  108480:	83 45 fc 01          	addl   $0x1,-0x4(%rbp)
  108484:	8b 45 f8             	mov    -0x8(%rbp),%eax
  108487:	89 45 f4             	mov    %eax,-0xc(%rbp)
  10848a:	83 45 f8 01          	addl   $0x1,-0x8(%rbp)
  10848e:	e9 50 ff ff ff       	jmpq   1083e3 <_ZN11FAT32Driver20AllocateClusterChainEj+0x35>
  108493:	8b 45 f0             	mov    -0x10(%rbp),%eax
  108496:	c9                   	leaveq 
  108497:	c3                   	retq   

0000000000108498 <_ZN11FAT32Driver16FreeClusterChainEj>:
  108498:	f3 0f 1e fa          	endbr64 
  10849c:	55                   	push   %rbp
  10849d:	48 89 e5             	mov    %rsp,%rbp
  1084a0:	53                   	push   %rbx
  1084a1:	48 83 ec 38          	sub    $0x38,%rsp
  1084a5:	48 89 7d c8          	mov    %rdi,-0x38(%rbp)
  1084a9:	89 75 c4             	mov    %esi,-0x3c(%rbp)
  1084ac:	48 8d 45 d0          	lea    -0x30(%rbp),%rax
  1084b0:	8b 55 c4             	mov    -0x3c(%rbp),%edx
  1084b3:	48 8b 4d c8          	mov    -0x38(%rbp),%rcx
  1084b7:	48 89 ce             	mov    %rcx,%rsi
  1084ba:	48 89 c7             	mov    %rax,%rdi
  1084bd:	e8 18 fe ff ff       	callq  1082da <_ZN11FAT32Driver15GetClusterChainEj>
  1084c2:	c7 45 ec 00 00 00 00 	movl   $0x0,-0x14(%rbp)
  1084c9:	8b 5d ec             	mov    -0x14(%rbp),%ebx
  1084cc:	48 8d 45 d0          	lea    -0x30(%rbp),%rax
  1084d0:	48 89 c7             	mov    %rax,%rdi
  1084d3:	e8 a0 60 00 00       	callq  10e578 <_ZNK6vectorIjE4sizeEv>
  1084d8:	48 39 c3             	cmp    %rax,%rbx
  1084db:	0f 92 c0             	setb   %al
  1084de:	84 c0                	test   %al,%al
  1084e0:	74 2d                	je     10850f <_ZN11FAT32Driver16FreeClusterChainEj+0x77>
  1084e2:	8b 55 ec             	mov    -0x14(%rbp),%edx
  1084e5:	48 8d 45 d0          	lea    -0x30(%rbp),%rax
  1084e9:	48 89 d6             	mov    %rdx,%rsi
  1084ec:	48 89 c7             	mov    %rax,%rdi
  1084ef:	e8 9e 60 00 00       	callq  10e592 <_ZN6vectorIjEixEm>
  1084f4:	8b 08                	mov    (%rax),%ecx
  1084f6:	48 8b 45 c8          	mov    -0x38(%rbp),%rax
  1084fa:	ba 00 00 00 00       	mov    $0x0,%edx
  1084ff:	89 ce                	mov    %ecx,%esi
  108501:	48 89 c7             	mov    %rax,%rdi
  108504:	e8 e5 fb ff ff       	callq  1080ee <_ZN11FAT32Driver8WriteFATEjj>
  108509:	83 45 ec 01          	addl   $0x1,-0x14(%rbp)
  10850d:	eb ba                	jmp    1084c9 <_ZN11FAT32Driver16FreeClusterChainEj+0x31>
  10850f:	48 8d 45 d0          	lea    -0x30(%rbp),%rax
  108513:	48 89 c7             	mov    %rax,%rdi
  108516:	e8 25 5f 00 00       	callq  10e440 <_ZN6vectorIjED1Ev>
  10851b:	90                   	nop
  10851c:	48 83 c4 38          	add    $0x38,%rsp
  108520:	5b                   	pop    %rbx
  108521:	5d                   	pop    %rbp
  108522:	c3                   	retq   
  108523:	90                   	nop

0000000000108524 <_ZN11FAT32Driver16ReadClusterChainEjRj>:
  108524:	f3 0f 1e fa          	endbr64 
  108528:	55                   	push   %rbp
  108529:	48 89 e5             	mov    %rsp,%rbp
  10852c:	53                   	push   %rbx
  10852d:	48 83 ec 58          	sub    $0x58,%rsp
  108531:	48 89 7d b8          	mov    %rdi,-0x48(%rbp)
  108535:	89 75 b4             	mov    %esi,-0x4c(%rbp)
  108538:	48 89 55 a8          	mov    %rdx,-0x58(%rbp)
  10853c:	83 7d b4 01          	cmpl   $0x1,-0x4c(%rbp)
  108540:	76 0c                	jbe    10854e <_ZN11FAT32Driver16ReadClusterChainEjRj+0x2a>
  108542:	48 8b 45 b8          	mov    -0x48(%rbp),%rax
  108546:	8b 40 40             	mov    0x40(%rax),%eax
  108549:	39 45 b4             	cmp    %eax,-0x4c(%rbp)
  10854c:	76 0a                	jbe    108558 <_ZN11FAT32Driver16ReadClusterChainEjRj+0x34>
  10854e:	bb 00 00 00 00       	mov    $0x0,%ebx
  108553:	e9 a7 00 00 00       	jmpq   1085ff <_ZN11FAT32Driver16ReadClusterChainEjRj+0xdb>
  108558:	48 8d 45 c0          	lea    -0x40(%rbp),%rax
  10855c:	8b 55 b4             	mov    -0x4c(%rbp),%edx
  10855f:	48 8b 4d b8          	mov    -0x48(%rbp),%rcx
  108563:	48 89 ce             	mov    %rcx,%rsi
  108566:	48 89 c7             	mov    %rax,%rdi
  108569:	e8 6c fd ff ff       	callq  1082da <_ZN11FAT32Driver15GetClusterChainEj>
  10856e:	48 8d 45 c0          	lea    -0x40(%rbp),%rax
  108572:	48 89 c7             	mov    %rax,%rdi
  108575:	e8 fe 5f 00 00       	callq  10e578 <_ZNK6vectorIjE4sizeEv>
  10857a:	89 45 e0             	mov    %eax,-0x20(%rbp)
  10857d:	48 8b 45 b8          	mov    -0x48(%rbp),%rax
  108581:	8b 40 30             	mov    0x30(%rax),%eax
  108584:	0f af 45 e0          	imul   -0x20(%rbp),%eax
  108588:	89 c2                	mov    %eax,%edx
  10858a:	48 8b 45 a8          	mov    -0x58(%rbp),%rax
  10858e:	89 10                	mov    %edx,(%rax)
  108590:	48 8b 45 a8          	mov    -0x58(%rbp),%rax
  108594:	8b 00                	mov    (%rax),%eax
  108596:	89 c0                	mov    %eax,%eax
  108598:	48 89 c7             	mov    %rax,%rdi
  10859b:	e8 09 b4 ff ff       	callq  1039a9 <_Znam>
  1085a0:	48 89 45 e8          	mov    %rax,-0x18(%rbp)
  1085a4:	c7 45 e4 00 00 00 00 	movl   $0x0,-0x1c(%rbp)
  1085ab:	48 8b 45 a8          	mov    -0x58(%rbp),%rax
  1085af:	8b 00                	mov    (%rax),%eax
  1085b1:	39 45 e4             	cmp    %eax,-0x1c(%rbp)
  1085b4:	73 39                	jae    1085ef <_ZN11FAT32Driver16ReadClusterChainEjRj+0xcb>
  1085b6:	8b 55 e4             	mov    -0x1c(%rbp),%edx
  1085b9:	48 8d 45 c0          	lea    -0x40(%rbp),%rax
  1085bd:	48 89 d6             	mov    %rdx,%rsi
  1085c0:	48 89 c7             	mov    %rax,%rdi
  1085c3:	e8 ca 5f 00 00       	callq  10e592 <_ZN6vectorIjEixEm>
  1085c8:	8b 08                	mov    (%rax),%ecx
  1085ca:	48 8b 55 e8          	mov    -0x18(%rbp),%rdx
  1085ce:	48 8b 45 b8          	mov    -0x48(%rbp),%rax
  1085d2:	89 ce                	mov    %ecx,%esi
  1085d4:	48 89 c7             	mov    %rax,%rdi
  1085d7:	e8 aa fb ff ff       	callq  108186 <_ZN11FAT32Driver11ReadClusterEjPv>
  1085dc:	48 8b 45 b8          	mov    -0x48(%rbp),%rax
  1085e0:	8b 40 30             	mov    0x30(%rax),%eax
  1085e3:	89 c0                	mov    %eax,%eax
  1085e5:	48 01 45 e8          	add    %rax,-0x18(%rbp)
  1085e9:	83 45 e4 01          	addl   $0x1,-0x1c(%rbp)
  1085ed:	eb bc                	jmp    1085ab <_ZN11FAT32Driver16ReadClusterChainEjRj+0x87>
  1085ef:	48 8b 5d e8          	mov    -0x18(%rbp),%rbx
  1085f3:	48 8d 45 c0          	lea    -0x40(%rbp),%rax
  1085f7:	48 89 c7             	mov    %rax,%rdi
  1085fa:	e8 41 5e 00 00       	callq  10e440 <_ZN6vectorIjED1Ev>
  1085ff:	48 89 d8             	mov    %rbx,%rax
  108602:	48 83 c4 58          	add    $0x58,%rsp
  108606:	5b                   	pop    %rbx
  108607:	5d                   	pop    %rbp
  108608:	c3                   	retq   
  108609:	90                   	nop

000000000010860a <_ZN11FAT32Driver17WriteClusterChainEjPvj>:
  10860a:	f3 0f 1e fa          	endbr64 
  10860e:	55                   	push   %rbp
  10860f:	48 89 e5             	mov    %rsp,%rbp
  108612:	48 83 ec 50          	sub    $0x50,%rsp
  108616:	48 89 7d c8          	mov    %rdi,-0x38(%rbp)
  10861a:	89 75 c4             	mov    %esi,-0x3c(%rbp)
  10861d:	48 89 55 b8          	mov    %rdx,-0x48(%rbp)
  108621:	89 4d c0             	mov    %ecx,-0x40(%rbp)
  108624:	48 8d 45 d0          	lea    -0x30(%rbp),%rax
  108628:	8b 55 c4             	mov    -0x3c(%rbp),%edx
  10862b:	48 8b 4d c8          	mov    -0x38(%rbp),%rcx
  10862f:	48 89 ce             	mov    %rcx,%rsi
  108632:	48 89 c7             	mov    %rax,%rdi
  108635:	e8 a0 fc ff ff       	callq  1082da <_ZN11FAT32Driver15GetClusterChainEj>
  10863a:	48 8d 45 d0          	lea    -0x30(%rbp),%rax
  10863e:	48 89 c7             	mov    %rax,%rdi
  108641:	e8 32 5f 00 00       	callq  10e578 <_ZNK6vectorIjE4sizeEv>
  108646:	89 45 e8             	mov    %eax,-0x18(%rbp)
  108649:	8b 45 c0             	mov    -0x40(%rbp),%eax
  10864c:	89 45 fc             	mov    %eax,-0x4(%rbp)
  10864f:	8b 45 fc             	mov    -0x4(%rbp),%eax
  108652:	3b 45 e8             	cmp    -0x18(%rbp),%eax
  108655:	76 06                	jbe    10865d <_ZN11FAT32Driver17WriteClusterChainEjPvj+0x53>
  108657:	8b 45 e8             	mov    -0x18(%rbp),%eax
  10865a:	89 45 fc             	mov    %eax,-0x4(%rbp)
  10865d:	48 8b 45 b8          	mov    -0x48(%rbp),%rax
  108661:	48 89 45 f0          	mov    %rax,-0x10(%rbp)
  108665:	c7 45 ec 00 00 00 00 	movl   $0x0,-0x14(%rbp)
  10866c:	8b 45 ec             	mov    -0x14(%rbp),%eax
  10866f:	3b 45 fc             	cmp    -0x4(%rbp),%eax
  108672:	73 39                	jae    1086ad <_ZN11FAT32Driver17WriteClusterChainEjPvj+0xa3>
  108674:	8b 55 ec             	mov    -0x14(%rbp),%edx
  108677:	48 8d 45 d0          	lea    -0x30(%rbp),%rax
  10867b:	48 89 d6             	mov    %rdx,%rsi
  10867e:	48 89 c7             	mov    %rax,%rdi
  108681:	e8 0c 5f 00 00       	callq  10e592 <_ZN6vectorIjEixEm>
  108686:	8b 08                	mov    (%rax),%ecx
  108688:	48 8b 55 f0          	mov    -0x10(%rbp),%rdx
  10868c:	48 8b 45 c8          	mov    -0x38(%rbp),%rax
  108690:	89 ce                	mov    %ecx,%esi
  108692:	48 89 c7             	mov    %rax,%rdi
  108695:	e8 96 fb ff ff       	callq  108230 <_ZN11FAT32Driver12WriteClusterEjPv>
  10869a:	48 8b 45 c8          	mov    -0x38(%rbp),%rax
  10869e:	8b 40 30             	mov    0x30(%rax),%eax
  1086a1:	89 c0                	mov    %eax,%eax
  1086a3:	48 01 45 f0          	add    %rax,-0x10(%rbp)
  1086a7:	83 45 ec 01          	addl   $0x1,-0x14(%rbp)
  1086ab:	eb bf                	jmp    10866c <_ZN11FAT32Driver17WriteClusterChainEjPvj+0x62>
  1086ad:	48 8d 45 d0          	lea    -0x30(%rbp),%rax
  1086b1:	48 89 c7             	mov    %rax,%rdi
  1086b4:	e8 87 5d 00 00       	callq  10e440 <_ZN6vectorIjED1Ev>
  1086b9:	90                   	nop
  1086ba:	c9                   	leaveq 
  1086bb:	c3                   	retq   

00000000001086bc <_ZN11FAT32Driver18ResizeClusterChainEjj>:
  1086bc:	f3 0f 1e fa          	endbr64 
  1086c0:	55                   	push   %rbp
  1086c1:	48 89 e5             	mov    %rsp,%rbp
  1086c4:	53                   	push   %rbx
  1086c5:	48 83 ec 38          	sub    $0x38,%rsp
  1086c9:	48 89 7d c8          	mov    %rdi,-0x38(%rbp)
  1086cd:	89 75 c4             	mov    %esi,-0x3c(%rbp)
  1086d0:	89 55 c0             	mov    %edx,-0x40(%rbp)
  1086d3:	48 8d 45 d0          	lea    -0x30(%rbp),%rax
  1086d7:	8b 55 c4             	mov    -0x3c(%rbp),%edx
  1086da:	48 8b 4d c8          	mov    -0x38(%rbp),%rcx
  1086de:	48 89 ce             	mov    %rcx,%rsi
  1086e1:	48 89 c7             	mov    %rax,%rdi
  1086e4:	e8 f1 fb ff ff       	callq  1082da <_ZN11FAT32Driver15GetClusterChainEj>
  1086e9:	48 8d 45 d0          	lea    -0x30(%rbp),%rax
  1086ed:	48 89 c7             	mov    %rax,%rdi
  1086f0:	e8 83 5e 00 00       	callq  10e578 <_ZNK6vectorIjE4sizeEv>
  1086f5:	89 45 ec             	mov    %eax,-0x14(%rbp)
  1086f8:	8b 45 ec             	mov    -0x14(%rbp),%eax
  1086fb:	3b 45 c0             	cmp    -0x40(%rbp),%eax
  1086fe:	75 0a                	jne    10870a <_ZN11FAT32Driver18ResizeClusterChainEjj+0x4e>
  108700:	bb 00 00 00 00       	mov    $0x0,%ebx
  108705:	e9 a0 00 00 00       	jmpq   1087aa <_ZN11FAT32Driver18ResizeClusterChainEjj+0xee>
  10870a:	8b 45 ec             	mov    -0x14(%rbp),%eax
  10870d:	3b 45 c0             	cmp    -0x40(%rbp),%eax
  108710:	76 50                	jbe    108762 <_ZN11FAT32Driver18ResizeClusterChainEjj+0xa6>
  108712:	8b 45 c0             	mov    -0x40(%rbp),%eax
  108715:	83 e8 01             	sub    $0x1,%eax
  108718:	89 c2                	mov    %eax,%edx
  10871a:	48 8d 45 d0          	lea    -0x30(%rbp),%rax
  10871e:	48 89 d6             	mov    %rdx,%rsi
  108721:	48 89 c7             	mov    %rax,%rdi
  108724:	e8 69 5e 00 00       	callq  10e592 <_ZN6vectorIjEixEm>
  108729:	8b 08                	mov    (%rax),%ecx
  10872b:	48 8b 45 c8          	mov    -0x38(%rbp),%rax
  10872f:	ba f8 ff ff 0f       	mov    $0xffffff8,%edx
  108734:	89 ce                	mov    %ecx,%esi
  108736:	48 89 c7             	mov    %rax,%rdi
  108739:	e8 b0 f9 ff ff       	callq  1080ee <_ZN11FAT32Driver8WriteFATEjj>
  10873e:	8b 55 c0             	mov    -0x40(%rbp),%edx
  108741:	48 8d 45 d0          	lea    -0x30(%rbp),%rax
  108745:	48 89 d6             	mov    %rdx,%rsi
  108748:	48 89 c7             	mov    %rax,%rdi
  10874b:	e8 42 5e 00 00       	callq  10e592 <_ZN6vectorIjEixEm>
  108750:	8b 10                	mov    (%rax),%edx
  108752:	48 8b 45 c8          	mov    -0x38(%rbp),%rax
  108756:	89 d6                	mov    %edx,%esi
  108758:	48 89 c7             	mov    %rax,%rdi
  10875b:	e8 38 fd ff ff       	callq  108498 <_ZN11FAT32Driver16FreeClusterChainEj>
  108760:	eb 43                	jmp    1087a5 <_ZN11FAT32Driver18ResizeClusterChainEjj+0xe9>
  108762:	8b 45 c0             	mov    -0x40(%rbp),%eax
  108765:	2b 45 ec             	sub    -0x14(%rbp),%eax
  108768:	89 c2                	mov    %eax,%edx
  10876a:	48 8b 45 c8          	mov    -0x38(%rbp),%rax
  10876e:	89 d6                	mov    %edx,%esi
  108770:	48 89 c7             	mov    %rax,%rdi
  108773:	e8 36 fc ff ff       	callq  1083ae <_ZN11FAT32Driver20AllocateClusterChainEj>
  108778:	89 45 e8             	mov    %eax,-0x18(%rbp)
  10877b:	8b 45 ec             	mov    -0x14(%rbp),%eax
  10877e:	83 e8 01             	sub    $0x1,%eax
  108781:	89 c2                	mov    %eax,%edx
  108783:	48 8d 45 d0          	lea    -0x30(%rbp),%rax
  108787:	48 89 d6             	mov    %rdx,%rsi
  10878a:	48 89 c7             	mov    %rax,%rdi
  10878d:	e8 00 5e 00 00       	callq  10e592 <_ZN6vectorIjEixEm>
  108792:	8b 08                	mov    (%rax),%ecx
  108794:	8b 55 e8             	mov    -0x18(%rbp),%edx
  108797:	48 8b 45 c8          	mov    -0x38(%rbp),%rax
  10879b:	89 ce                	mov    %ecx,%esi
  10879d:	48 89 c7             	mov    %rax,%rdi
  1087a0:	e8 49 f9 ff ff       	callq  1080ee <_ZN11FAT32Driver8WriteFATEjj>
  1087a5:	bb 01 00 00 00       	mov    $0x1,%ebx
  1087aa:	48 8d 45 d0          	lea    -0x30(%rbp),%rax
  1087ae:	48 89 c7             	mov    %rax,%rdi
  1087b1:	e8 8a 5c 00 00       	callq  10e440 <_ZN6vectorIjED1Ev>
  1087b6:	83 fb 01             	cmp    $0x1,%ebx
  1087b9:	48 83 c4 38          	add    $0x38,%rsp
  1087bd:	5b                   	pop    %rbx
  1087be:	5d                   	pop    %rbp
  1087bf:	c3                   	retq   

00000000001087c0 <_ZN11FAT32Driver23GetDirectoriesOnClusterEjR6vectorI8DirEntryE>:
  1087c0:	f3 0f 1e fa          	endbr64 
  1087c4:	55                   	push   %rbp
  1087c5:	48 89 e5             	mov    %rsp,%rbp
  1087c8:	48 81 ec d0 00 00 00 	sub    $0xd0,%rsp
  1087cf:	48 89 bd 48 ff ff ff 	mov    %rdi,-0xb8(%rbp)
  1087d6:	89 b5 44 ff ff ff    	mov    %esi,-0xbc(%rbp)
  1087dc:	48 89 95 38 ff ff ff 	mov    %rdx,-0xc8(%rbp)
  1087e3:	83 bd 44 ff ff ff 01 	cmpl   $0x1,-0xbc(%rbp)
  1087ea:	0f 86 5c 01 00 00    	jbe    10894c <_ZN11FAT32Driver23GetDirectoriesOnClusterEjR6vectorI8DirEntryE+0x18c>
  1087f0:	48 8b 85 48 ff ff ff 	mov    -0xb8(%rbp),%rax
  1087f7:	8b 40 40             	mov    0x40(%rax),%eax
  1087fa:	39 85 44 ff ff ff    	cmp    %eax,-0xbc(%rbp)
  108800:	0f 87 46 01 00 00    	ja     10894c <_ZN11FAT32Driver23GetDirectoriesOnClusterEjR6vectorI8DirEntryE+0x18c>
  108806:	48 8b 85 48 ff ff ff 	mov    -0xb8(%rbp),%rax
  10880d:	48 8b 50 18          	mov    0x18(%rax),%rdx
  108811:	8b 8d 44 ff ff ff    	mov    -0xbc(%rbp),%ecx
  108817:	48 8b 85 48 ff ff ff 	mov    -0xb8(%rbp),%rax
  10881e:	89 ce                	mov    %ecx,%esi
  108820:	48 89 c7             	mov    %rax,%rdi
  108823:	e8 5e f9 ff ff       	callq  108186 <_ZN11FAT32Driver11ReadClusterEjPv>
  108828:	48 8b 85 48 ff ff ff 	mov    -0xb8(%rbp),%rax
  10882f:	48 8b 40 18          	mov    0x18(%rax),%rax
  108833:	48 89 45 f8          	mov    %rax,-0x8(%rbp)
  108837:	c7 45 f4 00 00 00 00 	movl   $0x0,-0xc(%rbp)
  10883e:	c6 45 f3 00          	movb   $0x0,-0xd(%rbp)
  108842:	48 8b 45 f8          	mov    -0x8(%rbp),%rax
  108846:	0f b6 00             	movzbl (%rax),%eax
  108849:	84 c0                	test   %al,%al
  10884b:	0f 84 fe 00 00 00    	je     10894f <_ZN11FAT32Driver23GetDirectoriesOnClusterEjR6vectorI8DirEntryE+0x18f>
  108851:	48 8b 45 f8          	mov    -0x8(%rbp),%rax
  108855:	0f b6 00             	movzbl (%rax),%eax
  108858:	3c e5                	cmp    $0xe5,%al
  10885a:	74 17                	je     108873 <_ZN11FAT32Driver23GetDirectoriesOnClusterEjR6vectorI8DirEntryE+0xb3>
  10885c:	48 8b 45 f8          	mov    -0x8(%rbp),%rax
  108860:	0f b6 40 0b          	movzbl 0xb(%rax),%eax
  108864:	0f b6 c0             	movzbl %al,%eax
  108867:	83 e0 0f             	and    $0xf,%eax
  10886a:	83 f8 0f             	cmp    $0xf,%eax
  10886d:	0f 85 81 00 00 00    	jne    1088f4 <_ZN11FAT32Driver23GetDirectoriesOnClusterEjR6vectorI8DirEntryE+0x134>
  108873:	48 8b 45 f8          	mov    -0x8(%rbp),%rax
  108877:	0f b6 40 0b          	movzbl 0xb(%rax),%eax
  10887b:	0f b6 c0             	movzbl %al,%eax
  10887e:	83 e0 0f             	and    $0xf,%eax
  108881:	83 f8 0f             	cmp    $0xf,%eax
  108884:	0f 94 c0             	sete   %al
  108887:	88 45 f3             	mov    %al,-0xd(%rbp)
  10888a:	8b 55 f4             	mov    -0xc(%rbp),%edx
  10888d:	48 8b 85 48 ff ff ff 	mov    -0xb8(%rbp),%rax
  108894:	8b 40 30             	mov    0x30(%rax),%eax
  108897:	89 c0                	mov    %eax,%eax
  108899:	48 c1 e8 05          	shr    $0x5,%rax
  10889d:	48 83 e8 01          	sub    $0x1,%rax
  1088a1:	48 39 c2             	cmp    %rax,%rdx
  1088a4:	73 0e                	jae    1088b4 <_ZN11FAT32Driver23GetDirectoriesOnClusterEjR6vectorI8DirEntryE+0xf4>
  1088a6:	48 83 45 f8 20       	addq   $0x20,-0x8(%rbp)
  1088ab:	83 45 f4 01          	addl   $0x1,-0xc(%rbp)
  1088af:	e9 93 00 00 00       	jmpq   108947 <_ZN11FAT32Driver23GetDirectoriesOnClusterEjR6vectorI8DirEntryE+0x187>
  1088b4:	8b 95 44 ff ff ff    	mov    -0xbc(%rbp),%edx
  1088ba:	48 8b 85 48 ff ff ff 	mov    -0xb8(%rbp),%rax
  1088c1:	89 d6                	mov    %edx,%esi
  1088c3:	48 89 c7             	mov    %rax,%rdi
  1088c6:	e8 db f7 ff ff       	callq  1080a6 <_ZN11FAT32Driver7ReadFATEj>
  1088cb:	89 45 ec             	mov    %eax,-0x14(%rbp)
  1088ce:	81 7d ec f7 ff ff 0f 	cmpl   $0xffffff7,-0x14(%rbp)
  1088d5:	77 7b                	ja     108952 <_ZN11FAT32Driver23GetDirectoriesOnClusterEjR6vectorI8DirEntryE+0x192>
  1088d7:	48 8b 95 38 ff ff ff 	mov    -0xc8(%rbp),%rdx
  1088de:	8b 4d ec             	mov    -0x14(%rbp),%ecx
  1088e1:	48 8b 85 48 ff ff ff 	mov    -0xb8(%rbp),%rax
  1088e8:	89 ce                	mov    %ecx,%esi
  1088ea:	48 89 c7             	mov    %rax,%rdi
  1088ed:	e8 ce fe ff ff       	callq  1087c0 <_ZN11FAT32Driver23GetDirectoriesOnClusterEjR6vectorI8DirEntryE>
  1088f2:	eb 5f                	jmp    108953 <_ZN11FAT32Driver23GetDirectoriesOnClusterEjR6vectorI8DirEntryE+0x193>
  1088f4:	0f b6 4d f3          	movzbl -0xd(%rbp),%ecx
  1088f8:	48 8d 85 50 ff ff ff 	lea    -0xb0(%rbp),%rax
  1088ff:	48 8b 55 f8          	mov    -0x8(%rbp),%rdx
  108903:	48 8b b5 48 ff ff ff 	mov    -0xb8(%rbp),%rsi
  10890a:	48 89 c7             	mov    %rax,%rdi
  10890d:	e8 3c 1c 00 00       	callq  10a54e <_ZN11FAT32Driver12FromFATEntryEP14DirectoryEntryb>
  108912:	8b 85 44 ff ff ff    	mov    -0xbc(%rbp),%eax
  108918:	89 45 dc             	mov    %eax,-0x24(%rbp)
  10891b:	8b 45 f4             	mov    -0xc(%rbp),%eax
  10891e:	89 45 e0             	mov    %eax,-0x20(%rbp)
  108921:	48 8d 95 50 ff ff ff 	lea    -0xb0(%rbp),%rdx
  108928:	48 8b 85 38 ff ff ff 	mov    -0xc8(%rbp),%rax
  10892f:	48 89 d6             	mov    %rdx,%rsi
  108932:	48 89 c7             	mov    %rax,%rdi
  108935:	e8 92 5c 00 00       	callq  10e5cc <_ZN6vectorI8DirEntryE9push_backERKS0_>
  10893a:	c6 45 f3 00          	movb   $0x0,-0xd(%rbp)
  10893e:	48 83 45 f8 20       	addq   $0x20,-0x8(%rbp)
  108943:	83 45 f4 01          	addl   $0x1,-0xc(%rbp)
  108947:	e9 f6 fe ff ff       	jmpq   108842 <_ZN11FAT32Driver23GetDirectoriesOnClusterEjR6vectorI8DirEntryE+0x82>
  10894c:	90                   	nop
  10894d:	eb 04                	jmp    108953 <_ZN11FAT32Driver23GetDirectoriesOnClusterEjR6vectorI8DirEntryE+0x193>
  10894f:	90                   	nop
  108950:	eb 01                	jmp    108953 <_ZN11FAT32Driver23GetDirectoriesOnClusterEjR6vectorI8DirEntryE+0x193>
  108952:	90                   	nop
  108953:	c9                   	leaveq 
  108954:	c3                   	retq   
  108955:	90                   	nop

0000000000108956 <_ZN11FAT32Driver14GetDirectoriesEjjb>:
  108956:	f3 0f 1e fa          	endbr64 
  10895a:	55                   	push   %rbp
  10895b:	48 89 e5             	mov    %rsp,%rbp
  10895e:	48 83 ec 40          	sub    $0x40,%rsp
  108962:	48 89 7d d8          	mov    %rdi,-0x28(%rbp)
  108966:	48 89 75 d0          	mov    %rsi,-0x30(%rbp)
  10896a:	89 55 cc             	mov    %edx,-0x34(%rbp)
  10896d:	89 4d c8             	mov    %ecx,-0x38(%rbp)
  108970:	44 89 c0             	mov    %r8d,%eax
  108973:	88 45 c4             	mov    %al,-0x3c(%rbp)
  108976:	48 8b 45 d8          	mov    -0x28(%rbp),%rax
  10897a:	48 89 c7             	mov    %rax,%rdi
  10897d:	e8 74 5d 00 00       	callq  10e6f6 <_ZN6vectorI8DirEntryEC1Ev>
  108982:	83 7d cc 01          	cmpl   $0x1,-0x34(%rbp)
  108986:	0f 86 19 01 00 00    	jbe    108aa5 <_ZN11FAT32Driver14GetDirectoriesEjjb+0x14f>
  10898c:	48 8b 45 d0          	mov    -0x30(%rbp),%rax
  108990:	8b 40 40             	mov    0x40(%rax),%eax
  108993:	39 45 cc             	cmp    %eax,-0x34(%rbp)
  108996:	0f 87 09 01 00 00    	ja     108aa5 <_ZN11FAT32Driver14GetDirectoriesEjjb+0x14f>
  10899c:	48 8d 45 e0          	lea    -0x20(%rbp),%rax
  1089a0:	48 89 c7             	mov    %rax,%rdi
  1089a3:	e8 4e 5d 00 00       	callq  10e6f6 <_ZN6vectorI8DirEntryEC1Ev>
  1089a8:	48 8d 55 e0          	lea    -0x20(%rbp),%rdx
  1089ac:	8b 4d cc             	mov    -0x34(%rbp),%ecx
  1089af:	48 8b 45 d0          	mov    -0x30(%rbp),%rax
  1089b3:	89 ce                	mov    %ecx,%esi
  1089b5:	48 89 c7             	mov    %rax,%rdi
  1089b8:	e8 03 fe ff ff       	callq  1087c0 <_ZN11FAT32Driver23GetDirectoriesOnClusterEjR6vectorI8DirEntryE>
  1089bd:	48 c7 45 f8 00 00 00 	movq   $0x0,-0x8(%rbp)
  1089c4:	00 
  1089c5:	48 8d 45 e0          	lea    -0x20(%rbp),%rax
  1089c9:	48 89 c7             	mov    %rax,%rdi
  1089cc:	e8 cb 59 00 00       	callq  10e39c <_ZNK6vectorI8DirEntryE4sizeEv>
  1089d1:	48 39 45 f8          	cmp    %rax,-0x8(%rbp)
  1089d5:	0f 92 c0             	setb   %al
  1089d8:	84 c0                	test   %al,%al
  1089da:	0f 84 b6 00 00 00    	je     108a96 <_ZN11FAT32Driver14GetDirectoriesEjjb+0x140>
  1089e0:	0f b6 45 c4          	movzbl -0x3c(%rbp),%eax
  1089e4:	83 f0 01             	xor    $0x1,%eax
  1089e7:	84 c0                	test   %al,%al
  1089e9:	74 50                	je     108a3b <_ZN11FAT32Driver14GetDirectoriesEjjb+0xe5>
  1089eb:	48 8b 55 f8          	mov    -0x8(%rbp),%rdx
  1089ef:	48 8d 45 e0          	lea    -0x20(%rbp),%rax
  1089f3:	48 89 d6             	mov    %rdx,%rsi
  1089f6:	48 89 c7             	mov    %rax,%rdi
  1089f9:	e8 b8 59 00 00       	callq  10e3b6 <_ZN6vectorI8DirEntryEixEm>
  1089fe:	0f b6 80 88 00 00 00 	movzbl 0x88(%rax),%eax
  108a05:	0f b6 c0             	movzbl %al,%eax
  108a08:	23 45 c8             	and    -0x38(%rbp),%eax
  108a0b:	85 c0                	test   %eax,%eax
  108a0d:	0f 95 c0             	setne  %al
  108a10:	84 c0                	test   %al,%al
  108a12:	75 77                	jne    108a8b <_ZN11FAT32Driver14GetDirectoriesEjjb+0x135>
  108a14:	48 8b 55 f8          	mov    -0x8(%rbp),%rdx
  108a18:	48 8d 45 e0          	lea    -0x20(%rbp),%rax
  108a1c:	48 89 d6             	mov    %rdx,%rsi
  108a1f:	48 89 c7             	mov    %rax,%rdi
  108a22:	e8 8f 59 00 00       	callq  10e3b6 <_ZN6vectorI8DirEntryEixEm>
  108a27:	48 89 c2             	mov    %rax,%rdx
  108a2a:	48 8b 45 d8          	mov    -0x28(%rbp),%rax
  108a2e:	48 89 d6             	mov    %rdx,%rsi
  108a31:	48 89 c7             	mov    %rax,%rdi
  108a34:	e8 93 5b 00 00       	callq  10e5cc <_ZN6vectorI8DirEntryE9push_backERKS0_>
  108a39:	eb 51                	jmp    108a8c <_ZN11FAT32Driver14GetDirectoriesEjjb+0x136>
  108a3b:	48 8b 55 f8          	mov    -0x8(%rbp),%rdx
  108a3f:	48 8d 45 e0          	lea    -0x20(%rbp),%rax
  108a43:	48 89 d6             	mov    %rdx,%rsi
  108a46:	48 89 c7             	mov    %rax,%rdi
  108a49:	e8 68 59 00 00       	callq  10e3b6 <_ZN6vectorI8DirEntryEixEm>
  108a4e:	0f b6 80 88 00 00 00 	movzbl 0x88(%rax),%eax
  108a55:	0f b6 c0             	movzbl %al,%eax
  108a58:	23 45 c8             	and    -0x38(%rbp),%eax
  108a5b:	85 c0                	test   %eax,%eax
  108a5d:	0f 95 c0             	setne  %al
  108a60:	84 c0                	test   %al,%al
  108a62:	74 28                	je     108a8c <_ZN11FAT32Driver14GetDirectoriesEjjb+0x136>
  108a64:	48 8b 55 f8          	mov    -0x8(%rbp),%rdx
  108a68:	48 8d 45 e0          	lea    -0x20(%rbp),%rax
  108a6c:	48 89 d6             	mov    %rdx,%rsi
  108a6f:	48 89 c7             	mov    %rax,%rdi
  108a72:	e8 3f 59 00 00       	callq  10e3b6 <_ZN6vectorI8DirEntryEixEm>
  108a77:	48 89 c2             	mov    %rax,%rdx
  108a7a:	48 8b 45 d8          	mov    -0x28(%rbp),%rax
  108a7e:	48 89 d6             	mov    %rdx,%rsi
  108a81:	48 89 c7             	mov    %rax,%rdi
  108a84:	e8 43 5b 00 00       	callq  10e5cc <_ZN6vectorI8DirEntryE9push_backERKS0_>
  108a89:	eb 01                	jmp    108a8c <_ZN11FAT32Driver14GetDirectoriesEjjb+0x136>
  108a8b:	90                   	nop
  108a8c:	48 83 45 f8 01       	addq   $0x1,-0x8(%rbp)
  108a91:	e9 2f ff ff ff       	jmpq   1089c5 <_ZN11FAT32Driver14GetDirectoriesEjjb+0x6f>
  108a96:	90                   	nop
  108a97:	48 8d 45 e0          	lea    -0x20(%rbp),%rax
  108a9b:	48 89 c7             	mov    %rax,%rdi
  108a9e:	e8 c9 58 00 00       	callq  10e36c <_ZN6vectorI8DirEntryED1Ev>
  108aa3:	eb 01                	jmp    108aa6 <_ZN11FAT32Driver14GetDirectoriesEjjb+0x150>
  108aa5:	90                   	nop
  108aa6:	48 8b 45 d8          	mov    -0x28(%rbp),%rax
  108aaa:	c9                   	leaveq 
  108aab:	c3                   	retq   

0000000000108aac <_ZN11FAT32Driver20ModifyDirectoryEntryEjPKc8DirEntry>:
  108aac:	f3 0f 1e fa          	endbr64 
  108ab0:	55                   	push   %rbp
  108ab1:	48 89 e5             	mov    %rsp,%rbp
  108ab4:	53                   	push   %rbx
  108ab5:	48 83 ec 58          	sub    $0x58,%rsp
  108ab9:	48 89 7d b8          	mov    %rdi,-0x48(%rbp)
  108abd:	89 75 b4             	mov    %esi,-0x4c(%rbp)
  108ac0:	48 89 55 a8          	mov    %rdx,-0x58(%rbp)
  108ac4:	c6 45 ef 00          	movb   $0x0,-0x11(%rbp)
  108ac8:	48 8b 55 a8          	mov    -0x58(%rbp),%rdx
  108acc:	48 8b 45 b8          	mov    -0x48(%rbp),%rax
  108ad0:	48 89 d6             	mov    %rdx,%rsi
  108ad3:	48 89 c7             	mov    %rax,%rdi
  108ad6:	e8 e3 22 00 00       	callq  10adbe <_ZN11FAT32Driver11IsFATFormatEPc>
  108adb:	85 c0                	test   %eax,%eax
  108add:	0f 95 c0             	setne  %al
  108ae0:	84 c0                	test   %al,%al
  108ae2:	74 04                	je     108ae8 <_ZN11FAT32Driver20ModifyDirectoryEntryEjPKc8DirEntry+0x3c>
  108ae4:	c6 45 ef 01          	movb   $0x1,-0x11(%rbp)
  108ae8:	48 8b 45 b8          	mov    -0x48(%rbp),%rax
  108aec:	48 8b 50 18          	mov    0x18(%rax),%rdx
  108af0:	8b 4d b4             	mov    -0x4c(%rbp),%ecx
  108af3:	48 8b 45 b8          	mov    -0x48(%rbp),%rax
  108af7:	89 ce                	mov    %ecx,%esi
  108af9:	48 89 c7             	mov    %rax,%rdi
  108afc:	e8 85 f6 ff ff       	callq  108186 <_ZN11FAT32Driver11ReadClusterEjPv>
  108b01:	48 8b 45 b8          	mov    -0x48(%rbp),%rax
  108b05:	48 8b 40 18          	mov    0x18(%rax),%rax
  108b09:	48 89 45 e0          	mov    %rax,-0x20(%rbp)
  108b0d:	c7 45 dc 00 00 00 00 	movl   $0x0,-0x24(%rbp)
  108b14:	c7 45 c0 00 00 00 00 	movl   $0x0,-0x40(%rbp)
  108b1b:	48 8d 75 c0          	lea    -0x40(%rbp),%rsi
  108b1f:	48 8b 55 b8          	mov    -0x48(%rbp),%rdx
  108b23:	48 83 ec 08          	sub    $0x8,%rsp
  108b27:	48 81 ec 98 00 00 00 	sub    $0x98,%rsp
  108b2e:	48 89 e0             	mov    %rsp,%rax
  108b31:	48 8b 4d 10          	mov    0x10(%rbp),%rcx
  108b35:	48 8b 5d 18          	mov    0x18(%rbp),%rbx
  108b39:	48 89 08             	mov    %rcx,(%rax)
  108b3c:	48 89 58 08          	mov    %rbx,0x8(%rax)
  108b40:	48 8b 4d 20          	mov    0x20(%rbp),%rcx
  108b44:	48 8b 5d 28          	mov    0x28(%rbp),%rbx
  108b48:	48 89 48 10          	mov    %rcx,0x10(%rax)
  108b4c:	48 89 58 18          	mov    %rbx,0x18(%rax)
  108b50:	48 8b 4d 30          	mov    0x30(%rbp),%rcx
  108b54:	48 8b 5d 38          	mov    0x38(%rbp),%rbx
  108b58:	48 89 48 20          	mov    %rcx,0x20(%rax)
  108b5c:	48 89 58 28          	mov    %rbx,0x28(%rax)
  108b60:	48 8b 4d 40          	mov    0x40(%rbp),%rcx
  108b64:	48 8b 5d 48          	mov    0x48(%rbp),%rbx
  108b68:	48 89 48 30          	mov    %rcx,0x30(%rax)
  108b6c:	48 89 58 38          	mov    %rbx,0x38(%rax)
  108b70:	48 8b 4d 50          	mov    0x50(%rbp),%rcx
  108b74:	48 8b 5d 58          	mov    0x58(%rbp),%rbx
  108b78:	48 89 48 40          	mov    %rcx,0x40(%rax)
  108b7c:	48 89 58 48          	mov    %rbx,0x48(%rax)
  108b80:	48 8b 4d 60          	mov    0x60(%rbp),%rcx
  108b84:	48 8b 5d 68          	mov    0x68(%rbp),%rbx
  108b88:	48 89 48 50          	mov    %rcx,0x50(%rax)
  108b8c:	48 89 58 58          	mov    %rbx,0x58(%rax)
  108b90:	48 8b 4d 70          	mov    0x70(%rbp),%rcx
  108b94:	48 8b 5d 78          	mov    0x78(%rbp),%rbx
  108b98:	48 89 48 60          	mov    %rcx,0x60(%rax)
  108b9c:	48 89 58 68          	mov    %rbx,0x68(%rax)
  108ba0:	48 8b 8d 80 00 00 00 	mov    0x80(%rbp),%rcx
  108ba7:	48 8b 9d 88 00 00 00 	mov    0x88(%rbp),%rbx
  108bae:	48 89 48 70          	mov    %rcx,0x70(%rax)
  108bb2:	48 89 58 78          	mov    %rbx,0x78(%rax)
  108bb6:	48 8b 8d 90 00 00 00 	mov    0x90(%rbp),%rcx
  108bbd:	48 8b 9d 98 00 00 00 	mov    0x98(%rbp),%rbx
  108bc4:	48 89 88 80 00 00 00 	mov    %rcx,0x80(%rax)
  108bcb:	48 89 98 88 00 00 00 	mov    %rbx,0x88(%rax)
  108bd2:	8b 8d a0 00 00 00    	mov    0xa0(%rbp),%ecx
  108bd8:	89 88 90 00 00 00    	mov    %ecx,0x90(%rax)
  108bde:	48 89 d7             	mov    %rdx,%rdi
  108be1:	e8 66 1b 00 00       	callq  10a74c <_ZN11FAT32Driver10ToFATEntryE8DirEntryRj>
  108be6:	48 81 c4 a0 00 00 00 	add    $0xa0,%rsp
  108bed:	48 89 45 d0          	mov    %rax,-0x30(%rbp)
  108bf1:	48 8b 45 e0          	mov    -0x20(%rbp),%rax
  108bf5:	0f b6 00             	movzbl (%rax),%eax
  108bf8:	84 c0                	test   %al,%al
  108bfa:	0f 84 f4 01 00 00    	je     108df4 <_ZN11FAT32Driver20ModifyDirectoryEntryEjPKc8DirEntry+0x348>
  108c00:	48 8b 45 e0          	mov    -0x20(%rbp),%rax
  108c04:	0f b6 40 0b          	movzbl 0xb(%rax),%eax
  108c08:	0f b6 c0             	movzbl %al,%eax
  108c0b:	83 e0 0f             	and    $0xf,%eax
  108c0e:	83 f8 0f             	cmp    $0xf,%eax
  108c11:	74 1f                	je     108c32 <_ZN11FAT32Driver20ModifyDirectoryEntryEjPKc8DirEntry+0x186>
  108c13:	0f b6 4d ef          	movzbl -0x11(%rbp),%ecx
  108c17:	48 8b 55 a8          	mov    -0x58(%rbp),%rdx
  108c1b:	48 8b 75 e0          	mov    -0x20(%rbp),%rsi
  108c1f:	48 8b 45 b8          	mov    -0x48(%rbp),%rax
  108c23:	48 89 c7             	mov    %rax,%rdi
  108c26:	e8 65 20 00 00       	callq  10ac90 <_ZN11FAT32Driver7CompareEP14DirectoryEntryPKcb>
  108c2b:	83 f0 01             	xor    $0x1,%eax
  108c2e:	84 c0                	test   %al,%al
  108c30:	74 07                	je     108c39 <_ZN11FAT32Driver20ModifyDirectoryEntryEjPKc8DirEntry+0x18d>
  108c32:	b8 01 00 00 00       	mov    $0x1,%eax
  108c37:	eb 05                	jmp    108c3e <_ZN11FAT32Driver20ModifyDirectoryEntryEjPKc8DirEntry+0x192>
  108c39:	b8 00 00 00 00       	mov    $0x0,%eax
  108c3e:	84 c0                	test   %al,%al
  108c40:	0f 84 1c 01 00 00    	je     108d62 <_ZN11FAT32Driver20ModifyDirectoryEntryEjPKc8DirEntry+0x2b6>
  108c46:	8b 55 dc             	mov    -0x24(%rbp),%edx
  108c49:	48 8b 45 b8          	mov    -0x48(%rbp),%rax
  108c4d:	8b 40 30             	mov    0x30(%rax),%eax
  108c50:	89 c0                	mov    %eax,%eax
  108c52:	48 c1 e8 05          	shr    $0x5,%rax
  108c56:	48 83 e8 01          	sub    $0x1,%rax
  108c5a:	48 39 c2             	cmp    %rax,%rdx
  108c5d:	73 0b                	jae    108c6a <_ZN11FAT32Driver20ModifyDirectoryEntryEjPKc8DirEntry+0x1be>
  108c5f:	48 83 45 e0 20       	addq   $0x20,-0x20(%rbp)
  108c64:	83 45 dc 01          	addl   $0x1,-0x24(%rbp)
  108c68:	eb 87                	jmp    108bf1 <_ZN11FAT32Driver20ModifyDirectoryEntryEjPKc8DirEntry+0x145>
  108c6a:	8b 55 b4             	mov    -0x4c(%rbp),%edx
  108c6d:	48 8b 45 b8          	mov    -0x48(%rbp),%rax
  108c71:	89 d6                	mov    %edx,%esi
  108c73:	48 89 c7             	mov    %rax,%rdi
  108c76:	e8 2b f4 ff ff       	callq  1080a6 <_ZN11FAT32Driver7ReadFATEj>
  108c7b:	89 45 c4             	mov    %eax,-0x3c(%rbp)
  108c7e:	81 7d c4 f7 ff ff 0f 	cmpl   $0xffffff7,-0x3c(%rbp)
  108c85:	0f 87 6c 01 00 00    	ja     108df7 <_ZN11FAT32Driver20ModifyDirectoryEntryEjPKc8DirEntry+0x34b>
  108c8b:	48 8b 55 a8          	mov    -0x58(%rbp),%rdx
  108c8f:	8b 75 c4             	mov    -0x3c(%rbp),%esi
  108c92:	48 8b 7d b8          	mov    -0x48(%rbp),%rdi
  108c96:	48 83 ec 08          	sub    $0x8,%rsp
  108c9a:	48 81 ec 98 00 00 00 	sub    $0x98,%rsp
  108ca1:	48 89 e0             	mov    %rsp,%rax
  108ca4:	48 8b 4d 10          	mov    0x10(%rbp),%rcx
  108ca8:	48 8b 5d 18          	mov    0x18(%rbp),%rbx
  108cac:	48 89 08             	mov    %rcx,(%rax)
  108caf:	48 89 58 08          	mov    %rbx,0x8(%rax)
  108cb3:	48 8b 4d 20          	mov    0x20(%rbp),%rcx
  108cb7:	48 8b 5d 28          	mov    0x28(%rbp),%rbx
  108cbb:	48 89 48 10          	mov    %rcx,0x10(%rax)
  108cbf:	48 89 58 18          	mov    %rbx,0x18(%rax)
  108cc3:	48 8b 4d 30          	mov    0x30(%rbp),%rcx
  108cc7:	48 8b 5d 38          	mov    0x38(%rbp),%rbx
  108ccb:	48 89 48 20          	mov    %rcx,0x20(%rax)
  108ccf:	48 89 58 28          	mov    %rbx,0x28(%rax)
  108cd3:	48 8b 4d 40          	mov    0x40(%rbp),%rcx
  108cd7:	48 8b 5d 48          	mov    0x48(%rbp),%rbx
  108cdb:	48 89 48 30          	mov    %rcx,0x30(%rax)
  108cdf:	48 89 58 38          	mov    %rbx,0x38(%rax)
  108ce3:	48 8b 4d 50          	mov    0x50(%rbp),%rcx
  108ce7:	48 8b 5d 58          	mov    0x58(%rbp),%rbx
  108ceb:	48 89 48 40          	mov    %rcx,0x40(%rax)
  108cef:	48 89 58 48          	mov    %rbx,0x48(%rax)
  108cf3:	48 8b 4d 60          	mov    0x60(%rbp),%rcx
  108cf7:	48 8b 5d 68          	mov    0x68(%rbp),%rbx
  108cfb:	48 89 48 50          	mov    %rcx,0x50(%rax)
  108cff:	48 89 58 58          	mov    %rbx,0x58(%rax)
  108d03:	48 8b 4d 70          	mov    0x70(%rbp),%rcx
  108d07:	48 8b 5d 78          	mov    0x78(%rbp),%rbx
  108d0b:	48 89 48 60          	mov    %rcx,0x60(%rax)
  108d0f:	48 89 58 68          	mov    %rbx,0x68(%rax)
  108d13:	48 8b 8d 80 00 00 00 	mov    0x80(%rbp),%rcx
  108d1a:	48 8b 9d 88 00 00 00 	mov    0x88(%rbp),%rbx
  108d21:	48 89 48 70          	mov    %rcx,0x70(%rax)
  108d25:	48 89 58 78          	mov    %rbx,0x78(%rax)
  108d29:	48 8b 8d 90 00 00 00 	mov    0x90(%rbp),%rcx
  108d30:	48 8b 9d 98 00 00 00 	mov    0x98(%rbp),%rbx
  108d37:	48 89 88 80 00 00 00 	mov    %rcx,0x80(%rax)
  108d3e:	48 89 98 88 00 00 00 	mov    %rbx,0x88(%rax)
  108d45:	8b 8d a0 00 00 00    	mov    0xa0(%rbp),%ecx
  108d4b:	89 88 90 00 00 00    	mov    %ecx,0x90(%rax)
  108d51:	e8 56 fd ff ff       	callq  108aac <_ZN11FAT32Driver20ModifyDirectoryEntryEjPKc8DirEntry>
  108d56:	48 81 c4 a0 00 00 00 	add    $0xa0,%rsp
  108d5d:	e9 96 00 00 00       	jmpq   108df8 <_ZN11FAT32Driver20ModifyDirectoryEntryEjPKc8DirEntry+0x34c>
  108d62:	0f b6 85 98 00 00 00 	movzbl 0x98(%rbp),%eax
  108d69:	84 c0                	test   %al,%al
  108d6b:	75 37                	jne    108da4 <_ZN11FAT32Driver20ModifyDirectoryEntryEjPKc8DirEntry+0x2f8>
  108d6d:	c7 45 d8 00 00 00 00 	movl   $0x0,-0x28(%rbp)
  108d74:	8b 45 c0             	mov    -0x40(%rbp),%eax
  108d77:	83 c0 01             	add    $0x1,%eax
  108d7a:	39 45 d8             	cmp    %eax,-0x28(%rbp)
  108d7d:	73 5a                	jae    108dd9 <_ZN11FAT32Driver20ModifyDirectoryEntryEjPKc8DirEntry+0x32d>
  108d7f:	8b 45 d8             	mov    -0x28(%rbp),%eax
  108d82:	48 c1 e0 05          	shl    $0x5,%rax
  108d86:	48 f7 d8             	neg    %rax
  108d89:	48 89 c2             	mov    %rax,%rdx
  108d8c:	48 8b 45 e0          	mov    -0x20(%rbp),%rax
  108d90:	48 01 d0             	add    %rdx,%rax
  108d93:	48 89 45 c8          	mov    %rax,-0x38(%rbp)
  108d97:	48 8b 45 c8          	mov    -0x38(%rbp),%rax
  108d9b:	c6 00 e5             	movb   $0xe5,(%rax)
  108d9e:	83 45 d8 01          	addl   $0x1,-0x28(%rbp)
  108da2:	eb d0                	jmp    108d74 <_ZN11FAT32Driver20ModifyDirectoryEntryEjPKc8DirEntry+0x2c8>
  108da4:	0f b6 95 98 00 00 00 	movzbl 0x98(%rbp),%edx
  108dab:	48 8b 45 e0          	mov    -0x20(%rbp),%rax
  108daf:	88 50 0b             	mov    %dl,0xb(%rax)
  108db2:	8b 85 90 00 00 00    	mov    0x90(%rbp),%eax
  108db8:	89 c2                	mov    %eax,%edx
  108dba:	48 8b 45 e0          	mov    -0x20(%rbp),%rax
  108dbe:	66 89 50 1a          	mov    %dx,0x1a(%rax)
  108dc2:	48 8b 45 e0          	mov    -0x20(%rbp),%rax
  108dc6:	66 c7 40 14 00 00    	movw   $0x0,0x14(%rax)
  108dcc:	8b 95 94 00 00 00    	mov    0x94(%rbp),%edx
  108dd2:	48 8b 45 e0          	mov    -0x20(%rbp),%rax
  108dd6:	89 50 1c             	mov    %edx,0x1c(%rax)
  108dd9:	48 8b 45 b8          	mov    -0x48(%rbp),%rax
  108ddd:	48 8b 50 18          	mov    0x18(%rax),%rdx
  108de1:	8b 4d b4             	mov    -0x4c(%rbp),%ecx
  108de4:	48 8b 45 b8          	mov    -0x48(%rbp),%rax
  108de8:	89 ce                	mov    %ecx,%esi
  108dea:	48 89 c7             	mov    %rax,%rdi
  108ded:	e8 3e f4 ff ff       	callq  108230 <_ZN11FAT32Driver12WriteClusterEjPv>
  108df2:	eb 04                	jmp    108df8 <_ZN11FAT32Driver20ModifyDirectoryEntryEjPKc8DirEntry+0x34c>
  108df4:	90                   	nop
  108df5:	eb 01                	jmp    108df8 <_ZN11FAT32Driver20ModifyDirectoryEntryEjPKc8DirEntry+0x34c>
  108df7:	90                   	nop
  108df8:	48 8b 5d f8          	mov    -0x8(%rbp),%rbx
  108dfc:	c9                   	leaveq 
  108dfd:	c3                   	retq   

0000000000108dfe <_ZN11FAT32Driver21PrepareAddedDirectoryEj>:
  108dfe:	f3 0f 1e fa          	endbr64 
  108e02:	55                   	push   %rbp
  108e03:	48 89 e5             	mov    %rsp,%rbp
  108e06:	48 83 ec 20          	sub    $0x20,%rsp
  108e0a:	48 89 7d e8          	mov    %rdi,-0x18(%rbp)
  108e0e:	89 75 e4             	mov    %esi,-0x1c(%rbp)
  108e11:	83 7d e4 01          	cmpl   $0x1,-0x1c(%rbp)
  108e15:	76 0c                	jbe    108e23 <_ZN11FAT32Driver21PrepareAddedDirectoryEj+0x25>
  108e17:	48 8b 45 e8          	mov    -0x18(%rbp),%rax
  108e1b:	8b 40 40             	mov    0x40(%rax),%eax
  108e1e:	39 45 e4             	cmp    %eax,-0x1c(%rbp)
  108e21:	76 0a                	jbe    108e2d <_ZN11FAT32Driver21PrepareAddedDirectoryEj+0x2f>
  108e23:	b8 ff ff ff ff       	mov    $0xffffffff,%eax
  108e28:	e9 db 01 00 00       	jmpq   109008 <_ZN11FAT32Driver21PrepareAddedDirectoryEj+0x20a>
  108e2d:	48 8b 45 e8          	mov    -0x18(%rbp),%rax
  108e31:	8b 40 30             	mov    0x30(%rax),%eax
  108e34:	89 c0                	mov    %eax,%eax
  108e36:	48 89 c7             	mov    %rax,%rdi
  108e39:	e8 6b ab ff ff       	callq  1039a9 <_Znam>
  108e3e:	48 89 45 f8          	mov    %rax,-0x8(%rbp)
  108e42:	48 8b 55 f8          	mov    -0x8(%rbp),%rdx
  108e46:	8b 4d e4             	mov    -0x1c(%rbp),%ecx
  108e49:	48 8b 45 e8          	mov    -0x18(%rbp),%rax
  108e4d:	89 ce                	mov    %ecx,%esi
  108e4f:	48 89 c7             	mov    %rax,%rdi
  108e52:	e8 2f f3 ff ff       	callq  108186 <_ZN11FAT32Driver11ReadClusterEjPv>
  108e57:	48 8b 45 f8          	mov    -0x8(%rbp),%rax
  108e5b:	48 89 45 f0          	mov    %rax,-0x10(%rbp)
  108e5f:	48 8b 45 f0          	mov    -0x10(%rbp),%rax
  108e63:	ba 20 00 00 00       	mov    $0x20,%edx
  108e68:	be 00 00 00 00       	mov    $0x0,%esi
  108e6d:	48 89 c7             	mov    %rax,%rdi
  108e70:	e8 da 3d 00 00       	callq  10cc4f <_Z6memsetPvim>
  108e75:	48 8b 45 f0          	mov    -0x10(%rbp),%rax
  108e79:	ba 0b 00 00 00       	mov    $0xb,%edx
  108e7e:	48 8d 35 83 83 00 00 	lea    0x8383(%rip),%rsi        # 111208 <_ZL8sc_ascii+0x1a8>
  108e85:	48 89 c7             	mov    %rax,%rdi
  108e88:	e8 80 3d 00 00       	callq  10cc0d <_Z6memcpyPvPKvm>
  108e8d:	48 8b 45 f0          	mov    -0x10(%rbp),%rax
  108e91:	c6 40 0b 10          	movb   $0x10,0xb(%rax)
  108e95:	8b 45 e4             	mov    -0x1c(%rbp),%eax
  108e98:	89 c2                	mov    %eax,%edx
  108e9a:	48 8b 45 f0          	mov    -0x10(%rbp),%rax
  108e9e:	66 89 50 1a          	mov    %dx,0x1a(%rax)
  108ea2:	8b 45 e4             	mov    -0x1c(%rbp),%eax
  108ea5:	c1 e8 10             	shr    $0x10,%eax
  108ea8:	89 c2                	mov    %eax,%edx
  108eaa:	48 8b 45 f0          	mov    -0x10(%rbp),%rax
  108eae:	66 89 50 14          	mov    %dx,0x14(%rax)
  108eb2:	48 8b 45 e8          	mov    -0x18(%rbp),%rax
  108eb6:	48 89 c7             	mov    %rax,%rdi
  108eb9:	e8 a8 1e 00 00       	callq  10ad66 <_ZNK11FAT32Driver7GetDateEv>
  108ebe:	48 8b 55 f0          	mov    -0x10(%rbp),%rdx
  108ec2:	66 89 42 10          	mov    %ax,0x10(%rdx)
  108ec6:	48 8b 45 e8          	mov    -0x18(%rbp),%rax
  108eca:	48 89 c7             	mov    %rax,%rdi
  108ecd:	e8 46 1e 00 00       	callq  10ad18 <_ZNK11FAT32Driver7GetTimeEv>
  108ed2:	48 8b 55 f0          	mov    -0x10(%rbp),%rdx
  108ed6:	66 89 42 0e          	mov    %ax,0xe(%rdx)
  108eda:	48 8b 45 e8          	mov    -0x18(%rbp),%rax
  108ede:	48 89 c7             	mov    %rax,%rdi
  108ee1:	e8 1a 1e 00 00       	callq  10ad00 <_ZNK11FAT32Driver15GetMillisecondsEv>
  108ee6:	48 8b 55 f0          	mov    -0x10(%rbp),%rdx
  108eea:	88 42 0d             	mov    %al,0xd(%rdx)
  108eed:	48 8b 45 e8          	mov    -0x18(%rbp),%rax
  108ef1:	48 89 c7             	mov    %rax,%rdi
  108ef4:	e8 6d 1e 00 00       	callq  10ad66 <_ZNK11FAT32Driver7GetDateEv>
  108ef9:	48 8b 55 f0          	mov    -0x10(%rbp),%rdx
  108efd:	66 89 42 12          	mov    %ax,0x12(%rdx)
  108f01:	48 8b 45 e8          	mov    -0x18(%rbp),%rax
  108f05:	48 89 c7             	mov    %rax,%rdi
  108f08:	e8 59 1e 00 00       	callq  10ad66 <_ZNK11FAT32Driver7GetDateEv>
  108f0d:	48 8b 55 f0          	mov    -0x10(%rbp),%rdx
  108f11:	66 89 42 18          	mov    %ax,0x18(%rdx)
  108f15:	48 8b 45 e8          	mov    -0x18(%rbp),%rax
  108f19:	48 89 c7             	mov    %rax,%rdi
  108f1c:	e8 f7 1d 00 00       	callq  10ad18 <_ZNK11FAT32Driver7GetTimeEv>
  108f21:	48 8b 55 f0          	mov    -0x10(%rbp),%rdx
  108f25:	66 89 42 16          	mov    %ax,0x16(%rdx)
  108f29:	48 83 45 f0 20       	addq   $0x20,-0x10(%rbp)
  108f2e:	48 8b 45 f0          	mov    -0x10(%rbp),%rax
  108f32:	ba 20 00 00 00       	mov    $0x20,%edx
  108f37:	be 00 00 00 00       	mov    $0x0,%esi
  108f3c:	48 89 c7             	mov    %rax,%rdi
  108f3f:	e8 0b 3d 00 00       	callq  10cc4f <_Z6memsetPvim>
  108f44:	48 8b 45 f0          	mov    -0x10(%rbp),%rax
  108f48:	ba 0b 00 00 00       	mov    $0xb,%edx
  108f4d:	48 8d 35 c0 82 00 00 	lea    0x82c0(%rip),%rsi        # 111214 <_ZL8sc_ascii+0x1b4>
  108f54:	48 89 c7             	mov    %rax,%rdi
  108f57:	e8 b1 3c 00 00       	callq  10cc0d <_Z6memcpyPvPKvm>
  108f5c:	48 8b 45 f0          	mov    -0x10(%rbp),%rax
  108f60:	c6 40 0b 10          	movb   $0x10,0xb(%rax)
  108f64:	48 8b 45 e8          	mov    -0x18(%rbp),%rax
  108f68:	48 89 c7             	mov    %rax,%rdi
  108f6b:	e8 f6 1d 00 00       	callq  10ad66 <_ZNK11FAT32Driver7GetDateEv>
  108f70:	48 8b 55 f0          	mov    -0x10(%rbp),%rdx
  108f74:	66 89 42 10          	mov    %ax,0x10(%rdx)
  108f78:	48 8b 45 e8          	mov    -0x18(%rbp),%rax
  108f7c:	48 89 c7             	mov    %rax,%rdi
  108f7f:	e8 94 1d 00 00       	callq  10ad18 <_ZNK11FAT32Driver7GetTimeEv>
  108f84:	48 8b 55 f0          	mov    -0x10(%rbp),%rdx
  108f88:	66 89 42 0e          	mov    %ax,0xe(%rdx)
  108f8c:	48 8b 45 e8          	mov    -0x18(%rbp),%rax
  108f90:	48 89 c7             	mov    %rax,%rdi
  108f93:	e8 68 1d 00 00       	callq  10ad00 <_ZNK11FAT32Driver15GetMillisecondsEv>
  108f98:	48 8b 55 f0          	mov    -0x10(%rbp),%rdx
  108f9c:	88 42 0d             	mov    %al,0xd(%rdx)
  108f9f:	48 8b 45 e8          	mov    -0x18(%rbp),%rax
  108fa3:	48 89 c7             	mov    %rax,%rdi
  108fa6:	e8 bb 1d 00 00       	callq  10ad66 <_ZNK11FAT32Driver7GetDateEv>
  108fab:	48 8b 55 f0          	mov    -0x10(%rbp),%rdx
  108faf:	66 89 42 12          	mov    %ax,0x12(%rdx)
  108fb3:	48 8b 45 e8          	mov    -0x18(%rbp),%rax
  108fb7:	48 89 c7             	mov    %rax,%rdi
  108fba:	e8 a7 1d 00 00       	callq  10ad66 <_ZNK11FAT32Driver7GetDateEv>
  108fbf:	48 8b 55 f0          	mov    -0x10(%rbp),%rdx
  108fc3:	66 89 42 18          	mov    %ax,0x18(%rdx)
  108fc7:	48 8b 45 e8          	mov    -0x18(%rbp),%rax
  108fcb:	48 89 c7             	mov    %rax,%rdi
  108fce:	e8 45 1d 00 00       	callq  10ad18 <_ZNK11FAT32Driver7GetTimeEv>
  108fd3:	48 8b 55 f0          	mov    -0x10(%rbp),%rdx
  108fd7:	66 89 42 16          	mov    %ax,0x16(%rdx)
  108fdb:	48 8b 55 f8          	mov    -0x8(%rbp),%rdx
  108fdf:	8b 4d e4             	mov    -0x1c(%rbp),%ecx
  108fe2:	48 8b 45 e8          	mov    -0x18(%rbp),%rax
  108fe6:	89 ce                	mov    %ecx,%esi
  108fe8:	48 89 c7             	mov    %rax,%rdi
  108feb:	e8 40 f2 ff ff       	callq  108230 <_ZN11FAT32Driver12WriteClusterEjPv>
  108ff0:	48 83 7d f8 00       	cmpq   $0x0,-0x8(%rbp)
  108ff5:	74 0c                	je     109003 <_ZN11FAT32Driver21PrepareAddedDirectoryEj+0x205>
  108ff7:	48 8b 45 f8          	mov    -0x8(%rbp),%rax
  108ffb:	48 89 c7             	mov    %rax,%rdi
  108ffe:	e8 e3 a9 ff ff       	callq  1039e6 <_ZdaPv>
  109003:	b8 00 00 00 00       	mov    $0x0,%eax
  109008:	c9                   	leaveq 
  109009:	c3                   	retq   

000000000010900a <_ZN11FAT32Driver14CleanFileEntryEj8DirEntry>:
  10900a:	f3 0f 1e fa          	endbr64 
  10900e:	55                   	push   %rbp
  10900f:	48 89 e5             	mov    %rsp,%rbp
  109012:	53                   	push   %rbx
  109013:	48 83 ec 18          	sub    $0x18,%rsp
  109017:	48 89 7d e8          	mov    %rdi,-0x18(%rbp)
  10901b:	89 75 e4             	mov    %esi,-0x1c(%rbp)
  10901e:	c6 85 98 00 00 00 00 	movb   $0x0,0x98(%rbp)
  109025:	8b 75 e4             	mov    -0x1c(%rbp),%esi
  109028:	48 8b 7d e8          	mov    -0x18(%rbp),%rdi
  10902c:	48 83 ec 08          	sub    $0x8,%rsp
  109030:	48 81 ec 98 00 00 00 	sub    $0x98,%rsp
  109037:	48 89 e0             	mov    %rsp,%rax
  10903a:	48 8b 4d 10          	mov    0x10(%rbp),%rcx
  10903e:	48 8b 5d 18          	mov    0x18(%rbp),%rbx
  109042:	48 89 08             	mov    %rcx,(%rax)
  109045:	48 89 58 08          	mov    %rbx,0x8(%rax)
  109049:	48 8b 4d 20          	mov    0x20(%rbp),%rcx
  10904d:	48 8b 5d 28          	mov    0x28(%rbp),%rbx
  109051:	48 89 48 10          	mov    %rcx,0x10(%rax)
  109055:	48 89 58 18          	mov    %rbx,0x18(%rax)
  109059:	48 8b 4d 30          	mov    0x30(%rbp),%rcx
  10905d:	48 8b 5d 38          	mov    0x38(%rbp),%rbx
  109061:	48 89 48 20          	mov    %rcx,0x20(%rax)
  109065:	48 89 58 28          	mov    %rbx,0x28(%rax)
  109069:	48 8b 4d 40          	mov    0x40(%rbp),%rcx
  10906d:	48 8b 5d 48          	mov    0x48(%rbp),%rbx
  109071:	48 89 48 30          	mov    %rcx,0x30(%rax)
  109075:	48 89 58 38          	mov    %rbx,0x38(%rax)
  109079:	48 8b 4d 50          	mov    0x50(%rbp),%rcx
  10907d:	48 8b 5d 58          	mov    0x58(%rbp),%rbx
  109081:	48 89 48 40          	mov    %rcx,0x40(%rax)
  109085:	48 89 58 48          	mov    %rbx,0x48(%rax)
  109089:	48 8b 4d 60          	mov    0x60(%rbp),%rcx
  10908d:	48 8b 5d 68          	mov    0x68(%rbp),%rbx
  109091:	48 89 48 50          	mov    %rcx,0x50(%rax)
  109095:	48 89 58 58          	mov    %rbx,0x58(%rax)
  109099:	48 8b 4d 70          	mov    0x70(%rbp),%rcx
  10909d:	48 8b 5d 78          	mov    0x78(%rbp),%rbx
  1090a1:	48 89 48 60          	mov    %rcx,0x60(%rax)
  1090a5:	48 89 58 68          	mov    %rbx,0x68(%rax)
  1090a9:	48 8b 8d 80 00 00 00 	mov    0x80(%rbp),%rcx
  1090b0:	48 8b 9d 88 00 00 00 	mov    0x88(%rbp),%rbx
  1090b7:	48 89 48 70          	mov    %rcx,0x70(%rax)
  1090bb:	48 89 58 78          	mov    %rbx,0x78(%rax)
  1090bf:	48 8b 8d 90 00 00 00 	mov    0x90(%rbp),%rcx
  1090c6:	48 8b 9d 98 00 00 00 	mov    0x98(%rbp),%rbx
  1090cd:	48 89 88 80 00 00 00 	mov    %rcx,0x80(%rax)
  1090d4:	48 89 98 88 00 00 00 	mov    %rbx,0x88(%rax)
  1090db:	8b 95 a0 00 00 00    	mov    0xa0(%rbp),%edx
  1090e1:	89 90 90 00 00 00    	mov    %edx,0x90(%rax)
  1090e7:	48 8d 55 10          	lea    0x10(%rbp),%rdx
  1090eb:	e8 bc f9 ff ff       	callq  108aac <_ZN11FAT32Driver20ModifyDirectoryEntryEjPKc8DirEntry>
  1090f0:	48 81 c4 a0 00 00 00 	add    $0xa0,%rsp
  1090f7:	90                   	nop
  1090f8:	48 8b 5d f8          	mov    -0x8(%rbp),%rbx
  1090fc:	c9                   	leaveq 
  1090fd:	c3                   	retq   

00000000001090fe <_ZN11FAT32Driver15DirectorySearchEPKcjP8DirEntry>:
  1090fe:	f3 0f 1e fa          	endbr64 
  109102:	55                   	push   %rbp
  109103:	48 89 e5             	mov    %rsp,%rbp
  109106:	53                   	push   %rbx
  109107:	48 83 ec 48          	sub    $0x48,%rsp
  10910b:	48 89 7d c8          	mov    %rdi,-0x38(%rbp)
  10910f:	48 89 75 c0          	mov    %rsi,-0x40(%rbp)
  109113:	89 55 bc             	mov    %edx,-0x44(%rbp)
  109116:	48 89 4d b0          	mov    %rcx,-0x50(%rbp)
  10911a:	83 7d bc 01          	cmpl   $0x1,-0x44(%rbp)
  10911e:	76 0c                	jbe    10912c <_ZN11FAT32Driver15DirectorySearchEPKcjP8DirEntry+0x2e>
  109120:	48 8b 45 c8          	mov    -0x38(%rbp),%rax
  109124:	8b 40 40             	mov    0x40(%rax),%eax
  109127:	39 45 bc             	cmp    %eax,-0x44(%rbp)
  10912a:	76 0a                	jbe    109136 <_ZN11FAT32Driver15DirectorySearchEPKcjP8DirEntry+0x38>
  10912c:	bb ff ff ff ff       	mov    $0xffffffff,%ebx
  109131:	e9 60 01 00 00       	jmpq   109296 <_ZN11FAT32Driver15DirectorySearchEPKcjP8DirEntry+0x198>
  109136:	48 8d 45 d0          	lea    -0x30(%rbp),%rax
  10913a:	48 89 c7             	mov    %rax,%rdi
  10913d:	e8 b4 55 00 00       	callq  10e6f6 <_ZN6vectorI8DirEntryEC1Ev>
  109142:	48 8d 55 d0          	lea    -0x30(%rbp),%rdx
  109146:	8b 4d bc             	mov    -0x44(%rbp),%ecx
  109149:	48 8b 45 c8          	mov    -0x38(%rbp),%rax
  10914d:	89 ce                	mov    %ecx,%esi
  10914f:	48 89 c7             	mov    %rax,%rdi
  109152:	e8 69 f6 ff ff       	callq  1087c0 <_ZN11FAT32Driver23GetDirectoriesOnClusterEjR6vectorI8DirEntryE>
  109157:	48 c7 45 e8 00 00 00 	movq   $0x0,-0x18(%rbp)
  10915e:	00 
  10915f:	48 8d 45 d0          	lea    -0x30(%rbp),%rax
  109163:	48 89 c7             	mov    %rax,%rdi
  109166:	e8 31 52 00 00       	callq  10e39c <_ZNK6vectorI8DirEntryE4sizeEv>
  10916b:	48 39 45 e8          	cmp    %rax,-0x18(%rbp)
  10916f:	0f 92 c0             	setb   %al
  109172:	84 c0                	test   %al,%al
  109174:	0f 84 0b 01 00 00    	je     109285 <_ZN11FAT32Driver15DirectorySearchEPKcjP8DirEntry+0x187>
  10917a:	48 8b 55 e8          	mov    -0x18(%rbp),%rdx
  10917e:	48 8d 45 d0          	lea    -0x30(%rbp),%rax
  109182:	48 89 d6             	mov    %rdx,%rsi
  109185:	48 89 c7             	mov    %rax,%rdi
  109188:	e8 29 52 00 00       	callq  10e3b6 <_ZN6vectorI8DirEntryEixEm>
  10918d:	48 89 c2             	mov    %rax,%rdx
  109190:	48 8b 45 c0          	mov    -0x40(%rbp),%rax
  109194:	48 89 c6             	mov    %rax,%rsi
  109197:	48 89 d7             	mov    %rdx,%rdi
  10919a:	e8 cf 32 00 00       	callq  10c46e <_Z6strcmpPcS_>
  10919f:	85 c0                	test   %eax,%eax
  1091a1:	0f 94 c0             	sete   %al
  1091a4:	84 c0                	test   %al,%al
  1091a6:	0f 84 cf 00 00 00    	je     10927b <_ZN11FAT32Driver15DirectorySearchEPKcjP8DirEntry+0x17d>
  1091ac:	48 83 7d b0 00       	cmpq   $0x0,-0x50(%rbp)
  1091b1:	0f 84 bd 00 00 00    	je     109274 <_ZN11FAT32Driver15DirectorySearchEPKcjP8DirEntry+0x176>
  1091b7:	48 8b 55 e8          	mov    -0x18(%rbp),%rdx
  1091bb:	48 8d 45 d0          	lea    -0x30(%rbp),%rax
  1091bf:	48 89 d6             	mov    %rdx,%rsi
  1091c2:	48 89 c7             	mov    %rax,%rdi
  1091c5:	e8 ec 51 00 00       	callq  10e3b6 <_ZN6vectorI8DirEntryEixEm>
  1091ca:	48 8b 55 b0          	mov    -0x50(%rbp),%rdx
  1091ce:	48 8b 08             	mov    (%rax),%rcx
  1091d1:	48 8b 58 08          	mov    0x8(%rax),%rbx
  1091d5:	48 89 0a             	mov    %rcx,(%rdx)
  1091d8:	48 89 5a 08          	mov    %rbx,0x8(%rdx)
  1091dc:	48 8b 48 10          	mov    0x10(%rax),%rcx
  1091e0:	48 8b 58 18          	mov    0x18(%rax),%rbx
  1091e4:	48 89 4a 10          	mov    %rcx,0x10(%rdx)
  1091e8:	48 89 5a 18          	mov    %rbx,0x18(%rdx)
  1091ec:	48 8b 48 20          	mov    0x20(%rax),%rcx
  1091f0:	48 8b 58 28          	mov    0x28(%rax),%rbx
  1091f4:	48 89 4a 20          	mov    %rcx,0x20(%rdx)
  1091f8:	48 89 5a 28          	mov    %rbx,0x28(%rdx)
  1091fc:	48 8b 48 30          	mov    0x30(%rax),%rcx
  109200:	48 8b 58 38          	mov    0x38(%rax),%rbx
  109204:	48 89 4a 30          	mov    %rcx,0x30(%rdx)
  109208:	48 89 5a 38          	mov    %rbx,0x38(%rdx)
  10920c:	48 8b 48 40          	mov    0x40(%rax),%rcx
  109210:	48 8b 58 48          	mov    0x48(%rax),%rbx
  109214:	48 89 4a 40          	mov    %rcx,0x40(%rdx)
  109218:	48 89 5a 48          	mov    %rbx,0x48(%rdx)
  10921c:	48 8b 48 50          	mov    0x50(%rax),%rcx
  109220:	48 8b 58 58          	mov    0x58(%rax),%rbx
  109224:	48 89 4a 50          	mov    %rcx,0x50(%rdx)
  109228:	48 89 5a 58          	mov    %rbx,0x58(%rdx)
  10922c:	48 8b 48 60          	mov    0x60(%rax),%rcx
  109230:	48 8b 58 68          	mov    0x68(%rax),%rbx
  109234:	48 89 4a 60          	mov    %rcx,0x60(%rdx)
  109238:	48 89 5a 68          	mov    %rbx,0x68(%rdx)
  10923c:	48 8b 48 70          	mov    0x70(%rax),%rcx
  109240:	48 8b 58 78          	mov    0x78(%rax),%rbx
  109244:	48 89 4a 70          	mov    %rcx,0x70(%rdx)
  109248:	48 89 5a 78          	mov    %rbx,0x78(%rdx)
  10924c:	48 8b 88 80 00 00 00 	mov    0x80(%rax),%rcx
  109253:	48 8b 98 88 00 00 00 	mov    0x88(%rax),%rbx
  10925a:	48 89 8a 80 00 00 00 	mov    %rcx,0x80(%rdx)
  109261:	48 89 9a 88 00 00 00 	mov    %rbx,0x88(%rdx)
  109268:	8b 80 90 00 00 00    	mov    0x90(%rax),%eax
  10926e:	89 82 90 00 00 00    	mov    %eax,0x90(%rdx)
  109274:	bb 00 00 00 00       	mov    $0x0,%ebx
  109279:	eb 0f                	jmp    10928a <_ZN11FAT32Driver15DirectorySearchEPKcjP8DirEntry+0x18c>
  10927b:	48 83 45 e8 01       	addq   $0x1,-0x18(%rbp)
  109280:	e9 da fe ff ff       	jmpq   10915f <_ZN11FAT32Driver15DirectorySearchEPKcjP8DirEntry+0x61>
  109285:	bb fe ff ff ff       	mov    $0xfffffffe,%ebx
  10928a:	48 8d 45 d0          	lea    -0x30(%rbp),%rax
  10928e:	48 89 c7             	mov    %rax,%rdi
  109291:	e8 d6 50 00 00       	callq  10e36c <_ZN6vectorI8DirEntryED1Ev>
  109296:	89 d8                	mov    %ebx,%eax
  109298:	48 83 c4 48          	add    $0x48,%rsp
  10929c:	5b                   	pop    %rbx
  10929d:	5d                   	pop    %rbp
  10929e:	c3                   	retq   
  10929f:	90                   	nop

00000000001092a0 <_ZN11FAT32Driver12DirectoryAddEj8DirEntry>:
  1092a0:	f3 0f 1e fa          	endbr64 
  1092a4:	55                   	push   %rbp
  1092a5:	48 89 e5             	mov    %rsp,%rbp
  1092a8:	53                   	push   %rbx
  1092a9:	48 83 ec 58          	sub    $0x58,%rsp
  1092ad:	48 89 7d a8          	mov    %rdi,-0x58(%rbp)
  1092b1:	89 75 a4             	mov    %esi,-0x5c(%rbp)
  1092b4:	83 7d a4 01          	cmpl   $0x1,-0x5c(%rbp)
  1092b8:	76 0c                	jbe    1092c6 <_ZN11FAT32Driver12DirectoryAddEj8DirEntry+0x26>
  1092ba:	48 8b 45 a8          	mov    -0x58(%rbp),%rax
  1092be:	8b 40 40             	mov    0x40(%rax),%eax
  1092c1:	39 45 a4             	cmp    %eax,-0x5c(%rbp)
  1092c4:	76 0a                	jbe    1092d0 <_ZN11FAT32Driver12DirectoryAddEj8DirEntry+0x30>
  1092c6:	b8 ff ff ff ff       	mov    $0xffffffff,%eax
  1092cb:	e9 d6 05 00 00       	jmpq   1098a6 <_ZN11FAT32Driver12DirectoryAddEj8DirEntry+0x606>
  1092d0:	c6 45 d3 00          	movb   $0x0,-0x2d(%rbp)
  1092d4:	48 8b 45 a8          	mov    -0x58(%rbp),%rax
  1092d8:	48 8d 75 10          	lea    0x10(%rbp),%rsi
  1092dc:	48 89 c7             	mov    %rax,%rdi
  1092df:	e8 da 1a 00 00       	callq  10adbe <_ZN11FAT32Driver11IsFATFormatEPc>
  1092e4:	85 c0                	test   %eax,%eax
  1092e6:	0f 95 c0             	setne  %al
  1092e9:	84 c0                	test   %al,%al
  1092eb:	74 04                	je     1092f1 <_ZN11FAT32Driver12DirectoryAddEj8DirEntry+0x51>
  1092ed:	c6 45 d3 01          	movb   $0x1,-0x2d(%rbp)
  1092f1:	48 8b 45 a8          	mov    -0x58(%rbp),%rax
  1092f5:	48 8b 50 18          	mov    0x18(%rax),%rdx
  1092f9:	8b 4d a4             	mov    -0x5c(%rbp),%ecx
  1092fc:	48 8b 45 a8          	mov    -0x58(%rbp),%rax
  109300:	89 ce                	mov    %ecx,%esi
  109302:	48 89 c7             	mov    %rax,%rdi
  109305:	e8 7c ee ff ff       	callq  108186 <_ZN11FAT32Driver11ReadClusterEjPv>
  10930a:	48 8b 45 a8          	mov    -0x58(%rbp),%rax
  10930e:	48 8b 40 18          	mov    0x18(%rax),%rax
  109312:	48 89 45 e8          	mov    %rax,-0x18(%rbp)
  109316:	c7 45 e4 00 00 00 00 	movl   $0x0,-0x1c(%rbp)
  10931d:	48 8d 75 b4          	lea    -0x4c(%rbp),%rsi
  109321:	48 8b 55 a8          	mov    -0x58(%rbp),%rdx
  109325:	48 83 ec 08          	sub    $0x8,%rsp
  109329:	48 81 ec 98 00 00 00 	sub    $0x98,%rsp
  109330:	48 89 e0             	mov    %rsp,%rax
  109333:	48 8b 4d 10          	mov    0x10(%rbp),%rcx
  109337:	48 8b 5d 18          	mov    0x18(%rbp),%rbx
  10933b:	48 89 08             	mov    %rcx,(%rax)
  10933e:	48 89 58 08          	mov    %rbx,0x8(%rax)
  109342:	48 8b 4d 20          	mov    0x20(%rbp),%rcx
  109346:	48 8b 5d 28          	mov    0x28(%rbp),%rbx
  10934a:	48 89 48 10          	mov    %rcx,0x10(%rax)
  10934e:	48 89 58 18          	mov    %rbx,0x18(%rax)
  109352:	48 8b 4d 30          	mov    0x30(%rbp),%rcx
  109356:	48 8b 5d 38          	mov    0x38(%rbp),%rbx
  10935a:	48 89 48 20          	mov    %rcx,0x20(%rax)
  10935e:	48 89 58 28          	mov    %rbx,0x28(%rax)
  109362:	48 8b 4d 40          	mov    0x40(%rbp),%rcx
  109366:	48 8b 5d 48          	mov    0x48(%rbp),%rbx
  10936a:	48 89 48 30          	mov    %rcx,0x30(%rax)
  10936e:	48 89 58 38          	mov    %rbx,0x38(%rax)
  109372:	48 8b 4d 50          	mov    0x50(%rbp),%rcx
  109376:	48 8b 5d 58          	mov    0x58(%rbp),%rbx
  10937a:	48 89 48 40          	mov    %rcx,0x40(%rax)
  10937e:	48 89 58 48          	mov    %rbx,0x48(%rax)
  109382:	48 8b 4d 60          	mov    0x60(%rbp),%rcx
  109386:	48 8b 5d 68          	mov    0x68(%rbp),%rbx
  10938a:	48 89 48 50          	mov    %rcx,0x50(%rax)
  10938e:	48 89 58 58          	mov    %rbx,0x58(%rax)
  109392:	48 8b 4d 70          	mov    0x70(%rbp),%rcx
  109396:	48 8b 5d 78          	mov    0x78(%rbp),%rbx
  10939a:	48 89 48 60          	mov    %rcx,0x60(%rax)
  10939e:	48 89 58 68          	mov    %rbx,0x68(%rax)
  1093a2:	48 8b 8d 80 00 00 00 	mov    0x80(%rbp),%rcx
  1093a9:	48 8b 9d 88 00 00 00 	mov    0x88(%rbp),%rbx
  1093b0:	48 89 48 70          	mov    %rcx,0x70(%rax)
  1093b4:	48 89 58 78          	mov    %rbx,0x78(%rax)
  1093b8:	48 8b 8d 90 00 00 00 	mov    0x90(%rbp),%rcx
  1093bf:	48 8b 9d 98 00 00 00 	mov    0x98(%rbp),%rbx
  1093c6:	48 89 88 80 00 00 00 	mov    %rcx,0x80(%rax)
  1093cd:	48 89 98 88 00 00 00 	mov    %rbx,0x88(%rax)
  1093d4:	8b 8d a0 00 00 00    	mov    0xa0(%rbp),%ecx
  1093da:	89 88 90 00 00 00    	mov    %ecx,0x90(%rax)
  1093e0:	48 89 d7             	mov    %rdx,%rdi
  1093e3:	e8 64 13 00 00       	callq  10a74c <_ZN11FAT32Driver10ToFATEntryE8DirEntryRj>
  1093e8:	48 81 c4 a0 00 00 00 	add    $0xa0,%rsp
  1093ef:	48 89 45 c8          	mov    %rax,-0x38(%rbp)
  1093f3:	c7 45 e0 00 00 00 00 	movl   $0x0,-0x20(%rbp)
  1093fa:	48 8b 45 e8          	mov    -0x18(%rbp),%rax
  1093fe:	0f b6 00             	movzbl (%rax),%eax
  109401:	3c e5                	cmp    $0xe5,%al
  109403:	0f 84 64 01 00 00    	je     10956d <_ZN11FAT32Driver12DirectoryAddEj8DirEntry+0x2cd>
  109409:	48 8b 45 e8          	mov    -0x18(%rbp),%rax
  10940d:	0f b6 00             	movzbl (%rax),%eax
  109410:	84 c0                	test   %al,%al
  109412:	0f 84 55 01 00 00    	je     10956d <_ZN11FAT32Driver12DirectoryAddEj8DirEntry+0x2cd>
  109418:	8b 55 e4             	mov    -0x1c(%rbp),%edx
  10941b:	48 8b 45 a8          	mov    -0x58(%rbp),%rax
  10941f:	8b 40 30             	mov    0x30(%rax),%eax
  109422:	89 c0                	mov    %eax,%eax
  109424:	48 c1 e8 05          	shr    $0x5,%rax
  109428:	48 83 e8 01          	sub    $0x1,%rax
  10942c:	48 39 c2             	cmp    %rax,%rdx
  10942f:	73 0e                	jae    10943f <_ZN11FAT32Driver12DirectoryAddEj8DirEntry+0x19f>
  109431:	48 83 45 e8 20       	addq   $0x20,-0x18(%rbp)
  109436:	83 45 e4 01          	addl   $0x1,-0x1c(%rbp)
  10943a:	e9 62 04 00 00       	jmpq   1098a1 <_ZN11FAT32Driver12DirectoryAddEj8DirEntry+0x601>
  10943f:	8b 55 a4             	mov    -0x5c(%rbp),%edx
  109442:	48 8b 45 a8          	mov    -0x58(%rbp),%rax
  109446:	89 d6                	mov    %edx,%esi
  109448:	48 89 c7             	mov    %rax,%rdi
  10944b:	e8 56 ec ff ff       	callq  1080a6 <_ZN11FAT32Driver7ReadFATEj>
  109450:	89 45 dc             	mov    %eax,-0x24(%rbp)
  109453:	81 7d dc f7 ff ff 0f 	cmpl   $0xffffff7,-0x24(%rbp)
  10945a:	76 3b                	jbe    109497 <_ZN11FAT32Driver12DirectoryAddEj8DirEntry+0x1f7>
  10945c:	48 8b 45 a8          	mov    -0x58(%rbp),%rax
  109460:	be 01 00 00 00       	mov    $0x1,%esi
  109465:	48 89 c7             	mov    %rax,%rdi
  109468:	e8 41 ef ff ff       	callq  1083ae <_ZN11FAT32Driver20AllocateClusterChainEj>
  10946d:	89 45 dc             	mov    %eax,-0x24(%rbp)
  109470:	81 7d dc f7 ff ff 0f 	cmpl   $0xffffff7,-0x24(%rbp)
  109477:	75 0a                	jne    109483 <_ZN11FAT32Driver12DirectoryAddEj8DirEntry+0x1e3>
  109479:	b8 ff ff ff ff       	mov    $0xffffffff,%eax
  10947e:	e9 23 04 00 00       	jmpq   1098a6 <_ZN11FAT32Driver12DirectoryAddEj8DirEntry+0x606>
  109483:	8b 55 dc             	mov    -0x24(%rbp),%edx
  109486:	8b 4d a4             	mov    -0x5c(%rbp),%ecx
  109489:	48 8b 45 a8          	mov    -0x58(%rbp),%rax
  10948d:	89 ce                	mov    %ecx,%esi
  10948f:	48 89 c7             	mov    %rax,%rdi
  109492:	e8 57 ec ff ff       	callq  1080ee <_ZN11FAT32Driver8WriteFATEjj>
  109497:	8b 75 dc             	mov    -0x24(%rbp),%esi
  10949a:	48 8b 55 a8          	mov    -0x58(%rbp),%rdx
  10949e:	48 83 ec 08          	sub    $0x8,%rsp
  1094a2:	48 81 ec 98 00 00 00 	sub    $0x98,%rsp
  1094a9:	48 89 e0             	mov    %rsp,%rax
  1094ac:	48 8b 4d 10          	mov    0x10(%rbp),%rcx
  1094b0:	48 8b 5d 18          	mov    0x18(%rbp),%rbx
  1094b4:	48 89 08             	mov    %rcx,(%rax)
  1094b7:	48 89 58 08          	mov    %rbx,0x8(%rax)
  1094bb:	48 8b 4d 20          	mov    0x20(%rbp),%rcx
  1094bf:	48 8b 5d 28          	mov    0x28(%rbp),%rbx
  1094c3:	48 89 48 10          	mov    %rcx,0x10(%rax)
  1094c7:	48 89 58 18          	mov    %rbx,0x18(%rax)
  1094cb:	48 8b 4d 30          	mov    0x30(%rbp),%rcx
  1094cf:	48 8b 5d 38          	mov    0x38(%rbp),%rbx
  1094d3:	48 89 48 20          	mov    %rcx,0x20(%rax)
  1094d7:	48 89 58 28          	mov    %rbx,0x28(%rax)
  1094db:	48 8b 4d 40          	mov    0x40(%rbp),%rcx
  1094df:	48 8b 5d 48          	mov    0x48(%rbp),%rbx
  1094e3:	48 89 48 30          	mov    %rcx,0x30(%rax)
  1094e7:	48 89 58 38          	mov    %rbx,0x38(%rax)
  1094eb:	48 8b 4d 50          	mov    0x50(%rbp),%rcx
  1094ef:	48 8b 5d 58          	mov    0x58(%rbp),%rbx
  1094f3:	48 89 48 40          	mov    %rcx,0x40(%rax)
  1094f7:	48 89 58 48          	mov    %rbx,0x48(%rax)
  1094fb:	48 8b 4d 60          	mov    0x60(%rbp),%rcx
  1094ff:	48 8b 5d 68          	mov    0x68(%rbp),%rbx
  109503:	48 89 48 50          	mov    %rcx,0x50(%rax)
  109507:	48 89 58 58          	mov    %rbx,0x58(%rax)
  10950b:	48 8b 4d 70          	mov    0x70(%rbp),%rcx
  10950f:	48 8b 5d 78          	mov    0x78(%rbp),%rbx
  109513:	48 89 48 60          	mov    %rcx,0x60(%rax)
  109517:	48 89 58 68          	mov    %rbx,0x68(%rax)
  10951b:	48 8b 8d 80 00 00 00 	mov    0x80(%rbp),%rcx
  109522:	48 8b 9d 88 00 00 00 	mov    0x88(%rbp),%rbx
  109529:	48 89 48 70          	mov    %rcx,0x70(%rax)
  10952d:	48 89 58 78          	mov    %rbx,0x78(%rax)
  109531:	48 8b 8d 90 00 00 00 	mov    0x90(%rbp),%rcx
  109538:	48 8b 9d 98 00 00 00 	mov    0x98(%rbp),%rbx
  10953f:	48 89 88 80 00 00 00 	mov    %rcx,0x80(%rax)
  109546:	48 89 98 88 00 00 00 	mov    %rbx,0x88(%rax)
  10954d:	8b 8d a0 00 00 00    	mov    0xa0(%rbp),%ecx
  109553:	89 88 90 00 00 00    	mov    %ecx,0x90(%rax)
  109559:	48 89 d7             	mov    %rdx,%rdi
  10955c:	e8 3f fd ff ff       	callq  1092a0 <_ZN11FAT32Driver12DirectoryAddEj8DirEntry>
  109561:	48 81 c4 a0 00 00 00 	add    $0xa0,%rsp
  109568:	e9 39 03 00 00       	jmpq   1098a6 <_ZN11FAT32Driver12DirectoryAddEj8DirEntry+0x606>
  10956d:	8b 45 b4             	mov    -0x4c(%rbp),%eax
  109570:	39 45 e0             	cmp    %eax,-0x20(%rbp)
  109573:	0f 83 59 01 00 00    	jae    1096d2 <_ZN11FAT32Driver12DirectoryAddEj8DirEntry+0x432>
  109579:	83 45 e0 01          	addl   $0x1,-0x20(%rbp)
  10957d:	8b 55 e4             	mov    -0x1c(%rbp),%edx
  109580:	48 8b 45 a8          	mov    -0x58(%rbp),%rax
  109584:	8b 40 30             	mov    0x30(%rax),%eax
  109587:	89 c0                	mov    %eax,%eax
  109589:	48 c1 e8 05          	shr    $0x5,%rax
  10958d:	48 83 e8 01          	sub    $0x1,%rax
  109591:	48 39 c2             	cmp    %rax,%rdx
  109594:	73 0e                	jae    1095a4 <_ZN11FAT32Driver12DirectoryAddEj8DirEntry+0x304>
  109596:	48 83 45 e8 20       	addq   $0x20,-0x18(%rbp)
  10959b:	83 45 e4 01          	addl   $0x1,-0x1c(%rbp)
  10959f:	e9 fd 02 00 00       	jmpq   1098a1 <_ZN11FAT32Driver12DirectoryAddEj8DirEntry+0x601>
  1095a4:	8b 55 a4             	mov    -0x5c(%rbp),%edx
  1095a7:	48 8b 45 a8          	mov    -0x58(%rbp),%rax
  1095ab:	89 d6                	mov    %edx,%esi
  1095ad:	48 89 c7             	mov    %rax,%rdi
  1095b0:	e8 f1 ea ff ff       	callq  1080a6 <_ZN11FAT32Driver7ReadFATEj>
  1095b5:	89 45 d8             	mov    %eax,-0x28(%rbp)
  1095b8:	81 7d d8 f7 ff ff 0f 	cmpl   $0xffffff7,-0x28(%rbp)
  1095bf:	76 3b                	jbe    1095fc <_ZN11FAT32Driver12DirectoryAddEj8DirEntry+0x35c>
  1095c1:	48 8b 45 a8          	mov    -0x58(%rbp),%rax
  1095c5:	be 01 00 00 00       	mov    $0x1,%esi
  1095ca:	48 89 c7             	mov    %rax,%rdi
  1095cd:	e8 dc ed ff ff       	callq  1083ae <_ZN11FAT32Driver20AllocateClusterChainEj>
  1095d2:	89 45 d8             	mov    %eax,-0x28(%rbp)
  1095d5:	81 7d d8 f7 ff ff 0f 	cmpl   $0xffffff7,-0x28(%rbp)
  1095dc:	75 0a                	jne    1095e8 <_ZN11FAT32Driver12DirectoryAddEj8DirEntry+0x348>
  1095de:	b8 ff ff ff ff       	mov    $0xffffffff,%eax
  1095e3:	e9 be 02 00 00       	jmpq   1098a6 <_ZN11FAT32Driver12DirectoryAddEj8DirEntry+0x606>
  1095e8:	8b 55 d8             	mov    -0x28(%rbp),%edx
  1095eb:	8b 4d a4             	mov    -0x5c(%rbp),%ecx
  1095ee:	48 8b 45 a8          	mov    -0x58(%rbp),%rax
  1095f2:	89 ce                	mov    %ecx,%esi
  1095f4:	48 89 c7             	mov    %rax,%rdi
  1095f7:	e8 f2 ea ff ff       	callq  1080ee <_ZN11FAT32Driver8WriteFATEjj>
  1095fc:	8b 75 d8             	mov    -0x28(%rbp),%esi
  1095ff:	48 8b 55 a8          	mov    -0x58(%rbp),%rdx
  109603:	48 83 ec 08          	sub    $0x8,%rsp
  109607:	48 81 ec 98 00 00 00 	sub    $0x98,%rsp
  10960e:	48 89 e0             	mov    %rsp,%rax
  109611:	48 8b 4d 10          	mov    0x10(%rbp),%rcx
  109615:	48 8b 5d 18          	mov    0x18(%rbp),%rbx
  109619:	48 89 08             	mov    %rcx,(%rax)
  10961c:	48 89 58 08          	mov    %rbx,0x8(%rax)
  109620:	48 8b 4d 20          	mov    0x20(%rbp),%rcx
  109624:	48 8b 5d 28          	mov    0x28(%rbp),%rbx
  109628:	48 89 48 10          	mov    %rcx,0x10(%rax)
  10962c:	48 89 58 18          	mov    %rbx,0x18(%rax)
  109630:	48 8b 4d 30          	mov    0x30(%rbp),%rcx
  109634:	48 8b 5d 38          	mov    0x38(%rbp),%rbx
  109638:	48 89 48 20          	mov    %rcx,0x20(%rax)
  10963c:	48 89 58 28          	mov    %rbx,0x28(%rax)
  109640:	48 8b 4d 40          	mov    0x40(%rbp),%rcx
  109644:	48 8b 5d 48          	mov    0x48(%rbp),%rbx
  109648:	48 89 48 30          	mov    %rcx,0x30(%rax)
  10964c:	48 89 58 38          	mov    %rbx,0x38(%rax)
  109650:	48 8b 4d 50          	mov    0x50(%rbp),%rcx
  109654:	48 8b 5d 58          	mov    0x58(%rbp),%rbx
  109658:	48 89 48 40          	mov    %rcx,0x40(%rax)
  10965c:	48 89 58 48          	mov    %rbx,0x48(%rax)
  109660:	48 8b 4d 60          	mov    0x60(%rbp),%rcx
  109664:	48 8b 5d 68          	mov    0x68(%rbp),%rbx
  109668:	48 89 48 50          	mov    %rcx,0x50(%rax)
  10966c:	48 89 58 58          	mov    %rbx,0x58(%rax)
  109670:	48 8b 4d 70          	mov    0x70(%rbp),%rcx
  109674:	48 8b 5d 78          	mov    0x78(%rbp),%rbx
  109678:	48 89 48 60          	mov    %rcx,0x60(%rax)
  10967c:	48 89 58 68          	mov    %rbx,0x68(%rax)
  109680:	48 8b 8d 80 00 00 00 	mov    0x80(%rbp),%rcx
  109687:	48 8b 9d 88 00 00 00 	mov    0x88(%rbp),%rbx
  10968e:	48 89 48 70          	mov    %rcx,0x70(%rax)
  109692:	48 89 58 78          	mov    %rbx,0x78(%rax)
  109696:	48 8b 8d 90 00 00 00 	mov    0x90(%rbp),%rcx
  10969d:	48 8b 9d 98 00 00 00 	mov    0x98(%rbp),%rbx
  1096a4:	48 89 88 80 00 00 00 	mov    %rcx,0x80(%rax)
  1096ab:	48 89 98 88 00 00 00 	mov    %rbx,0x88(%rax)
  1096b2:	8b 8d a0 00 00 00    	mov    0xa0(%rbp),%ecx
  1096b8:	89 88 90 00 00 00    	mov    %ecx,0x90(%rax)
  1096be:	48 89 d7             	mov    %rdx,%rdi
  1096c1:	e8 da fb ff ff       	callq  1092a0 <_ZN11FAT32Driver12DirectoryAddEj8DirEntry>
  1096c6:	48 81 c4 a0 00 00 00 	add    $0xa0,%rsp
  1096cd:	e9 d4 01 00 00       	jmpq   1098a6 <_ZN11FAT32Driver12DirectoryAddEj8DirEntry+0x606>
  1096d2:	48 8b 45 a8          	mov    -0x58(%rbp),%rax
  1096d6:	48 89 c7             	mov    %rax,%rdi
  1096d9:	e8 88 16 00 00       	callq  10ad66 <_ZNK11FAT32Driver7GetDateEv>
  1096de:	48 8b 55 c8          	mov    -0x38(%rbp),%rdx
  1096e2:	66 89 42 10          	mov    %ax,0x10(%rdx)
  1096e6:	48 8b 45 a8          	mov    -0x58(%rbp),%rax
  1096ea:	48 89 c7             	mov    %rax,%rdi
  1096ed:	e8 26 16 00 00       	callq  10ad18 <_ZNK11FAT32Driver7GetTimeEv>
  1096f2:	48 8b 55 c8          	mov    -0x38(%rbp),%rdx
  1096f6:	66 89 42 0e          	mov    %ax,0xe(%rdx)
  1096fa:	48 8b 45 a8          	mov    -0x58(%rbp),%rax
  1096fe:	48 89 c7             	mov    %rax,%rdi
  109701:	e8 fa 15 00 00       	callq  10ad00 <_ZNK11FAT32Driver15GetMillisecondsEv>
  109706:	48 8b 55 c8          	mov    -0x38(%rbp),%rdx
  10970a:	88 42 0d             	mov    %al,0xd(%rdx)
  10970d:	48 8b 45 a8          	mov    -0x58(%rbp),%rax
  109711:	48 89 c7             	mov    %rax,%rdi
  109714:	e8 4d 16 00 00       	callq  10ad66 <_ZNK11FAT32Driver7GetDateEv>
  109719:	48 8b 55 c8          	mov    -0x38(%rbp),%rdx
  10971d:	66 89 42 12          	mov    %ax,0x12(%rdx)
  109721:	48 8b 45 a8          	mov    -0x58(%rbp),%rax
  109725:	48 89 c7             	mov    %rax,%rdi
  109728:	e8 39 16 00 00       	callq  10ad66 <_ZNK11FAT32Driver7GetDateEv>
  10972d:	48 8b 55 c8          	mov    -0x38(%rbp),%rdx
  109731:	66 89 42 18          	mov    %ax,0x18(%rdx)
  109735:	48 8b 45 a8          	mov    -0x58(%rbp),%rax
  109739:	48 89 c7             	mov    %rax,%rdi
  10973c:	e8 d7 15 00 00       	callq  10ad18 <_ZNK11FAT32Driver7GetTimeEv>
  109741:	48 8b 55 c8          	mov    -0x38(%rbp),%rdx
  109745:	66 89 42 16          	mov    %ax,0x16(%rdx)
  109749:	48 8b 45 c8          	mov    -0x38(%rbp),%rax
  10974d:	8b 40 1c             	mov    0x1c(%rax),%eax
  109750:	48 8b 55 a8          	mov    -0x58(%rbp),%rdx
  109754:	8b 5a 30             	mov    0x30(%rdx),%ebx
  109757:	ba 00 00 00 00       	mov    $0x0,%edx
  10975c:	f7 f3                	div    %ebx
  10975e:	89 45 d4             	mov    %eax,-0x2c(%rbp)
  109761:	48 8b 45 a8          	mov    -0x58(%rbp),%rax
  109765:	8b 40 30             	mov    0x30(%rax),%eax
  109768:	0f af 45 d4          	imul   -0x2c(%rbp),%eax
  10976c:	89 c2                	mov    %eax,%edx
  10976e:	48 8b 45 a8          	mov    -0x58(%rbp),%rax
  109772:	8b 40 30             	mov    0x30(%rax),%eax
  109775:	39 c2                	cmp    %eax,%edx
  109777:	74 04                	je     10977d <_ZN11FAT32Driver12DirectoryAddEj8DirEntry+0x4dd>
  109779:	83 45 d4 01          	addl   $0x1,-0x2c(%rbp)
  10977d:	8b 55 d4             	mov    -0x2c(%rbp),%edx
  109780:	48 8b 45 a8          	mov    -0x58(%rbp),%rax
  109784:	89 d6                	mov    %edx,%esi
  109786:	48 89 c7             	mov    %rax,%rdi
  109789:	e8 20 ec ff ff       	callq  1083ae <_ZN11FAT32Driver20AllocateClusterChainEj>
  10978e:	89 45 c4             	mov    %eax,-0x3c(%rbp)
  109791:	81 7d c4 f7 ff ff 0f 	cmpl   $0xffffff7,-0x3c(%rbp)
  109798:	75 0a                	jne    1097a4 <_ZN11FAT32Driver12DirectoryAddEj8DirEntry+0x504>
  10979a:	b8 ff ff ff ff       	mov    $0xffffffff,%eax
  10979f:	e9 02 01 00 00       	jmpq   1098a6 <_ZN11FAT32Driver12DirectoryAddEj8DirEntry+0x606>
  1097a4:	48 8b 45 a8          	mov    -0x58(%rbp),%rax
  1097a8:	8b 40 30             	mov    0x30(%rax),%eax
  1097ab:	0f af 45 d4          	imul   -0x2c(%rbp),%eax
  1097af:	89 c0                	mov    %eax,%eax
  1097b1:	48 89 c7             	mov    %rax,%rdi
  1097b4:	e8 f0 a1 ff ff       	callq  1039a9 <_Znam>
  1097b9:	48 89 45 b8          	mov    %rax,-0x48(%rbp)
  1097bd:	48 8b 45 a8          	mov    -0x58(%rbp),%rax
  1097c1:	8b 40 30             	mov    0x30(%rax),%eax
  1097c4:	0f af 45 d4          	imul   -0x2c(%rbp),%eax
  1097c8:	89 c2                	mov    %eax,%edx
  1097ca:	48 8b 45 b8          	mov    -0x48(%rbp),%rax
  1097ce:	be 00 00 00 00       	mov    $0x0,%esi
  1097d3:	48 89 c7             	mov    %rax,%rdi
  1097d6:	e8 74 34 00 00       	callq  10cc4f <_Z6memsetPvim>
  1097db:	48 8b 45 a8          	mov    -0x58(%rbp),%rax
  1097df:	8b 40 30             	mov    0x30(%rax),%eax
  1097e2:	0f af 45 d4          	imul   -0x2c(%rbp),%eax
  1097e6:	89 c1                	mov    %eax,%ecx
  1097e8:	48 8b 55 b8          	mov    -0x48(%rbp),%rdx
  1097ec:	8b 75 c4             	mov    -0x3c(%rbp),%esi
  1097ef:	48 8b 45 a8          	mov    -0x58(%rbp),%rax
  1097f3:	48 89 c7             	mov    %rax,%rdi
  1097f6:	e8 0f ee ff ff       	callq  10860a <_ZN11FAT32Driver17WriteClusterChainEjPvj>
  1097fb:	48 8b 45 c8          	mov    -0x38(%rbp),%rax
  1097ff:	0f b6 40 0b          	movzbl 0xb(%rax),%eax
  109803:	0f b6 c0             	movzbl %al,%eax
  109806:	83 e0 10             	and    $0x10,%eax
  109809:	85 c0                	test   %eax,%eax
  10980b:	74 11                	je     10981e <_ZN11FAT32Driver12DirectoryAddEj8DirEntry+0x57e>
  10980d:	8b 55 c4             	mov    -0x3c(%rbp),%edx
  109810:	48 8b 45 a8          	mov    -0x58(%rbp),%rax
  109814:	89 d6                	mov    %edx,%esi
  109816:	48 89 c7             	mov    %rax,%rdi
  109819:	e8 e0 f5 ff ff       	callq  108dfe <_ZN11FAT32Driver21PrepareAddedDirectoryEj>
  10981e:	8b 45 c4             	mov    -0x3c(%rbp),%eax
  109821:	89 c2                	mov    %eax,%edx
  109823:	48 8b 45 c8          	mov    -0x38(%rbp),%rax
  109827:	66 89 50 1a          	mov    %dx,0x1a(%rax)
  10982b:	8b 45 c4             	mov    -0x3c(%rbp),%eax
  10982e:	c1 e8 10             	shr    $0x10,%eax
  109831:	89 c2                	mov    %eax,%edx
  109833:	48 8b 45 c8          	mov    -0x38(%rbp),%rax
  109837:	66 89 50 14          	mov    %dx,0x14(%rax)
  10983b:	8b 45 b4             	mov    -0x4c(%rbp),%eax
  10983e:	83 c0 01             	add    $0x1,%eax
  109841:	89 c0                	mov    %eax,%eax
  109843:	48 c1 e0 05          	shl    $0x5,%rax
  109847:	48 89 c2             	mov    %rax,%rdx
  10984a:	8b 45 b4             	mov    -0x4c(%rbp),%eax
  10984d:	89 c0                	mov    %eax,%eax
  10984f:	48 c1 e0 05          	shl    $0x5,%rax
  109853:	48 f7 d8             	neg    %rax
  109856:	48 89 c1             	mov    %rax,%rcx
  109859:	48 8b 45 c8          	mov    -0x38(%rbp),%rax
  10985d:	48 01 c1             	add    %rax,%rcx
  109860:	8b 45 b4             	mov    -0x4c(%rbp),%eax
  109863:	89 c0                	mov    %eax,%eax
  109865:	48 c1 e0 05          	shl    $0x5,%rax
  109869:	48 f7 d8             	neg    %rax
  10986c:	48 89 c6             	mov    %rax,%rsi
  10986f:	48 8b 45 e8          	mov    -0x18(%rbp),%rax
  109873:	48 01 f0             	add    %rsi,%rax
  109876:	48 89 ce             	mov    %rcx,%rsi
  109879:	48 89 c7             	mov    %rax,%rdi
  10987c:	e8 8c 33 00 00       	callq  10cc0d <_Z6memcpyPvPKvm>
  109881:	48 8b 45 a8          	mov    -0x58(%rbp),%rax
  109885:	48 8b 50 18          	mov    0x18(%rax),%rdx
  109889:	8b 4d a4             	mov    -0x5c(%rbp),%ecx
  10988c:	48 8b 45 a8          	mov    -0x58(%rbp),%rax
  109890:	89 ce                	mov    %ecx,%esi
  109892:	48 89 c7             	mov    %rax,%rdi
  109895:	e8 96 e9 ff ff       	callq  108230 <_ZN11FAT32Driver12WriteClusterEjPv>
  10989a:	b8 00 00 00 00       	mov    $0x0,%eax
  10989f:	eb 05                	jmp    1098a6 <_ZN11FAT32Driver12DirectoryAddEj8DirEntry+0x606>
  1098a1:	e9 54 fb ff ff       	jmpq   1093fa <_ZN11FAT32Driver12DirectoryAddEj8DirEntry+0x15a>
  1098a6:	48 8b 5d f8          	mov    -0x8(%rbp),%rbx
  1098aa:	c9                   	leaveq 
  1098ab:	c3                   	retq   

00000000001098ac <_ZN11FAT32Driver8OpenFileEPKcP8DirEntry>:
  1098ac:	f3 0f 1e fa          	endbr64 
  1098b0:	55                   	push   %rbp
  1098b1:	48 89 e5             	mov    %rsp,%rbp
  1098b4:	48 83 ec 20          	sub    $0x20,%rsp
  1098b8:	48 89 7d f8          	mov    %rdi,-0x8(%rbp)
  1098bc:	48 89 75 f0          	mov    %rsi,-0x10(%rbp)
  1098c0:	48 89 55 e8          	mov    %rdx,-0x18(%rbp)
  1098c4:	48 83 7d e8 00       	cmpq   $0x0,-0x18(%rbp)
  1098c9:	75 07                	jne    1098d2 <_ZN11FAT32Driver8OpenFileEPKcP8DirEntry+0x26>
  1098cb:	b8 ff ff ff ff       	mov    $0xffffffff,%eax
  1098d0:	eb 1c                	jmp    1098ee <_ZN11FAT32Driver8OpenFileEPKcP8DirEntry+0x42>
  1098d2:	48 8b 55 e8          	mov    -0x18(%rbp),%rdx
  1098d6:	48 8b 4d f0          	mov    -0x10(%rbp),%rcx
  1098da:	48 8b 45 f8          	mov    -0x8(%rbp),%rax
  1098de:	48 89 ce             	mov    %rcx,%rsi
  1098e1:	48 89 c7             	mov    %rax,%rdi
  1098e4:	e8 05 0a 00 00       	callq  10a2ee <_ZN11FAT32Driver22GetClusterFromFilePathEPKcP8DirEntry>
  1098e9:	b8 00 00 00 00       	mov    $0x0,%eax
  1098ee:	c9                   	leaveq 
  1098ef:	c3                   	retq   

00000000001098f0 <_ZN11FAT32Driver10CreateFileEPKcP8DirEntry>:
  1098f0:	f3 0f 1e fa          	endbr64 
  1098f4:	55                   	push   %rbp
  1098f5:	48 89 e5             	mov    %rsp,%rbp
  1098f8:	53                   	push   %rbx
  1098f9:	48 81 ec c8 00 00 00 	sub    $0xc8,%rsp
  109900:	48 89 bd 48 ff ff ff 	mov    %rdi,-0xb8(%rbp)
  109907:	48 89 b5 40 ff ff ff 	mov    %rsi,-0xc0(%rbp)
  10990e:	48 89 95 38 ff ff ff 	mov    %rdx,-0xc8(%rbp)
  109915:	48 8d 95 50 ff ff ff 	lea    -0xb0(%rbp),%rdx
  10991c:	48 8b 8d 40 ff ff ff 	mov    -0xc0(%rbp),%rcx
  109923:	48 8b 85 48 ff ff ff 	mov    -0xb8(%rbp),%rax
  10992a:	48 89 ce             	mov    %rcx,%rsi
  10992d:	48 89 c7             	mov    %rax,%rdi
  109930:	e8 b9 09 00 00       	callq  10a2ee <_ZN11FAT32Driver22GetClusterFromFilePathEPKcP8DirEntry>
  109935:	89 45 ec             	mov    %eax,-0x14(%rbp)
  109938:	48 8b 85 38 ff ff ff 	mov    -0xc8(%rbp),%rax
  10993f:	8b 55 ec             	mov    -0x14(%rbp),%edx
  109942:	89 90 8c 00 00 00    	mov    %edx,0x8c(%rax)
  109948:	48 8b 85 38 ff ff ff 	mov    -0xc8(%rbp),%rax
  10994f:	c7 80 90 00 00 00 ff 	movl   $0xffffffff,0x90(%rax)
  109956:	ff ff ff 
  109959:	48 8b b5 38 ff ff ff 	mov    -0xc8(%rbp),%rsi
  109960:	8b 55 ec             	mov    -0x14(%rbp),%edx
  109963:	48 8b 85 48 ff ff ff 	mov    -0xb8(%rbp),%rax
  10996a:	b9 00 00 00 00       	mov    $0x0,%ecx
  10996f:	48 89 c7             	mov    %rax,%rdi
  109972:	e8 87 f7 ff ff       	callq  1090fe <_ZN11FAT32Driver15DirectorySearchEPKcjP8DirEntry>
  109977:	89 45 e8             	mov    %eax,-0x18(%rbp)
  10997a:	83 7d e8 fe          	cmpl   $0xfffffffe,-0x18(%rbp)
  10997e:	74 08                	je     109988 <_ZN11FAT32Driver10CreateFileEPKcP8DirEntry+0x98>
  109980:	8b 45 e8             	mov    -0x18(%rbp),%eax
  109983:	e9 0a 01 00 00       	jmpq   109a92 <_ZN11FAT32Driver10CreateFileEPKcP8DirEntry+0x1a2>
  109988:	0f b6 45 d8          	movzbl -0x28(%rbp),%eax
  10998c:	0f b6 c0             	movzbl %al,%eax
  10998f:	83 e0 10             	and    $0x10,%eax
  109992:	85 c0                	test   %eax,%eax
  109994:	75 0a                	jne    1099a0 <_ZN11FAT32Driver10CreateFileEPKcP8DirEntry+0xb0>
  109996:	b8 fe ff ff ff       	mov    $0xfffffffe,%eax
  10999b:	e9 f2 00 00 00       	jmpq   109a92 <_ZN11FAT32Driver10CreateFileEPKcP8DirEntry+0x1a2>
  1099a0:	8b 75 ec             	mov    -0x14(%rbp),%esi
  1099a3:	48 8b bd 48 ff ff ff 	mov    -0xb8(%rbp),%rdi
  1099aa:	48 83 ec 08          	sub    $0x8,%rsp
  1099ae:	48 8b 85 38 ff ff ff 	mov    -0xc8(%rbp),%rax
  1099b5:	48 81 ec 98 00 00 00 	sub    $0x98,%rsp
  1099bc:	48 89 e2             	mov    %rsp,%rdx
  1099bf:	48 8b 08             	mov    (%rax),%rcx
  1099c2:	48 8b 58 08          	mov    0x8(%rax),%rbx
  1099c6:	48 89 0a             	mov    %rcx,(%rdx)
  1099c9:	48 89 5a 08          	mov    %rbx,0x8(%rdx)
  1099cd:	48 8b 48 10          	mov    0x10(%rax),%rcx
  1099d1:	48 8b 58 18          	mov    0x18(%rax),%rbx
  1099d5:	48 89 4a 10          	mov    %rcx,0x10(%rdx)
  1099d9:	48 89 5a 18          	mov    %rbx,0x18(%rdx)
  1099dd:	48 8b 48 20          	mov    0x20(%rax),%rcx
  1099e1:	48 8b 58 28          	mov    0x28(%rax),%rbx
  1099e5:	48 89 4a 20          	mov    %rcx,0x20(%rdx)
  1099e9:	48 89 5a 28          	mov    %rbx,0x28(%rdx)
  1099ed:	48 8b 48 30          	mov    0x30(%rax),%rcx
  1099f1:	48 8b 58 38          	mov    0x38(%rax),%rbx
  1099f5:	48 89 4a 30          	mov    %rcx,0x30(%rdx)
  1099f9:	48 89 5a 38          	mov    %rbx,0x38(%rdx)
  1099fd:	48 8b 48 40          	mov    0x40(%rax),%rcx
  109a01:	48 8b 58 48          	mov    0x48(%rax),%rbx
  109a05:	48 89 4a 40          	mov    %rcx,0x40(%rdx)
  109a09:	48 89 5a 48          	mov    %rbx,0x48(%rdx)
  109a0d:	48 8b 48 50          	mov    0x50(%rax),%rcx
  109a11:	48 8b 58 58          	mov    0x58(%rax),%rbx
  109a15:	48 89 4a 50          	mov    %rcx,0x50(%rdx)
  109a19:	48 89 5a 58          	mov    %rbx,0x58(%rdx)
  109a1d:	48 8b 48 60          	mov    0x60(%rax),%rcx
  109a21:	48 8b 58 68          	mov    0x68(%rax),%rbx
  109a25:	48 89 4a 60          	mov    %rcx,0x60(%rdx)
  109a29:	48 89 5a 68          	mov    %rbx,0x68(%rdx)
  109a2d:	48 8b 48 70          	mov    0x70(%rax),%rcx
  109a31:	48 8b 58 78          	mov    0x78(%rax),%rbx
  109a35:	48 89 4a 70          	mov    %rcx,0x70(%rdx)
  109a39:	48 89 5a 78          	mov    %rbx,0x78(%rdx)
  109a3d:	48 8b 88 80 00 00 00 	mov    0x80(%rax),%rcx
  109a44:	48 8b 98 88 00 00 00 	mov    0x88(%rax),%rbx
  109a4b:	48 89 8a 80 00 00 00 	mov    %rcx,0x80(%rdx)
  109a52:	48 89 9a 88 00 00 00 	mov    %rbx,0x88(%rdx)
  109a59:	8b 80 90 00 00 00    	mov    0x90(%rax),%eax
  109a5f:	89 82 90 00 00 00    	mov    %eax,0x90(%rdx)
  109a65:	e8 36 f8 ff ff       	callq  1092a0 <_ZN11FAT32Driver12DirectoryAddEj8DirEntry>
  109a6a:	48 81 c4 a0 00 00 00 	add    $0xa0,%rsp
  109a71:	48 8b b5 38 ff ff ff 	mov    -0xc8(%rbp),%rsi
  109a78:	48 8b 8d 38 ff ff ff 	mov    -0xc8(%rbp),%rcx
  109a7f:	8b 55 ec             	mov    -0x14(%rbp),%edx
  109a82:	48 8b 85 48 ff ff ff 	mov    -0xb8(%rbp),%rax
  109a89:	48 89 c7             	mov    %rax,%rdi
  109a8c:	e8 6d f6 ff ff       	callq  1090fe <_ZN11FAT32Driver15DirectorySearchEPKcjP8DirEntry>
  109a91:	90                   	nop
  109a92:	48 8b 5d f8          	mov    -0x8(%rbp),%rbx
  109a96:	c9                   	leaveq 
  109a97:	c3                   	retq   

0000000000109a98 <_ZN11FAT32Driver10DeleteFileE8DirEntry>:
  109a98:	f3 0f 1e fa          	endbr64 
  109a9c:	55                   	push   %rbp
  109a9d:	48 89 e5             	mov    %rsp,%rbp
  109aa0:	53                   	push   %rbx
  109aa1:	48 83 ec 38          	sub    $0x38,%rsp
  109aa5:	48 89 7d c8          	mov    %rdi,-0x38(%rbp)
  109aa9:	0f b6 85 98 00 00 00 	movzbl 0x98(%rbp),%eax
  109ab0:	0f b6 c0             	movzbl %al,%eax
  109ab3:	83 e0 10             	and    $0x10,%eax
  109ab6:	85 c0                	test   %eax,%eax
  109ab8:	0f 84 57 01 00 00    	je     109c15 <_ZN11FAT32Driver10DeleteFileE8DirEntry+0x17d>
  109abe:	8b 95 90 00 00 00    	mov    0x90(%rbp),%edx
  109ac4:	48 8d 45 d0          	lea    -0x30(%rbp),%rax
  109ac8:	48 8b 75 c8          	mov    -0x38(%rbp),%rsi
  109acc:	41 b8 00 00 00 00    	mov    $0x0,%r8d
  109ad2:	b9 00 00 00 00       	mov    $0x0,%ecx
  109ad7:	48 89 c7             	mov    %rax,%rdi
  109ada:	e8 77 ee ff ff       	callq  108956 <_ZN11FAT32Driver14GetDirectoriesEjjb>
  109adf:	48 c7 45 e8 00 00 00 	movq   $0x0,-0x18(%rbp)
  109ae6:	00 
  109ae7:	48 8d 45 d0          	lea    -0x30(%rbp),%rax
  109aeb:	48 89 c7             	mov    %rax,%rdi
  109aee:	e8 a9 48 00 00       	callq  10e39c <_ZNK6vectorI8DirEntryE4sizeEv>
  109af3:	48 39 45 e8          	cmp    %rax,-0x18(%rbp)
  109af7:	0f 92 c0             	setb   %al
  109afa:	84 c0                	test   %al,%al
  109afc:	0f 84 07 01 00 00    	je     109c09 <_ZN11FAT32Driver10DeleteFileE8DirEntry+0x171>
  109b02:	48 8b 55 e8          	mov    -0x18(%rbp),%rdx
  109b06:	48 8d 45 d0          	lea    -0x30(%rbp),%rax
  109b0a:	48 89 d6             	mov    %rdx,%rsi
  109b0d:	48 89 c7             	mov    %rax,%rdi
  109b10:	e8 a1 48 00 00       	callq  10e3b6 <_ZN6vectorI8DirEntryEixEm>
  109b15:	0f b6 00             	movzbl (%rax),%eax
  109b18:	3c 2e                	cmp    $0x2e,%al
  109b1a:	0f 95 c0             	setne  %al
  109b1d:	84 c0                	test   %al,%al
  109b1f:	0f 84 da 00 00 00    	je     109bff <_ZN11FAT32Driver10DeleteFileE8DirEntry+0x167>
  109b25:	48 8b 55 e8          	mov    -0x18(%rbp),%rdx
  109b29:	48 8d 45 d0          	lea    -0x30(%rbp),%rax
  109b2d:	48 89 d6             	mov    %rdx,%rsi
  109b30:	48 89 c7             	mov    %rax,%rdi
  109b33:	e8 7e 48 00 00       	callq  10e3b6 <_ZN6vectorI8DirEntryEixEm>
  109b38:	48 8b 75 c8          	mov    -0x38(%rbp),%rsi
  109b3c:	48 83 ec 08          	sub    $0x8,%rsp
  109b40:	48 81 ec 98 00 00 00 	sub    $0x98,%rsp
  109b47:	48 89 e2             	mov    %rsp,%rdx
  109b4a:	48 8b 08             	mov    (%rax),%rcx
  109b4d:	48 8b 58 08          	mov    0x8(%rax),%rbx
  109b51:	48 89 0a             	mov    %rcx,(%rdx)
  109b54:	48 89 5a 08          	mov    %rbx,0x8(%rdx)
  109b58:	48 8b 48 10          	mov    0x10(%rax),%rcx
  109b5c:	48 8b 58 18          	mov    0x18(%rax),%rbx
  109b60:	48 89 4a 10          	mov    %rcx,0x10(%rdx)
  109b64:	48 89 5a 18          	mov    %rbx,0x18(%rdx)
  109b68:	48 8b 48 20          	mov    0x20(%rax),%rcx
  109b6c:	48 8b 58 28          	mov    0x28(%rax),%rbx
  109b70:	48 89 4a 20          	mov    %rcx,0x20(%rdx)
  109b74:	48 89 5a 28          	mov    %rbx,0x28(%rdx)
  109b78:	48 8b 48 30          	mov    0x30(%rax),%rcx
  109b7c:	48 8b 58 38          	mov    0x38(%rax),%rbx
  109b80:	48 89 4a 30          	mov    %rcx,0x30(%rdx)
  109b84:	48 89 5a 38          	mov    %rbx,0x38(%rdx)
  109b88:	48 8b 48 40          	mov    0x40(%rax),%rcx
  109b8c:	48 8b 58 48          	mov    0x48(%rax),%rbx
  109b90:	48 89 4a 40          	mov    %rcx,0x40(%rdx)
  109b94:	48 89 5a 48          	mov    %rbx,0x48(%rdx)
  109b98:	48 8b 48 50          	mov    0x50(%rax),%rcx
  109b9c:	48 8b 58 58          	mov    0x58(%rax),%rbx
  109ba0:	48 89 4a 50          	mov    %rcx,0x50(%rdx)
  109ba4:	48 89 5a 58          	mov    %rbx,0x58(%rdx)
  109ba8:	48 8b 48 60          	mov    0x60(%rax),%rcx
  109bac:	48 8b 58 68          	mov    0x68(%rax),%rbx
  109bb0:	48 89 4a 60          	mov    %rcx,0x60(%rdx)
  109bb4:	48 89 5a 68          	mov    %rbx,0x68(%rdx)
  109bb8:	48 8b 48 70          	mov    0x70(%rax),%rcx
  109bbc:	48 8b 58 78          	mov    0x78(%rax),%rbx
  109bc0:	48 89 4a 70          	mov    %rcx,0x70(%rdx)
  109bc4:	48 89 5a 78          	mov    %rbx,0x78(%rdx)
  109bc8:	48 8b 88 80 00 00 00 	mov    0x80(%rax),%rcx
  109bcf:	48 8b 98 88 00 00 00 	mov    0x88(%rax),%rbx
  109bd6:	48 89 8a 80 00 00 00 	mov    %rcx,0x80(%rdx)
  109bdd:	48 89 9a 88 00 00 00 	mov    %rbx,0x88(%rdx)
  109be4:	8b 80 90 00 00 00    	mov    0x90(%rax),%eax
  109bea:	89 82 90 00 00 00    	mov    %eax,0x90(%rdx)
  109bf0:	48 89 f7             	mov    %rsi,%rdi
  109bf3:	e8 a0 fe ff ff       	callq  109a98 <_ZN11FAT32Driver10DeleteFileE8DirEntry>
  109bf8:	48 81 c4 a0 00 00 00 	add    $0xa0,%rsp
  109bff:	48 83 45 e8 01       	addq   $0x1,-0x18(%rbp)
  109c04:	e9 de fe ff ff       	jmpq   109ae7 <_ZN11FAT32Driver10DeleteFileE8DirEntry+0x4f>
  109c09:	48 8d 45 d0          	lea    -0x30(%rbp),%rax
  109c0d:	48 89 c7             	mov    %rax,%rdi
  109c10:	e8 57 47 00 00       	callq  10e36c <_ZN6vectorI8DirEntryED1Ev>
  109c15:	8b 95 90 00 00 00    	mov    0x90(%rbp),%edx
  109c1b:	48 8b 45 c8          	mov    -0x38(%rbp),%rax
  109c1f:	89 d6                	mov    %edx,%esi
  109c21:	48 89 c7             	mov    %rax,%rdi
  109c24:	e8 6f e8 ff ff       	callq  108498 <_ZN11FAT32Driver16FreeClusterChainEj>
  109c29:	8b b5 9c 00 00 00    	mov    0x9c(%rbp),%esi
  109c2f:	48 8b 55 c8          	mov    -0x38(%rbp),%rdx
  109c33:	48 83 ec 08          	sub    $0x8,%rsp
  109c37:	48 81 ec 98 00 00 00 	sub    $0x98,%rsp
  109c3e:	48 89 e0             	mov    %rsp,%rax
  109c41:	48 8b 4d 10          	mov    0x10(%rbp),%rcx
  109c45:	48 8b 5d 18          	mov    0x18(%rbp),%rbx
  109c49:	48 89 08             	mov    %rcx,(%rax)
  109c4c:	48 89 58 08          	mov    %rbx,0x8(%rax)
  109c50:	48 8b 4d 20          	mov    0x20(%rbp),%rcx
  109c54:	48 8b 5d 28          	mov    0x28(%rbp),%rbx
  109c58:	48 89 48 10          	mov    %rcx,0x10(%rax)
  109c5c:	48 89 58 18          	mov    %rbx,0x18(%rax)
  109c60:	48 8b 4d 30          	mov    0x30(%rbp),%rcx
  109c64:	48 8b 5d 38          	mov    0x38(%rbp),%rbx
  109c68:	48 89 48 20          	mov    %rcx,0x20(%rax)
  109c6c:	48 89 58 28          	mov    %rbx,0x28(%rax)
  109c70:	48 8b 4d 40          	mov    0x40(%rbp),%rcx
  109c74:	48 8b 5d 48          	mov    0x48(%rbp),%rbx
  109c78:	48 89 48 30          	mov    %rcx,0x30(%rax)
  109c7c:	48 89 58 38          	mov    %rbx,0x38(%rax)
  109c80:	48 8b 4d 50          	mov    0x50(%rbp),%rcx
  109c84:	48 8b 5d 58          	mov    0x58(%rbp),%rbx
  109c88:	48 89 48 40          	mov    %rcx,0x40(%rax)
  109c8c:	48 89 58 48          	mov    %rbx,0x48(%rax)
  109c90:	48 8b 4d 60          	mov    0x60(%rbp),%rcx
  109c94:	48 8b 5d 68          	mov    0x68(%rbp),%rbx
  109c98:	48 89 48 50          	mov    %rcx,0x50(%rax)
  109c9c:	48 89 58 58          	mov    %rbx,0x58(%rax)
  109ca0:	48 8b 4d 70          	mov    0x70(%rbp),%rcx
  109ca4:	48 8b 5d 78          	mov    0x78(%rbp),%rbx
  109ca8:	48 89 48 60          	mov    %rcx,0x60(%rax)
  109cac:	48 89 58 68          	mov    %rbx,0x68(%rax)
  109cb0:	48 8b 8d 80 00 00 00 	mov    0x80(%rbp),%rcx
  109cb7:	48 8b 9d 88 00 00 00 	mov    0x88(%rbp),%rbx
  109cbe:	48 89 48 70          	mov    %rcx,0x70(%rax)
  109cc2:	48 89 58 78          	mov    %rbx,0x78(%rax)
  109cc6:	48 8b 8d 90 00 00 00 	mov    0x90(%rbp),%rcx
  109ccd:	48 8b 9d 98 00 00 00 	mov    0x98(%rbp),%rbx
  109cd4:	48 89 88 80 00 00 00 	mov    %rcx,0x80(%rax)
  109cdb:	48 89 98 88 00 00 00 	mov    %rbx,0x88(%rax)
  109ce2:	8b 8d a0 00 00 00    	mov    0xa0(%rbp),%ecx
  109ce8:	89 88 90 00 00 00    	mov    %ecx,0x90(%rax)
  109cee:	48 89 d7             	mov    %rdx,%rdi
  109cf1:	e8 14 f3 ff ff       	callq  10900a <_ZN11FAT32Driver14CleanFileEntryEj8DirEntry>
  109cf6:	48 81 c4 a0 00 00 00 	add    $0xa0,%rsp
  109cfd:	b8 00 00 00 00       	mov    $0x0,%eax
  109d02:	48 8b 5d f8          	mov    -0x8(%rbp),%rbx
  109d06:	c9                   	leaveq 
  109d07:	c3                   	retq   

0000000000109d08 <_ZN11FAT32Driver8ReadFileE8DirEntrymPvm>:
  109d08:	f3 0f 1e fa          	endbr64 
  109d0c:	55                   	push   %rbp
  109d0d:	48 89 e5             	mov    %rsp,%rbp
  109d10:	53                   	push   %rbx
  109d11:	48 83 ec 78          	sub    $0x78,%rsp
  109d15:	48 89 7d 98          	mov    %rdi,-0x68(%rbp)
  109d19:	48 89 75 90          	mov    %rsi,-0x70(%rbp)
  109d1d:	48 89 55 88          	mov    %rdx,-0x78(%rbp)
  109d21:	48 89 4d 80          	mov    %rcx,-0x80(%rbp)
  109d25:	0f b6 85 98 00 00 00 	movzbl 0x98(%rbp),%eax
  109d2c:	0f b6 c0             	movzbl %al,%eax
  109d2f:	83 e0 10             	and    $0x10,%eax
  109d32:	85 c0                	test   %eax,%eax
  109d34:	74 0a                	je     109d40 <_ZN11FAT32Driver8ReadFileE8DirEntrymPvm+0x38>
  109d36:	bb fd ff ff ff       	mov    $0xfffffffd,%ebx
  109d3b:	e9 71 01 00 00       	jmpq   109eb1 <_ZN11FAT32Driver8ReadFileE8DirEntrymPvm+0x1a9>
  109d40:	48 8b 55 80          	mov    -0x80(%rbp),%rdx
  109d44:	48 8b 45 90          	mov    -0x70(%rbp),%rax
  109d48:	48 01 d0             	add    %rdx,%rax
  109d4b:	8b 95 94 00 00 00    	mov    0x94(%rbp),%edx
  109d51:	89 d2                	mov    %edx,%edx
  109d53:	48 39 d0             	cmp    %rdx,%rax
  109d56:	76 10                	jbe    109d68 <_ZN11FAT32Driver8ReadFileE8DirEntrymPvm+0x60>
  109d58:	8b 85 94 00 00 00    	mov    0x94(%rbp),%eax
  109d5e:	89 c0                	mov    %eax,%eax
  109d60:	48 2b 45 90          	sub    -0x70(%rbp),%rax
  109d64:	48 89 45 80          	mov    %rax,-0x80(%rbp)
  109d68:	8b 95 90 00 00 00    	mov    0x90(%rbp),%edx
  109d6e:	48 8d 45 a0          	lea    -0x60(%rbp),%rax
  109d72:	48 8b 4d 98          	mov    -0x68(%rbp),%rcx
  109d76:	48 89 ce             	mov    %rcx,%rsi
  109d79:	48 89 c7             	mov    %rax,%rdi
  109d7c:	e8 59 e5 ff ff       	callq  1082da <_ZN11FAT32Driver15GetClusterChainEj>
  109d81:	48 c7 45 e8 00 00 00 	movq   $0x0,-0x18(%rbp)
  109d88:	00 
  109d89:	48 8b 45 88          	mov    -0x78(%rbp),%rax
  109d8d:	48 89 45 e0          	mov    %rax,-0x20(%rbp)
  109d91:	c7 45 dc 00 00 00 00 	movl   $0x0,-0x24(%rbp)
  109d98:	8b 5d dc             	mov    -0x24(%rbp),%ebx
  109d9b:	48 8d 45 a0          	lea    -0x60(%rbp),%rax
  109d9f:	48 89 c7             	mov    %rax,%rdi
  109da2:	e8 d1 47 00 00       	callq  10e578 <_ZNK6vectorIjE4sizeEv>
  109da7:	48 39 c3             	cmp    %rax,%rbx
  109daa:	0f 92 c0             	setb   %al
  109dad:	84 c0                	test   %al,%al
  109daf:	0f 84 eb 00 00 00    	je     109ea0 <_ZN11FAT32Driver8ReadFileE8DirEntrymPvm+0x198>
  109db5:	8b 55 dc             	mov    -0x24(%rbp),%edx
  109db8:	48 8d 45 a0          	lea    -0x60(%rbp),%rax
  109dbc:	48 89 d6             	mov    %rdx,%rsi
  109dbf:	48 89 c7             	mov    %rax,%rdi
  109dc2:	e8 cb 47 00 00       	callq  10e592 <_ZN6vectorIjEixEm>
  109dc7:	8b 00                	mov    (%rax),%eax
  109dc9:	89 45 cc             	mov    %eax,-0x34(%rbp)
  109dcc:	48 8b 45 e8          	mov    -0x18(%rbp),%rax
  109dd0:	48 3b 45 90          	cmp    -0x70(%rbp),%rax
  109dd4:	73 12                	jae    109de8 <_ZN11FAT32Driver8ReadFileE8DirEntrymPvm+0xe0>
  109dd6:	48 8b 45 98          	mov    -0x68(%rbp),%rax
  109dda:	8b 40 30             	mov    0x30(%rax),%eax
  109ddd:	89 c0                	mov    %eax,%eax
  109ddf:	48 01 45 e8          	add    %rax,-0x18(%rbp)
  109de3:	e9 af 00 00 00       	jmpq   109e97 <_ZN11FAT32Driver8ReadFileE8DirEntrymPvm+0x18f>
  109de8:	48 8b 55 80          	mov    -0x80(%rbp),%rdx
  109dec:	48 8b 45 90          	mov    -0x70(%rbp),%rax
  109df0:	48 01 d0             	add    %rdx,%rax
  109df3:	48 2b 45 e8          	sub    -0x18(%rbp),%rax
  109df7:	48 89 45 d0          	mov    %rax,-0x30(%rbp)
  109dfb:	48 8b 45 98          	mov    -0x68(%rbp),%rax
  109dff:	8b 40 30             	mov    0x30(%rax),%eax
  109e02:	89 c0                	mov    %eax,%eax
  109e04:	48 39 45 d0          	cmp    %rax,-0x30(%rbp)
  109e08:	76 24                	jbe    109e2e <_ZN11FAT32Driver8ReadFileE8DirEntrymPvm+0x126>
  109e0a:	48 8b 45 98          	mov    -0x68(%rbp),%rax
  109e0e:	8b 40 30             	mov    0x30(%rax),%eax
  109e11:	89 c0                	mov    %eax,%eax
  109e13:	48 89 45 d0          	mov    %rax,-0x30(%rbp)
  109e17:	48 8b 55 e0          	mov    -0x20(%rbp),%rdx
  109e1b:	8b 4d cc             	mov    -0x34(%rbp),%ecx
  109e1e:	48 8b 45 98          	mov    -0x68(%rbp),%rax
  109e22:	89 ce                	mov    %ecx,%esi
  109e24:	48 89 c7             	mov    %rax,%rdi
  109e27:	e8 5a e3 ff ff       	callq  108186 <_ZN11FAT32Driver11ReadClusterEjPv>
  109e2c:	eb 54                	jmp    109e82 <_ZN11FAT32Driver8ReadFileE8DirEntrymPvm+0x17a>
  109e2e:	48 8b 45 98          	mov    -0x68(%rbp),%rax
  109e32:	8b 40 30             	mov    0x30(%rax),%eax
  109e35:	89 c0                	mov    %eax,%eax
  109e37:	48 89 c7             	mov    %rax,%rdi
  109e3a:	e8 6a 9b ff ff       	callq  1039a9 <_Znam>
  109e3f:	48 89 45 c0          	mov    %rax,-0x40(%rbp)
  109e43:	48 8b 55 c0          	mov    -0x40(%rbp),%rdx
  109e47:	8b 4d cc             	mov    -0x34(%rbp),%ecx
  109e4a:	48 8b 45 98          	mov    -0x68(%rbp),%rax
  109e4e:	89 ce                	mov    %ecx,%esi
  109e50:	48 89 c7             	mov    %rax,%rdi
  109e53:	e8 2e e3 ff ff       	callq  108186 <_ZN11FAT32Driver11ReadClusterEjPv>
  109e58:	48 8b 55 d0          	mov    -0x30(%rbp),%rdx
  109e5c:	48 8b 4d c0          	mov    -0x40(%rbp),%rcx
  109e60:	48 8b 45 e0          	mov    -0x20(%rbp),%rax
  109e64:	48 89 ce             	mov    %rcx,%rsi
  109e67:	48 89 c7             	mov    %rax,%rdi
  109e6a:	e8 9e 2d 00 00       	callq  10cc0d <_Z6memcpyPvPKvm>
  109e6f:	48 83 7d c0 00       	cmpq   $0x0,-0x40(%rbp)
  109e74:	74 0c                	je     109e82 <_ZN11FAT32Driver8ReadFileE8DirEntrymPvm+0x17a>
  109e76:	48 8b 45 c0          	mov    -0x40(%rbp),%rax
  109e7a:	48 89 c7             	mov    %rax,%rdi
  109e7d:	e8 64 9b ff ff       	callq  1039e6 <_ZdaPv>
  109e82:	48 8b 45 98          	mov    -0x68(%rbp),%rax
  109e86:	8b 40 30             	mov    0x30(%rax),%eax
  109e89:	89 c0                	mov    %eax,%eax
  109e8b:	48 01 45 e0          	add    %rax,-0x20(%rbp)
  109e8f:	48 8b 45 d0          	mov    -0x30(%rbp),%rax
  109e93:	48 01 45 e8          	add    %rax,-0x18(%rbp)
  109e97:	83 45 dc 01          	addl   $0x1,-0x24(%rbp)
  109e9b:	e9 f8 fe ff ff       	jmpq   109d98 <_ZN11FAT32Driver8ReadFileE8DirEntrymPvm+0x90>
  109ea0:	bb 00 00 00 00       	mov    $0x0,%ebx
  109ea5:	48 8d 45 a0          	lea    -0x60(%rbp),%rax
  109ea9:	48 89 c7             	mov    %rax,%rdi
  109eac:	e8 8f 45 00 00       	callq  10e440 <_ZN6vectorIjED1Ev>
  109eb1:	89 d8                	mov    %ebx,%eax
  109eb3:	48 83 c4 78          	add    $0x78,%rsp
  109eb7:	5b                   	pop    %rbx
  109eb8:	5d                   	pop    %rbp
  109eb9:	c3                   	retq   

0000000000109eba <_ZN11FAT32Driver9WriteFileE8DirEntrymPvm>:
  109eba:	f3 0f 1e fa          	endbr64 
  109ebe:	55                   	push   %rbp
  109ebf:	48 89 e5             	mov    %rsp,%rbp
  109ec2:	53                   	push   %rbx
  109ec3:	48 83 ec 78          	sub    $0x78,%rsp
  109ec7:	48 89 7d 98          	mov    %rdi,-0x68(%rbp)
  109ecb:	48 89 75 90          	mov    %rsi,-0x70(%rbp)
  109ecf:	48 89 55 88          	mov    %rdx,-0x78(%rbp)
  109ed3:	48 89 4d 80          	mov    %rcx,-0x80(%rbp)
  109ed7:	0f b6 85 98 00 00 00 	movzbl 0x98(%rbp),%eax
  109ede:	0f b6 c0             	movzbl %al,%eax
  109ee1:	83 e0 10             	and    $0x10,%eax
  109ee4:	85 c0                	test   %eax,%eax
  109ee6:	74 0a                	je     109ef2 <_ZN11FAT32Driver9WriteFileE8DirEntrymPvm+0x38>
  109ee8:	bb fd ff ff ff       	mov    $0xfffffffd,%ebx
  109eed:	e9 91 02 00 00       	jmpq   10a183 <_ZN11FAT32Driver9WriteFileE8DirEntrymPvm+0x2c9>
  109ef2:	48 8b 55 80          	mov    -0x80(%rbp),%rdx
  109ef6:	48 8b 45 90          	mov    -0x70(%rbp),%rax
  109efa:	48 01 d0             	add    %rdx,%rax
  109efd:	8b 95 94 00 00 00    	mov    0x94(%rbp),%edx
  109f03:	89 d2                	mov    %edx,%edx
  109f05:	48 39 d0             	cmp    %rdx,%rax
  109f08:	76 5b                	jbe    109f65 <_ZN11FAT32Driver9WriteFileE8DirEntrymPvm+0xab>
  109f0a:	48 8b 45 80          	mov    -0x80(%rbp),%rax
  109f0e:	89 c2                	mov    %eax,%edx
  109f10:	48 8b 45 90          	mov    -0x70(%rbp),%rax
  109f14:	01 d0                	add    %edx,%eax
  109f16:	89 85 94 00 00 00    	mov    %eax,0x94(%rbp)
  109f1c:	8b 85 94 00 00 00    	mov    0x94(%rbp),%eax
  109f22:	48 8b 55 98          	mov    -0x68(%rbp),%rdx
  109f26:	8b 5a 30             	mov    0x30(%rdx),%ebx
  109f29:	ba 00 00 00 00       	mov    $0x0,%edx
  109f2e:	f7 f3                	div    %ebx
  109f30:	89 45 ec             	mov    %eax,-0x14(%rbp)
  109f33:	48 8b 45 98          	mov    -0x68(%rbp),%rax
  109f37:	8b 40 30             	mov    0x30(%rax),%eax
  109f3a:	0f af 45 ec          	imul   -0x14(%rbp),%eax
  109f3e:	89 c2                	mov    %eax,%edx
  109f40:	8b 85 94 00 00 00    	mov    0x94(%rbp),%eax
  109f46:	39 c2                	cmp    %eax,%edx
  109f48:	74 04                	je     109f4e <_ZN11FAT32Driver9WriteFileE8DirEntrymPvm+0x94>
  109f4a:	83 45 ec 01          	addl   $0x1,-0x14(%rbp)
  109f4e:	8b 8d 90 00 00 00    	mov    0x90(%rbp),%ecx
  109f54:	8b 55 ec             	mov    -0x14(%rbp),%edx
  109f57:	48 8b 45 98          	mov    -0x68(%rbp),%rax
  109f5b:	89 ce                	mov    %ecx,%esi
  109f5d:	48 89 c7             	mov    %rax,%rdi
  109f60:	e8 57 e7 ff ff       	callq  1086bc <_ZN11FAT32Driver18ResizeClusterChainEjj>
  109f65:	8b 95 90 00 00 00    	mov    0x90(%rbp),%edx
  109f6b:	48 8d 45 a0          	lea    -0x60(%rbp),%rax
  109f6f:	48 8b 4d 98          	mov    -0x68(%rbp),%rcx
  109f73:	48 89 ce             	mov    %rcx,%rsi
  109f76:	48 89 c7             	mov    %rax,%rdi
  109f79:	e8 5c e3 ff ff       	callq  1082da <_ZN11FAT32Driver15GetClusterChainEj>
  109f7e:	48 c7 45 e0 00 00 00 	movq   $0x0,-0x20(%rbp)
  109f85:	00 
  109f86:	48 8b 45 88          	mov    -0x78(%rbp),%rax
  109f8a:	48 89 45 d8          	mov    %rax,-0x28(%rbp)
  109f8e:	c7 45 d4 00 00 00 00 	movl   $0x0,-0x2c(%rbp)
  109f95:	8b 5d d4             	mov    -0x2c(%rbp),%ebx
  109f98:	48 8d 45 a0          	lea    -0x60(%rbp),%rax
  109f9c:	48 89 c7             	mov    %rax,%rdi
  109f9f:	e8 d4 45 00 00       	callq  10e578 <_ZNK6vectorIjE4sizeEv>
  109fa4:	48 39 c3             	cmp    %rax,%rbx
  109fa7:	0f 92 c0             	setb   %al
  109faa:	84 c0                	test   %al,%al
  109fac:	0f 84 eb 00 00 00    	je     10a09d <_ZN11FAT32Driver9WriteFileE8DirEntrymPvm+0x1e3>
  109fb2:	8b 55 d4             	mov    -0x2c(%rbp),%edx
  109fb5:	48 8d 45 a0          	lea    -0x60(%rbp),%rax
  109fb9:	48 89 d6             	mov    %rdx,%rsi
  109fbc:	48 89 c7             	mov    %rax,%rdi
  109fbf:	e8 ce 45 00 00       	callq  10e592 <_ZN6vectorIjEixEm>
  109fc4:	8b 00                	mov    (%rax),%eax
  109fc6:	89 45 c4             	mov    %eax,-0x3c(%rbp)
  109fc9:	48 8b 45 e0          	mov    -0x20(%rbp),%rax
  109fcd:	48 3b 45 90          	cmp    -0x70(%rbp),%rax
  109fd1:	73 12                	jae    109fe5 <_ZN11FAT32Driver9WriteFileE8DirEntrymPvm+0x12b>
  109fd3:	48 8b 45 98          	mov    -0x68(%rbp),%rax
  109fd7:	8b 40 30             	mov    0x30(%rax),%eax
  109fda:	89 c0                	mov    %eax,%eax
  109fdc:	48 01 45 e0          	add    %rax,-0x20(%rbp)
  109fe0:	e9 af 00 00 00       	jmpq   10a094 <_ZN11FAT32Driver9WriteFileE8DirEntrymPvm+0x1da>
  109fe5:	48 8b 55 80          	mov    -0x80(%rbp),%rdx
  109fe9:	48 8b 45 90          	mov    -0x70(%rbp),%rax
  109fed:	48 01 d0             	add    %rdx,%rax
  109ff0:	48 2b 45 e0          	sub    -0x20(%rbp),%rax
  109ff4:	48 89 45 c8          	mov    %rax,-0x38(%rbp)
  109ff8:	48 8b 45 98          	mov    -0x68(%rbp),%rax
  109ffc:	8b 40 30             	mov    0x30(%rax),%eax
  109fff:	89 c0                	mov    %eax,%eax
  10a001:	48 39 45 c8          	cmp    %rax,-0x38(%rbp)
  10a005:	76 24                	jbe    10a02b <_ZN11FAT32Driver9WriteFileE8DirEntrymPvm+0x171>
  10a007:	48 8b 45 98          	mov    -0x68(%rbp),%rax
  10a00b:	8b 40 30             	mov    0x30(%rax),%eax
  10a00e:	89 c0                	mov    %eax,%eax
  10a010:	48 89 45 c8          	mov    %rax,-0x38(%rbp)
  10a014:	48 8b 55 d8          	mov    -0x28(%rbp),%rdx
  10a018:	8b 4d c4             	mov    -0x3c(%rbp),%ecx
  10a01b:	48 8b 45 98          	mov    -0x68(%rbp),%rax
  10a01f:	89 ce                	mov    %ecx,%esi
  10a021:	48 89 c7             	mov    %rax,%rdi
  10a024:	e8 07 e2 ff ff       	callq  108230 <_ZN11FAT32Driver12WriteClusterEjPv>
  10a029:	eb 54                	jmp    10a07f <_ZN11FAT32Driver9WriteFileE8DirEntrymPvm+0x1c5>
  10a02b:	48 8b 45 98          	mov    -0x68(%rbp),%rax
  10a02f:	8b 40 30             	mov    0x30(%rax),%eax
  10a032:	89 c0                	mov    %eax,%eax
  10a034:	48 89 c7             	mov    %rax,%rdi
  10a037:	e8 6d 99 ff ff       	callq  1039a9 <_Znam>
  10a03c:	48 89 45 b8          	mov    %rax,-0x48(%rbp)
  10a040:	48 8b 55 b8          	mov    -0x48(%rbp),%rdx
  10a044:	8b 4d c4             	mov    -0x3c(%rbp),%ecx
  10a047:	48 8b 45 98          	mov    -0x68(%rbp),%rax
  10a04b:	89 ce                	mov    %ecx,%esi
  10a04d:	48 89 c7             	mov    %rax,%rdi
  10a050:	e8 db e1 ff ff       	callq  108230 <_ZN11FAT32Driver12WriteClusterEjPv>
  10a055:	48 8b 55 c8          	mov    -0x38(%rbp),%rdx
  10a059:	48 8b 4d b8          	mov    -0x48(%rbp),%rcx
  10a05d:	48 8b 45 d8          	mov    -0x28(%rbp),%rax
  10a061:	48 89 ce             	mov    %rcx,%rsi
  10a064:	48 89 c7             	mov    %rax,%rdi
  10a067:	e8 a1 2b 00 00       	callq  10cc0d <_Z6memcpyPvPKvm>
  10a06c:	48 83 7d b8 00       	cmpq   $0x0,-0x48(%rbp)
  10a071:	74 0c                	je     10a07f <_ZN11FAT32Driver9WriteFileE8DirEntrymPvm+0x1c5>
  10a073:	48 8b 45 b8          	mov    -0x48(%rbp),%rax
  10a077:	48 89 c7             	mov    %rax,%rdi
  10a07a:	e8 67 99 ff ff       	callq  1039e6 <_ZdaPv>
  10a07f:	48 8b 45 98          	mov    -0x68(%rbp),%rax
  10a083:	8b 40 30             	mov    0x30(%rax),%eax
  10a086:	89 c0                	mov    %eax,%eax
  10a088:	48 01 45 d8          	add    %rax,-0x28(%rbp)
  10a08c:	48 8b 45 c8          	mov    -0x38(%rbp),%rax
  10a090:	48 01 45 e0          	add    %rax,-0x20(%rbp)
  10a094:	83 45 d4 01          	addl   $0x1,-0x2c(%rbp)
  10a098:	e9 f8 fe ff ff       	jmpq   109f95 <_ZN11FAT32Driver9WriteFileE8DirEntrymPvm+0xdb>
  10a09d:	8b b5 9c 00 00 00    	mov    0x9c(%rbp),%esi
  10a0a3:	48 8b 7d 98          	mov    -0x68(%rbp),%rdi
  10a0a7:	48 83 ec 08          	sub    $0x8,%rsp
  10a0ab:	48 81 ec 98 00 00 00 	sub    $0x98,%rsp
  10a0b2:	48 89 e0             	mov    %rsp,%rax
  10a0b5:	48 8b 4d 10          	mov    0x10(%rbp),%rcx
  10a0b9:	48 8b 5d 18          	mov    0x18(%rbp),%rbx
  10a0bd:	48 89 08             	mov    %rcx,(%rax)
  10a0c0:	48 89 58 08          	mov    %rbx,0x8(%rax)
  10a0c4:	48 8b 4d 20          	mov    0x20(%rbp),%rcx
  10a0c8:	48 8b 5d 28          	mov    0x28(%rbp),%rbx
  10a0cc:	48 89 48 10          	mov    %rcx,0x10(%rax)
  10a0d0:	48 89 58 18          	mov    %rbx,0x18(%rax)
  10a0d4:	48 8b 4d 30          	mov    0x30(%rbp),%rcx
  10a0d8:	48 8b 5d 38          	mov    0x38(%rbp),%rbx
  10a0dc:	48 89 48 20          	mov    %rcx,0x20(%rax)
  10a0e0:	48 89 58 28          	mov    %rbx,0x28(%rax)
  10a0e4:	48 8b 4d 40          	mov    0x40(%rbp),%rcx
  10a0e8:	48 8b 5d 48          	mov    0x48(%rbp),%rbx
  10a0ec:	48 89 48 30          	mov    %rcx,0x30(%rax)
  10a0f0:	48 89 58 38          	mov    %rbx,0x38(%rax)
  10a0f4:	48 8b 4d 50          	mov    0x50(%rbp),%rcx
  10a0f8:	48 8b 5d 58          	mov    0x58(%rbp),%rbx
  10a0fc:	48 89 48 40          	mov    %rcx,0x40(%rax)
  10a100:	48 89 58 48          	mov    %rbx,0x48(%rax)
  10a104:	48 8b 4d 60          	mov    0x60(%rbp),%rcx
  10a108:	48 8b 5d 68          	mov    0x68(%rbp),%rbx
  10a10c:	48 89 48 50          	mov    %rcx,0x50(%rax)
  10a110:	48 89 58 58          	mov    %rbx,0x58(%rax)
  10a114:	48 8b 4d 70          	mov    0x70(%rbp),%rcx
  10a118:	48 8b 5d 78          	mov    0x78(%rbp),%rbx
  10a11c:	48 89 48 60          	mov    %rcx,0x60(%rax)
  10a120:	48 89 58 68          	mov    %rbx,0x68(%rax)
  10a124:	48 8b 8d 80 00 00 00 	mov    0x80(%rbp),%rcx
  10a12b:	48 8b 9d 88 00 00 00 	mov    0x88(%rbp),%rbx
  10a132:	48 89 48 70          	mov    %rcx,0x70(%rax)
  10a136:	48 89 58 78          	mov    %rbx,0x78(%rax)
  10a13a:	48 8b 8d 90 00 00 00 	mov    0x90(%rbp),%rcx
  10a141:	48 8b 9d 98 00 00 00 	mov    0x98(%rbp),%rbx
  10a148:	48 89 88 80 00 00 00 	mov    %rcx,0x80(%rax)
  10a14f:	48 89 98 88 00 00 00 	mov    %rbx,0x88(%rax)
  10a156:	8b 95 a0 00 00 00    	mov    0xa0(%rbp),%edx
  10a15c:	89 90 90 00 00 00    	mov    %edx,0x90(%rax)
  10a162:	48 8d 55 10          	lea    0x10(%rbp),%rdx
  10a166:	e8 41 e9 ff ff       	callq  108aac <_ZN11FAT32Driver20ModifyDirectoryEntryEjPKc8DirEntry>
  10a16b:	48 81 c4 a0 00 00 00 	add    $0xa0,%rsp
  10a172:	bb 00 00 00 00       	mov    $0x0,%ebx
  10a177:	48 8d 45 a0          	lea    -0x60(%rbp),%rax
  10a17b:	48 89 c7             	mov    %rax,%rdi
  10a17e:	e8 bd 42 00 00       	callq  10e440 <_ZN6vectorIjED1Ev>
  10a183:	89 d8                	mov    %ebx,%eax
  10a185:	48 8b 5d f8          	mov    -0x8(%rbp),%rbx
  10a189:	c9                   	leaveq 
  10a18a:	c3                   	retq   
  10a18b:	90                   	nop

000000000010a18c <_ZN11FAT32Driver10ResizeFileE8DirEntryj>:
  10a18c:	f3 0f 1e fa          	endbr64 
  10a190:	55                   	push   %rbp
  10a191:	48 89 e5             	mov    %rsp,%rbp
  10a194:	53                   	push   %rbx
  10a195:	48 83 ec 28          	sub    $0x28,%rsp
  10a199:	48 89 7d d8          	mov    %rdi,-0x28(%rbp)
  10a19d:	89 75 d4             	mov    %esi,-0x2c(%rbp)
  10a1a0:	0f b6 85 98 00 00 00 	movzbl 0x98(%rbp),%eax
  10a1a7:	0f b6 c0             	movzbl %al,%eax
  10a1aa:	83 e0 10             	and    $0x10,%eax
  10a1ad:	85 c0                	test   %eax,%eax
  10a1af:	74 0a                	je     10a1bb <_ZN11FAT32Driver10ResizeFileE8DirEntryj+0x2f>
  10a1b1:	b8 fd ff ff ff       	mov    $0xfffffffd,%eax
  10a1b6:	e9 2c 01 00 00       	jmpq   10a2e7 <_ZN11FAT32Driver10ResizeFileE8DirEntryj+0x15b>
  10a1bb:	8b 45 d4             	mov    -0x2c(%rbp),%eax
  10a1be:	89 85 94 00 00 00    	mov    %eax,0x94(%rbp)
  10a1c4:	8b 85 94 00 00 00    	mov    0x94(%rbp),%eax
  10a1ca:	48 8b 55 d8          	mov    -0x28(%rbp),%rdx
  10a1ce:	8b 5a 30             	mov    0x30(%rdx),%ebx
  10a1d1:	ba 00 00 00 00       	mov    $0x0,%edx
  10a1d6:	f7 f3                	div    %ebx
  10a1d8:	89 45 ec             	mov    %eax,-0x14(%rbp)
  10a1db:	48 8b 45 d8          	mov    -0x28(%rbp),%rax
  10a1df:	8b 40 30             	mov    0x30(%rax),%eax
  10a1e2:	0f af 45 ec          	imul   -0x14(%rbp),%eax
  10a1e6:	89 c2                	mov    %eax,%edx
  10a1e8:	8b 85 94 00 00 00    	mov    0x94(%rbp),%eax
  10a1ee:	39 c2                	cmp    %eax,%edx
  10a1f0:	74 04                	je     10a1f6 <_ZN11FAT32Driver10ResizeFileE8DirEntryj+0x6a>
  10a1f2:	83 45 ec 01          	addl   $0x1,-0x14(%rbp)
  10a1f6:	8b 8d 90 00 00 00    	mov    0x90(%rbp),%ecx
  10a1fc:	8b 55 ec             	mov    -0x14(%rbp),%edx
  10a1ff:	48 8b 45 d8          	mov    -0x28(%rbp),%rax
  10a203:	89 ce                	mov    %ecx,%esi
  10a205:	48 89 c7             	mov    %rax,%rdi
  10a208:	e8 af e4 ff ff       	callq  1086bc <_ZN11FAT32Driver18ResizeClusterChainEjj>
  10a20d:	8b b5 9c 00 00 00    	mov    0x9c(%rbp),%esi
  10a213:	48 8b 7d d8          	mov    -0x28(%rbp),%rdi
  10a217:	48 83 ec 08          	sub    $0x8,%rsp
  10a21b:	48 81 ec 98 00 00 00 	sub    $0x98,%rsp
  10a222:	48 89 e0             	mov    %rsp,%rax
  10a225:	48 8b 4d 10          	mov    0x10(%rbp),%rcx
  10a229:	48 8b 5d 18          	mov    0x18(%rbp),%rbx
  10a22d:	48 89 08             	mov    %rcx,(%rax)
  10a230:	48 89 58 08          	mov    %rbx,0x8(%rax)
  10a234:	48 8b 4d 20          	mov    0x20(%rbp),%rcx
  10a238:	48 8b 5d 28          	mov    0x28(%rbp),%rbx
  10a23c:	48 89 48 10          	mov    %rcx,0x10(%rax)
  10a240:	48 89 58 18          	mov    %rbx,0x18(%rax)
  10a244:	48 8b 4d 30          	mov    0x30(%rbp),%rcx
  10a248:	48 8b 5d 38          	mov    0x38(%rbp),%rbx
  10a24c:	48 89 48 20          	mov    %rcx,0x20(%rax)
  10a250:	48 89 58 28          	mov    %rbx,0x28(%rax)
  10a254:	48 8b 4d 40          	mov    0x40(%rbp),%rcx
  10a258:	48 8b 5d 48          	mov    0x48(%rbp),%rbx
  10a25c:	48 89 48 30          	mov    %rcx,0x30(%rax)
  10a260:	48 89 58 38          	mov    %rbx,0x38(%rax)
  10a264:	48 8b 4d 50          	mov    0x50(%rbp),%rcx
  10a268:	48 8b 5d 58          	mov    0x58(%rbp),%rbx
  10a26c:	48 89 48 40          	mov    %rcx,0x40(%rax)
  10a270:	48 89 58 48          	mov    %rbx,0x48(%rax)
  10a274:	48 8b 4d 60          	mov    0x60(%rbp),%rcx
  10a278:	48 8b 5d 68          	mov    0x68(%rbp),%rbx
  10a27c:	48 89 48 50          	mov    %rcx,0x50(%rax)
  10a280:	48 89 58 58          	mov    %rbx,0x58(%rax)
  10a284:	48 8b 4d 70          	mov    0x70(%rbp),%rcx
  10a288:	48 8b 5d 78          	mov    0x78(%rbp),%rbx
  10a28c:	48 89 48 60          	mov    %rcx,0x60(%rax)
  10a290:	48 89 58 68          	mov    %rbx,0x68(%rax)
  10a294:	48 8b 8d 80 00 00 00 	mov    0x80(%rbp),%rcx
  10a29b:	48 8b 9d 88 00 00 00 	mov    0x88(%rbp),%rbx
  10a2a2:	48 89 48 70          	mov    %rcx,0x70(%rax)
  10a2a6:	48 89 58 78          	mov    %rbx,0x78(%rax)
  10a2aa:	48 8b 8d 90 00 00 00 	mov    0x90(%rbp),%rcx
  10a2b1:	48 8b 9d 98 00 00 00 	mov    0x98(%rbp),%rbx
  10a2b8:	48 89 88 80 00 00 00 	mov    %rcx,0x80(%rax)
  10a2bf:	48 89 98 88 00 00 00 	mov    %rbx,0x88(%rax)
  10a2c6:	8b 95 a0 00 00 00    	mov    0xa0(%rbp),%edx
  10a2cc:	89 90 90 00 00 00    	mov    %edx,0x90(%rax)
  10a2d2:	48 8d 55 10          	lea    0x10(%rbp),%rdx
  10a2d6:	e8 d1 e7 ff ff       	callq  108aac <_ZN11FAT32Driver20ModifyDirectoryEntryEjPKc8DirEntry>
  10a2db:	48 81 c4 a0 00 00 00 	add    $0xa0,%rsp
  10a2e2:	b8 00 00 00 00       	mov    $0x0,%eax
  10a2e7:	48 8b 5d f8          	mov    -0x8(%rbp),%rbx
  10a2eb:	c9                   	leaveq 
  10a2ec:	c3                   	retq   
  10a2ed:	90                   	nop

000000000010a2ee <_ZN11FAT32Driver22GetClusterFromFilePathEPKcP8DirEntry>:
  10a2ee:	f3 0f 1e fa          	endbr64 
  10a2f2:	55                   	push   %rbp
  10a2f3:	48 89 e5             	mov    %rsp,%rbp
  10a2f6:	53                   	push   %rbx
  10a2f7:	48 81 ec d8 01 00 00 	sub    $0x1d8,%rsp
  10a2fe:	48 89 bd 38 fe ff ff 	mov    %rdi,-0x1c8(%rbp)
  10a305:	48 89 b5 30 fe ff ff 	mov    %rsi,-0x1d0(%rbp)
  10a30c:	48 89 95 28 fe ff ff 	mov    %rdx,-0x1d8(%rbp)
  10a313:	66 c7 45 ee 02 00    	movw   $0x2,-0x12(%rbp)
  10a319:	48 8b 85 38 fe ff ff 	mov    -0x1c8(%rbp),%rax
  10a320:	8b 40 38             	mov    0x38(%rax),%eax
  10a323:	89 45 e8             	mov    %eax,-0x18(%rbp)
  10a326:	c7 45 e4 02 00 00 00 	movl   $0x2,-0x1c(%rbp)
  10a32d:	48 8b 85 30 fe ff ff 	mov    -0x1d0(%rbp),%rax
  10a334:	48 8d 35 e5 6e 00 00 	lea    0x6ee5(%rip),%rsi        # 111220 <_ZL8sc_ascii+0x1c0>
  10a33b:	48 89 c7             	mov    %rax,%rdi
  10a33e:	e8 2b 21 00 00       	callq  10c46e <_Z6strcmpPcS_>
  10a343:	85 c0                	test   %eax,%eax
  10a345:	0f 94 c0             	sete   %al
  10a348:	84 c0                	test   %al,%al
  10a34a:	74 1f                	je     10a36b <_ZN11FAT32Driver22GetClusterFromFilePathEPKcP8DirEntry+0x7d>
  10a34c:	c6 85 c8 fe ff ff 18 	movb   $0x18,-0x138(%rbp)
  10a353:	c7 85 c4 fe ff ff 00 	movl   $0x0,-0x13c(%rbp)
  10a35a:	00 00 00 
  10a35d:	8b 45 e8             	mov    -0x18(%rbp),%eax
  10a360:	89 85 c0 fe ff ff    	mov    %eax,-0x140(%rbp)
  10a366:	e9 e9 00 00 00       	jmpq   10a454 <_ZN11FAT32Driver22GetClusterFromFilePathEPKcP8DirEntry+0x166>
  10a36b:	c7 45 e4 02 00 00 00 	movl   $0x2,-0x1c(%rbp)
  10a372:	8b 45 e4             	mov    -0x1c(%rbp),%eax
  10a375:	83 e8 01             	sub    $0x1,%eax
  10a378:	89 c2                	mov    %eax,%edx
  10a37a:	48 8b 85 30 fe ff ff 	mov    -0x1d0(%rbp),%rax
  10a381:	48 01 d0             	add    %rdx,%rax
  10a384:	0f b6 00             	movzbl (%rax),%eax
  10a387:	84 c0                	test   %al,%al
  10a389:	0f 84 c5 00 00 00    	je     10a454 <_ZN11FAT32Driver22GetClusterFromFilePathEPKcP8DirEntry+0x166>
  10a38f:	8b 55 e4             	mov    -0x1c(%rbp),%edx
  10a392:	48 8b 85 30 fe ff ff 	mov    -0x1d0(%rbp),%rax
  10a399:	48 01 d0             	add    %rdx,%rax
  10a39c:	0f b6 00             	movzbl (%rax),%eax
  10a39f:	3c 2f                	cmp    $0x2f,%al
  10a3a1:	74 18                	je     10a3bb <_ZN11FAT32Driver22GetClusterFromFilePathEPKcP8DirEntry+0xcd>
  10a3a3:	8b 55 e4             	mov    -0x1c(%rbp),%edx
  10a3a6:	48 8b 85 30 fe ff ff 	mov    -0x1d0(%rbp),%rax
  10a3ad:	48 01 d0             	add    %rdx,%rax
  10a3b0:	0f b6 00             	movzbl (%rax),%eax
  10a3b3:	84 c0                	test   %al,%al
  10a3b5:	0f 85 90 00 00 00    	jne    10a44b <_ZN11FAT32Driver22GetClusterFromFilePathEPKcP8DirEntry+0x15d>
  10a3bb:	48 8d 85 e0 fe ff ff 	lea    -0x120(%rbp),%rax
  10a3c2:	ba 00 01 00 00       	mov    $0x100,%edx
  10a3c7:	be 00 00 00 00       	mov    $0x0,%esi
  10a3cc:	48 89 c7             	mov    %rax,%rdi
  10a3cf:	e8 7b 28 00 00       	callq  10cc4f <_Z6memsetPvim>
  10a3d4:	0f b7 45 ee          	movzwl -0x12(%rbp),%eax
  10a3d8:	8b 55 e4             	mov    -0x1c(%rbp),%edx
  10a3db:	29 c2                	sub    %eax,%edx
  10a3dd:	89 d0                	mov    %edx,%eax
  10a3df:	89 c6                	mov    %eax,%esi
  10a3e1:	0f b7 55 ee          	movzwl -0x12(%rbp),%edx
  10a3e5:	48 8b 85 30 fe ff ff 	mov    -0x1d0(%rbp),%rax
  10a3ec:	48 01 d0             	add    %rdx,%rax
  10a3ef:	48 89 c1             	mov    %rax,%rcx
  10a3f2:	48 8d 85 e0 fe ff ff 	lea    -0x120(%rbp),%rax
  10a3f9:	48 89 f2             	mov    %rsi,%rdx
  10a3fc:	48 89 ce             	mov    %rcx,%rsi
  10a3ff:	48 89 c7             	mov    %rax,%rdi
  10a402:	e8 06 28 00 00       	callq  10cc0d <_Z6memcpyPvPKvm>
  10a407:	48 8d 8d 40 fe ff ff 	lea    -0x1c0(%rbp),%rcx
  10a40e:	8b 55 e8             	mov    -0x18(%rbp),%edx
  10a411:	48 8d b5 e0 fe ff ff 	lea    -0x120(%rbp),%rsi
  10a418:	48 8b 85 38 fe ff ff 	mov    -0x1c8(%rbp),%rax
  10a41f:	48 89 c7             	mov    %rax,%rdi
  10a422:	e8 d7 ec ff ff       	callq  1090fe <_ZN11FAT32Driver15DirectorySearchEPKcjP8DirEntry>
  10a427:	89 45 e0             	mov    %eax,-0x20(%rbp)
  10a42a:	83 7d e0 00          	cmpl   $0x0,-0x20(%rbp)
  10a42e:	74 08                	je     10a438 <_ZN11FAT32Driver22GetClusterFromFilePathEPKcP8DirEntry+0x14a>
  10a430:	8b 45 e0             	mov    -0x20(%rbp),%eax
  10a433:	e9 0b 01 00 00       	jmpq   10a543 <_ZN11FAT32Driver22GetClusterFromFilePathEPKcP8DirEntry+0x255>
  10a438:	8b 45 e4             	mov    -0x1c(%rbp),%eax
  10a43b:	83 c0 01             	add    $0x1,%eax
  10a43e:	66 89 45 ee          	mov    %ax,-0x12(%rbp)
  10a442:	8b 85 c0 fe ff ff    	mov    -0x140(%rbp),%eax
  10a448:	89 45 e8             	mov    %eax,-0x18(%rbp)
  10a44b:	83 45 e4 01          	addl   $0x1,-0x1c(%rbp)
  10a44f:	e9 1e ff ff ff       	jmpq   10a372 <_ZN11FAT32Driver22GetClusterFromFilePathEPKcP8DirEntry+0x84>
  10a454:	48 83 bd 28 fe ff ff 	cmpq   $0x0,-0x1d8(%rbp)
  10a45b:	00 
  10a45c:	0f 84 de 00 00 00    	je     10a540 <_ZN11FAT32Driver22GetClusterFromFilePathEPKcP8DirEntry+0x252>
  10a462:	48 8b 85 28 fe ff ff 	mov    -0x1d8(%rbp),%rax
  10a469:	48 8b 8d 40 fe ff ff 	mov    -0x1c0(%rbp),%rcx
  10a470:	48 8b 9d 48 fe ff ff 	mov    -0x1b8(%rbp),%rbx
  10a477:	48 89 08             	mov    %rcx,(%rax)
  10a47a:	48 89 58 08          	mov    %rbx,0x8(%rax)
  10a47e:	48 8b 8d 50 fe ff ff 	mov    -0x1b0(%rbp),%rcx
  10a485:	48 8b 9d 58 fe ff ff 	mov    -0x1a8(%rbp),%rbx
  10a48c:	48 89 48 10          	mov    %rcx,0x10(%rax)
  10a490:	48 89 58 18          	mov    %rbx,0x18(%rax)
  10a494:	48 8b 8d 60 fe ff ff 	mov    -0x1a0(%rbp),%rcx
  10a49b:	48 8b 9d 68 fe ff ff 	mov    -0x198(%rbp),%rbx
  10a4a2:	48 89 48 20          	mov    %rcx,0x20(%rax)
  10a4a6:	48 89 58 28          	mov    %rbx,0x28(%rax)
  10a4aa:	48 8b 8d 70 fe ff ff 	mov    -0x190(%rbp),%rcx
  10a4b1:	48 8b 9d 78 fe ff ff 	mov    -0x188(%rbp),%rbx
  10a4b8:	48 89 48 30          	mov    %rcx,0x30(%rax)
  10a4bc:	48 89 58 38          	mov    %rbx,0x38(%rax)
  10a4c0:	48 8b 8d 80 fe ff ff 	mov    -0x180(%rbp),%rcx
  10a4c7:	48 8b 9d 88 fe ff ff 	mov    -0x178(%rbp),%rbx
  10a4ce:	48 89 48 40          	mov    %rcx,0x40(%rax)
  10a4d2:	48 89 58 48          	mov    %rbx,0x48(%rax)
  10a4d6:	48 8b 8d 90 fe ff ff 	mov    -0x170(%rbp),%rcx
  10a4dd:	48 8b 9d 98 fe ff ff 	mov    -0x168(%rbp),%rbx
  10a4e4:	48 89 48 50          	mov    %rcx,0x50(%rax)
  10a4e8:	48 89 58 58          	mov    %rbx,0x58(%rax)
  10a4ec:	48 8b 8d a0 fe ff ff 	mov    -0x160(%rbp),%rcx
  10a4f3:	48 8b 9d a8 fe ff ff 	mov    -0x158(%rbp),%rbx
  10a4fa:	48 89 48 60          	mov    %rcx,0x60(%rax)
  10a4fe:	48 89 58 68          	mov    %rbx,0x68(%rax)
  10a502:	48 8b 8d b0 fe ff ff 	mov    -0x150(%rbp),%rcx
  10a509:	48 8b 9d b8 fe ff ff 	mov    -0x148(%rbp),%rbx
  10a510:	48 89 48 70          	mov    %rcx,0x70(%rax)
  10a514:	48 89 58 78          	mov    %rbx,0x78(%rax)
  10a518:	48 8b 8d c0 fe ff ff 	mov    -0x140(%rbp),%rcx
  10a51f:	48 8b 9d c8 fe ff ff 	mov    -0x138(%rbp),%rbx
  10a526:	48 89 88 80 00 00 00 	mov    %rcx,0x80(%rax)
  10a52d:	48 89 98 88 00 00 00 	mov    %rbx,0x88(%rax)
  10a534:	8b 95 d0 fe ff ff    	mov    -0x130(%rbp),%edx
  10a53a:	89 90 90 00 00 00    	mov    %edx,0x90(%rax)
  10a540:	8b 45 e8             	mov    -0x18(%rbp),%eax
  10a543:	48 81 c4 d8 01 00 00 	add    $0x1d8,%rsp
  10a54a:	5b                   	pop    %rbx
  10a54b:	5d                   	pop    %rbp
  10a54c:	c3                   	retq   
  10a54d:	90                   	nop

000000000010a54e <_ZN11FAT32Driver12FromFATEntryEP14DirectoryEntryb>:
  10a54e:	f3 0f 1e fa          	endbr64 
  10a552:	55                   	push   %rbp
  10a553:	48 89 e5             	mov    %rsp,%rbp
  10a556:	48 81 ec d0 00 00 00 	sub    $0xd0,%rsp
  10a55d:	48 89 bd 48 ff ff ff 	mov    %rdi,-0xb8(%rbp)
  10a564:	48 89 b5 40 ff ff ff 	mov    %rsi,-0xc0(%rbp)
  10a56b:	48 89 95 38 ff ff ff 	mov    %rdx,-0xc8(%rbp)
  10a572:	89 c8                	mov    %ecx,%eax
  10a574:	88 85 34 ff ff ff    	mov    %al,-0xcc(%rbp)
  10a57a:	80 bd 34 ff ff ff 00 	cmpb   $0x0,-0xcc(%rbp)
  10a581:	0f 84 fb 00 00 00    	je     10a682 <_ZN11FAT32Driver12FromFATEntryEP14DirectoryEntryb+0x134>
  10a587:	c7 45 fc 00 00 00 00 	movl   $0x0,-0x4(%rbp)
  10a58e:	48 8b 85 38 ff ff ff 	mov    -0xc8(%rbp),%rax
  10a595:	48 83 e8 20          	sub    $0x20,%rax
  10a599:	48 89 45 f0          	mov    %rax,-0x10(%rbp)
  10a59d:	c7 45 ec 00 00 00 00 	movl   $0x0,-0x14(%rbp)
  10a5a4:	83 7d ec 04          	cmpl   $0x4,-0x14(%rbp)
  10a5a8:	77 26                	ja     10a5d0 <_ZN11FAT32Driver12FromFATEntryEP14DirectoryEntryb+0x82>
  10a5aa:	48 8b 45 f0          	mov    -0x10(%rbp),%rax
  10a5ae:	8b 55 ec             	mov    -0x14(%rbp),%edx
  10a5b1:	0f b7 4c 50 01       	movzwl 0x1(%rax,%rdx,2),%ecx
  10a5b6:	8b 45 fc             	mov    -0x4(%rbp),%eax
  10a5b9:	8d 50 01             	lea    0x1(%rax),%edx
  10a5bc:	89 55 fc             	mov    %edx,-0x4(%rbp)
  10a5bf:	89 ca                	mov    %ecx,%edx
  10a5c1:	89 c0                	mov    %eax,%eax
  10a5c3:	88 94 05 50 ff ff ff 	mov    %dl,-0xb0(%rbp,%rax,1)
  10a5ca:	83 45 ec 01          	addl   $0x1,-0x14(%rbp)
  10a5ce:	eb d4                	jmp    10a5a4 <_ZN11FAT32Driver12FromFATEntryEP14DirectoryEntryb+0x56>
  10a5d0:	c7 45 e8 00 00 00 00 	movl   $0x0,-0x18(%rbp)
  10a5d7:	83 7d e8 05          	cmpl   $0x5,-0x18(%rbp)
  10a5db:	77 26                	ja     10a603 <_ZN11FAT32Driver12FromFATEntryEP14DirectoryEntryb+0xb5>
  10a5dd:	48 8b 45 f0          	mov    -0x10(%rbp),%rax
  10a5e1:	8b 55 e8             	mov    -0x18(%rbp),%edx
  10a5e4:	0f b7 4c 50 0e       	movzwl 0xe(%rax,%rdx,2),%ecx
  10a5e9:	8b 45 fc             	mov    -0x4(%rbp),%eax
  10a5ec:	8d 50 01             	lea    0x1(%rax),%edx
  10a5ef:	89 55 fc             	mov    %edx,-0x4(%rbp)
  10a5f2:	89 ca                	mov    %ecx,%edx
  10a5f4:	89 c0                	mov    %eax,%eax
  10a5f6:	88 94 05 50 ff ff ff 	mov    %dl,-0xb0(%rbp,%rax,1)
  10a5fd:	83 45 e8 01          	addl   $0x1,-0x18(%rbp)
  10a601:	eb d4                	jmp    10a5d7 <_ZN11FAT32Driver12FromFATEntryEP14DirectoryEntryb+0x89>
  10a603:	c7 45 e4 00 00 00 00 	movl   $0x0,-0x1c(%rbp)
  10a60a:	83 7d e4 01          	cmpl   $0x1,-0x1c(%rbp)
  10a60e:	77 2a                	ja     10a63a <_ZN11FAT32Driver12FromFATEntryEP14DirectoryEntryb+0xec>
  10a610:	48 8b 45 f0          	mov    -0x10(%rbp),%rax
  10a614:	8b 55 e4             	mov    -0x1c(%rbp),%edx
  10a617:	48 83 c2 08          	add    $0x8,%rdx
  10a61b:	0f b7 4c 50 0c       	movzwl 0xc(%rax,%rdx,2),%ecx
  10a620:	8b 45 fc             	mov    -0x4(%rbp),%eax
  10a623:	8d 50 01             	lea    0x1(%rax),%edx
  10a626:	89 55 fc             	mov    %edx,-0x4(%rbp)
  10a629:	89 ca                	mov    %ecx,%edx
  10a62b:	89 c0                	mov    %eax,%eax
  10a62d:	88 94 05 50 ff ff ff 	mov    %dl,-0xb0(%rbp,%rax,1)
  10a634:	83 45 e4 01          	addl   $0x1,-0x1c(%rbp)
  10a638:	eb d0                	jmp    10a60a <_ZN11FAT32Driver12FromFATEntryEP14DirectoryEntryb+0xbc>
  10a63a:	48 8b 45 f0          	mov    -0x10(%rbp),%rax
  10a63e:	0f b6 00             	movzbl (%rax),%eax
  10a641:	0f b6 c0             	movzbl %al,%eax
  10a644:	83 e0 40             	and    $0x40,%eax
  10a647:	85 c0                	test   %eax,%eax
  10a649:	75 0a                	jne    10a655 <_ZN11FAT32Driver12FromFATEntryEP14DirectoryEntryb+0x107>
  10a64b:	48 83 6d f0 20       	subq   $0x20,-0x10(%rbp)
  10a650:	e9 48 ff ff ff       	jmpq   10a59d <_ZN11FAT32Driver12FromFATEntryEP14DirectoryEntryb+0x4f>
  10a655:	90                   	nop
  10a656:	8b 55 fc             	mov    -0x4(%rbp),%edx
  10a659:	48 8d 8d 50 ff ff ff 	lea    -0xb0(%rbp),%rcx
  10a660:	48 8b 85 48 ff ff ff 	mov    -0xb8(%rbp),%rax
  10a667:	48 89 ce             	mov    %rcx,%rsi
  10a66a:	48 89 c7             	mov    %rax,%rdi
  10a66d:	e8 9b 25 00 00       	callq  10cc0d <_Z6memcpyPvPKvm>
  10a672:	48 8b 95 48 ff ff ff 	mov    -0xb8(%rbp),%rdx
  10a679:	8b 45 fc             	mov    -0x4(%rbp),%eax
  10a67c:	c6 04 02 00          	movb   $0x0,(%rdx,%rax,1)
  10a680:	eb 61                	jmp    10a6e3 <_ZN11FAT32Driver12FromFATEntryEP14DirectoryEntryb+0x195>
  10a682:	48 8b 8d 38 ff ff ff 	mov    -0xc8(%rbp),%rcx
  10a689:	48 8d 55 d3          	lea    -0x2d(%rbp),%rdx
  10a68d:	48 8b 85 40 ff ff ff 	mov    -0xc0(%rbp),%rax
  10a694:	48 89 ce             	mov    %rcx,%rsi
  10a697:	48 89 c7             	mov    %rax,%rdi
  10a69a:	e8 ef 09 00 00       	callq  10b08e <_ZN11FAT32Driver20ConvertFromFATFormatEPcS0_>
  10a69f:	48 8d 55 d3          	lea    -0x2d(%rbp),%rdx
  10a6a3:	48 8b 85 48 ff ff ff 	mov    -0xb8(%rbp),%rax
  10a6aa:	48 89 d6             	mov    %rdx,%rsi
  10a6ad:	48 89 c7             	mov    %rax,%rdi
  10a6b0:	e8 53 1e 00 00       	callq  10c508 <_Z6strcpyPcPKc>
  10a6b5:	c7 45 e0 0b 00 00 00 	movl   $0xb,-0x20(%rbp)
  10a6bc:	48 8b 95 48 ff ff ff 	mov    -0xb8(%rbp),%rdx
  10a6c3:	8b 45 e0             	mov    -0x20(%rbp),%eax
  10a6c6:	0f b6 04 02          	movzbl (%rdx,%rax,1),%eax
  10a6ca:	3c 20                	cmp    $0x20,%al
  10a6cc:	75 14                	jne    10a6e2 <_ZN11FAT32Driver12FromFATEntryEP14DirectoryEntryb+0x194>
  10a6ce:	48 8b 95 48 ff ff ff 	mov    -0xb8(%rbp),%rdx
  10a6d5:	8b 45 e0             	mov    -0x20(%rbp),%eax
  10a6d8:	c6 04 02 00          	movb   $0x0,(%rdx,%rax,1)
  10a6dc:	83 6d e0 01          	subl   $0x1,-0x20(%rbp)
  10a6e0:	eb da                	jmp    10a6bc <_ZN11FAT32Driver12FromFATEntryEP14DirectoryEntryb+0x16e>
  10a6e2:	90                   	nop
  10a6e3:	48 8b 85 38 ff ff ff 	mov    -0xc8(%rbp),%rax
  10a6ea:	8b 50 1c             	mov    0x1c(%rax),%edx
  10a6ed:	48 8b 85 48 ff ff ff 	mov    -0xb8(%rbp),%rax
  10a6f4:	89 90 84 00 00 00    	mov    %edx,0x84(%rax)
  10a6fa:	48 8b 85 38 ff ff ff 	mov    -0xc8(%rbp),%rax
  10a701:	0f b6 50 0b          	movzbl 0xb(%rax),%edx
  10a705:	48 8b 85 48 ff ff ff 	mov    -0xb8(%rbp),%rax
  10a70c:	88 90 88 00 00 00    	mov    %dl,0x88(%rax)
  10a712:	48 8b 85 38 ff ff ff 	mov    -0xc8(%rbp),%rax
  10a719:	0f b7 40 1a          	movzwl 0x1a(%rax),%eax
  10a71d:	0f b7 d0             	movzwl %ax,%edx
  10a720:	48 8b 85 38 ff ff ff 	mov    -0xc8(%rbp),%rax
  10a727:	0f b7 40 14          	movzwl 0x14(%rax),%eax
  10a72b:	0f b7 c0             	movzwl %ax,%eax
  10a72e:	c1 e0 10             	shl    $0x10,%eax
  10a731:	09 d0                	or     %edx,%eax
  10a733:	89 c2                	mov    %eax,%edx
  10a735:	48 8b 85 48 ff ff ff 	mov    -0xb8(%rbp),%rax
  10a73c:	89 90 80 00 00 00    	mov    %edx,0x80(%rax)
  10a742:	90                   	nop
  10a743:	48 8b 85 48 ff ff ff 	mov    -0xb8(%rbp),%rax
  10a74a:	c9                   	leaveq 
  10a74b:	c3                   	retq   

000000000010a74c <_ZN11FAT32Driver10ToFATEntryE8DirEntryRj>:
  10a74c:	f3 0f 1e fa          	endbr64 
  10a750:	55                   	push   %rbp
  10a751:	48 89 e5             	mov    %rsp,%rbp
  10a754:	48 81 ec b0 00 00 00 	sub    $0xb0,%rsp
  10a75b:	48 89 bd 58 ff ff ff 	mov    %rdi,-0xa8(%rbp)
  10a762:	48 89 b5 50 ff ff ff 	mov    %rsi,-0xb0(%rbp)
  10a769:	48 8d 45 10          	lea    0x10(%rbp),%rax
  10a76d:	48 89 45 a8          	mov    %rax,-0x58(%rbp)
  10a771:	48 8b 45 a8          	mov    -0x58(%rbp),%rax
  10a775:	48 89 c7             	mov    %rax,%rdi
  10a778:	e8 d3 1c 00 00       	callq  10c450 <_Z6strlenPc>
  10a77d:	48 89 45 a0          	mov    %rax,-0x60(%rbp)
  10a781:	48 83 7d a0 0c       	cmpq   $0xc,-0x60(%rbp)
  10a786:	0f 87 3b 01 00 00    	ja     10a8c7 <_ZN11FAT32Driver10ToFATEntryE8DirEntryRj+0x17b>
  10a78c:	48 c7 45 f8 00 00 00 	movq   $0x0,-0x8(%rbp)
  10a793:	00 
  10a794:	48 8b 45 a8          	mov    -0x58(%rbp),%rax
  10a798:	ba 0b 00 00 00       	mov    $0xb,%edx
  10a79d:	48 8d 35 64 6a 00 00 	lea    0x6a64(%rip),%rsi        # 111208 <_ZL8sc_ascii+0x1a8>
  10a7a4:	48 89 c7             	mov    %rax,%rdi
  10a7a7:	e8 22 1d 00 00       	callq  10c4ce <_Z7strncmpPcS_i>
  10a7ac:	85 c0                	test   %eax,%eax
  10a7ae:	74 1c                	je     10a7cc <_ZN11FAT32Driver10ToFATEntryE8DirEntryRj+0x80>
  10a7b0:	48 8b 45 a8          	mov    -0x58(%rbp),%rax
  10a7b4:	ba 0b 00 00 00       	mov    $0xb,%edx
  10a7b9:	48 8d 35 54 6a 00 00 	lea    0x6a54(%rip),%rsi        # 111214 <_ZL8sc_ascii+0x1b4>
  10a7c0:	48 89 c7             	mov    %rax,%rdi
  10a7c3:	e8 06 1d 00 00       	callq  10c4ce <_Z7strncmpPcS_i>
  10a7c8:	85 c0                	test   %eax,%eax
  10a7ca:	75 07                	jne    10a7d3 <_ZN11FAT32Driver10ToFATEntryE8DirEntryRj+0x87>
  10a7cc:	b8 01 00 00 00       	mov    $0x1,%eax
  10a7d1:	eb 05                	jmp    10a7d8 <_ZN11FAT32Driver10ToFATEntryE8DirEntryRj+0x8c>
  10a7d3:	b8 00 00 00 00       	mov    $0x0,%eax
  10a7d8:	84 c0                	test   %al,%al
  10a7da:	74 0a                	je     10a7e6 <_ZN11FAT32Driver10ToFATEntryE8DirEntryRj+0x9a>
  10a7dc:	48 8b 45 a8          	mov    -0x58(%rbp),%rax
  10a7e0:	48 89 45 f8          	mov    %rax,-0x8(%rbp)
  10a7e4:	eb 1a                	jmp    10a800 <_ZN11FAT32Driver10ToFATEntryE8DirEntryRj+0xb4>
  10a7e6:	48 8b 55 a8          	mov    -0x58(%rbp),%rdx
  10a7ea:	48 8b 85 58 ff ff ff 	mov    -0xa8(%rbp),%rax
  10a7f1:	48 89 d6             	mov    %rdx,%rsi
  10a7f4:	48 89 c7             	mov    %rax,%rdi
  10a7f7:	e8 0a 07 00 00       	callq  10af06 <_ZN11FAT32Driver18ConvertToFATFormatEPc>
  10a7fc:	48 89 45 f8          	mov    %rax,-0x8(%rbp)
  10a800:	48 8b 85 50 ff ff ff 	mov    -0xb0(%rbp),%rax
  10a807:	c7 00 00 00 00 00    	movl   $0x0,(%rax)
  10a80d:	bf 20 00 00 00       	mov    $0x20,%edi
  10a812:	e8 74 91 ff ff       	callq  10398b <_Znwm>
  10a817:	48 c7 00 00 00 00 00 	movq   $0x0,(%rax)
  10a81e:	48 c7 40 08 00 00 00 	movq   $0x0,0x8(%rax)
  10a825:	00 
  10a826:	48 c7 40 10 00 00 00 	movq   $0x0,0x10(%rax)
  10a82d:	00 
  10a82e:	48 c7 40 18 00 00 00 	movq   $0x0,0x18(%rax)
  10a835:	00 
  10a836:	48 89 85 78 ff ff ff 	mov    %rax,-0x88(%rbp)
  10a83d:	48 8b 85 78 ff ff ff 	mov    -0x88(%rbp),%rax
  10a844:	ba 20 00 00 00       	mov    $0x20,%edx
  10a849:	be 00 00 00 00       	mov    $0x0,%esi
  10a84e:	48 89 c7             	mov    %rax,%rdi
  10a851:	e8 f9 23 00 00       	callq  10cc4f <_Z6memsetPvim>
  10a856:	48 8b 85 78 ff ff ff 	mov    -0x88(%rbp),%rax
  10a85d:	48 8b 4d f8          	mov    -0x8(%rbp),%rcx
  10a861:	ba 0b 00 00 00       	mov    $0xb,%edx
  10a866:	48 89 ce             	mov    %rcx,%rsi
  10a869:	48 89 c7             	mov    %rax,%rdi
  10a86c:	e8 9c 23 00 00       	callq  10cc0d <_Z6memcpyPvPKvm>
  10a871:	0f b6 95 98 00 00 00 	movzbl 0x98(%rbp),%edx
  10a878:	48 8b 85 78 ff ff ff 	mov    -0x88(%rbp),%rax
  10a87f:	88 50 0b             	mov    %dl,0xb(%rax)
  10a882:	8b 95 94 00 00 00    	mov    0x94(%rbp),%edx
  10a888:	48 8b 85 78 ff ff ff 	mov    -0x88(%rbp),%rax
  10a88f:	89 50 1c             	mov    %edx,0x1c(%rax)
  10a892:	8b 85 90 00 00 00    	mov    0x90(%rbp),%eax
  10a898:	89 c2                	mov    %eax,%edx
  10a89a:	48 8b 85 78 ff ff ff 	mov    -0x88(%rbp),%rax
  10a8a1:	66 89 50 1a          	mov    %dx,0x1a(%rax)
  10a8a5:	8b 85 90 00 00 00    	mov    0x90(%rbp),%eax
  10a8ab:	c1 e8 10             	shr    $0x10,%eax
  10a8ae:	89 c2                	mov    %eax,%edx
  10a8b0:	48 8b 85 78 ff ff ff 	mov    -0x88(%rbp),%rax
  10a8b7:	66 89 50 14          	mov    %dx,0x14(%rax)
  10a8bb:	48 8b 85 78 ff ff ff 	mov    -0x88(%rbp),%rax
  10a8c2:	e9 c7 03 00 00       	jmpq   10ac8e <_ZN11FAT32Driver10ToFATEntryE8DirEntryRj+0x542>
  10a8c7:	48 8b 45 a0          	mov    -0x60(%rbp),%rax
  10a8cb:	48 ba c5 4e ec c4 4e 	movabs $0x4ec4ec4ec4ec4ec5,%rdx
  10a8d2:	ec c4 4e 
  10a8d5:	48 f7 e2             	mul    %rdx
  10a8d8:	48 89 d0             	mov    %rdx,%rax
  10a8db:	48 c1 e8 02          	shr    $0x2,%rax
  10a8df:	48 83 c0 01          	add    $0x1,%rax
  10a8e3:	48 89 45 98          	mov    %rax,-0x68(%rbp)
  10a8e7:	48 8b 45 98          	mov    -0x68(%rbp),%rax
  10a8eb:	89 c2                	mov    %eax,%edx
  10a8ed:	48 8b 85 50 ff ff ff 	mov    -0xb0(%rbp),%rax
  10a8f4:	89 10                	mov    %edx,(%rax)
  10a8f6:	48 8b 45 98          	mov    -0x68(%rbp),%rax
  10a8fa:	48 83 c0 01          	add    $0x1,%rax
  10a8fe:	48 ba ff ff ff ff ff 	movabs $0x3ffffffffffffff,%rdx
  10a905:	ff ff 03 
  10a908:	48 39 d0             	cmp    %rdx,%rax
  10a90b:	77 06                	ja     10a913 <_ZN11FAT32Driver10ToFATEntryE8DirEntryRj+0x1c7>
  10a90d:	48 c1 e0 05          	shl    $0x5,%rax
  10a911:	eb 07                	jmp    10a91a <_ZN11FAT32Driver10ToFATEntryE8DirEntryRj+0x1ce>
  10a913:	48 c7 c0 ff ff ff ff 	mov    $0xffffffffffffffff,%rax
  10a91a:	48 89 c7             	mov    %rax,%rdi
  10a91d:	e8 87 90 ff ff       	callq  1039a9 <_Znam>
  10a922:	48 89 45 90          	mov    %rax,-0x70(%rbp)
  10a926:	48 8b 45 98          	mov    -0x68(%rbp),%rax
  10a92a:	48 c1 e0 05          	shl    $0x5,%rax
  10a92e:	48 8d 50 e0          	lea    -0x20(%rax),%rdx
  10a932:	48 8b 45 90          	mov    -0x70(%rbp),%rax
  10a936:	48 01 d0             	add    %rdx,%rax
  10a939:	48 89 45 f0          	mov    %rax,-0x10(%rbp)
  10a93d:	c7 45 ec 00 00 00 00 	movl   $0x0,-0x14(%rbp)
  10a944:	83 7d ec 05          	cmpl   $0x5,-0x14(%rbp)
  10a948:	77 35                	ja     10a97f <_ZN11FAT32Driver10ToFATEntryE8DirEntryRj+0x233>
  10a94a:	8b 55 ec             	mov    -0x14(%rbp),%edx
  10a94d:	48 8b 45 a8          	mov    -0x58(%rbp),%rax
  10a951:	48 01 d0             	add    %rdx,%rax
  10a954:	0f b6 00             	movzbl (%rax),%eax
  10a957:	88 45 8f             	mov    %al,-0x71(%rbp)
  10a95a:	80 7d 8f 60          	cmpb   $0x60,-0x71(%rbp)
  10a95e:	7e 19                	jle    10a979 <_ZN11FAT32Driver10ToFATEntryE8DirEntryRj+0x22d>
  10a960:	80 7d 8f 7a          	cmpb   $0x7a,-0x71(%rbp)
  10a964:	7f 13                	jg     10a979 <_ZN11FAT32Driver10ToFATEntryE8DirEntryRj+0x22d>
  10a966:	0f b6 45 8f          	movzbl -0x71(%rbp),%eax
  10a96a:	83 e8 20             	sub    $0x20,%eax
  10a96d:	89 c2                	mov    %eax,%edx
  10a96f:	8b 45 ec             	mov    -0x14(%rbp),%eax
  10a972:	88 94 05 6d ff ff ff 	mov    %dl,-0x93(%rbp,%rax,1)
  10a979:	83 45 ec 01          	addl   $0x1,-0x14(%rbp)
  10a97d:	eb c5                	jmp    10a944 <_ZN11FAT32Driver10ToFATEntryE8DirEntryRj+0x1f8>
  10a97f:	c6 85 73 ff ff ff 7e 	movb   $0x7e,-0x8d(%rbp)
  10a986:	c6 85 74 ff ff ff 31 	movb   $0x31,-0x8c(%rbp)
  10a98d:	c6 45 eb 00          	movb   $0x0,-0x15(%rbp)
  10a991:	c7 45 e4 06 00 00 00 	movl   $0x6,-0x1c(%rbp)
  10a998:	8b 45 e4             	mov    -0x1c(%rbp),%eax
  10a99b:	48 39 45 a0          	cmp    %rax,-0x60(%rbp)
  10a99f:	0f 86 82 00 00 00    	jbe    10aa27 <_ZN11FAT32Driver10ToFATEntryE8DirEntryRj+0x2db>
  10a9a5:	8b 55 e4             	mov    -0x1c(%rbp),%edx
  10a9a8:	48 8b 45 a8          	mov    -0x58(%rbp),%rax
  10a9ac:	48 01 d0             	add    %rdx,%rax
  10a9af:	0f b6 00             	movzbl (%rax),%eax
  10a9b2:	3c 2e                	cmp    $0x2e,%al
  10a9b4:	75 67                	jne    10aa1d <_ZN11FAT32Driver10ToFATEntryE8DirEntryRj+0x2d1>
  10a9b6:	c6 45 eb 01          	movb   $0x1,-0x15(%rbp)
  10a9ba:	c7 45 e0 00 00 00 00 	movl   $0x0,-0x20(%rbp)
  10a9c1:	8b 45 e0             	mov    -0x20(%rbp),%eax
  10a9c4:	8b 55 e4             	mov    -0x1c(%rbp),%edx
  10a9c7:	83 c2 01             	add    $0x1,%edx
  10a9ca:	89 d1                	mov    %edx,%ecx
  10a9cc:	48 8b 55 a0          	mov    -0x60(%rbp),%rdx
  10a9d0:	48 29 ca             	sub    %rcx,%rdx
  10a9d3:	48 39 d0             	cmp    %rdx,%rax
  10a9d6:	73 4e                	jae    10aa26 <_ZN11FAT32Driver10ToFATEntryE8DirEntryRj+0x2da>
  10a9d8:	83 7d e0 02          	cmpl   $0x2,-0x20(%rbp)
  10a9dc:	77 48                	ja     10aa26 <_ZN11FAT32Driver10ToFATEntryE8DirEntryRj+0x2da>
  10a9de:	8b 55 e4             	mov    -0x1c(%rbp),%edx
  10a9e1:	8b 45 e0             	mov    -0x20(%rbp),%eax
  10a9e4:	01 d0                	add    %edx,%eax
  10a9e6:	83 c0 01             	add    $0x1,%eax
  10a9e9:	89 c2                	mov    %eax,%edx
  10a9eb:	48 8b 45 a8          	mov    -0x58(%rbp),%rax
  10a9ef:	48 01 d0             	add    %rdx,%rax
  10a9f2:	0f b6 00             	movzbl (%rax),%eax
  10a9f5:	88 45 8e             	mov    %al,-0x72(%rbp)
  10a9f8:	80 7d 8e 60          	cmpb   $0x60,-0x72(%rbp)
  10a9fc:	7e 19                	jle    10aa17 <_ZN11FAT32Driver10ToFATEntryE8DirEntryRj+0x2cb>
  10a9fe:	80 7d 8e 7a          	cmpb   $0x7a,-0x72(%rbp)
  10aa02:	7f 13                	jg     10aa17 <_ZN11FAT32Driver10ToFATEntryE8DirEntryRj+0x2cb>
  10aa04:	0f b6 45 8e          	movzbl -0x72(%rbp),%eax
  10aa08:	83 e8 20             	sub    $0x20,%eax
  10aa0b:	89 c2                	mov    %eax,%edx
  10aa0d:	8b 45 e4             	mov    -0x1c(%rbp),%eax
  10aa10:	88 94 05 6d ff ff ff 	mov    %dl,-0x93(%rbp,%rax,1)
  10aa17:	83 45 e0 01          	addl   $0x1,-0x20(%rbp)
  10aa1b:	eb a4                	jmp    10a9c1 <_ZN11FAT32Driver10ToFATEntryE8DirEntryRj+0x275>
  10aa1d:	83 45 e4 01          	addl   $0x1,-0x1c(%rbp)
  10aa21:	e9 72 ff ff ff       	jmpq   10a998 <_ZN11FAT32Driver10ToFATEntryE8DirEntryRj+0x24c>
  10aa26:	90                   	nop
  10aa27:	0f b6 45 eb          	movzbl -0x15(%rbp),%eax
  10aa2b:	83 f0 01             	xor    $0x1,%eax
  10aa2e:	84 c0                	test   %al,%al
  10aa30:	74 15                	je     10aa47 <_ZN11FAT32Driver10ToFATEntryE8DirEntryRj+0x2fb>
  10aa32:	c6 85 75 ff ff ff 20 	movb   $0x20,-0x8b(%rbp)
  10aa39:	c6 85 76 ff ff ff 20 	movb   $0x20,-0x8a(%rbp)
  10aa40:	c6 85 77 ff ff ff 20 	movb   $0x20,-0x89(%rbp)
  10aa47:	c6 45 df 00          	movb   $0x0,-0x21(%rbp)
  10aa4b:	48 c7 45 d0 0b 00 00 	movq   $0xb,-0x30(%rbp)
  10aa52:	00 
  10aa53:	48 83 7d d0 00       	cmpq   $0x0,-0x30(%rbp)
  10aa58:	74 2e                	je     10aa88 <_ZN11FAT32Driver10ToFATEntryE8DirEntryRj+0x33c>
  10aa5a:	0f b6 45 df          	movzbl -0x21(%rbp),%eax
  10aa5e:	c1 e0 07             	shl    $0x7,%eax
  10aa61:	89 c2                	mov    %eax,%edx
  10aa63:	0f b6 45 df          	movzbl -0x21(%rbp),%eax
  10aa67:	d1 f8                	sar    %eax
  10aa69:	01 c2                	add    %eax,%edx
  10aa6b:	b8 0b 00 00 00       	mov    $0xb,%eax
  10aa70:	48 2b 45 d0          	sub    -0x30(%rbp),%rax
  10aa74:	0f b6 84 05 6d ff ff 	movzbl -0x93(%rbp,%rax,1),%eax
  10aa7b:	ff 
  10aa7c:	01 d0                	add    %edx,%eax
  10aa7e:	88 45 df             	mov    %al,-0x21(%rbp)
  10aa81:	48 83 6d d0 01       	subq   $0x1,-0x30(%rbp)
  10aa86:	eb cb                	jmp    10aa53 <_ZN11FAT32Driver10ToFATEntryE8DirEntryRj+0x307>
  10aa88:	c7 45 cc 00 00 00 00 	movl   $0x0,-0x34(%rbp)
  10aa8f:	48 c7 45 c0 00 00 00 	movq   $0x0,-0x40(%rbp)
  10aa96:	00 
  10aa97:	48 8b 45 c0          	mov    -0x40(%rbp),%rax
  10aa9b:	48 3b 45 98          	cmp    -0x68(%rbp),%rax
  10aa9f:	0f 83 60 01 00 00    	jae    10ac05 <_ZN11FAT32Driver10ToFATEntryE8DirEntryRj+0x4b9>
  10aaa5:	48 8b 45 f0          	mov    -0x10(%rbp),%rax
  10aaa9:	ba 20 00 00 00       	mov    $0x20,%edx
  10aaae:	be 00 00 00 00       	mov    $0x0,%esi
  10aab3:	48 89 c7             	mov    %rax,%rdi
  10aab6:	e8 94 21 00 00       	callq  10cc4f <_Z6memsetPvim>
  10aabb:	48 8b 45 c0          	mov    -0x40(%rbp),%rax
  10aabf:	8d 50 01             	lea    0x1(%rax),%edx
  10aac2:	48 8b 45 f0          	mov    -0x10(%rbp),%rax
  10aac6:	88 10                	mov    %dl,(%rax)
  10aac8:	48 8b 45 98          	mov    -0x68(%rbp),%rax
  10aacc:	48 83 e8 01          	sub    $0x1,%rax
  10aad0:	48 39 45 c0          	cmp    %rax,-0x40(%rbp)
  10aad4:	75 12                	jne    10aae8 <_ZN11FAT32Driver10ToFATEntryE8DirEntryRj+0x39c>
  10aad6:	48 8b 45 f0          	mov    -0x10(%rbp),%rax
  10aada:	0f b6 00             	movzbl (%rax),%eax
  10aadd:	83 c8 40             	or     $0x40,%eax
  10aae0:	89 c2                	mov    %eax,%edx
  10aae2:	48 8b 45 f0          	mov    -0x10(%rbp),%rax
  10aae6:	88 10                	mov    %dl,(%rax)
  10aae8:	48 8b 45 f0          	mov    -0x10(%rbp),%rax
  10aaec:	c6 40 0b 0f          	movb   $0xf,0xb(%rax)
  10aaf0:	48 8b 45 f0          	mov    -0x10(%rbp),%rax
  10aaf4:	0f b6 55 df          	movzbl -0x21(%rbp),%edx
  10aaf8:	88 50 0d             	mov    %dl,0xd(%rax)
  10aafb:	c7 45 bc 00 00 00 00 	movl   $0x0,-0x44(%rbp)
  10ab02:	83 7d bc 04          	cmpl   $0x4,-0x44(%rbp)
  10ab06:	77 44                	ja     10ab4c <_ZN11FAT32Driver10ToFATEntryE8DirEntryRj+0x400>
  10ab08:	8b 45 cc             	mov    -0x34(%rbp),%eax
  10ab0b:	48 39 45 a0          	cmp    %rax,-0x60(%rbp)
  10ab0f:	77 10                	ja     10ab21 <_ZN11FAT32Driver10ToFATEntryE8DirEntryRj+0x3d5>
  10ab11:	48 8b 45 f0          	mov    -0x10(%rbp),%rax
  10ab15:	8b 55 bc             	mov    -0x44(%rbp),%edx
  10ab18:	66 c7 44 50 01 00 00 	movw   $0x0,0x1(%rax,%rdx,2)
  10ab1f:	eb 2b                	jmp    10ab4c <_ZN11FAT32Driver10ToFATEntryE8DirEntryRj+0x400>
  10ab21:	8b 45 cc             	mov    -0x34(%rbp),%eax
  10ab24:	8d 50 01             	lea    0x1(%rax),%edx
  10ab27:	89 55 cc             	mov    %edx,-0x34(%rbp)
  10ab2a:	89 c2                	mov    %eax,%edx
  10ab2c:	48 8b 45 a8          	mov    -0x58(%rbp),%rax
  10ab30:	48 01 d0             	add    %rdx,%rax
  10ab33:	0f b6 00             	movzbl (%rax),%eax
  10ab36:	66 0f be c8          	movsbw %al,%cx
  10ab3a:	48 8b 45 f0          	mov    -0x10(%rbp),%rax
  10ab3e:	8b 55 bc             	mov    -0x44(%rbp),%edx
  10ab41:	66 89 4c 50 01       	mov    %cx,0x1(%rax,%rdx,2)
  10ab46:	83 45 bc 01          	addl   $0x1,-0x44(%rbp)
  10ab4a:	eb b6                	jmp    10ab02 <_ZN11FAT32Driver10ToFATEntryE8DirEntryRj+0x3b6>
  10ab4c:	c7 45 b8 00 00 00 00 	movl   $0x0,-0x48(%rbp)
  10ab53:	83 7d b8 05          	cmpl   $0x5,-0x48(%rbp)
  10ab57:	77 44                	ja     10ab9d <_ZN11FAT32Driver10ToFATEntryE8DirEntryRj+0x451>
  10ab59:	8b 45 cc             	mov    -0x34(%rbp),%eax
  10ab5c:	48 39 45 a0          	cmp    %rax,-0x60(%rbp)
  10ab60:	77 10                	ja     10ab72 <_ZN11FAT32Driver10ToFATEntryE8DirEntryRj+0x426>
  10ab62:	48 8b 45 f0          	mov    -0x10(%rbp),%rax
  10ab66:	8b 55 b8             	mov    -0x48(%rbp),%edx
  10ab69:	66 c7 44 50 0e 00 00 	movw   $0x0,0xe(%rax,%rdx,2)
  10ab70:	eb 2b                	jmp    10ab9d <_ZN11FAT32Driver10ToFATEntryE8DirEntryRj+0x451>
  10ab72:	8b 45 cc             	mov    -0x34(%rbp),%eax
  10ab75:	8d 50 01             	lea    0x1(%rax),%edx
  10ab78:	89 55 cc             	mov    %edx,-0x34(%rbp)
  10ab7b:	89 c2                	mov    %eax,%edx
  10ab7d:	48 8b 45 a8          	mov    -0x58(%rbp),%rax
  10ab81:	48 01 d0             	add    %rdx,%rax
  10ab84:	0f b6 00             	movzbl (%rax),%eax
  10ab87:	66 0f be c8          	movsbw %al,%cx
  10ab8b:	48 8b 45 f0          	mov    -0x10(%rbp),%rax
  10ab8f:	8b 55 b8             	mov    -0x48(%rbp),%edx
  10ab92:	66 89 4c 50 0e       	mov    %cx,0xe(%rax,%rdx,2)
  10ab97:	83 45 b8 01          	addl   $0x1,-0x48(%rbp)
  10ab9b:	eb b6                	jmp    10ab53 <_ZN11FAT32Driver10ToFATEntryE8DirEntryRj+0x407>
  10ab9d:	c7 45 b4 00 00 00 00 	movl   $0x0,-0x4c(%rbp)
  10aba4:	83 7d b4 01          	cmpl   $0x1,-0x4c(%rbp)
  10aba8:	77 4c                	ja     10abf6 <_ZN11FAT32Driver10ToFATEntryE8DirEntryRj+0x4aa>
  10abaa:	8b 45 cc             	mov    -0x34(%rbp),%eax
  10abad:	48 39 45 a0          	cmp    %rax,-0x60(%rbp)
  10abb1:	77 14                	ja     10abc7 <_ZN11FAT32Driver10ToFATEntryE8DirEntryRj+0x47b>
  10abb3:	48 8b 45 f0          	mov    -0x10(%rbp),%rax
  10abb7:	8b 55 b4             	mov    -0x4c(%rbp),%edx
  10abba:	48 83 c2 08          	add    $0x8,%rdx
  10abbe:	66 c7 44 50 0c 00 00 	movw   $0x0,0xc(%rax,%rdx,2)
  10abc5:	eb 2f                	jmp    10abf6 <_ZN11FAT32Driver10ToFATEntryE8DirEntryRj+0x4aa>
  10abc7:	8b 45 cc             	mov    -0x34(%rbp),%eax
  10abca:	8d 50 01             	lea    0x1(%rax),%edx
  10abcd:	89 55 cc             	mov    %edx,-0x34(%rbp)
  10abd0:	89 c2                	mov    %eax,%edx
  10abd2:	48 8b 45 a8          	mov    -0x58(%rbp),%rax
  10abd6:	48 01 d0             	add    %rdx,%rax
  10abd9:	0f b6 00             	movzbl (%rax),%eax
  10abdc:	66 0f be d0          	movsbw %al,%dx
  10abe0:	48 8b 45 f0          	mov    -0x10(%rbp),%rax
  10abe4:	8b 4d b4             	mov    -0x4c(%rbp),%ecx
  10abe7:	48 83 c1 08          	add    $0x8,%rcx
  10abeb:	66 89 54 48 0c       	mov    %dx,0xc(%rax,%rcx,2)
  10abf0:	83 45 b4 01          	addl   $0x1,-0x4c(%rbp)
  10abf4:	eb ae                	jmp    10aba4 <_ZN11FAT32Driver10ToFATEntryE8DirEntryRj+0x458>
  10abf6:	48 83 6d f0 20       	subq   $0x20,-0x10(%rbp)
  10abfb:	48 83 45 c0 01       	addq   $0x1,-0x40(%rbp)
  10ac00:	e9 92 fe ff ff       	jmpq   10aa97 <_ZN11FAT32Driver10ToFATEntryE8DirEntryRj+0x34b>
  10ac05:	48 8b 45 98          	mov    -0x68(%rbp),%rax
  10ac09:	48 c1 e0 05          	shl    $0x5,%rax
  10ac0d:	48 89 c2             	mov    %rax,%rdx
  10ac10:	48 8b 45 90          	mov    -0x70(%rbp),%rax
  10ac14:	48 01 d0             	add    %rdx,%rax
  10ac17:	48 89 45 80          	mov    %rax,-0x80(%rbp)
  10ac1b:	48 8b 45 80          	mov    -0x80(%rbp),%rax
  10ac1f:	ba 20 00 00 00       	mov    $0x20,%edx
  10ac24:	be 00 00 00 00       	mov    $0x0,%esi
  10ac29:	48 89 c7             	mov    %rax,%rdi
  10ac2c:	e8 1e 20 00 00       	callq  10cc4f <_Z6memsetPvim>
  10ac31:	48 8b 45 80          	mov    -0x80(%rbp),%rax
  10ac35:	48 8d 8d 6d ff ff ff 	lea    -0x93(%rbp),%rcx
  10ac3c:	ba 0b 00 00 00       	mov    $0xb,%edx
  10ac41:	48 89 ce             	mov    %rcx,%rsi
  10ac44:	48 89 c7             	mov    %rax,%rdi
  10ac47:	e8 c1 1f 00 00       	callq  10cc0d <_Z6memcpyPvPKvm>
  10ac4c:	0f b6 95 98 00 00 00 	movzbl 0x98(%rbp),%edx
  10ac53:	48 8b 45 80          	mov    -0x80(%rbp),%rax
  10ac57:	88 50 0b             	mov    %dl,0xb(%rax)
  10ac5a:	8b 95 94 00 00 00    	mov    0x94(%rbp),%edx
  10ac60:	48 8b 45 80          	mov    -0x80(%rbp),%rax
  10ac64:	89 50 1c             	mov    %edx,0x1c(%rax)
  10ac67:	8b 85 90 00 00 00    	mov    0x90(%rbp),%eax
  10ac6d:	89 c2                	mov    %eax,%edx
  10ac6f:	48 8b 45 80          	mov    -0x80(%rbp),%rax
  10ac73:	66 89 50 1a          	mov    %dx,0x1a(%rax)
  10ac77:	8b 85 90 00 00 00    	mov    0x90(%rbp),%eax
  10ac7d:	c1 e8 10             	shr    $0x10,%eax
  10ac80:	89 c2                	mov    %eax,%edx
  10ac82:	48 8b 45 80          	mov    -0x80(%rbp),%rax
  10ac86:	66 89 50 14          	mov    %dx,0x14(%rax)
  10ac8a:	48 8b 45 80          	mov    -0x80(%rbp),%rax
  10ac8e:	c9                   	leaveq 
  10ac8f:	c3                   	retq   

000000000010ac90 <_ZN11FAT32Driver7CompareEP14DirectoryEntryPKcb>:
  10ac90:	f3 0f 1e fa          	endbr64 
  10ac94:	55                   	push   %rbp
  10ac95:	48 89 e5             	mov    %rsp,%rbp
  10ac98:	48 81 ec c0 00 00 00 	sub    $0xc0,%rsp
  10ac9f:	48 89 bd 58 ff ff ff 	mov    %rdi,-0xa8(%rbp)
  10aca6:	48 89 b5 50 ff ff ff 	mov    %rsi,-0xb0(%rbp)
  10acad:	48 89 95 48 ff ff ff 	mov    %rdx,-0xb8(%rbp)
  10acb4:	89 c8                	mov    %ecx,%eax
  10acb6:	88 85 44 ff ff ff    	mov    %al,-0xbc(%rbp)
  10acbc:	0f b6 8d 44 ff ff ff 	movzbl -0xbc(%rbp),%ecx
  10acc3:	48 8d 85 60 ff ff ff 	lea    -0xa0(%rbp),%rax
  10acca:	48 8b 95 50 ff ff ff 	mov    -0xb0(%rbp),%rdx
  10acd1:	48 8b b5 58 ff ff ff 	mov    -0xa8(%rbp),%rsi
  10acd8:	48 89 c7             	mov    %rax,%rdi
  10acdb:	e8 6e f8 ff ff       	callq  10a54e <_ZN11FAT32Driver12FromFATEntryEP14DirectoryEntryb>
  10ace0:	48 8b 95 48 ff ff ff 	mov    -0xb8(%rbp),%rdx
  10ace7:	48 8d 85 60 ff ff ff 	lea    -0xa0(%rbp),%rax
  10acee:	48 89 d6             	mov    %rdx,%rsi
  10acf1:	48 89 c7             	mov    %rax,%rdi
  10acf4:	e8 75 17 00 00       	callq  10c46e <_Z6strcmpPcS_>
  10acf9:	85 c0                	test   %eax,%eax
  10acfb:	0f 94 c0             	sete   %al
  10acfe:	c9                   	leaveq 
  10acff:	c3                   	retq   

000000000010ad00 <_ZNK11FAT32Driver15GetMillisecondsEv>:
  10ad00:	f3 0f 1e fa          	endbr64 
  10ad04:	55                   	push   %rbp
  10ad05:	48 89 e5             	mov    %rsp,%rbp
  10ad08:	48 83 ec 08          	sub    $0x8,%rsp
  10ad0c:	48 89 7d f8          	mov    %rdi,-0x8(%rbp)
  10ad10:	b8 00 00 00 00       	mov    $0x0,%eax
  10ad15:	c9                   	leaveq 
  10ad16:	c3                   	retq   
  10ad17:	90                   	nop

000000000010ad18 <_ZNK11FAT32Driver7GetTimeEv>:
  10ad18:	f3 0f 1e fa          	endbr64 
  10ad1c:	55                   	push   %rbp
  10ad1d:	48 89 e5             	mov    %rsp,%rbp
  10ad20:	48 83 ec 30          	sub    $0x30,%rsp
  10ad24:	48 89 7d d8          	mov    %rdi,-0x28(%rbp)
  10ad28:	48 8d 45 e0          	lea    -0x20(%rbp),%rax
  10ad2c:	48 89 c7             	mov    %rax,%rdi
  10ad2f:	e8 6d 6c ff ff       	callq  1019a1 <_Z10GetTimeRTCP2tm>
  10ad34:	8b 45 f4             	mov    -0xc(%rbp),%eax
  10ad37:	d1 e8                	shr    %eax
  10ad39:	66 89 45 fe          	mov    %ax,-0x2(%rbp)
  10ad3d:	8b 45 f0             	mov    -0x10(%rbp),%eax
  10ad40:	66 89 45 fc          	mov    %ax,-0x4(%rbp)
  10ad44:	8b 45 ec             	mov    -0x14(%rbp),%eax
  10ad47:	66 89 45 fa          	mov    %ax,-0x6(%rbp)
  10ad4b:	0f b7 45 fc          	movzwl -0x4(%rbp),%eax
  10ad4f:	c1 e0 05             	shl    $0x5,%eax
  10ad52:	89 c2                	mov    %eax,%edx
  10ad54:	0f b7 45 fe          	movzwl -0x2(%rbp),%eax
  10ad58:	09 c2                	or     %eax,%edx
  10ad5a:	0f b7 45 fa          	movzwl -0x6(%rbp),%eax
  10ad5e:	c1 e0 0b             	shl    $0xb,%eax
  10ad61:	09 d0                	or     %edx,%eax
  10ad63:	c9                   	leaveq 
  10ad64:	c3                   	retq   
  10ad65:	90                   	nop

000000000010ad66 <_ZNK11FAT32Driver7GetDateEv>:
  10ad66:	f3 0f 1e fa          	endbr64 
  10ad6a:	55                   	push   %rbp
  10ad6b:	48 89 e5             	mov    %rsp,%rbp
  10ad6e:	48 83 ec 30          	sub    $0x30,%rsp
  10ad72:	48 89 7d d8          	mov    %rdi,-0x28(%rbp)
  10ad76:	48 8d 45 e0          	lea    -0x20(%rbp),%rax
  10ad7a:	48 89 c7             	mov    %rax,%rdi
  10ad7d:	e8 1f 6c ff ff       	callq  1019a1 <_Z10GetTimeRTCP2tm>
  10ad82:	8b 45 e8             	mov    -0x18(%rbp),%eax
  10ad85:	66 89 45 fe          	mov    %ax,-0x2(%rbp)
  10ad89:	8b 45 e4             	mov    -0x1c(%rbp),%eax
  10ad8c:	83 c0 01             	add    $0x1,%eax
  10ad8f:	66 89 45 fc          	mov    %ax,-0x4(%rbp)
  10ad93:	8b 45 e0             	mov    -0x20(%rbp),%eax
  10ad96:	66 05 6c 07          	add    $0x76c,%ax
  10ad9a:	66 89 45 fa          	mov    %ax,-0x6(%rbp)
  10ad9e:	0f b7 45 fc          	movzwl -0x4(%rbp),%eax
  10ada2:	c1 e0 05             	shl    $0x5,%eax
  10ada5:	89 c2                	mov    %eax,%edx
  10ada7:	0f b7 45 fe          	movzwl -0x2(%rbp),%eax
  10adab:	09 c2                	or     %eax,%edx
  10adad:	0f b7 45 fa          	movzwl -0x6(%rbp),%eax
  10adb1:	2d bc 07 00 00       	sub    $0x7bc,%eax
  10adb6:	c1 e0 09             	shl    $0x9,%eax
  10adb9:	09 d0                	or     %edx,%eax
  10adbb:	c9                   	leaveq 
  10adbc:	c3                   	retq   
  10adbd:	90                   	nop

000000000010adbe <_ZN11FAT32Driver11IsFATFormatEPc>:
  10adbe:	f3 0f 1e fa          	endbr64 
  10adc2:	55                   	push   %rbp
  10adc3:	48 89 e5             	mov    %rsp,%rbp
  10adc6:	48 83 ec 20          	sub    $0x20,%rsp
  10adca:	48 89 7d e8          	mov    %rdi,-0x18(%rbp)
  10adce:	48 89 75 e0          	mov    %rsi,-0x20(%rbp)
  10add2:	48 8b 45 e0          	mov    -0x20(%rbp),%rax
  10add6:	48 89 c7             	mov    %rax,%rdi
  10add9:	e8 72 16 00 00       	callq  10c450 <_Z6strlenPc>
  10adde:	48 89 45 f0          	mov    %rax,-0x10(%rbp)
  10ade2:	48 83 7d f0 0b       	cmpq   $0xb,-0x10(%rbp)
  10ade7:	74 0a                	je     10adf3 <_ZN11FAT32Driver11IsFATFormatEPc+0x35>
  10ade9:	b8 f7 ff ff ff       	mov    $0xfffffff7,%eax
  10adee:	e9 10 01 00 00       	jmpq   10af03 <_ZN11FAT32Driver11IsFATFormatEPc+0x145>
  10adf3:	48 8b 45 e0          	mov    -0x20(%rbp),%rax
  10adf7:	ba 0b 00 00 00       	mov    $0xb,%edx
  10adfc:	48 8d 35 05 64 00 00 	lea    0x6405(%rip),%rsi        # 111208 <_ZL8sc_ascii+0x1a8>
  10ae03:	48 89 c7             	mov    %rax,%rdi
  10ae06:	e8 c3 16 00 00       	callq  10c4ce <_Z7strncmpPcS_i>
  10ae0b:	85 c0                	test   %eax,%eax
  10ae0d:	74 1c                	je     10ae2b <_ZN11FAT32Driver11IsFATFormatEPc+0x6d>
  10ae0f:	48 8b 45 e0          	mov    -0x20(%rbp),%rax
  10ae13:	ba 0b 00 00 00       	mov    $0xb,%edx
  10ae18:	48 8d 35 f5 63 00 00 	lea    0x63f5(%rip),%rsi        # 111214 <_ZL8sc_ascii+0x1b4>
  10ae1f:	48 89 c7             	mov    %rax,%rdi
  10ae22:	e8 a7 16 00 00       	callq  10c4ce <_Z7strncmpPcS_i>
  10ae27:	85 c0                	test   %eax,%eax
  10ae29:	75 07                	jne    10ae32 <_ZN11FAT32Driver11IsFATFormatEPc+0x74>
  10ae2b:	b8 01 00 00 00       	mov    $0x1,%eax
  10ae30:	eb 05                	jmp    10ae37 <_ZN11FAT32Driver11IsFATFormatEPc+0x79>
  10ae32:	b8 00 00 00 00       	mov    $0x0,%eax
  10ae37:	84 c0                	test   %al,%al
  10ae39:	74 0a                	je     10ae45 <_ZN11FAT32Driver11IsFATFormatEPc+0x87>
  10ae3b:	b8 00 00 00 00       	mov    $0x0,%eax
  10ae40:	e9 be 00 00 00       	jmpq   10af03 <_ZN11FAT32Driver11IsFATFormatEPc+0x145>
  10ae45:	c7 45 fc 00 00 00 00 	movl   $0x0,-0x4(%rbp)
  10ae4c:	c7 45 f8 00 00 00 00 	movl   $0x0,-0x8(%rbp)
  10ae53:	83 7d f8 0a          	cmpl   $0xa,-0x8(%rbp)
  10ae57:	0f 87 a3 00 00 00    	ja     10af00 <_ZN11FAT32Driver11IsFATFormatEPc+0x142>
  10ae5d:	8b 55 f8             	mov    -0x8(%rbp),%edx
  10ae60:	48 8b 45 e0          	mov    -0x20(%rbp),%rax
  10ae64:	48 01 d0             	add    %rdx,%rax
  10ae67:	0f b6 00             	movzbl (%rax),%eax
  10ae6a:	3c 1f                	cmp    $0x1f,%al
  10ae6c:	7f 15                	jg     10ae83 <_ZN11FAT32Driver11IsFATFormatEPc+0xc5>
  10ae6e:	8b 55 f8             	mov    -0x8(%rbp),%edx
  10ae71:	48 8b 45 e0          	mov    -0x20(%rbp),%rax
  10ae75:	48 01 d0             	add    %rdx,%rax
  10ae78:	0f b6 00             	movzbl (%rax),%eax
  10ae7b:	3c 05                	cmp    $0x5,%al
  10ae7d:	74 04                	je     10ae83 <_ZN11FAT32Driver11IsFATFormatEPc+0xc5>
  10ae7f:	83 4d fc f6          	orl    $0xfffffff6,-0x4(%rbp)
  10ae83:	8b 55 f8             	mov    -0x8(%rbp),%edx
  10ae86:	48 8b 45 e0          	mov    -0x20(%rbp),%rax
  10ae8a:	48 01 d0             	add    %rdx,%rax
  10ae8d:	0f b6 00             	movzbl (%rax),%eax
  10ae90:	0f be c0             	movsbl %al,%eax
  10ae93:	83 f8 5d             	cmp    $0x5d,%eax
  10ae96:	7f 30                	jg     10aec8 <_ZN11FAT32Driver11IsFATFormatEPc+0x10a>
  10ae98:	83 f8 22             	cmp    $0x22,%eax
  10ae9b:	7c 34                	jl     10aed1 <_ZN11FAT32Driver11IsFATFormatEPc+0x113>
  10ae9d:	83 e8 22             	sub    $0x22,%eax
  10aea0:	83 f8 3b             	cmp    $0x3b,%eax
  10aea3:	77 2c                	ja     10aed1 <_ZN11FAT32Driver11IsFATFormatEPc+0x113>
  10aea5:	89 c0                	mov    %eax,%eax
  10aea7:	48 8d 14 85 00 00 00 	lea    0x0(,%rax,4),%rdx
  10aeae:	00 
  10aeaf:	48 8d 05 6e 63 00 00 	lea    0x636e(%rip),%rax        # 111224 <_ZL8sc_ascii+0x1c4>
  10aeb6:	8b 04 02             	mov    (%rdx,%rax,1),%eax
  10aeb9:	48 98                	cltq   
  10aebb:	48 8d 15 62 63 00 00 	lea    0x6362(%rip),%rdx        # 111224 <_ZL8sc_ascii+0x1c4>
  10aec2:	48 01 d0             	add    %rdx,%rax
  10aec5:	3e ff e0             	notrack jmpq *%rax
  10aec8:	83 f8 7c             	cmp    $0x7c,%eax
  10aecb:	75 04                	jne    10aed1 <_ZN11FAT32Driver11IsFATFormatEPc+0x113>
  10aecd:	83 4d fc f6          	orl    $0xfffffff6,-0x4(%rbp)
  10aed1:	8b 55 f8             	mov    -0x8(%rbp),%edx
  10aed4:	48 8b 45 e0          	mov    -0x20(%rbp),%rax
  10aed8:	48 01 d0             	add    %rdx,%rax
  10aedb:	0f b6 00             	movzbl (%rax),%eax
  10aede:	3c 60                	cmp    $0x60,%al
  10aee0:	7e 15                	jle    10aef7 <_ZN11FAT32Driver11IsFATFormatEPc+0x139>
  10aee2:	8b 55 f8             	mov    -0x8(%rbp),%edx
  10aee5:	48 8b 45 e0          	mov    -0x20(%rbp),%rax
  10aee9:	48 01 d0             	add    %rdx,%rax
  10aeec:	0f b6 00             	movzbl (%rax),%eax
  10aeef:	3c 7a                	cmp    $0x7a,%al
  10aef1:	7f 04                	jg     10aef7 <_ZN11FAT32Driver11IsFATFormatEPc+0x139>
  10aef3:	83 4d fc f8          	orl    $0xfffffff8,-0x4(%rbp)
  10aef7:	83 45 f8 01          	addl   $0x1,-0x8(%rbp)
  10aefb:	e9 53 ff ff ff       	jmpq   10ae53 <_ZN11FAT32Driver11IsFATFormatEPc+0x95>
  10af00:	8b 45 fc             	mov    -0x4(%rbp),%eax
  10af03:	c9                   	leaveq 
  10af04:	c3                   	retq   
  10af05:	90                   	nop

000000000010af06 <_ZN11FAT32Driver18ConvertToFATFormatEPc>:
  10af06:	f3 0f 1e fa          	endbr64 
  10af0a:	55                   	push   %rbp
  10af0b:	48 89 e5             	mov    %rsp,%rbp
  10af0e:	48 83 ec 30          	sub    $0x30,%rsp
  10af12:	48 89 7d d8          	mov    %rdi,-0x28(%rbp)
  10af16:	48 89 75 d0          	mov    %rsi,-0x30(%rbp)
  10af1a:	c7 45 fc 00 00 00 00 	movl   $0x0,-0x4(%rbp)
  10af21:	c7 45 f8 00 00 00 00 	movl   $0x0,-0x8(%rbp)
  10af28:	83 7d f8 0b          	cmpl   $0xb,-0x8(%rbp)
  10af2c:	77 37                	ja     10af65 <_ZN11FAT32Driver18ConvertToFATFormatEPc+0x5f>
  10af2e:	8b 55 f8             	mov    -0x8(%rbp),%edx
  10af31:	48 8b 45 d0          	mov    -0x30(%rbp),%rax
  10af35:	48 01 d0             	add    %rdx,%rax
  10af38:	0f b6 00             	movzbl (%rax),%eax
  10af3b:	88 45 f1             	mov    %al,-0xf(%rbp)
  10af3e:	80 7d f1 60          	cmpb   $0x60,-0xf(%rbp)
  10af42:	7e 1b                	jle    10af5f <_ZN11FAT32Driver18ConvertToFATFormatEPc+0x59>
  10af44:	80 7d f1 7a          	cmpb   $0x7a,-0xf(%rbp)
  10af48:	7f 15                	jg     10af5f <_ZN11FAT32Driver18ConvertToFATFormatEPc+0x59>
  10af4a:	0f b6 45 f1          	movzbl -0xf(%rbp),%eax
  10af4e:	8d 48 e0             	lea    -0x20(%rax),%ecx
  10af51:	8b 55 f8             	mov    -0x8(%rbp),%edx
  10af54:	48 8b 45 d0          	mov    -0x30(%rbp),%rax
  10af58:	48 01 d0             	add    %rdx,%rax
  10af5b:	89 ca                	mov    %ecx,%edx
  10af5d:	88 10                	mov    %dl,(%rax)
  10af5f:	83 45 f8 01          	addl   $0x1,-0x8(%rbp)
  10af63:	eb c3                	jmp    10af28 <_ZN11FAT32Driver18ConvertToFATFormatEPc+0x22>
  10af65:	48 c7 45 e4 00 00 00 	movq   $0x0,-0x1c(%rbp)
  10af6c:	00 
  10af6d:	c7 45 ec 00 00 00 00 	movl   $0x0,-0x14(%rbp)
  10af74:	c6 45 f0 00          	movb   $0x0,-0x10(%rbp)
  10af78:	66 c7 45 f6 00 00    	movw   $0x0,-0xa(%rbp)
  10af7e:	c6 45 f5 00          	movb   $0x0,-0xb(%rbp)
  10af82:	c7 45 fc 00 00 00 00 	movl   $0x0,-0x4(%rbp)
  10af89:	83 7d fc 08          	cmpl   $0x8,-0x4(%rbp)
  10af8d:	77 5f                	ja     10afee <_ZN11FAT32Driver18ConvertToFATFormatEPc+0xe8>
  10af8f:	8b 55 fc             	mov    -0x4(%rbp),%edx
  10af92:	48 8b 45 d0          	mov    -0x30(%rbp),%rax
  10af96:	48 01 d0             	add    %rdx,%rax
  10af99:	0f b6 00             	movzbl (%rax),%eax
  10af9c:	3c 2e                	cmp    $0x2e,%al
  10af9e:	74 11                	je     10afb1 <_ZN11FAT32Driver18ConvertToFATFormatEPc+0xab>
  10afa0:	8b 55 fc             	mov    -0x4(%rbp),%edx
  10afa3:	48 8b 45 d0          	mov    -0x30(%rbp),%rax
  10afa7:	48 01 d0             	add    %rdx,%rax
  10afaa:	0f b6 00             	movzbl (%rax),%eax
  10afad:	84 c0                	test   %al,%al
  10afaf:	75 22                	jne    10afd3 <_ZN11FAT32Driver18ConvertToFATFormatEPc+0xcd>
  10afb1:	8b 45 fc             	mov    -0x4(%rbp),%eax
  10afb4:	66 89 45 f6          	mov    %ax,-0xa(%rbp)
  10afb8:	8b 55 fc             	mov    -0x4(%rbp),%edx
  10afbb:	48 8b 45 d0          	mov    -0x30(%rbp),%rax
  10afbf:	48 01 d0             	add    %rdx,%rax
  10afc2:	0f b6 00             	movzbl (%rax),%eax
  10afc5:	3c 2e                	cmp    $0x2e,%al
  10afc7:	75 24                	jne    10afed <_ZN11FAT32Driver18ConvertToFATFormatEPc+0xe7>
  10afc9:	83 45 fc 01          	addl   $0x1,-0x4(%rbp)
  10afcd:	c6 45 f5 01          	movb   $0x1,-0xb(%rbp)
  10afd1:	eb 1a                	jmp    10afed <_ZN11FAT32Driver18ConvertToFATFormatEPc+0xe7>
  10afd3:	8b 55 fc             	mov    -0x4(%rbp),%edx
  10afd6:	48 8b 45 d0          	mov    -0x30(%rbp),%rax
  10afda:	48 01 d0             	add    %rdx,%rax
  10afdd:	0f b6 10             	movzbl (%rax),%edx
  10afe0:	8b 45 fc             	mov    -0x4(%rbp),%eax
  10afe3:	88 54 05 e4          	mov    %dl,-0x1c(%rbp,%rax,1)
  10afe7:	83 45 fc 01          	addl   $0x1,-0x4(%rbp)
  10afeb:	eb 9c                	jmp    10af89 <_ZN11FAT32Driver18ConvertToFATFormatEPc+0x83>
  10afed:	90                   	nop
  10afee:	83 7d fc 09          	cmpl   $0x9,-0x4(%rbp)
  10aff2:	76 0d                	jbe    10b001 <_ZN11FAT32Driver18ConvertToFATFormatEPc+0xfb>
  10aff4:	c7 45 fc 08 00 00 00 	movl   $0x8,-0x4(%rbp)
  10affb:	66 c7 45 f6 08 00    	movw   $0x8,-0xa(%rbp)
  10b001:	66 c7 45 f2 08 00    	movw   $0x8,-0xe(%rbp)
  10b007:	66 83 7d f2 0a       	cmpw   $0xa,-0xe(%rbp)
  10b00c:	77 4c                	ja     10b05a <_ZN11FAT32Driver18ConvertToFATFormatEPc+0x154>
  10b00e:	8b 55 fc             	mov    -0x4(%rbp),%edx
  10b011:	48 8b 45 d0          	mov    -0x30(%rbp),%rax
  10b015:	48 01 d0             	add    %rdx,%rax
  10b018:	0f b6 00             	movzbl (%rax),%eax
  10b01b:	84 c0                	test   %al,%al
  10b01d:	74 1f                	je     10b03e <_ZN11FAT32Driver18ConvertToFATFormatEPc+0x138>
  10b01f:	80 7d f5 00          	cmpb   $0x0,-0xb(%rbp)
  10b023:	74 19                	je     10b03e <_ZN11FAT32Driver18ConvertToFATFormatEPc+0x138>
  10b025:	8b 55 fc             	mov    -0x4(%rbp),%edx
  10b028:	48 8b 45 d0          	mov    -0x30(%rbp),%rax
  10b02c:	48 01 c2             	add    %rax,%rdx
  10b02f:	0f b7 45 f2          	movzwl -0xe(%rbp),%eax
  10b033:	0f b6 12             	movzbl (%rdx),%edx
  10b036:	48 98                	cltq   
  10b038:	88 54 05 e4          	mov    %dl,-0x1c(%rbp,%rax,1)
  10b03c:	eb 0b                	jmp    10b049 <_ZN11FAT32Driver18ConvertToFATFormatEPc+0x143>
  10b03e:	0f b7 45 f2          	movzwl -0xe(%rbp),%eax
  10b042:	48 98                	cltq   
  10b044:	c6 44 05 e4 20       	movb   $0x20,-0x1c(%rbp,%rax,1)
  10b049:	83 45 fc 01          	addl   $0x1,-0x4(%rbp)
  10b04d:	0f b7 45 f2          	movzwl -0xe(%rbp),%eax
  10b051:	83 c0 01             	add    $0x1,%eax
  10b054:	66 89 45 f2          	mov    %ax,-0xe(%rbp)
  10b058:	eb ad                	jmp    10b007 <_ZN11FAT32Driver18ConvertToFATFormatEPc+0x101>
  10b05a:	0f b7 45 f6          	movzwl -0xa(%rbp),%eax
  10b05e:	89 45 fc             	mov    %eax,-0x4(%rbp)
  10b061:	83 7d fc 07          	cmpl   $0x7,-0x4(%rbp)
  10b065:	77 0e                	ja     10b075 <_ZN11FAT32Driver18ConvertToFATFormatEPc+0x16f>
  10b067:	8b 45 fc             	mov    -0x4(%rbp),%eax
  10b06a:	c6 44 05 e4 20       	movb   $0x20,-0x1c(%rbp,%rax,1)
  10b06f:	83 45 fc 01          	addl   $0x1,-0x4(%rbp)
  10b073:	eb ec                	jmp    10b061 <_ZN11FAT32Driver18ConvertToFATFormatEPc+0x15b>
  10b075:	48 8d 55 e4          	lea    -0x1c(%rbp),%rdx
  10b079:	48 8b 45 d0          	mov    -0x30(%rbp),%rax
  10b07d:	48 89 d6             	mov    %rdx,%rsi
  10b080:	48 89 c7             	mov    %rax,%rdi
  10b083:	e8 80 14 00 00       	callq  10c508 <_Z6strcpyPcPKc>
  10b088:	48 8b 45 d0          	mov    -0x30(%rbp),%rax
  10b08c:	c9                   	leaveq 
  10b08d:	c3                   	retq   

000000000010b08e <_ZN11FAT32Driver20ConvertFromFATFormatEPcS0_>:
  10b08e:	f3 0f 1e fa          	endbr64 
  10b092:	55                   	push   %rbp
  10b093:	48 89 e5             	mov    %rsp,%rbp
  10b096:	48 83 ec 30          	sub    $0x30,%rsp
  10b09a:	48 89 7d e8          	mov    %rdi,-0x18(%rbp)
  10b09e:	48 89 75 e0          	mov    %rsi,-0x20(%rbp)
  10b0a2:	48 89 55 d8          	mov    %rdx,-0x28(%rbp)
  10b0a6:	48 8b 45 e0          	mov    -0x20(%rbp),%rax
  10b0aa:	0f b6 00             	movzbl (%rax),%eax
  10b0ad:	3c 2e                	cmp    $0x2e,%al
  10b0af:	75 3f                	jne    10b0f0 <_ZN11FAT32Driver20ConvertFromFATFormatEPcS0_+0x62>
  10b0b1:	48 8b 45 e0          	mov    -0x20(%rbp),%rax
  10b0b5:	48 83 c0 01          	add    $0x1,%rax
  10b0b9:	0f b6 00             	movzbl (%rax),%eax
  10b0bc:	3c 2e                	cmp    $0x2e,%al
  10b0be:	75 18                	jne    10b0d8 <_ZN11FAT32Driver20ConvertFromFATFormatEPcS0_+0x4a>
  10b0c0:	48 8b 45 d8          	mov    -0x28(%rbp),%rax
  10b0c4:	48 8d 35 49 62 00 00 	lea    0x6249(%rip),%rsi        # 111314 <_ZL8sc_ascii+0x2b4>
  10b0cb:	48 89 c7             	mov    %rax,%rdi
  10b0ce:	e8 35 14 00 00       	callq  10c508 <_Z6strcpyPcPKc>
  10b0d3:	e9 18 01 00 00       	jmpq   10b1f0 <_ZN11FAT32Driver20ConvertFromFATFormatEPcS0_+0x162>
  10b0d8:	48 8b 45 d8          	mov    -0x28(%rbp),%rax
  10b0dc:	48 8d 35 34 62 00 00 	lea    0x6234(%rip),%rsi        # 111317 <_ZL8sc_ascii+0x2b7>
  10b0e3:	48 89 c7             	mov    %rax,%rdi
  10b0e6:	e8 1d 14 00 00       	callq  10c508 <_Z6strcpyPcPKc>
  10b0eb:	e9 00 01 00 00       	jmpq   10b1f0 <_ZN11FAT32Driver20ConvertFromFATFormatEPcS0_+0x162>
  10b0f0:	66 c7 45 fe 00 00    	movw   $0x0,-0x2(%rbp)
  10b0f6:	66 c7 45 fe 00 00    	movw   $0x0,-0x2(%rbp)
  10b0fc:	66 83 7d fe 07       	cmpw   $0x7,-0x2(%rbp)
  10b101:	77 4a                	ja     10b14d <_ZN11FAT32Driver20ConvertFromFATFormatEPcS0_+0xbf>
  10b103:	0f b7 55 fe          	movzwl -0x2(%rbp),%edx
  10b107:	48 8b 45 e0          	mov    -0x20(%rbp),%rax
  10b10b:	48 01 d0             	add    %rdx,%rax
  10b10e:	0f b6 00             	movzbl (%rax),%eax
  10b111:	3c 20                	cmp    $0x20,%al
  10b113:	75 10                	jne    10b125 <_ZN11FAT32Driver20ConvertFromFATFormatEPcS0_+0x97>
  10b115:	0f b7 55 fe          	movzwl -0x2(%rbp),%edx
  10b119:	48 8b 45 d8          	mov    -0x28(%rbp),%rax
  10b11d:	48 01 d0             	add    %rdx,%rax
  10b120:	c6 00 2e             	movb   $0x2e,(%rax)
  10b123:	eb 28                	jmp    10b14d <_ZN11FAT32Driver20ConvertFromFATFormatEPcS0_+0xbf>
  10b125:	0f b7 55 fe          	movzwl -0x2(%rbp),%edx
  10b129:	48 8b 45 e0          	mov    -0x20(%rbp),%rax
  10b12d:	48 01 d0             	add    %rdx,%rax
  10b130:	0f b7 4d fe          	movzwl -0x2(%rbp),%ecx
  10b134:	48 8b 55 d8          	mov    -0x28(%rbp),%rdx
  10b138:	48 01 ca             	add    %rcx,%rdx
  10b13b:	0f b6 00             	movzbl (%rax),%eax
  10b13e:	88 02                	mov    %al,(%rdx)
  10b140:	0f b7 45 fe          	movzwl -0x2(%rbp),%eax
  10b144:	83 c0 01             	add    $0x1,%eax
  10b147:	66 89 45 fe          	mov    %ax,-0x2(%rbp)
  10b14b:	eb af                	jmp    10b0fc <_ZN11FAT32Driver20ConvertFromFATFormatEPcS0_+0x6e>
  10b14d:	66 83 7d fe 08       	cmpw   $0x8,-0x2(%rbp)
  10b152:	75 0e                	jne    10b162 <_ZN11FAT32Driver20ConvertFromFATFormatEPcS0_+0xd4>
  10b154:	0f b7 55 fe          	movzwl -0x2(%rbp),%edx
  10b158:	48 8b 45 d8          	mov    -0x28(%rbp),%rax
  10b15c:	48 01 d0             	add    %rdx,%rax
  10b15f:	c6 00 2e             	movb   $0x2e,(%rax)
  10b162:	66 c7 45 fc 08 00    	movw   $0x8,-0x4(%rbp)
  10b168:	66 c7 45 fc 08 00    	movw   $0x8,-0x4(%rbp)
  10b16e:	66 83 7d fc 0a       	cmpw   $0xa,-0x4(%rbp)
  10b173:	77 4e                	ja     10b1c3 <_ZN11FAT32Driver20ConvertFromFATFormatEPcS0_+0x135>
  10b175:	66 83 45 fe 01       	addw   $0x1,-0x2(%rbp)
  10b17a:	0f b7 55 fc          	movzwl -0x4(%rbp),%edx
  10b17e:	48 8b 45 e0          	mov    -0x20(%rbp),%rax
  10b182:	48 01 d0             	add    %rdx,%rax
  10b185:	0f b6 00             	movzbl (%rax),%eax
  10b188:	3c 20                	cmp    $0x20,%al
  10b18a:	75 0e                	jne    10b19a <_ZN11FAT32Driver20ConvertFromFATFormatEPcS0_+0x10c>
  10b18c:	66 83 7d fc 08       	cmpw   $0x8,-0x4(%rbp)
  10b191:	75 2f                	jne    10b1c2 <_ZN11FAT32Driver20ConvertFromFATFormatEPcS0_+0x134>
  10b193:	66 83 6d fe 02       	subw   $0x2,-0x2(%rbp)
  10b198:	eb 28                	jmp    10b1c2 <_ZN11FAT32Driver20ConvertFromFATFormatEPcS0_+0x134>
  10b19a:	0f b7 55 fc          	movzwl -0x4(%rbp),%edx
  10b19e:	48 8b 45 e0          	mov    -0x20(%rbp),%rax
  10b1a2:	48 01 d0             	add    %rdx,%rax
  10b1a5:	0f b7 4d fe          	movzwl -0x2(%rbp),%ecx
  10b1a9:	48 8b 55 d8          	mov    -0x28(%rbp),%rdx
  10b1ad:	48 01 ca             	add    %rcx,%rdx
  10b1b0:	0f b6 00             	movzbl (%rax),%eax
  10b1b3:	88 02                	mov    %al,(%rdx)
  10b1b5:	0f b7 45 fc          	movzwl -0x4(%rbp),%eax
  10b1b9:	83 c0 01             	add    $0x1,%eax
  10b1bc:	66 89 45 fc          	mov    %ax,-0x4(%rbp)
  10b1c0:	eb ac                	jmp    10b16e <_ZN11FAT32Driver20ConvertFromFATFormatEPcS0_+0xe0>
  10b1c2:	90                   	nop
  10b1c3:	66 83 45 fe 01       	addw   $0x1,-0x2(%rbp)
  10b1c8:	66 83 7d fe 0b       	cmpw   $0xb,-0x2(%rbp)
  10b1cd:	77 15                	ja     10b1e4 <_ZN11FAT32Driver20ConvertFromFATFormatEPcS0_+0x156>
  10b1cf:	0f b7 55 fe          	movzwl -0x2(%rbp),%edx
  10b1d3:	48 8b 45 d8          	mov    -0x28(%rbp),%rax
  10b1d7:	48 01 d0             	add    %rdx,%rax
  10b1da:	c6 00 20             	movb   $0x20,(%rax)
  10b1dd:	66 83 45 fe 01       	addw   $0x1,-0x2(%rbp)
  10b1e2:	eb e4                	jmp    10b1c8 <_ZN11FAT32Driver20ConvertFromFATFormatEPcS0_+0x13a>
  10b1e4:	48 8b 45 d8          	mov    -0x28(%rbp),%rax
  10b1e8:	48 83 c0 0c          	add    $0xc,%rax
  10b1ec:	c6 00 00             	movb   $0x0,(%rax)
  10b1ef:	90                   	nop
  10b1f0:	c9                   	leaveq 
  10b1f1:	c3                   	retq   

000000000010b1f2 <_Z21InitialiseFilesystemsv>:
  10b1f2:	f3 0f 1e fa          	endbr64 
  10b1f6:	55                   	push   %rbp
  10b1f7:	48 89 e5             	mov    %rsp,%rbp
  10b1fa:	ba 00 02 00 00       	mov    $0x200,%edx
  10b1ff:	be 00 00 00 00       	mov    $0x0,%esi
  10b204:	48 8d 3d f5 c3 00 00 	lea    0xc3f5(%rip),%rdi        # 117600 <filesystems>
  10b20b:	e8 3f 1a 00 00       	callq  10cc4f <_Z6memsetPvim>
  10b210:	90                   	nop
  10b211:	5d                   	pop    %rbp
  10b212:	c3                   	retq   

000000000010b213 <_Z18RegisterFilesystemP10Filesystem>:
  10b213:	f3 0f 1e fa          	endbr64 
  10b217:	55                   	push   %rbp
  10b218:	48 89 e5             	mov    %rsp,%rbp
  10b21b:	48 83 ec 20          	sub    $0x20,%rsp
  10b21f:	48 89 7d e8          	mov    %rdi,-0x18(%rbp)
  10b223:	c7 45 fc 00 00 00 00 	movl   $0x0,-0x4(%rbp)
  10b22a:	83 7d fc 3f          	cmpl   $0x3f,-0x4(%rbp)
  10b22e:	77 3d                	ja     10b26d <_Z18RegisterFilesystemP10Filesystem+0x5a>
  10b230:	8b 45 fc             	mov    -0x4(%rbp),%eax
  10b233:	48 8d 14 c5 00 00 00 	lea    0x0(,%rax,8),%rdx
  10b23a:	00 
  10b23b:	48 8d 05 be c3 00 00 	lea    0xc3be(%rip),%rax        # 117600 <filesystems>
  10b242:	48 8b 04 02          	mov    (%rdx,%rax,1),%rax
  10b246:	48 85 c0             	test   %rax,%rax
  10b249:	75 1c                	jne    10b267 <_Z18RegisterFilesystemP10Filesystem+0x54>
  10b24b:	8b 45 fc             	mov    -0x4(%rbp),%eax
  10b24e:	48 8d 0c c5 00 00 00 	lea    0x0(,%rax,8),%rcx
  10b255:	00 
  10b256:	48 8d 15 a3 c3 00 00 	lea    0xc3a3(%rip),%rdx        # 117600 <filesystems>
  10b25d:	48 8b 45 e8          	mov    -0x18(%rbp),%rax
  10b261:	48 89 04 11          	mov    %rax,(%rcx,%rdx,1)
  10b265:	eb 18                	jmp    10b27f <_Z18RegisterFilesystemP10Filesystem+0x6c>
  10b267:	83 45 fc 01          	addl   $0x1,-0x4(%rbp)
  10b26b:	eb bd                	jmp    10b22a <_Z18RegisterFilesystemP10Filesystem+0x17>
  10b26d:	48 8d 3d ac 60 00 00 	lea    0x60ac(%rip),%rdi        # 111320 <_ZL8sc_ascii+0x2c0>
  10b274:	b8 00 00 00 00       	mov    $0x0,%eax
  10b279:	e8 92 15 00 00       	callq  10c810 <_Z7kprintfPKcz>
  10b27e:	f4                   	hlt    
  10b27f:	c9                   	leaveq 
  10b280:	c3                   	retq   

000000000010b281 <_Z20UnregisterFilesystemP10Filesystem>:
  10b281:	f3 0f 1e fa          	endbr64 
  10b285:	55                   	push   %rbp
  10b286:	48 89 e5             	mov    %rsp,%rbp
  10b289:	48 83 ec 20          	sub    $0x20,%rsp
  10b28d:	48 89 7d e8          	mov    %rdi,-0x18(%rbp)
  10b291:	c7 45 fc 00 00 00 00 	movl   $0x0,-0x4(%rbp)
  10b298:	83 7d fc 3f          	cmpl   $0x3f,-0x4(%rbp)
  10b29c:	77 3e                	ja     10b2dc <_Z20UnregisterFilesystemP10Filesystem+0x5b>
  10b29e:	8b 45 fc             	mov    -0x4(%rbp),%eax
  10b2a1:	48 8d 14 c5 00 00 00 	lea    0x0(,%rax,8),%rdx
  10b2a8:	00 
  10b2a9:	48 8d 05 50 c3 00 00 	lea    0xc350(%rip),%rax        # 117600 <filesystems>
  10b2b0:	48 8b 04 02          	mov    (%rdx,%rax,1),%rax
  10b2b4:	48 39 45 e8          	cmp    %rax,-0x18(%rbp)
  10b2b8:	75 1c                	jne    10b2d6 <_Z20UnregisterFilesystemP10Filesystem+0x55>
  10b2ba:	8b 45 fc             	mov    -0x4(%rbp),%eax
  10b2bd:	48 8d 14 c5 00 00 00 	lea    0x0(,%rax,8),%rdx
  10b2c4:	00 
  10b2c5:	48 8d 05 34 c3 00 00 	lea    0xc334(%rip),%rax        # 117600 <filesystems>
  10b2cc:	48 c7 04 02 00 00 00 	movq   $0x0,(%rdx,%rax,1)
  10b2d3:	00 
  10b2d4:	eb 18                	jmp    10b2ee <_Z20UnregisterFilesystemP10Filesystem+0x6d>
  10b2d6:	83 45 fc 01          	addl   $0x1,-0x4(%rbp)
  10b2da:	eb bc                	jmp    10b298 <_Z20UnregisterFilesystemP10Filesystem+0x17>
  10b2dc:	48 8d 3d 6d 60 00 00 	lea    0x606d(%rip),%rdi        # 111350 <_ZL8sc_ascii+0x2f0>
  10b2e3:	b8 00 00 00 00       	mov    $0x0,%eax
  10b2e8:	e8 23 15 00 00       	callq  10c810 <_Z7kprintfPKcz>
  10b2ed:	f4                   	hlt    
  10b2ee:	c9                   	leaveq 
  10b2ef:	c3                   	retq   

000000000010b2f0 <_ZL14elf_check_fileP10Elf64_Ehdr>:
  10b2f0:	f3 0f 1e fa          	endbr64 
  10b2f4:	55                   	push   %rbp
  10b2f5:	48 89 e5             	mov    %rsp,%rbp
  10b2f8:	48 83 ec 10          	sub    $0x10,%rsp
  10b2fc:	48 89 7d f8          	mov    %rdi,-0x8(%rbp)
  10b300:	48 83 7d f8 00       	cmpq   $0x0,-0x8(%rbp)
  10b305:	75 07                	jne    10b30e <_ZL14elf_check_fileP10Elf64_Ehdr+0x1e>
  10b307:	b8 00 00 00 00       	mov    $0x0,%eax
  10b30c:	eb 78                	jmp    10b386 <_ZL14elf_check_fileP10Elf64_Ehdr+0x96>
  10b30e:	48 8b 45 f8          	mov    -0x8(%rbp),%rax
  10b312:	ba 04 00 00 00       	mov    $0x4,%edx
  10b317:	48 8d 35 5c 60 00 00 	lea    0x605c(%rip),%rsi        # 11137a <_ZL8sc_ascii+0x31a>
  10b31e:	48 89 c7             	mov    %rax,%rdi
  10b321:	e8 68 19 00 00       	callq  10cc8e <_Z6memcmpPvS_m>
  10b326:	85 c0                	test   %eax,%eax
  10b328:	75 40                	jne    10b36a <_ZL14elf_check_fileP10Elf64_Ehdr+0x7a>
  10b32a:	48 8b 45 f8          	mov    -0x8(%rbp),%rax
  10b32e:	0f b6 40 04          	movzbl 0x4(%rax),%eax
  10b332:	3c 02                	cmp    $0x2,%al
  10b334:	75 34                	jne    10b36a <_ZL14elf_check_fileP10Elf64_Ehdr+0x7a>
  10b336:	48 8b 45 f8          	mov    -0x8(%rbp),%rax
  10b33a:	0f b6 40 05          	movzbl 0x5(%rax),%eax
  10b33e:	3c 01                	cmp    $0x1,%al
  10b340:	75 28                	jne    10b36a <_ZL14elf_check_fileP10Elf64_Ehdr+0x7a>
  10b342:	48 8b 45 f8          	mov    -0x8(%rbp),%rax
  10b346:	0f b7 40 10          	movzwl 0x10(%rax),%eax
  10b34a:	66 83 f8 02          	cmp    $0x2,%ax
  10b34e:	75 1a                	jne    10b36a <_ZL14elf_check_fileP10Elf64_Ehdr+0x7a>
  10b350:	48 8b 45 f8          	mov    -0x8(%rbp),%rax
  10b354:	0f b7 40 12          	movzwl 0x12(%rax),%eax
  10b358:	66 83 f8 3e          	cmp    $0x3e,%ax
  10b35c:	75 0c                	jne    10b36a <_ZL14elf_check_fileP10Elf64_Ehdr+0x7a>
  10b35e:	48 8b 45 f8          	mov    -0x8(%rbp),%rax
  10b362:	8b 40 14             	mov    0x14(%rax),%eax
  10b365:	83 f8 01             	cmp    $0x1,%eax
  10b368:	74 07                	je     10b371 <_ZL14elf_check_fileP10Elf64_Ehdr+0x81>
  10b36a:	b8 01 00 00 00       	mov    $0x1,%eax
  10b36f:	eb 05                	jmp    10b376 <_ZL14elf_check_fileP10Elf64_Ehdr+0x86>
  10b371:	b8 00 00 00 00       	mov    $0x0,%eax
  10b376:	84 c0                	test   %al,%al
  10b378:	74 07                	je     10b381 <_ZL14elf_check_fileP10Elf64_Ehdr+0x91>
  10b37a:	b8 00 00 00 00       	mov    $0x0,%eax
  10b37f:	eb 05                	jmp    10b386 <_ZL14elf_check_fileP10Elf64_Ehdr+0x96>
  10b381:	b8 01 00 00 00       	mov    $0x1,%eax
  10b386:	c9                   	leaveq 
  10b387:	c3                   	retq   

000000000010b388 <_Z11LoadProgramPKcPm>:
  10b388:	f3 0f 1e fa          	endbr64 
  10b38c:	55                   	push   %rbp
  10b38d:	48 89 e5             	mov    %rsp,%rbp
  10b390:	48 83 ec 40          	sub    $0x40,%rsp
  10b394:	48 89 7d c8          	mov    %rdi,-0x38(%rbp)
  10b398:	48 89 75 c0          	mov    %rsi,-0x40(%rbp)
  10b39c:	48 8b 05 5d c2 00 00 	mov    0xc25d(%rip),%rax        # 117600 <filesystems>
  10b3a3:	48 89 45 f8          	mov    %rax,-0x8(%rbp)
  10b3a7:	48 8b 45 f8          	mov    -0x8(%rbp),%rax
  10b3ab:	48 8b 00             	mov    (%rax),%rax
  10b3ae:	48 8b 08             	mov    (%rax),%rcx
  10b3b1:	48 8b 55 c8          	mov    -0x38(%rbp),%rdx
  10b3b5:	48 8b 45 f8          	mov    -0x8(%rbp),%rax
  10b3b9:	48 89 d6             	mov    %rdx,%rsi
  10b3bc:	48 89 c7             	mov    %rax,%rdi
  10b3bf:	ff d1                	callq  *%rcx
  10b3c1:	48 89 45 f0          	mov    %rax,-0x10(%rbp)
  10b3c5:	48 83 7d f0 00       	cmpq   $0x0,-0x10(%rbp)
  10b3ca:	75 22                	jne    10b3ee <_Z11LoadProgramPKcPm+0x66>
  10b3cc:	48 8b 45 c8          	mov    -0x38(%rbp),%rax
  10b3d0:	48 89 c6             	mov    %rax,%rsi
  10b3d3:	48 8d 3d a5 5f 00 00 	lea    0x5fa5(%rip),%rdi        # 11137f <_ZL8sc_ascii+0x31f>
  10b3da:	b8 00 00 00 00       	mov    $0x0,%eax
  10b3df:	e8 2c 14 00 00       	callq  10c810 <_Z7kprintfPKcz>
  10b3e4:	b8 00 00 00 00       	mov    $0x0,%eax
  10b3e9:	e9 a8 00 00 00       	jmpq   10b496 <_Z11LoadProgramPKcPm+0x10e>
  10b3ee:	48 8b 45 f0          	mov    -0x10(%rbp),%rax
  10b3f2:	48 8b 00             	mov    (%rax),%rax
  10b3f5:	48 8b 10             	mov    (%rax),%rdx
  10b3f8:	48 8b 45 f0          	mov    -0x10(%rbp),%rax
  10b3fc:	48 89 c7             	mov    %rax,%rdi
  10b3ff:	ff d2                	callq  *%rdx
  10b401:	48 89 45 e8          	mov    %rax,-0x18(%rbp)
  10b405:	48 8b 45 e8          	mov    -0x18(%rbp),%rax
  10b409:	48 89 c7             	mov    %rax,%rdi
  10b40c:	e8 55 1a 00 00       	callq  10ce66 <_Z7kmallocm>
  10b411:	48 89 45 e0          	mov    %rax,-0x20(%rbp)
  10b415:	48 8b 45 f8          	mov    -0x8(%rbp),%rax
  10b419:	48 8b 00             	mov    (%rax),%rax
  10b41c:	48 83 c0 38          	add    $0x38,%rax
  10b420:	4c 8b 00             	mov    (%rax),%r8
  10b423:	48 8b 55 e0          	mov    -0x20(%rbp),%rdx
  10b427:	48 8b 4d e8          	mov    -0x18(%rbp),%rcx
  10b42b:	48 8b 75 f0          	mov    -0x10(%rbp),%rsi
  10b42f:	48 8b 45 f8          	mov    -0x8(%rbp),%rax
  10b433:	48 89 c7             	mov    %rax,%rdi
  10b436:	41 ff d0             	callq  *%r8
  10b439:	48 8b 45 f8          	mov    -0x8(%rbp),%rax
  10b43d:	48 8b 00             	mov    (%rax),%rax
  10b440:	48 83 c0 08          	add    $0x8,%rax
  10b444:	48 8b 08             	mov    (%rax),%rcx
  10b447:	48 8b 55 f0          	mov    -0x10(%rbp),%rdx
  10b44b:	48 8b 45 f8          	mov    -0x8(%rbp),%rax
  10b44f:	48 89 d6             	mov    %rdx,%rsi
  10b452:	48 89 c7             	mov    %rax,%rdi
  10b455:	ff d1                	callq  *%rcx
  10b457:	48 8b 45 c0          	mov    -0x40(%rbp),%rax
  10b45b:	48 8b 55 e0          	mov    -0x20(%rbp),%rdx
  10b45f:	48 89 10             	mov    %rdx,(%rax)
  10b462:	48 8b 45 e0          	mov    -0x20(%rbp),%rax
  10b466:	48 89 45 d8          	mov    %rax,-0x28(%rbp)
  10b46a:	48 8b 45 d8          	mov    -0x28(%rbp),%rax
  10b46e:	48 89 c7             	mov    %rax,%rdi
  10b471:	e8 7a fe ff ff       	callq  10b2f0 <_ZL14elf_check_fileP10Elf64_Ehdr>
  10b476:	84 c0                	test   %al,%al
  10b478:	0f 94 c0             	sete   %al
  10b47b:	84 c0                	test   %al,%al
  10b47d:	74 13                	je     10b492 <_Z11LoadProgramPKcPm+0x10a>
  10b47f:	48 8b 45 e0          	mov    -0x20(%rbp),%rax
  10b483:	48 89 c7             	mov    %rax,%rdi
  10b486:	e8 33 19 00 00       	callq  10cdbe <_Z5kfreePv>
  10b48b:	b8 00 00 00 00       	mov    $0x0,%eax
  10b490:	eb 04                	jmp    10b496 <_Z11LoadProgramPKcPm+0x10e>
  10b492:	48 8b 45 d8          	mov    -0x28(%rbp),%rax
  10b496:	c9                   	leaveq 
  10b497:	c3                   	retq   

000000000010b498 <_Z14PrepareProgramP10Elf64_Ehdrm>:
  10b498:	f3 0f 1e fa          	endbr64 
  10b49c:	55                   	push   %rbp
  10b49d:	48 89 e5             	mov    %rsp,%rbp
  10b4a0:	48 83 ec 50          	sub    $0x50,%rsp
  10b4a4:	48 89 7d b8          	mov    %rdi,-0x48(%rbp)
  10b4a8:	48 89 75 b0          	mov    %rsi,-0x50(%rbp)
  10b4ac:	48 8b 45 b8          	mov    -0x48(%rbp),%rax
  10b4b0:	48 8b 50 20          	mov    0x20(%rax),%rdx
  10b4b4:	48 8b 45 b0          	mov    -0x50(%rbp),%rax
  10b4b8:	48 01 d0             	add    %rdx,%rax
  10b4bb:	48 89 45 e8          	mov    %rax,-0x18(%rbp)
  10b4bf:	48 8b 45 e8          	mov    -0x18(%rbp),%rax
  10b4c3:	48 89 45 f8          	mov    %rax,-0x8(%rbp)
  10b4c7:	48 8b 45 b8          	mov    -0x48(%rbp),%rax
  10b4cb:	0f b7 40 38          	movzwl 0x38(%rax),%eax
  10b4cf:	0f b7 d0             	movzwl %ax,%edx
  10b4d2:	48 8b 45 b8          	mov    -0x48(%rbp),%rax
  10b4d6:	0f b7 40 36          	movzwl 0x36(%rax),%eax
  10b4da:	0f b7 c0             	movzwl %ax,%eax
  10b4dd:	0f af c2             	imul   %edx,%eax
  10b4e0:	48 63 d0             	movslq %eax,%rdx
  10b4e3:	48 8b 45 e8          	mov    -0x18(%rbp),%rax
  10b4e7:	48 01 c2             	add    %rax,%rdx
  10b4ea:	48 8b 45 f8          	mov    -0x8(%rbp),%rax
  10b4ee:	48 39 c2             	cmp    %rax,%rdx
  10b4f1:	0f 86 da 00 00 00    	jbe    10b5d1 <_Z14PrepareProgramP10Elf64_Ehdrm+0x139>
  10b4f7:	48 8b 45 f8          	mov    -0x8(%rbp),%rax
  10b4fb:	8b 00                	mov    (%rax),%eax
  10b4fd:	83 f8 01             	cmp    $0x1,%eax
  10b500:	0f 85 b0 00 00 00    	jne    10b5b6 <_Z14PrepareProgramP10Elf64_Ehdrm+0x11e>
  10b506:	48 8b 45 f8          	mov    -0x8(%rbp),%rax
  10b50a:	48 8b 40 28          	mov    0x28(%rax),%rax
  10b50e:	48 05 ff 0f 00 00    	add    $0xfff,%rax
  10b514:	48 c1 e8 0c          	shr    $0xc,%rax
  10b518:	89 45 e4             	mov    %eax,-0x1c(%rbp)
  10b51b:	48 8b 45 f8          	mov    -0x8(%rbp),%rax
  10b51f:	48 8b 40 18          	mov    0x18(%rax),%rax
  10b523:	48 89 45 d8          	mov    %rax,-0x28(%rbp)
  10b527:	48 8b 45 d8          	mov    -0x28(%rbp),%rax
  10b52b:	48 89 45 f0          	mov    %rax,-0x10(%rbp)
  10b52f:	8b 45 e4             	mov    -0x1c(%rbp),%eax
  10b532:	c1 e0 0c             	shl    $0xc,%eax
  10b535:	89 c2                	mov    %eax,%edx
  10b537:	48 8b 45 d8          	mov    -0x28(%rbp),%rax
  10b53b:	48 01 d0             	add    %rdx,%rax
  10b53e:	48 39 45 f0          	cmp    %rax,-0x10(%rbp)
  10b542:	73 26                	jae    10b56a <_Z14PrepareProgramP10Elf64_Ehdrm+0xd2>
  10b544:	48 8b 55 f0          	mov    -0x10(%rbp),%rdx
  10b548:	48 8b 45 f0          	mov    -0x10(%rbp),%rax
  10b54c:	b9 03 00 00 00       	mov    $0x3,%ecx
  10b551:	48 89 c6             	mov    %rax,%rsi
  10b554:	48 8d 3d ed 9a 00 00 	lea    0x9aed(%rip),%rdi        # 115048 <KernelDirectory>
  10b55b:	e8 76 4b ff ff       	callq  1000d6 <_ZN16PageTableManager9MapMemoryEmmm>
  10b560:	48 81 45 f0 00 10 00 	addq   $0x1000,-0x10(%rbp)
  10b567:	00 
  10b568:	eb c5                	jmp    10b52f <_Z14PrepareProgramP10Elf64_Ehdrm+0x97>
  10b56a:	48 8b 45 f8          	mov    -0x8(%rbp),%rax
  10b56e:	48 8b 50 08          	mov    0x8(%rax),%rdx
  10b572:	48 8b 45 b0          	mov    -0x50(%rbp),%rax
  10b576:	48 01 d0             	add    %rdx,%rax
  10b579:	48 89 45 d0          	mov    %rax,-0x30(%rbp)
  10b57d:	48 8b 45 f8          	mov    -0x8(%rbp),%rax
  10b581:	48 8b 40 20          	mov    0x20(%rax),%rax
  10b585:	48 89 45 c8          	mov    %rax,-0x38(%rbp)
  10b589:	48 8b 45 d8          	mov    -0x28(%rbp),%rax
  10b58d:	48 8b 55 c8          	mov    -0x38(%rbp),%rdx
  10b591:	be 00 00 00 00       	mov    $0x0,%esi
  10b596:	48 89 c7             	mov    %rax,%rdi
  10b599:	e8 b1 16 00 00       	callq  10cc4f <_Z6memsetPvim>
  10b59e:	48 8b 4d d0          	mov    -0x30(%rbp),%rcx
  10b5a2:	48 8b 45 d8          	mov    -0x28(%rbp),%rax
  10b5a6:	48 8b 55 c8          	mov    -0x38(%rbp),%rdx
  10b5aa:	48 89 ce             	mov    %rcx,%rsi
  10b5ad:	48 89 c7             	mov    %rax,%rdi
  10b5b0:	e8 58 16 00 00       	callq  10cc0d <_Z6memcpyPvPKvm>
  10b5b5:	90                   	nop
  10b5b6:	48 8b 45 b8          	mov    -0x48(%rbp),%rax
  10b5ba:	0f b7 40 36          	movzwl 0x36(%rax),%eax
  10b5be:	0f b7 d0             	movzwl %ax,%edx
  10b5c1:	48 8b 45 f8          	mov    -0x8(%rbp),%rax
  10b5c5:	48 01 d0             	add    %rdx,%rax
  10b5c8:	48 89 45 f8          	mov    %rax,-0x8(%rbp)
  10b5cc:	e9 f6 fe ff ff       	jmpq   10b4c7 <_Z14PrepareProgramP10Elf64_Ehdrm+0x2f>
  10b5d1:	90                   	nop
  10b5d2:	c9                   	leaveq 
  10b5d3:	c3                   	retq   

000000000010b5d4 <_Z12task_confirmv>:
  10b5d4:	f3 0f 1e fa          	endbr64 
  10b5d8:	55                   	push   %rbp
  10b5d9:	48 89 e5             	mov    %rsp,%rbp
  10b5dc:	48 8d 3d b5 5d 00 00 	lea    0x5db5(%rip),%rdi        # 111398 <_ZL8sc_ascii+0x338>
  10b5e3:	b8 00 00 00 00       	mov    $0x0,%eax
  10b5e8:	e8 23 12 00 00       	callq  10c810 <_Z7kprintfPKcz>
  10b5ed:	e8 47 05 00 00       	callq  10bb39 <_Z5_Killv>
  10b5f2:	90                   	nop
  10b5f3:	5d                   	pop    %rbp
  10b5f4:	c3                   	retq   

000000000010b5f5 <_Z11idle_threadv>:
  10b5f5:	f3 0f 1e fa          	endbr64 
  10b5f9:	55                   	push   %rbp
  10b5fa:	48 89 e5             	mov    %rsp,%rbp
  10b5fd:	e8 36 64 ff ff       	callq  101a38 <_Z13EnableTaskingv>
  10b602:	c6 05 0f c2 00 00 01 	movb   $0x1,0xc20f(%rip)        # 117818 <__enabled>
  10b609:	f4                   	hlt    
  10b60a:	eb fd                	jmp    10b609 <_Z11idle_threadv+0x14>

000000000010b60c <_ZN7ProcessC1EPKcPv>:
  10b60c:	f3 0f 1e fa          	endbr64 
  10b610:	55                   	push   %rbp
  10b611:	48 89 e5             	mov    %rsp,%rbp
  10b614:	48 83 ec 30          	sub    $0x30,%rsp
  10b618:	48 89 7d e8          	mov    %rdi,-0x18(%rbp)
  10b61c:	48 89 75 e0          	mov    %rsi,-0x20(%rbp)
  10b620:	48 89 55 d8          	mov    %rdx,-0x28(%rbp)
  10b624:	48 8b 45 e8          	mov    -0x18(%rbp),%rax
  10b628:	48 8b 55 e0          	mov    -0x20(%rbp),%rdx
  10b62c:	48 89 90 30 01 00 00 	mov    %rdx,0x130(%rax)
  10b633:	48 8b 05 d6 c1 00 00 	mov    0xc1d6(%rip),%rax        # 117810 <next_pid>
  10b63a:	48 83 c0 01          	add    $0x1,%rax
  10b63e:	48 89 05 cb c1 00 00 	mov    %rax,0xc1cb(%rip)        # 117810 <next_pid>
  10b645:	48 8b 15 c4 c1 00 00 	mov    0xc1c4(%rip),%rdx        # 117810 <next_pid>
  10b64c:	48 8b 45 e8          	mov    -0x18(%rbp),%rax
  10b650:	48 89 50 08          	mov    %rdx,0x8(%rax)
  10b654:	48 8b 45 e8          	mov    -0x18(%rbp),%rax
  10b658:	48 c7 40 20 00 00 00 	movq   $0x0,0x20(%rax)
  10b65f:	00 
  10b660:	48 8b 55 d8          	mov    -0x28(%rbp),%rdx
  10b664:	48 8b 45 e8          	mov    -0x18(%rbp),%rax
  10b668:	48 89 50 18          	mov    %rdx,0x18(%rax)
  10b66c:	48 8b 45 e8          	mov    -0x18(%rbp),%rax
  10b670:	48 c7 80 38 01 00 00 	movq   $0x0,0x138(%rax)
  10b677:	00 00 00 00 
  10b67b:	bf 00 10 00 00       	mov    $0x1000,%edi
  10b680:	e8 e1 17 00 00       	callq  10ce66 <_Z7kmallocm>
  10b685:	48 89 c2             	mov    %rax,%rdx
  10b688:	48 8b 45 e8          	mov    -0x18(%rbp),%rax
  10b68c:	48 89 50 28          	mov    %rdx,0x28(%rax)
  10b690:	48 8b 45 e8          	mov    -0x18(%rbp),%rax
  10b694:	48 8b 40 28          	mov    0x28(%rax),%rax
  10b698:	48 05 00 10 00 00    	add    $0x1000,%rax
  10b69e:	48 89 45 f8          	mov    %rax,-0x8(%rbp)
  10b6a2:	48 8b 45 f8          	mov    -0x8(%rbp),%rax
  10b6a6:	48 89 45 f0          	mov    %rax,-0x10(%rbp)
  10b6aa:	48 83 6d f8 08       	subq   $0x8,-0x8(%rbp)
  10b6af:	48 8b 45 f8          	mov    -0x8(%rbp),%rax
  10b6b3:	48 c7 00 10 00 00 00 	movq   $0x10,(%rax)
  10b6ba:	48 8b 45 f8          	mov    -0x8(%rbp),%rax
  10b6be:	48 83 c0 10          	add    $0x10,%rax
  10b6c2:	48 83 6d f8 08       	subq   $0x8,-0x8(%rbp)
  10b6c7:	48 89 c2             	mov    %rax,%rdx
  10b6ca:	48 8b 45 f8          	mov    -0x8(%rbp),%rax
  10b6ce:	48 89 10             	mov    %rdx,(%rax)
  10b6d1:	48 83 6d f8 08       	subq   $0x8,-0x8(%rbp)
  10b6d6:	48 8b 45 f8          	mov    -0x8(%rbp),%rax
  10b6da:	48 c7 00 02 02 00 00 	movq   $0x202,(%rax)
  10b6e1:	48 83 6d f8 08       	subq   $0x8,-0x8(%rbp)
  10b6e6:	48 8b 45 f8          	mov    -0x8(%rbp),%rax
  10b6ea:	48 c7 00 08 00 00 00 	movq   $0x8,(%rax)
  10b6f1:	48 83 6d f8 08       	subq   $0x8,-0x8(%rbp)
  10b6f6:	48 8b 55 d8          	mov    -0x28(%rbp),%rdx
  10b6fa:	48 8b 45 f8          	mov    -0x8(%rbp),%rax
  10b6fe:	48 89 10             	mov    %rdx,(%rax)
  10b701:	48 83 6d f8 08       	subq   $0x8,-0x8(%rbp)
  10b706:	48 8b 45 f8          	mov    -0x8(%rbp),%rax
  10b70a:	48 c7 00 00 00 00 00 	movq   $0x0,(%rax)
  10b711:	48 83 6d f8 08       	subq   $0x8,-0x8(%rbp)
  10b716:	48 8b 45 f8          	mov    -0x8(%rbp),%rax
  10b71a:	48 c7 00 00 00 00 00 	movq   $0x0,(%rax)
  10b721:	48 83 6d f8 08       	subq   $0x8,-0x8(%rbp)
  10b726:	48 8b 45 f8          	mov    -0x8(%rbp),%rax
  10b72a:	48 c7 00 00 00 00 00 	movq   $0x0,(%rax)
  10b731:	48 83 6d f8 08       	subq   $0x8,-0x8(%rbp)
  10b736:	48 8b 45 f8          	mov    -0x8(%rbp),%rax
  10b73a:	48 c7 00 00 00 00 00 	movq   $0x0,(%rax)
  10b741:	48 83 6d f8 08       	subq   $0x8,-0x8(%rbp)
  10b746:	48 8b 45 f8          	mov    -0x8(%rbp),%rax
  10b74a:	48 c7 00 00 00 00 00 	movq   $0x0,(%rax)
  10b751:	48 83 6d f8 08       	subq   $0x8,-0x8(%rbp)
  10b756:	48 8b 45 f8          	mov    -0x8(%rbp),%rax
  10b75a:	48 c7 00 00 00 00 00 	movq   $0x0,(%rax)
  10b761:	48 83 6d f8 08       	subq   $0x8,-0x8(%rbp)
  10b766:	48 8b 45 f8          	mov    -0x8(%rbp),%rax
  10b76a:	48 c7 00 00 00 00 00 	movq   $0x0,(%rax)
  10b771:	48 83 6d f8 08       	subq   $0x8,-0x8(%rbp)
  10b776:	48 8b 45 f8          	mov    -0x8(%rbp),%rax
  10b77a:	48 c7 00 00 00 00 00 	movq   $0x0,(%rax)
  10b781:	48 83 6d f8 08       	subq   $0x8,-0x8(%rbp)
  10b786:	48 8b 45 f8          	mov    -0x8(%rbp),%rax
  10b78a:	48 c7 00 00 00 00 00 	movq   $0x0,(%rax)
  10b791:	48 83 6d f8 08       	subq   $0x8,-0x8(%rbp)
  10b796:	48 8b 45 f8          	mov    -0x8(%rbp),%rax
  10b79a:	48 c7 00 00 00 00 00 	movq   $0x0,(%rax)
  10b7a1:	48 83 6d f8 08       	subq   $0x8,-0x8(%rbp)
  10b7a6:	48 8b 45 f8          	mov    -0x8(%rbp),%rax
  10b7aa:	48 c7 00 00 00 00 00 	movq   $0x0,(%rax)
  10b7b1:	48 83 6d f8 08       	subq   $0x8,-0x8(%rbp)
  10b7b6:	48 8b 45 f8          	mov    -0x8(%rbp),%rax
  10b7ba:	48 c7 00 00 00 00 00 	movq   $0x0,(%rax)
  10b7c1:	48 83 6d f8 08       	subq   $0x8,-0x8(%rbp)
  10b7c6:	48 8b 45 f8          	mov    -0x8(%rbp),%rax
  10b7ca:	48 c7 00 00 00 00 00 	movq   $0x0,(%rax)
  10b7d1:	48 83 6d f8 08       	subq   $0x8,-0x8(%rbp)
  10b7d6:	48 8b 45 f8          	mov    -0x8(%rbp),%rax
  10b7da:	48 c7 00 00 00 00 00 	movq   $0x0,(%rax)
  10b7e1:	48 83 6d f8 08       	subq   $0x8,-0x8(%rbp)
  10b7e6:	48 8b 45 f8          	mov    -0x8(%rbp),%rax
  10b7ea:	48 8b 55 f0          	mov    -0x10(%rbp),%rdx
  10b7ee:	48 89 10             	mov    %rdx,(%rax)
  10b7f1:	48 83 6d f8 08       	subq   $0x8,-0x8(%rbp)
  10b7f6:	48 8b 45 f8          	mov    -0x8(%rbp),%rax
  10b7fa:	48 c7 00 00 00 00 00 	movq   $0x0,(%rax)
  10b801:	48 83 6d f8 08       	subq   $0x8,-0x8(%rbp)
  10b806:	48 8b 45 f8          	mov    -0x8(%rbp),%rax
  10b80a:	48 c7 00 00 00 00 00 	movq   $0x0,(%rax)
  10b811:	48 83 6d f8 08       	subq   $0x8,-0x8(%rbp)
  10b816:	48 8b 45 f8          	mov    -0x8(%rbp),%rax
  10b81a:	48 c7 00 00 00 00 00 	movq   $0x0,(%rax)
  10b821:	48 81 6d f8 00 01 00 	subq   $0x100,-0x8(%rbp)
  10b828:	00 
  10b829:	48 8b 45 f8          	mov    -0x8(%rbp),%rax
  10b82d:	ba 00 01 00 00       	mov    $0x100,%edx
  10b832:	be 00 00 00 00       	mov    $0x0,%esi
  10b837:	48 89 c7             	mov    %rax,%rdi
  10b83a:	e8 10 14 00 00       	callq  10cc4f <_Z6memsetPvim>
  10b83f:	48 8b 55 f8          	mov    -0x8(%rbp),%rdx
  10b843:	48 8b 45 e8          	mov    -0x18(%rbp),%rax
  10b847:	48 89 50 10          	mov    %rdx,0x10(%rax)
  10b84b:	48 8b 45 e8          	mov    -0x18(%rbp),%rax
  10b84f:	48 83 c0 30          	add    $0x30,%rax
  10b853:	ba 00 01 00 00       	mov    $0x100,%edx
  10b858:	be 00 00 00 00       	mov    $0x0,%esi
  10b85d:	48 89 c7             	mov    %rax,%rdi
  10b860:	e8 ea 13 00 00       	callq  10cc4f <_Z6memsetPvim>
  10b865:	48 8b 45 e8          	mov    -0x18(%rbp),%rax
  10b869:	48 83 c0 30          	add    $0x30,%rax
  10b86d:	48 8d 35 39 5b 00 00 	lea    0x5b39(%rip),%rsi        # 1113ad <_ZL8sc_ascii+0x34d>
  10b874:	48 89 c7             	mov    %rax,%rdi
  10b877:	e8 8c 0c 00 00       	callq  10c508 <_Z6strcpyPcPKc>
  10b87c:	48 8b 05 cd 97 00 00 	mov    0x97cd(%rip),%rax        # 115050 <CurrentDirectory>
  10b883:	48 89 c7             	mov    %rax,%rdi
  10b886:	e8 07 4c ff ff       	callq  100492 <_ZN16PageTableManager5CloneEv>
  10b88b:	48 8b 55 e8          	mov    -0x18(%rbp),%rdx
  10b88f:	48 89 02             	mov    %rax,(%rdx)
  10b892:	90                   	nop
  10b893:	c9                   	leaveq 
  10b894:	c3                   	retq   
  10b895:	90                   	nop

000000000010b896 <_ZN7ProcessD1Ev>:
  10b896:	f3 0f 1e fa          	endbr64 
  10b89a:	55                   	push   %rbp
  10b89b:	48 89 e5             	mov    %rsp,%rbp
  10b89e:	48 83 ec 10          	sub    $0x10,%rsp
  10b8a2:	48 89 7d f8          	mov    %rdi,-0x8(%rbp)
  10b8a6:	48 8b 45 f8          	mov    -0x8(%rbp),%rax
  10b8aa:	48 8b 00             	mov    (%rax),%rax
  10b8ad:	48 85 c0             	test   %rax,%rax
  10b8b0:	74 0d                	je     10b8bf <_ZN7ProcessD1Ev+0x29>
  10b8b2:	be 08 00 00 00       	mov    $0x8,%esi
  10b8b7:	48 89 c7             	mov    %rax,%rdi
  10b8ba:	e8 46 81 ff ff       	callq  103a05 <_ZdlPvm>
  10b8bf:	48 8b 45 f8          	mov    -0x8(%rbp),%rax
  10b8c3:	48 8b 40 28          	mov    0x28(%rax),%rax
  10b8c7:	48 89 c7             	mov    %rax,%rdi
  10b8ca:	e8 ef 14 00 00       	callq  10cdbe <_Z5kfreePv>
  10b8cf:	90                   	nop
  10b8d0:	c9                   	leaveq 
  10b8d1:	c3                   	retq   

000000000010b8d2 <_ZN7Process6NotifyEi>:
  10b8d2:	f3 0f 1e fa          	endbr64 
  10b8d6:	55                   	push   %rbp
  10b8d7:	48 89 e5             	mov    %rsp,%rbp
  10b8da:	48 83 ec 10          	sub    $0x10,%rsp
  10b8de:	48 89 7d f8          	mov    %rdi,-0x8(%rbp)
  10b8e2:	89 75 f4             	mov    %esi,-0xc(%rbp)
  10b8e5:	83 7d f4 03          	cmpl   $0x3,-0xc(%rbp)
  10b8e9:	74 42                	je     10b92d <_ZN7Process6NotifyEi+0x5b>
  10b8eb:	83 7d f4 03          	cmpl   $0x3,-0xc(%rbp)
  10b8ef:	7f 52                	jg     10b943 <_ZN7Process6NotifyEi+0x71>
  10b8f1:	83 7d f4 01          	cmpl   $0x1,-0xc(%rbp)
  10b8f5:	74 08                	je     10b8ff <_ZN7Process6NotifyEi+0x2d>
  10b8f7:	83 7d f4 02          	cmpl   $0x2,-0xc(%rbp)
  10b8fb:	74 1a                	je     10b917 <_ZN7Process6NotifyEi+0x45>
  10b8fd:	eb 44                	jmp    10b943 <_ZN7Process6NotifyEi+0x71>
  10b8ff:	48 8d 3d aa 5a 00 00 	lea    0x5aaa(%rip),%rdi        # 1113b0 <_ZL8sc_ascii+0x350>
  10b906:	b8 00 00 00 00       	mov    $0x0,%eax
  10b90b:	e8 00 0f 00 00       	callq  10c810 <_Z7kprintfPKcz>
  10b910:	e8 24 02 00 00       	callq  10bb39 <_Z5_Killv>
  10b915:	eb 3e                	jmp    10b955 <_ZN7Process6NotifyEi+0x83>
  10b917:	48 8d 3d b2 5a 00 00 	lea    0x5ab2(%rip),%rdi        # 1113d0 <_ZL8sc_ascii+0x370>
  10b91e:	b8 00 00 00 00       	mov    $0x0,%eax
  10b923:	e8 e8 0e 00 00       	callq  10c810 <_Z7kprintfPKcz>
  10b928:	e8 0c 02 00 00       	callq  10bb39 <_Z5_Killv>
  10b92d:	48 8d 3d bc 5a 00 00 	lea    0x5abc(%rip),%rdi        # 1113f0 <_ZL8sc_ascii+0x390>
  10b934:	b8 00 00 00 00       	mov    $0x0,%eax
  10b939:	e8 d2 0e 00 00       	callq  10c810 <_Z7kprintfPKcz>
  10b93e:	e8 f6 01 00 00       	callq  10bb39 <_Z5_Killv>
  10b943:	48 8d 3d c6 5a 00 00 	lea    0x5ac6(%rip),%rdi        # 111410 <_ZL8sc_ascii+0x3b0>
  10b94a:	b8 00 00 00 00       	mov    $0x0,%eax
  10b94f:	e8 bc 0e 00 00       	callq  10c810 <_Z7kprintfPKcz>
  10b954:	90                   	nop
  10b955:	c9                   	leaveq 
  10b956:	c3                   	retq   

000000000010b957 <_Z12__AddProcessP7Process>:
  10b957:	f3 0f 1e fa          	endbr64 
  10b95b:	55                   	push   %rbp
  10b95c:	48 89 e5             	mov    %rsp,%rbp
  10b95f:	48 83 ec 18          	sub    $0x18,%rsp
  10b963:	48 89 7d e8          	mov    %rdi,-0x18(%rbp)
  10b967:	48 8b 05 9a be 00 00 	mov    0xbe9a(%rip),%rax        # 117808 <ready_queue>
  10b96e:	48 89 45 f8          	mov    %rax,-0x8(%rbp)
  10b972:	48 8b 45 f8          	mov    -0x8(%rbp),%rax
  10b976:	48 8b 80 38 01 00 00 	mov    0x138(%rax),%rax
  10b97d:	48 85 c0             	test   %rax,%rax
  10b980:	74 11                	je     10b993 <_Z12__AddProcessP7Process+0x3c>
  10b982:	48 8b 45 f8          	mov    -0x8(%rbp),%rax
  10b986:	48 8b 80 38 01 00 00 	mov    0x138(%rax),%rax
  10b98d:	48 89 45 f8          	mov    %rax,-0x8(%rbp)
  10b991:	eb df                	jmp    10b972 <_Z12__AddProcessP7Process+0x1b>
  10b993:	48 8b 45 f8          	mov    -0x8(%rbp),%rax
  10b997:	48 8b 55 e8          	mov    -0x18(%rbp),%rdx
  10b99b:	48 89 90 38 01 00 00 	mov    %rdx,0x138(%rax)
  10b9a2:	90                   	nop
  10b9a3:	c9                   	leaveq 
  10b9a4:	c3                   	retq   

000000000010b9a5 <_Z10AddProcessP7Process>:
  10b9a5:	f3 0f 1e fa          	endbr64 
  10b9a9:	55                   	push   %rbp
  10b9aa:	48 89 e5             	mov    %rsp,%rbp
  10b9ad:	48 83 ec 10          	sub    $0x10,%rsp
  10b9b1:	48 89 7d f8          	mov    %rdi,-0x8(%rbp)
  10b9b5:	bf 00 00 00 00       	mov    $0x0,%edi
  10b9ba:	e8 4e 60 ff ff       	callq  101a0d <_Z9StartTaskm>
  10b9bf:	48 8b 45 f8          	mov    -0x8(%rbp),%rax
  10b9c3:	48 89 c7             	mov    %rax,%rdi
  10b9c6:	e8 8c ff ff ff       	callq  10b957 <_Z12__AddProcessP7Process>
  10b9cb:	bf 01 00 00 00       	mov    $0x1,%edi
  10b9d0:	e8 38 60 ff ff       	callq  101a0d <_Z9StartTaskm>
  10b9d5:	48 8b 45 f8          	mov    -0x8(%rbp),%rax
  10b9d9:	48 8b 40 08          	mov    0x8(%rax),%rax
  10b9dd:	c9                   	leaveq 
  10b9de:	c3                   	retq   

000000000010b9df <_Z9IsRunningm>:
  10b9df:	f3 0f 1e fa          	endbr64 
  10b9e3:	55                   	push   %rbp
  10b9e4:	48 89 e5             	mov    %rsp,%rbp
  10b9e7:	48 83 ec 30          	sub    $0x30,%rsp
  10b9eb:	48 89 7d d8          	mov    %rdi,-0x28(%rbp)
  10b9ef:	bf 00 00 00 00       	mov    $0x0,%edi
  10b9f4:	e8 14 60 ff ff       	callq  101a0d <_Z9StartTaskm>
  10b9f9:	48 8b 05 00 be 00 00 	mov    0xbe00(%rip),%rax        # 117800 <current_process>
  10ba00:	48 89 45 f8          	mov    %rax,-0x8(%rbp)
  10ba04:	48 8b 05 f5 bd 00 00 	mov    0xbdf5(%rip),%rax        # 117800 <current_process>
  10ba0b:	48 89 45 e8          	mov    %rax,-0x18(%rbp)
  10ba0f:	c6 45 f7 00          	movb   $0x0,-0x9(%rbp)
  10ba13:	48 8b 45 f8          	mov    -0x8(%rbp),%rax
  10ba17:	48 8b 40 08          	mov    0x8(%rax),%rax
  10ba1b:	48 39 45 d8          	cmp    %rax,-0x28(%rbp)
  10ba1f:	75 06                	jne    10ba27 <_Z9IsRunningm+0x48>
  10ba21:	c6 45 f7 01          	movb   $0x1,-0x9(%rbp)
  10ba25:	eb 1c                	jmp    10ba43 <_Z9IsRunningm+0x64>
  10ba27:	48 8b 45 f8          	mov    -0x8(%rbp),%rax
  10ba2b:	48 8b 80 38 01 00 00 	mov    0x138(%rax),%rax
  10ba32:	48 89 45 f8          	mov    %rax,-0x8(%rbp)
  10ba36:	48 8b 45 f8          	mov    -0x8(%rbp),%rax
  10ba3a:	48 3b 45 e8          	cmp    -0x18(%rbp),%rax
  10ba3e:	74 02                	je     10ba42 <_Z9IsRunningm+0x63>
  10ba40:	eb d1                	jmp    10ba13 <_Z9IsRunningm+0x34>
  10ba42:	90                   	nop
  10ba43:	bf 01 00 00 00       	mov    $0x1,%edi
  10ba48:	e8 c0 5f ff ff       	callq  101a0d <_Z9StartTaskm>
  10ba4d:	0f b6 45 f7          	movzbl -0x9(%rbp),%eax
  10ba51:	c9                   	leaveq 
  10ba52:	c3                   	retq   

000000000010ba53 <_Z15IsTaskingOnlinev>:
  10ba53:	f3 0f 1e fa          	endbr64 
  10ba57:	55                   	push   %rbp
  10ba58:	48 89 e5             	mov    %rsp,%rbp
  10ba5b:	0f b6 05 b6 bd 00 00 	movzbl 0xbdb6(%rip),%eax        # 117818 <__enabled>
  10ba62:	84 c0                	test   %al,%al
  10ba64:	0f 95 c0             	setne  %al
  10ba67:	5d                   	pop    %rbp
  10ba68:	c3                   	retq   

000000000010ba69 <_Z17GetRunningProcessv>:
  10ba69:	f3 0f 1e fa          	endbr64 
  10ba6d:	55                   	push   %rbp
  10ba6e:	48 89 e5             	mov    %rsp,%rbp
  10ba71:	48 8b 05 88 bd 00 00 	mov    0xbd88(%rip),%rax        # 117800 <current_process>
  10ba78:	5d                   	pop    %rbp
  10ba79:	c3                   	retq   

000000000010ba7a <_Z10SendSignali>:
  10ba7a:	f3 0f 1e fa          	endbr64 
  10ba7e:	55                   	push   %rbp
  10ba7f:	48 89 e5             	mov    %rsp,%rbp
  10ba82:	48 83 ec 10          	sub    $0x10,%rsp
  10ba86:	89 7d fc             	mov    %edi,-0x4(%rbp)
  10ba89:	48 8b 05 70 bd 00 00 	mov    0xbd70(%rip),%rax        # 117800 <current_process>
  10ba90:	8b 55 fc             	mov    -0x4(%rbp),%edx
  10ba93:	89 d6                	mov    %edx,%esi
  10ba95:	48 89 c7             	mov    %rax,%rdi
  10ba98:	e8 35 fe ff ff       	callq  10b8d2 <_ZN7Process6NotifyEi>
  10ba9d:	90                   	nop
  10ba9e:	c9                   	leaveq 
  10ba9f:	c3                   	retq   

000000000010baa0 <_Z8PrintAllv>:
  10baa0:	f3 0f 1e fa          	endbr64 
  10baa4:	55                   	push   %rbp
  10baa5:	48 89 e5             	mov    %rsp,%rbp
  10baa8:	48 83 ec 10          	sub    $0x10,%rsp
  10baac:	48 8b 05 4d bd 00 00 	mov    0xbd4d(%rip),%rax        # 117800 <current_process>
  10bab3:	48 89 45 f0          	mov    %rax,-0x10(%rbp)
  10bab7:	48 8b 45 f0          	mov    -0x10(%rbp),%rax
  10babb:	48 89 45 f8          	mov    %rax,-0x8(%rbp)
  10babf:	48 8b 45 f8          	mov    -0x8(%rbp),%rax
  10bac3:	48 8b 40 20          	mov    0x20(%rax),%rax
  10bac7:	48 83 f8 01          	cmp    $0x1,%rax
  10bacb:	74 1f                	je     10baec <_Z8PrintAllv+0x4c>
  10bacd:	48 8b 45 f8          	mov    -0x8(%rbp),%rax
  10bad1:	48 8b 40 20          	mov    0x20(%rax),%rax
  10bad5:	48 85 c0             	test   %rax,%rax
  10bad8:	75 09                	jne    10bae3 <_Z8PrintAllv+0x43>
  10bada:	48 8d 05 46 59 00 00 	lea    0x5946(%rip),%rax        # 111427 <_ZL8sc_ascii+0x3c7>
  10bae1:	eb 10                	jmp    10baf3 <_Z8PrintAllv+0x53>
  10bae3:	48 8d 05 43 59 00 00 	lea    0x5943(%rip),%rax        # 11142d <_ZL8sc_ascii+0x3cd>
  10baea:	eb 07                	jmp    10baf3 <_Z8PrintAllv+0x53>
  10baec:	48 8d 05 3f 59 00 00 	lea    0x593f(%rip),%rax        # 111432 <_ZL8sc_ascii+0x3d2>
  10baf3:	48 8b 55 f8          	mov    -0x8(%rbp),%rdx
  10baf7:	48 8b 52 08          	mov    0x8(%rdx),%rdx
  10bafb:	48 8b 4d f8          	mov    -0x8(%rbp),%rcx
  10baff:	48 8b b1 30 01 00 00 	mov    0x130(%rcx),%rsi
  10bb06:	48 89 c1             	mov    %rax,%rcx
  10bb09:	48 8d 3d 29 59 00 00 	lea    0x5929(%rip),%rdi        # 111439 <_ZL8sc_ascii+0x3d9>
  10bb10:	b8 00 00 00 00       	mov    $0x0,%eax
  10bb15:	e8 f6 0c 00 00       	callq  10c810 <_Z7kprintfPKcz>
  10bb1a:	48 8b 45 f8          	mov    -0x8(%rbp),%rax
  10bb1e:	48 8b 80 38 01 00 00 	mov    0x138(%rax),%rax
  10bb25:	48 89 45 f8          	mov    %rax,-0x8(%rbp)
  10bb29:	48 8b 45 f8          	mov    -0x8(%rbp),%rax
  10bb2d:	48 3b 45 f0          	cmp    -0x10(%rbp),%rax
  10bb31:	74 02                	je     10bb35 <_Z8PrintAllv+0x95>
  10bb33:	eb 8a                	jmp    10babf <_Z8PrintAllv+0x1f>
  10bb35:	90                   	nop
  10bb36:	90                   	nop
  10bb37:	c9                   	leaveq 
  10bb38:	c3                   	retq   

000000000010bb39 <_Z5_Killv>:
  10bb39:	f3 0f 1e fa          	endbr64 
  10bb3d:	55                   	push   %rbp
  10bb3e:	48 89 e5             	mov    %rsp,%rbp
  10bb41:	53                   	push   %rbx
  10bb42:	48 83 ec 18          	sub    $0x18,%rsp
  10bb46:	fa                   	cli    
  10bb47:	48 8b 05 b2 bc 00 00 	mov    0xbcb2(%rip),%rax        # 117800 <current_process>
  10bb4e:	48 8b 40 08          	mov    0x8(%rax),%rax
  10bb52:	48 83 f8 01          	cmp    $0x1,%rax
  10bb56:	75 1e                	jne    10bb76 <_Z5_Killv+0x3d>
  10bb58:	bf 00 00 00 00       	mov    $0x0,%edi
  10bb5d:	e8 ab 5e ff ff       	callq  101a0d <_Z9StartTaskm>
  10bb62:	48 8d 3d e5 58 00 00 	lea    0x58e5(%rip),%rdi        # 11144e <_ZL8sc_ascii+0x3ee>
  10bb69:	b8 00 00 00 00       	mov    $0x0,%eax
  10bb6e:	e8 9d 0c 00 00       	callq  10c810 <_Z7kprintfPKcz>
  10bb73:	f4                   	hlt    
  10bb74:	eb fd                	jmp    10bb73 <_Z5_Killv+0x3a>
  10bb76:	48 8b 05 83 bc 00 00 	mov    0xbc83(%rip),%rax        # 117800 <current_process>
  10bb7d:	48 8b 50 08          	mov    0x8(%rax),%rdx
  10bb81:	48 8b 05 78 bc 00 00 	mov    0xbc78(%rip),%rax        # 117800 <current_process>
  10bb88:	48 8b 80 30 01 00 00 	mov    0x130(%rax),%rax
  10bb8f:	48 89 c6             	mov    %rax,%rsi
  10bb92:	48 8d 3d cc 58 00 00 	lea    0x58cc(%rip),%rdi        # 111465 <_ZL8sc_ascii+0x405>
  10bb99:	b8 00 00 00 00       	mov    $0x0,%eax
  10bb9e:	e8 6d 0c 00 00       	callq  10c810 <_Z7kprintfPKcz>
  10bba3:	bf 00 00 00 00       	mov    $0x0,%edi
  10bba8:	e8 60 5e ff ff       	callq  101a0d <_Z9StartTaskm>
  10bbad:	48 8b 05 4c bc 00 00 	mov    0xbc4c(%rip),%rax        # 117800 <current_process>
  10bbb4:	48 8b 00             	mov    (%rax),%rax
  10bbb7:	48 89 c7             	mov    %rax,%rdi
  10bbba:	e8 ff 11 00 00       	callq  10cdbe <_Z5kfreePv>
  10bbbf:	48 8b 05 42 bc 00 00 	mov    0xbc42(%rip),%rax        # 117808 <ready_queue>
  10bbc6:	48 89 45 e8          	mov    %rax,-0x18(%rbp)
  10bbca:	48 83 7d e8 00       	cmpq   $0x0,-0x18(%rbp)
  10bbcf:	74 41                	je     10bc12 <_Z5_Killv+0xd9>
  10bbd1:	48 8b 45 e8          	mov    -0x18(%rbp),%rax
  10bbd5:	48 8b 90 38 01 00 00 	mov    0x138(%rax),%rdx
  10bbdc:	48 8b 05 1d bc 00 00 	mov    0xbc1d(%rip),%rax        # 117800 <current_process>
  10bbe3:	48 39 c2             	cmp    %rax,%rdx
  10bbe6:	75 19                	jne    10bc01 <_Z5_Killv+0xc8>
  10bbe8:	48 8b 05 11 bc 00 00 	mov    0xbc11(%rip),%rax        # 117800 <current_process>
  10bbef:	48 8b 90 38 01 00 00 	mov    0x138(%rax),%rdx
  10bbf6:	48 8b 45 e8          	mov    -0x18(%rbp),%rax
  10bbfa:	48 89 90 38 01 00 00 	mov    %rdx,0x138(%rax)
  10bc01:	48 8b 45 e8          	mov    -0x18(%rbp),%rax
  10bc05:	48 8b 80 38 01 00 00 	mov    0x138(%rax),%rax
  10bc0c:	48 89 45 e8          	mov    %rax,-0x18(%rbp)
  10bc10:	eb b8                	jmp    10bbca <_Z5_Killv+0x91>
  10bc12:	48 8b 1d e7 bb 00 00 	mov    0xbbe7(%rip),%rbx        # 117800 <current_process>
  10bc19:	48 85 db             	test   %rbx,%rbx
  10bc1c:	74 15                	je     10bc33 <_Z5_Killv+0xfa>
  10bc1e:	48 89 df             	mov    %rbx,%rdi
  10bc21:	e8 70 fc ff ff       	callq  10b896 <_ZN7ProcessD1Ev>
  10bc26:	be 40 01 00 00       	mov    $0x140,%esi
  10bc2b:	48 89 df             	mov    %rbx,%rdi
  10bc2e:	e8 d2 7d ff ff       	callq  103a05 <_ZdlPvm>
  10bc33:	bf 01 00 00 00       	mov    $0x1,%edi
  10bc38:	e8 d0 5d ff ff       	callq  101a0d <_Z9StartTaskm>
  10bc3d:	fb                   	sti    
  10bc3e:	e8 1e 01 00 00       	callq  10bd61 <_Z11ScheduleIRQv>
  10bc43:	90                   	nop
  10bc44:	48 83 c4 18          	add    $0x18,%rsp
  10bc48:	5b                   	pop    %rbx
  10bc49:	5d                   	pop    %rbp
  10bc4a:	c3                   	retq   

000000000010bc4b <_Z4Killm>:
  10bc4b:	f3 0f 1e fa          	endbr64 
  10bc4f:	55                   	push   %rbp
  10bc50:	48 89 e5             	mov    %rsp,%rbp
  10bc53:	48 83 ec 20          	sub    $0x20,%rsp
  10bc57:	48 89 7d e8          	mov    %rdi,-0x18(%rbp)
  10bc5b:	48 83 7d e8 01       	cmpq   $0x1,-0x18(%rbp)
  10bc60:	75 11                	jne    10bc73 <_Z4Killm+0x28>
  10bc62:	48 8d 3d e5 57 00 00 	lea    0x57e5(%rip),%rdi        # 11144e <_ZL8sc_ascii+0x3ee>
  10bc69:	b8 00 00 00 00       	mov    $0x0,%eax
  10bc6e:	e8 9d 0b 00 00       	callq  10c810 <_Z7kprintfPKcz>
  10bc73:	48 8b 05 86 bb 00 00 	mov    0xbb86(%rip),%rax        # 117800 <current_process>
  10bc7a:	48 8b 40 08          	mov    0x8(%rax),%rax
  10bc7e:	48 39 45 e8          	cmp    %rax,-0x18(%rbp)
  10bc82:	75 05                	jne    10bc89 <_Z4Killm+0x3e>
  10bc84:	e8 b0 fe ff ff       	callq  10bb39 <_Z5_Killv>
  10bc89:	48 8b 05 70 bb 00 00 	mov    0xbb70(%rip),%rax        # 117800 <current_process>
  10bc90:	48 89 45 f0          	mov    %rax,-0x10(%rbp)
  10bc94:	48 8b 45 f0          	mov    -0x10(%rbp),%rax
  10bc98:	48 89 45 f8          	mov    %rax,-0x8(%rbp)
  10bc9c:	48 83 7d f8 00       	cmpq   $0x0,-0x8(%rbp)
  10bca1:	74 51                	je     10bcf4 <_Z4Killm+0xa9>
  10bca3:	48 8b 45 f8          	mov    -0x8(%rbp),%rax
  10bca7:	48 8b 40 08          	mov    0x8(%rax),%rax
  10bcab:	48 39 45 e8          	cmp    %rax,-0x18(%rbp)
  10bcaf:	75 32                	jne    10bce3 <_Z4Killm+0x98>
  10bcb1:	48 8b 45 f8          	mov    -0x8(%rbp),%rax
  10bcb5:	48 8b 80 30 01 00 00 	mov    0x130(%rax),%rax
  10bcbc:	48 8b 55 e8          	mov    -0x18(%rbp),%rdx
  10bcc0:	48 89 c6             	mov    %rax,%rsi
  10bcc3:	48 8d 3d b6 57 00 00 	lea    0x57b6(%rip),%rdi        # 111480 <_ZL8sc_ascii+0x420>
  10bcca:	b8 00 00 00 00       	mov    $0x0,%eax
  10bccf:	e8 3c 0b 00 00       	callq  10c810 <_Z7kprintfPKcz>
  10bcd4:	48 8b 45 f8          	mov    -0x8(%rbp),%rax
  10bcd8:	48 c7 40 20 01 00 00 	movq   $0x1,0x20(%rax)
  10bcdf:	00 
  10bce0:	90                   	nop
  10bce1:	eb 11                	jmp    10bcf4 <_Z4Killm+0xa9>
  10bce3:	48 8b 45 f8          	mov    -0x8(%rbp),%rax
  10bce7:	48 8b 80 38 01 00 00 	mov    0x138(%rax),%rax
  10bcee:	48 89 45 f8          	mov    %rax,-0x8(%rbp)
  10bcf2:	eb a8                	jmp    10bc9c <_Z4Killm+0x51>
  10bcf4:	90                   	nop
  10bcf5:	c9                   	leaveq 
  10bcf6:	c3                   	retq   

000000000010bcf7 <_Z6__execv>:
  10bcf7:	f3 0f 1e fa          	endbr64 
  10bcfb:	55                   	push   %rbp
  10bcfc:	48 89 e5             	mov    %rsp,%rbp
  10bcff:	48 83 ec 10          	sub    $0x10,%rsp
  10bd03:	48 8b 05 f6 ba 00 00 	mov    0xbaf6(%rip),%rax        # 117800 <current_process>
  10bd0a:	48 8b 00             	mov    (%rax),%rax
  10bd0d:	48 89 05 3c 93 00 00 	mov    %rax,0x933c(%rip)        # 115050 <CurrentDirectory>
  10bd14:	48 8b 05 35 93 00 00 	mov    0x9335(%rip),%rax        # 115050 <CurrentDirectory>
  10bd1b:	48 89 c7             	mov    %rax,%rdi
  10bd1e:	e8 85 21 00 00       	callq  10dea8 <_ZN16PageTableManager7GetPML4Ev>
  10bd23:	48 89 45 f8          	mov    %rax,-0x8(%rbp)
  10bd27:	48 8b 05 d2 ba 00 00 	mov    0xbad2(%rip),%rax        # 117800 <current_process>
  10bd2e:	48 8b 40 10          	mov    0x10(%rax),%rax
  10bd32:	48 89 45 f0          	mov    %rax,-0x10(%rbp)
  10bd36:	48 8b 05 13 93 00 00 	mov    0x9313(%rip),%rax        # 115050 <CurrentDirectory>
  10bd3d:	48 8b 55 f8          	mov    -0x8(%rbp),%rdx
  10bd41:	48 89 d6             	mov    %rdx,%rsi
  10bd44:	48 89 c7             	mov    %rax,%rdi
  10bd47:	e8 3c 46 ff ff       	callq  100388 <_ZN16PageTableManager15PhysicalAddressEm>
  10bd4c:	48 89 c2             	mov    %rax,%rdx
  10bd4f:	48 8b 45 f0          	mov    -0x10(%rbp),%rax
  10bd53:	48 89 d6             	mov    %rdx,%rsi
  10bd56:	48 89 c7             	mov    %rax,%rdi
  10bd59:	e8 74 1f 00 00       	callq  10dcd2 <StartProcess_FirstTime>
  10bd5e:	90                   	nop
  10bd5f:	c9                   	leaveq 
  10bd60:	c3                   	retq   

000000000010bd61 <_Z11ScheduleIRQv>:
  10bd61:	f3 0f 1e fa          	endbr64 
  10bd65:	55                   	push   %rbp
  10bd66:	48 89 e5             	mov    %rsp,%rbp
  10bd69:	0f b6 05 a8 ba 00 00 	movzbl 0xbaa8(%rip),%eax        # 117818 <__enabled>
  10bd70:	84 c0                	test   %al,%al
  10bd72:	74 04                	je     10bd78 <_Z11ScheduleIRQv+0x17>
  10bd74:	cd 20                	int    $0x20
  10bd76:	eb 01                	jmp    10bd79 <_Z11ScheduleIRQv+0x18>
  10bd78:	90                   	nop
  10bd79:	5d                   	pop    %rbp
  10bd7a:	c3                   	retq   

000000000010bd7b <_Z8Schedulev>:
  10bd7b:	f3 0f 1e fa          	endbr64 
  10bd7f:	55                   	push   %rbp
  10bd80:	48 89 e5             	mov    %rsp,%rbp
  10bd83:	48 83 ec 20          	sub    $0x20,%rsp
  10bd87:	48 8b 05 72 ba 00 00 	mov    0xba72(%rip),%rax        # 117800 <current_process>
  10bd8e:	48 83 c0 10          	add    $0x10,%rax
  10bd92:	48 89 45 f8          	mov    %rax,-0x8(%rbp)
  10bd96:	48 8b 05 63 ba 00 00 	mov    0xba63(%rip),%rax        # 117800 <current_process>
  10bd9d:	48 8b 80 38 01 00 00 	mov    0x138(%rax),%rax
  10bda4:	48 89 05 55 ba 00 00 	mov    %rax,0xba55(%rip)        # 117800 <current_process>
  10bdab:	48 8b 05 4e ba 00 00 	mov    0xba4e(%rip),%rax        # 117800 <current_process>
  10bdb2:	48 85 c0             	test   %rax,%rax
  10bdb5:	75 0e                	jne    10bdc5 <_Z8Schedulev+0x4a>
  10bdb7:	48 8b 05 4a ba 00 00 	mov    0xba4a(%rip),%rax        # 117808 <ready_queue>
  10bdbe:	48 89 05 3b ba 00 00 	mov    %rax,0xba3b(%rip)        # 117800 <current_process>
  10bdc5:	48 8b 05 34 ba 00 00 	mov    0xba34(%rip),%rax        # 117800 <current_process>
  10bdcc:	48 8b 50 08          	mov    0x8(%rax),%rdx
  10bdd0:	48 8b 05 29 ba 00 00 	mov    0xba29(%rip),%rax        # 117800 <current_process>
  10bdd7:	48 8b 80 30 01 00 00 	mov    0x130(%rax),%rax
  10bdde:	48 89 c6             	mov    %rax,%rsi
  10bde1:	48 8d 3d bc 56 00 00 	lea    0x56bc(%rip),%rdi        # 1114a4 <_ZL8sc_ascii+0x444>
  10bde8:	b8 00 00 00 00       	mov    $0x0,%eax
  10bded:	e8 1e 0a 00 00       	callq  10c810 <_Z7kprintfPKcz>
  10bdf2:	48 8b 05 07 ba 00 00 	mov    0xba07(%rip),%rax        # 117800 <current_process>
  10bdf9:	48 8b 00             	mov    (%rax),%rax
  10bdfc:	48 89 05 4d 92 00 00 	mov    %rax,0x924d(%rip)        # 115050 <CurrentDirectory>
  10be03:	48 8b 05 46 92 00 00 	mov    0x9246(%rip),%rax        # 115050 <CurrentDirectory>
  10be0a:	48 89 c7             	mov    %rax,%rdi
  10be0d:	e8 96 20 00 00       	callq  10dea8 <_ZN16PageTableManager7GetPML4Ev>
  10be12:	48 89 45 f0          	mov    %rax,-0x10(%rbp)
  10be16:	48 8b 05 e3 b9 00 00 	mov    0xb9e3(%rip),%rax        # 117800 <current_process>
  10be1d:	48 8b 40 10          	mov    0x10(%rax),%rax
  10be21:	48 89 45 e8          	mov    %rax,-0x18(%rbp)
  10be25:	48 8b 05 d4 b9 00 00 	mov    0xb9d4(%rip),%rax        # 117800 <current_process>
  10be2c:	48 8b 50 10          	mov    0x10(%rax),%rdx
  10be30:	48 8b 05 c9 b9 00 00 	mov    0xb9c9(%rip),%rax        # 117800 <current_process>
  10be37:	48 81 c2 b8 01 00 00 	add    $0x1b8,%rdx
  10be3e:	48 89 50 10          	mov    %rdx,0x10(%rax)
  10be42:	48 8b 05 07 92 00 00 	mov    0x9207(%rip),%rax        # 115050 <CurrentDirectory>
  10be49:	48 8b 55 f0          	mov    -0x10(%rbp),%rdx
  10be4d:	48 89 d6             	mov    %rdx,%rsi
  10be50:	48 89 c7             	mov    %rax,%rdi
  10be53:	e8 30 45 ff ff       	callq  100388 <_ZN16PageTableManager15PhysicalAddressEm>
  10be58:	48 89 c2             	mov    %rax,%rdx
  10be5b:	48 8b 4d f8          	mov    -0x8(%rbp),%rcx
  10be5f:	48 8b 45 e8          	mov    -0x18(%rbp),%rax
  10be63:	48 89 ce             	mov    %rcx,%rsi
  10be66:	48 89 c7             	mov    %rax,%rdi
  10be69:	e8 a2 1d 00 00       	callq  10dc10 <StartProcess>
  10be6e:	90                   	nop
  10be6f:	c9                   	leaveq 
  10be70:	c3                   	retq   

000000000010be71 <_Z17InitialiseTaskingv>:
  10be71:	f3 0f 1e fa          	endbr64 
  10be75:	55                   	push   %rbp
  10be76:	48 89 e5             	mov    %rsp,%rbp
  10be79:	53                   	push   %rbx
  10be7a:	48 83 ec 08          	sub    $0x8,%rsp
  10be7e:	be 00 20 00 00       	mov    $0x2000,%esi
  10be83:	48 bf 00 00 00 00 00 	movabs $0x700000000000,%rdi
  10be8a:	70 00 00 
  10be8d:	e8 af 00 00 00       	callq  10bf41 <_Z9MoveStackPvm>
  10be92:	bf 40 01 00 00       	mov    $0x140,%edi
  10be97:	e8 ef 7a ff ff       	callq  10398b <_Znwm>
  10be9c:	48 89 c3             	mov    %rax,%rbx
  10be9f:	48 8d 15 4f f7 ff ff 	lea    -0x8b1(%rip),%rdx        # 10b5f5 <_Z11idle_threadv>
  10bea6:	48 8d 35 0d 56 00 00 	lea    0x560d(%rip),%rsi        # 1114ba <_ZL8sc_ascii+0x45a>
  10bead:	48 89 df             	mov    %rbx,%rdi
  10beb0:	e8 57 f7 ff ff       	callq  10b60c <_ZN7ProcessC1EPKcPv>
  10beb5:	48 89 1d 44 b9 00 00 	mov    %rbx,0xb944(%rip)        # 117800 <current_process>
  10bebc:	48 8b 05 3d b9 00 00 	mov    0xb93d(%rip),%rax        # 117800 <current_process>
  10bec3:	48 89 05 3e b9 00 00 	mov    %rax,0xb93e(%rip)        # 117808 <ready_queue>
  10beca:	bf 40 01 00 00       	mov    $0x140,%edi
  10becf:	e8 b7 7a ff ff       	callq  10398b <_Znwm>
  10bed4:	48 89 c3             	mov    %rax,%rbx
  10bed7:	48 8d 15 f6 f6 ff ff 	lea    -0x90a(%rip),%rdx        # 10b5d4 <_Z12task_confirmv>
  10bede:	48 8d 35 e1 55 00 00 	lea    0x55e1(%rip),%rsi        # 1114c6 <_ZL8sc_ascii+0x466>
  10bee5:	48 89 df             	mov    %rbx,%rdi
  10bee8:	e8 1f f7 ff ff       	callq  10b60c <_ZN7ProcessC1EPKcPv>
  10beed:	48 89 df             	mov    %rbx,%rdi
  10bef0:	e8 62 fa ff ff       	callq  10b957 <_Z12__AddProcessP7Process>
  10bef5:	bf 40 01 00 00       	mov    $0x140,%edi
  10befa:	e8 8c 7a ff ff       	callq  10398b <_Znwm>
  10beff:	48 89 c3             	mov    %rax,%rbx
  10bf02:	48 c7 c0 e6 32 10 00 	mov    $0x1032e6,%rax
  10bf09:	48 89 c2             	mov    %rax,%rdx
  10bf0c:	48 8d 35 c0 55 00 00 	lea    0x55c0(%rip),%rsi        # 1114d3 <_ZL8sc_ascii+0x473>
  10bf13:	48 89 df             	mov    %rbx,%rdi
  10bf16:	e8 f1 f6 ff ff       	callq  10b60c <_ZN7ProcessC1EPKcPv>
  10bf1b:	48 89 df             	mov    %rbx,%rdi
  10bf1e:	e8 34 fa ff ff       	callq  10b957 <_Z12__AddProcessP7Process>
  10bf23:	e8 cf fd ff ff       	callq  10bcf7 <_Z6__execv>
  10bf28:	48 8d 3d ab 55 00 00 	lea    0x55ab(%rip),%rdi        # 1114da <_ZL8sc_ascii+0x47a>
  10bf2f:	b8 00 00 00 00       	mov    $0x0,%eax
  10bf34:	e8 d7 08 00 00       	callq  10c810 <_Z7kprintfPKcz>
  10bf39:	90                   	nop
  10bf3a:	48 83 c4 08          	add    $0x8,%rsp
  10bf3e:	5b                   	pop    %rbx
  10bf3f:	5d                   	pop    %rbp
  10bf40:	c3                   	retq   

000000000010bf41 <_Z9MoveStackPvm>:
  10bf41:	f3 0f 1e fa          	endbr64 
  10bf45:	55                   	push   %rbp
  10bf46:	48 89 e5             	mov    %rsp,%rbp
  10bf49:	48 83 ec 70          	sub    $0x70,%rsp
  10bf4d:	48 89 7d 98          	mov    %rdi,-0x68(%rbp)
  10bf51:	48 89 75 90          	mov    %rsi,-0x70(%rbp)
  10bf55:	48 8b 05 2c ab 00 00 	mov    0xab2c(%rip),%rax        # 116a88 <initial_rsp>
  10bf5c:	48 85 c0             	test   %rax,%rax
  10bf5f:	0f 84 27 01 00 00    	je     10c08c <_Z9MoveStackPvm+0x14b>
  10bf65:	48 8b 45 98          	mov    -0x68(%rbp),%rax
  10bf69:	48 89 45 f8          	mov    %rax,-0x8(%rbp)
  10bf6d:	48 8b 45 98          	mov    -0x68(%rbp),%rax
  10bf71:	48 2b 45 90          	sub    -0x70(%rbp),%rax
  10bf75:	48 39 45 f8          	cmp    %rax,-0x8(%rbp)
  10bf79:	72 37                	jb     10bfb2 <_Z9MoveStackPvm+0x71>
  10bf7b:	e8 a2 55 ff ff       	callq  101522 <_ZN18PageFrameAllocator15SharedAllocatorEv>
  10bf80:	48 89 c7             	mov    %rax,%rdi
  10bf83:	e8 ee 52 ff ff       	callq  101276 <_ZN18PageFrameAllocator11RequestPageEv>
  10bf88:	48 89 45 e8          	mov    %rax,-0x18(%rbp)
  10bf8c:	48 8b 05 bd 90 00 00 	mov    0x90bd(%rip),%rax        # 115050 <CurrentDirectory>
  10bf93:	48 8b 55 e8          	mov    -0x18(%rbp),%rdx
  10bf97:	48 8b 75 f8          	mov    -0x8(%rbp),%rsi
  10bf9b:	b9 03 00 00 00       	mov    $0x3,%ecx
  10bfa0:	48 89 c7             	mov    %rax,%rdi
  10bfa3:	e8 2e 41 ff ff       	callq  1000d6 <_ZN16PageTableManager9MapMemoryEmmm>
  10bfa8:	48 81 6d f8 00 10 00 	subq   $0x1000,-0x8(%rbp)
  10bfaf:	00 
  10bfb0:	eb bb                	jmp    10bf6d <_Z9MoveStackPvm+0x2c>
  10bfb2:	0f 20 d8             	mov    %cr3,%rax
  10bfb5:	48 89 45 e0          	mov    %rax,-0x20(%rbp)
  10bfb9:	48 8b 45 e0          	mov    -0x20(%rbp),%rax
  10bfbd:	0f 22 d8             	mov    %rax,%cr3
  10bfc0:	48 89 e0             	mov    %rsp,%rax
  10bfc3:	48 89 45 d8          	mov    %rax,-0x28(%rbp)
  10bfc7:	48 89 e8             	mov    %rbp,%rax
  10bfca:	48 89 45 d0          	mov    %rax,-0x30(%rbp)
  10bfce:	48 8b 55 98          	mov    -0x68(%rbp),%rdx
  10bfd2:	48 8b 05 af aa 00 00 	mov    0xaaaf(%rip),%rax        # 116a88 <initial_rsp>
  10bfd9:	48 29 c2             	sub    %rax,%rdx
  10bfdc:	48 89 d0             	mov    %rdx,%rax
  10bfdf:	48 89 45 c8          	mov    %rax,-0x38(%rbp)
  10bfe3:	48 8b 55 d8          	mov    -0x28(%rbp),%rdx
  10bfe7:	48 8b 45 c8          	mov    -0x38(%rbp),%rax
  10bfeb:	48 01 d0             	add    %rdx,%rax
  10bfee:	48 89 45 c0          	mov    %rax,-0x40(%rbp)
  10bff2:	48 8b 55 d0          	mov    -0x30(%rbp),%rdx
  10bff6:	48 8b 45 c8          	mov    -0x38(%rbp),%rax
  10bffa:	48 01 d0             	add    %rdx,%rax
  10bffd:	48 89 45 b8          	mov    %rax,-0x48(%rbp)
  10c001:	48 8b 05 80 aa 00 00 	mov    0xaa80(%rip),%rax        # 116a88 <initial_rsp>
  10c008:	48 2b 45 d8          	sub    -0x28(%rbp),%rax
  10c00c:	48 89 c2             	mov    %rax,%rdx
  10c00f:	48 8b 4d d8          	mov    -0x28(%rbp),%rcx
  10c013:	48 8b 45 c0          	mov    -0x40(%rbp),%rax
  10c017:	48 89 ce             	mov    %rcx,%rsi
  10c01a:	48 89 c7             	mov    %rax,%rdi
  10c01d:	e8 eb 0b 00 00       	callq  10cc0d <_Z6memcpyPvPKvm>
  10c022:	48 8b 45 98          	mov    -0x68(%rbp),%rax
  10c026:	48 89 45 f0          	mov    %rax,-0x10(%rbp)
  10c02a:	48 8b 45 98          	mov    -0x68(%rbp),%rax
  10c02e:	48 2b 45 90          	sub    -0x70(%rbp),%rax
  10c032:	48 39 45 f0          	cmp    %rax,-0x10(%rbp)
  10c036:	76 44                	jbe    10c07c <_Z9MoveStackPvm+0x13b>
  10c038:	48 8b 45 f0          	mov    -0x10(%rbp),%rax
  10c03c:	48 8b 00             	mov    (%rax),%rax
  10c03f:	48 89 45 b0          	mov    %rax,-0x50(%rbp)
  10c043:	48 8b 45 d8          	mov    -0x28(%rbp),%rax
  10c047:	48 3b 45 b0          	cmp    -0x50(%rbp),%rax
  10c04b:	73 28                	jae    10c075 <_Z9MoveStackPvm+0x134>
  10c04d:	48 8b 05 34 aa 00 00 	mov    0xaa34(%rip),%rax        # 116a88 <initial_rsp>
  10c054:	48 39 45 b0          	cmp    %rax,-0x50(%rbp)
  10c058:	73 1b                	jae    10c075 <_Z9MoveStackPvm+0x134>
  10c05a:	48 8b 45 c8          	mov    -0x38(%rbp),%rax
  10c05e:	48 01 45 b0          	add    %rax,-0x50(%rbp)
  10c062:	48 8b 45 f0          	mov    -0x10(%rbp),%rax
  10c066:	48 89 45 a8          	mov    %rax,-0x58(%rbp)
  10c06a:	48 8b 45 a8          	mov    -0x58(%rbp),%rax
  10c06e:	48 8b 55 b0          	mov    -0x50(%rbp),%rdx
  10c072:	48 89 10             	mov    %rdx,(%rax)
  10c075:	48 83 6d f0 08       	subq   $0x8,-0x10(%rbp)
  10c07a:	eb ae                	jmp    10c02a <_Z9MoveStackPvm+0xe9>
  10c07c:	48 8b 45 c0          	mov    -0x40(%rbp),%rax
  10c080:	48 89 c4             	mov    %rax,%rsp
  10c083:	48 8b 45 b8          	mov    -0x48(%rbp),%rax
  10c087:	48 89 c5             	mov    %rax,%rbp
  10c08a:	eb 01                	jmp    10c08d <_Z9MoveStackPvm+0x14c>
  10c08c:	90                   	nop
  10c08d:	c9                   	leaveq 
  10c08e:	c3                   	retq   
  10c08f:	90                   	nop

000000000010c090 <_ZN6Bitmap3GetEm>:
  10c090:	f3 0f 1e fa          	endbr64 
  10c094:	55                   	push   %rbp
  10c095:	48 89 e5             	mov    %rsp,%rbp
  10c098:	48 83 ec 20          	sub    $0x20,%rsp
  10c09c:	48 89 7d e8          	mov    %rdi,-0x18(%rbp)
  10c0a0:	48 89 75 e0          	mov    %rsi,-0x20(%rbp)
  10c0a4:	48 8b 45 e0          	mov    -0x20(%rbp),%rax
  10c0a8:	48 c1 e8 06          	shr    $0x6,%rax
  10c0ac:	48 89 45 f8          	mov    %rax,-0x8(%rbp)
  10c0b0:	48 8b 45 e0          	mov    -0x20(%rbp),%rax
  10c0b4:	83 e0 3f             	and    $0x3f,%eax
  10c0b7:	48 89 45 f0          	mov    %rax,-0x10(%rbp)
  10c0bb:	48 8b 45 e8          	mov    -0x18(%rbp),%rax
  10c0bf:	48 8b 40 08          	mov    0x8(%rax),%rax
  10c0c3:	48 8b 55 f8          	mov    -0x8(%rbp),%rdx
  10c0c7:	48 c1 e2 03          	shl    $0x3,%rdx
  10c0cb:	48 01 d0             	add    %rdx,%rax
  10c0ce:	48 8b 10             	mov    (%rax),%rdx
  10c0d1:	48 8b 45 f0          	mov    -0x10(%rbp),%rax
  10c0d5:	be 01 00 00 00       	mov    $0x1,%esi
  10c0da:	89 c1                	mov    %eax,%ecx
  10c0dc:	d3 e6                	shl    %cl,%esi
  10c0de:	89 f0                	mov    %esi,%eax
  10c0e0:	48 98                	cltq   
  10c0e2:	48 21 d0             	and    %rdx,%rax
  10c0e5:	48 85 c0             	test   %rax,%rax
  10c0e8:	0f 95 c0             	setne  %al
  10c0eb:	c9                   	leaveq 
  10c0ec:	c3                   	retq   
  10c0ed:	90                   	nop

000000000010c0ee <_ZN6Bitmap3SetEmb>:
  10c0ee:	f3 0f 1e fa          	endbr64 
  10c0f2:	55                   	push   %rbp
  10c0f3:	48 89 e5             	mov    %rsp,%rbp
  10c0f6:	48 83 ec 28          	sub    $0x28,%rsp
  10c0fa:	48 89 7d e8          	mov    %rdi,-0x18(%rbp)
  10c0fe:	48 89 75 e0          	mov    %rsi,-0x20(%rbp)
  10c102:	89 d0                	mov    %edx,%eax
  10c104:	88 45 dc             	mov    %al,-0x24(%rbp)
  10c107:	48 8b 45 e0          	mov    -0x20(%rbp),%rax
  10c10b:	48 c1 e8 06          	shr    $0x6,%rax
  10c10f:	48 89 45 f8          	mov    %rax,-0x8(%rbp)
  10c113:	48 8b 45 e0          	mov    -0x20(%rbp),%rax
  10c117:	83 e0 3f             	and    $0x3f,%eax
  10c11a:	48 89 45 f0          	mov    %rax,-0x10(%rbp)
  10c11e:	80 7d dc 00          	cmpb   $0x0,-0x24(%rbp)
  10c122:	74 43                	je     10c167 <_ZN6Bitmap3SetEmb+0x79>
  10c124:	48 8b 45 e8          	mov    -0x18(%rbp),%rax
  10c128:	48 8b 40 08          	mov    0x8(%rax),%rax
  10c12c:	48 8b 55 f8          	mov    -0x8(%rbp),%rdx
  10c130:	48 c1 e2 03          	shl    $0x3,%rdx
  10c134:	48 01 d0             	add    %rdx,%rax
  10c137:	48 8b 30             	mov    (%rax),%rsi
  10c13a:	48 8b 45 f0          	mov    -0x10(%rbp),%rax
  10c13e:	ba 01 00 00 00       	mov    $0x1,%edx
  10c143:	89 c1                	mov    %eax,%ecx
  10c145:	d3 e2                	shl    %cl,%edx
  10c147:	89 d0                	mov    %edx,%eax
  10c149:	48 63 d0             	movslq %eax,%rdx
  10c14c:	48 8b 45 e8          	mov    -0x18(%rbp),%rax
  10c150:	48 8b 40 08          	mov    0x8(%rax),%rax
  10c154:	48 8b 4d f8          	mov    -0x8(%rbp),%rcx
  10c158:	48 c1 e1 03          	shl    $0x3,%rcx
  10c15c:	48 01 c8             	add    %rcx,%rax
  10c15f:	48 09 f2             	or     %rsi,%rdx
  10c162:	48 89 10             	mov    %rdx,(%rax)
  10c165:	eb 43                	jmp    10c1aa <_ZN6Bitmap3SetEmb+0xbc>
  10c167:	48 8b 45 e8          	mov    -0x18(%rbp),%rax
  10c16b:	48 8b 40 08          	mov    0x8(%rax),%rax
  10c16f:	48 8b 55 f8          	mov    -0x8(%rbp),%rdx
  10c173:	48 c1 e2 03          	shl    $0x3,%rdx
  10c177:	48 01 d0             	add    %rdx,%rax
  10c17a:	48 8b 30             	mov    (%rax),%rsi
  10c17d:	48 8b 45 f0          	mov    -0x10(%rbp),%rax
  10c181:	ba 01 00 00 00       	mov    $0x1,%edx
  10c186:	89 c1                	mov    %eax,%ecx
  10c188:	d3 e2                	shl    %cl,%edx
  10c18a:	89 d0                	mov    %edx,%eax
  10c18c:	f7 d0                	not    %eax
  10c18e:	48 63 d0             	movslq %eax,%rdx
  10c191:	48 8b 45 e8          	mov    -0x18(%rbp),%rax
  10c195:	48 8b 40 08          	mov    0x8(%rax),%rax
  10c199:	48 8b 4d f8          	mov    -0x8(%rbp),%rcx
  10c19d:	48 c1 e1 03          	shl    $0x3,%rcx
  10c1a1:	48 01 c8             	add    %rcx,%rax
  10c1a4:	48 21 f2             	and    %rsi,%rdx
  10c1a7:	48 89 10             	mov    %rdx,(%rax)
  10c1aa:	90                   	nop
  10c1ab:	c9                   	leaveq 
  10c1ac:	c3                   	retq   
  10c1ad:	90                   	nop

000000000010c1ae <_ZN6Bitmap5FirstEv>:
  10c1ae:	f3 0f 1e fa          	endbr64 
  10c1b2:	55                   	push   %rbp
  10c1b3:	48 89 e5             	mov    %rsp,%rbp
  10c1b6:	48 83 ec 28          	sub    $0x28,%rsp
  10c1ba:	48 89 7d d8          	mov    %rdi,-0x28(%rbp)
  10c1be:	48 c7 45 f8 00 00 00 	movq   $0x0,-0x8(%rbp)
  10c1c5:	00 
  10c1c6:	48 8b 45 d8          	mov    -0x28(%rbp),%rax
  10c1ca:	48 8b 00             	mov    (%rax),%rax
  10c1cd:	48 39 45 f8          	cmp    %rax,-0x8(%rbp)
  10c1d1:	0f 83 84 00 00 00    	jae    10c25b <_ZN6Bitmap5FirstEv+0xad>
  10c1d7:	48 8b 45 d8          	mov    -0x28(%rbp),%rax
  10c1db:	48 8b 40 08          	mov    0x8(%rax),%rax
  10c1df:	48 8b 55 f8          	mov    -0x8(%rbp),%rdx
  10c1e3:	48 c1 e2 03          	shl    $0x3,%rdx
  10c1e7:	48 01 d0             	add    %rdx,%rax
  10c1ea:	48 8b 00             	mov    (%rax),%rax
  10c1ed:	48 83 f8 ff          	cmp    $0xffffffffffffffff,%rax
  10c1f1:	74 5e                	je     10c251 <_ZN6Bitmap5FirstEv+0xa3>
  10c1f3:	48 c7 45 f0 00 00 00 	movq   $0x0,-0x10(%rbp)
  10c1fa:	00 
  10c1fb:	48 83 7d f0 3f       	cmpq   $0x3f,-0x10(%rbp)
  10c200:	77 4f                	ja     10c251 <_ZN6Bitmap5FirstEv+0xa3>
  10c202:	48 8b 45 f0          	mov    -0x10(%rbp),%rax
  10c206:	ba 01 00 00 00       	mov    $0x1,%edx
  10c20b:	89 c1                	mov    %eax,%ecx
  10c20d:	d3 e2                	shl    %cl,%edx
  10c20f:	89 d0                	mov    %edx,%eax
  10c211:	48 98                	cltq   
  10c213:	48 89 45 e8          	mov    %rax,-0x18(%rbp)
  10c217:	48 8b 45 d8          	mov    -0x28(%rbp),%rax
  10c21b:	48 8b 40 08          	mov    0x8(%rax),%rax
  10c21f:	48 8b 55 f8          	mov    -0x8(%rbp),%rdx
  10c223:	48 c1 e2 03          	shl    $0x3,%rdx
  10c227:	48 01 d0             	add    %rdx,%rax
  10c22a:	48 8b 00             	mov    (%rax),%rax
  10c22d:	48 23 45 e8          	and    -0x18(%rbp),%rax
  10c231:	48 85 c0             	test   %rax,%rax
  10c234:	75 14                	jne    10c24a <_ZN6Bitmap5FirstEv+0x9c>
  10c236:	48 8b 45 f8          	mov    -0x8(%rbp),%rax
  10c23a:	48 c1 e0 06          	shl    $0x6,%rax
  10c23e:	48 89 c2             	mov    %rax,%rdx
  10c241:	48 8b 45 f0          	mov    -0x10(%rbp),%rax
  10c245:	48 01 d0             	add    %rdx,%rax
  10c248:	eb 18                	jmp    10c262 <_ZN6Bitmap5FirstEv+0xb4>
  10c24a:	48 83 45 f0 01       	addq   $0x1,-0x10(%rbp)
  10c24f:	eb aa                	jmp    10c1fb <_ZN6Bitmap5FirstEv+0x4d>
  10c251:	48 83 45 f8 01       	addq   $0x1,-0x8(%rbp)
  10c256:	e9 6b ff ff ff       	jmpq   10c1c6 <_ZN6Bitmap5FirstEv+0x18>
  10c25b:	48 c7 c0 ff ff ff ff 	mov    $0xffffffffffffffff,%rax
  10c262:	c9                   	leaveq 
  10c263:	c3                   	retq   

000000000010c264 <_Z4itoaPhjm>:
  10c264:	f3 0f 1e fa          	endbr64 
  10c268:	55                   	push   %rbp
  10c269:	48 89 e5             	mov    %rsp,%rbp
  10c26c:	48 83 ec 58          	sub    $0x58,%rsp
  10c270:	48 89 7d b8          	mov    %rdi,-0x48(%rbp)
  10c274:	89 75 b4             	mov    %esi,-0x4c(%rbp)
  10c277:	48 89 55 a8          	mov    %rdx,-0x58(%rbp)
  10c27b:	48 8b 45 b8          	mov    -0x48(%rbp),%rax
  10c27f:	48 89 45 f8          	mov    %rax,-0x8(%rbp)
  10c283:	48 8b 45 a8          	mov    -0x58(%rbp),%rax
  10c287:	48 89 45 e0          	mov    %rax,-0x20(%rbp)
  10c28b:	48 c7 45 d8 0a 00 00 	movq   $0xa,-0x28(%rbp)
  10c292:	00 
  10c293:	83 7d b4 78          	cmpl   $0x78,-0x4c(%rbp)
  10c297:	75 08                	jne    10c2a1 <_Z4itoaPhjm+0x3d>
  10c299:	48 c7 45 d8 10 00 00 	movq   $0x10,-0x28(%rbp)
  10c2a0:	00 
  10c2a1:	48 8b 45 e0          	mov    -0x20(%rbp),%rax
  10c2a5:	ba 00 00 00 00       	mov    $0x0,%edx
  10c2aa:	48 f7 75 d8          	divq   -0x28(%rbp)
  10c2ae:	48 89 55 d0          	mov    %rdx,-0x30(%rbp)
  10c2b2:	48 83 7d d0 09       	cmpq   $0x9,-0x30(%rbp)
  10c2b7:	77 09                	ja     10c2c2 <_Z4itoaPhjm+0x5e>
  10c2b9:	48 8b 45 d0          	mov    -0x30(%rbp),%rax
  10c2bd:	8d 50 30             	lea    0x30(%rax),%edx
  10c2c0:	eb 07                	jmp    10c2c9 <_Z4itoaPhjm+0x65>
  10c2c2:	48 8b 45 d0          	mov    -0x30(%rbp),%rax
  10c2c6:	8d 50 37             	lea    0x37(%rax),%edx
  10c2c9:	48 8b 45 f8          	mov    -0x8(%rbp),%rax
  10c2cd:	48 8d 48 01          	lea    0x1(%rax),%rcx
  10c2d1:	48 89 4d f8          	mov    %rcx,-0x8(%rbp)
  10c2d5:	88 10                	mov    %dl,(%rax)
  10c2d7:	48 8b 45 e0          	mov    -0x20(%rbp),%rax
  10c2db:	ba 00 00 00 00       	mov    $0x0,%edx
  10c2e0:	48 f7 75 d8          	divq   -0x28(%rbp)
  10c2e4:	48 89 45 e0          	mov    %rax,-0x20(%rbp)
  10c2e8:	48 83 7d e0 00       	cmpq   $0x0,-0x20(%rbp)
  10c2ed:	0f 95 c0             	setne  %al
  10c2f0:	84 c0                	test   %al,%al
  10c2f2:	74 02                	je     10c2f6 <_Z4itoaPhjm+0x92>
  10c2f4:	eb ab                	jmp    10c2a1 <_Z4itoaPhjm+0x3d>
  10c2f6:	48 8b 45 f8          	mov    -0x8(%rbp),%rax
  10c2fa:	c6 00 00             	movb   $0x0,(%rax)
  10c2fd:	48 8b 45 b8          	mov    -0x48(%rbp),%rax
  10c301:	48 89 45 f0          	mov    %rax,-0x10(%rbp)
  10c305:	48 8b 45 f8          	mov    -0x8(%rbp),%rax
  10c309:	48 83 e8 01          	sub    $0x1,%rax
  10c30d:	48 89 45 e8          	mov    %rax,-0x18(%rbp)
  10c311:	48 8b 45 f0          	mov    -0x10(%rbp),%rax
  10c315:	48 3b 45 e8          	cmp    -0x18(%rbp),%rax
  10c319:	73 2d                	jae    10c348 <_Z4itoaPhjm+0xe4>
  10c31b:	48 8b 45 f0          	mov    -0x10(%rbp),%rax
  10c31f:	0f b6 00             	movzbl (%rax),%eax
  10c322:	88 45 cf             	mov    %al,-0x31(%rbp)
  10c325:	48 8b 45 e8          	mov    -0x18(%rbp),%rax
  10c329:	0f b6 10             	movzbl (%rax),%edx
  10c32c:	48 8b 45 f0          	mov    -0x10(%rbp),%rax
  10c330:	88 10                	mov    %dl,(%rax)
  10c332:	48 8b 45 e8          	mov    -0x18(%rbp),%rax
  10c336:	0f b6 55 cf          	movzbl -0x31(%rbp),%edx
  10c33a:	88 10                	mov    %dl,(%rax)
  10c33c:	48 83 45 f0 01       	addq   $0x1,-0x10(%rbp)
  10c341:	48 83 6d e8 01       	subq   $0x1,-0x18(%rbp)
  10c346:	eb c9                	jmp    10c311 <_Z4itoaPhjm+0xad>
  10c348:	90                   	nop
  10c349:	c9                   	leaveq 
  10c34a:	c3                   	retq   

000000000010c34b <_Z7reversePc>:
  10c34b:	f3 0f 1e fa          	endbr64 
  10c34f:	55                   	push   %rbp
  10c350:	48 89 e5             	mov    %rsp,%rbp
  10c353:	48 83 ec 20          	sub    $0x20,%rsp
  10c357:	48 89 7d e8          	mov    %rdi,-0x18(%rbp)
  10c35b:	c7 45 fc 00 00 00 00 	movl   $0x0,-0x4(%rbp)
  10c362:	48 8b 45 e8          	mov    -0x18(%rbp),%rax
  10c366:	48 89 c7             	mov    %rax,%rdi
  10c369:	e8 e2 00 00 00       	callq  10c450 <_Z6strlenPc>
  10c36e:	83 e8 01             	sub    $0x1,%eax
  10c371:	89 45 f8             	mov    %eax,-0x8(%rbp)
  10c374:	8b 45 fc             	mov    -0x4(%rbp),%eax
  10c377:	3b 45 f8             	cmp    -0x8(%rbp),%eax
  10c37a:	7d 51                	jge    10c3cd <_Z7reversePc+0x82>
  10c37c:	8b 45 fc             	mov    -0x4(%rbp),%eax
  10c37f:	48 63 d0             	movslq %eax,%rdx
  10c382:	48 8b 45 e8          	mov    -0x18(%rbp),%rax
  10c386:	48 01 d0             	add    %rdx,%rax
  10c389:	0f b6 00             	movzbl (%rax),%eax
  10c38c:	0f be c0             	movsbl %al,%eax
  10c38f:	89 45 f4             	mov    %eax,-0xc(%rbp)
  10c392:	8b 45 f8             	mov    -0x8(%rbp),%eax
  10c395:	48 63 d0             	movslq %eax,%rdx
  10c398:	48 8b 45 e8          	mov    -0x18(%rbp),%rax
  10c39c:	48 01 d0             	add    %rdx,%rax
  10c39f:	8b 55 fc             	mov    -0x4(%rbp),%edx
  10c3a2:	48 63 ca             	movslq %edx,%rcx
  10c3a5:	48 8b 55 e8          	mov    -0x18(%rbp),%rdx
  10c3a9:	48 01 ca             	add    %rcx,%rdx
  10c3ac:	0f b6 00             	movzbl (%rax),%eax
  10c3af:	88 02                	mov    %al,(%rdx)
  10c3b1:	8b 45 f8             	mov    -0x8(%rbp),%eax
  10c3b4:	48 63 d0             	movslq %eax,%rdx
  10c3b7:	48 8b 45 e8          	mov    -0x18(%rbp),%rax
  10c3bb:	48 01 d0             	add    %rdx,%rax
  10c3be:	8b 55 f4             	mov    -0xc(%rbp),%edx
  10c3c1:	88 10                	mov    %dl,(%rax)
  10c3c3:	83 45 fc 01          	addl   $0x1,-0x4(%rbp)
  10c3c7:	83 6d f8 01          	subl   $0x1,-0x8(%rbp)
  10c3cb:	eb a7                	jmp    10c374 <_Z7reversePc+0x29>
  10c3cd:	90                   	nop
  10c3ce:	c9                   	leaveq 
  10c3cf:	c3                   	retq   

000000000010c3d0 <_Z6appendPcc>:
  10c3d0:	f3 0f 1e fa          	endbr64 
  10c3d4:	55                   	push   %rbp
  10c3d5:	48 89 e5             	mov    %rsp,%rbp
  10c3d8:	48 83 ec 20          	sub    $0x20,%rsp
  10c3dc:	48 89 7d e8          	mov    %rdi,-0x18(%rbp)
  10c3e0:	89 f0                	mov    %esi,%eax
  10c3e2:	88 45 e4             	mov    %al,-0x1c(%rbp)
  10c3e5:	48 8b 45 e8          	mov    -0x18(%rbp),%rax
  10c3e9:	48 89 c7             	mov    %rax,%rdi
  10c3ec:	e8 5f 00 00 00       	callq  10c450 <_Z6strlenPc>
  10c3f1:	48 89 45 f8          	mov    %rax,-0x8(%rbp)
  10c3f5:	48 8b 55 e8          	mov    -0x18(%rbp),%rdx
  10c3f9:	48 8b 45 f8          	mov    -0x8(%rbp),%rax
  10c3fd:	48 01 c2             	add    %rax,%rdx
  10c400:	0f b6 45 e4          	movzbl -0x1c(%rbp),%eax
  10c404:	88 02                	mov    %al,(%rdx)
  10c406:	48 8b 45 f8          	mov    -0x8(%rbp),%rax
  10c40a:	48 8d 50 01          	lea    0x1(%rax),%rdx
  10c40e:	48 8b 45 e8          	mov    -0x18(%rbp),%rax
  10c412:	48 01 d0             	add    %rdx,%rax
  10c415:	c6 00 00             	movb   $0x0,(%rax)
  10c418:	90                   	nop
  10c419:	c9                   	leaveq 
  10c41a:	c3                   	retq   

000000000010c41b <_Z9backspacePc>:
  10c41b:	f3 0f 1e fa          	endbr64 
  10c41f:	55                   	push   %rbp
  10c420:	48 89 e5             	mov    %rsp,%rbp
  10c423:	48 83 ec 20          	sub    $0x20,%rsp
  10c427:	48 89 7d e8          	mov    %rdi,-0x18(%rbp)
  10c42b:	48 8b 45 e8          	mov    -0x18(%rbp),%rax
  10c42f:	48 89 c7             	mov    %rax,%rdi
  10c432:	e8 19 00 00 00       	callq  10c450 <_Z6strlenPc>
  10c437:	48 89 45 f8          	mov    %rax,-0x8(%rbp)
  10c43b:	48 8b 45 f8          	mov    -0x8(%rbp),%rax
  10c43f:	48 8d 50 ff          	lea    -0x1(%rax),%rdx
  10c443:	48 8b 45 e8          	mov    -0x18(%rbp),%rax
  10c447:	48 01 d0             	add    %rdx,%rax
  10c44a:	c6 00 00             	movb   $0x0,(%rax)
  10c44d:	90                   	nop
  10c44e:	c9                   	leaveq 
  10c44f:	c3                   	retq   

000000000010c450 <_Z6strlenPc>:
  10c450:	f3 0f 1e fa          	endbr64 
  10c454:	55                   	push   %rbp
  10c455:	48 89 e5             	mov    %rsp,%rbp
  10c458:	48 83 ec 10          	sub    $0x10,%rsp
  10c45c:	48 89 7d f8          	mov    %rdi,-0x8(%rbp)
  10c460:	48 8b 45 f8          	mov    -0x8(%rbp),%rax
  10c464:	48 89 c7             	mov    %rax,%rdi
  10c467:	e8 14 19 00 00       	callq  10dd80 <__strlen>
  10c46c:	c9                   	leaveq 
  10c46d:	c3                   	retq   

000000000010c46e <_Z6strcmpPcS_>:
  10c46e:	f3 0f 1e fa          	endbr64 
  10c472:	55                   	push   %rbp
  10c473:	48 89 e5             	mov    %rsp,%rbp
  10c476:	48 83 ec 20          	sub    $0x20,%rsp
  10c47a:	48 89 7d e8          	mov    %rdi,-0x18(%rbp)
  10c47e:	48 89 75 e0          	mov    %rsi,-0x20(%rbp)
  10c482:	48 c7 45 f8 00 00 00 	movq   $0x0,-0x8(%rbp)
  10c489:	00 
  10c48a:	48 8b 45 e8          	mov    -0x18(%rbp),%rax
  10c48e:	0f b6 00             	movzbl (%rax),%eax
  10c491:	84 c0                	test   %al,%al
  10c493:	74 1f                	je     10c4b4 <_Z6strcmpPcS_+0x46>
  10c495:	48 8b 45 e8          	mov    -0x18(%rbp),%rax
  10c499:	0f b6 10             	movzbl (%rax),%edx
  10c49c:	48 8b 45 e0          	mov    -0x20(%rbp),%rax
  10c4a0:	0f b6 00             	movzbl (%rax),%eax
  10c4a3:	38 c2                	cmp    %al,%dl
  10c4a5:	75 0c                	jne    10c4b3 <_Z6strcmpPcS_+0x45>
  10c4a7:	48 83 45 e8 01       	addq   $0x1,-0x18(%rbp)
  10c4ac:	48 83 45 e0 01       	addq   $0x1,-0x20(%rbp)
  10c4b1:	eb d7                	jmp    10c48a <_Z6strcmpPcS_+0x1c>
  10c4b3:	90                   	nop
  10c4b4:	48 8b 45 e8          	mov    -0x18(%rbp),%rax
  10c4b8:	0f b6 00             	movzbl (%rax),%eax
  10c4bb:	0f be d0             	movsbl %al,%edx
  10c4be:	48 8b 45 e0          	mov    -0x20(%rbp),%rax
  10c4c2:	0f b6 00             	movzbl (%rax),%eax
  10c4c5:	0f be c0             	movsbl %al,%eax
  10c4c8:	29 c2                	sub    %eax,%edx
  10c4ca:	89 d0                	mov    %edx,%eax
  10c4cc:	c9                   	leaveq 
  10c4cd:	c3                   	retq   

000000000010c4ce <_Z7strncmpPcS_i>:
  10c4ce:	f3 0f 1e fa          	endbr64 
  10c4d2:	55                   	push   %rbp
  10c4d3:	48 89 e5             	mov    %rsp,%rbp
  10c4d6:	48 83 ec 20          	sub    $0x20,%rsp
  10c4da:	48 89 7d f8          	mov    %rdi,-0x8(%rbp)
  10c4de:	48 89 75 f0          	mov    %rsi,-0x10(%rbp)
  10c4e2:	89 55 ec             	mov    %edx,-0x14(%rbp)
  10c4e5:	8b 45 ec             	mov    -0x14(%rbp),%eax
  10c4e8:	48 63 d0             	movslq %eax,%rdx
  10c4eb:	48 8b 4d f0          	mov    -0x10(%rbp),%rcx
  10c4ef:	48 8b 45 f8          	mov    -0x8(%rbp),%rax
  10c4f3:	48 89 ce             	mov    %rcx,%rsi
  10c4f6:	48 89 c7             	mov    %rax,%rdi
  10c4f9:	e8 c9 18 00 00       	callq  10ddc7 <__strncmp>
  10c4fe:	85 c0                	test   %eax,%eax
  10c500:	0f 94 c0             	sete   %al
  10c503:	0f b6 c0             	movzbl %al,%eax
  10c506:	c9                   	leaveq 
  10c507:	c3                   	retq   

000000000010c508 <_Z6strcpyPcPKc>:
  10c508:	f3 0f 1e fa          	endbr64 
  10c50c:	55                   	push   %rbp
  10c50d:	48 89 e5             	mov    %rsp,%rbp
  10c510:	48 83 ec 10          	sub    $0x10,%rsp
  10c514:	48 89 7d f8          	mov    %rdi,-0x8(%rbp)
  10c518:	48 89 75 f0          	mov    %rsi,-0x10(%rbp)
  10c51c:	48 8b 55 f0          	mov    -0x10(%rbp),%rdx
  10c520:	48 8b 45 f8          	mov    -0x8(%rbp),%rax
  10c524:	48 89 d6             	mov    %rdx,%rsi
  10c527:	48 89 c7             	mov    %rax,%rdi
  10c52a:	e8 a5 18 00 00       	callq  10ddd4 <__strcpy>
  10c52f:	c9                   	leaveq 
  10c530:	c3                   	retq   

000000000010c531 <_Z5splitPKccPi>:
  10c531:	f3 0f 1e fa          	endbr64 
  10c535:	55                   	push   %rbp
  10c536:	48 89 e5             	mov    %rsp,%rbp
  10c539:	48 83 ec 60          	sub    $0x60,%rsp
  10c53d:	48 89 7d b8          	mov    %rdi,-0x48(%rbp)
  10c541:	89 f0                	mov    %esi,%eax
  10c543:	48 89 55 a8          	mov    %rdx,-0x58(%rbp)
  10c547:	88 45 b4             	mov    %al,-0x4c(%rbp)
  10c54a:	48 8b 45 b8          	mov    -0x48(%rbp),%rax
  10c54e:	48 89 c7             	mov    %rax,%rdi
  10c551:	e8 fa fe ff ff       	callq  10c450 <_Z6strlenPc>
  10c556:	48 89 45 d0          	mov    %rax,-0x30(%rbp)
  10c55a:	48 c7 45 f8 00 00 00 	movq   $0x0,-0x8(%rbp)
  10c561:	00 
  10c562:	48 c7 45 f0 00 00 00 	movq   $0x0,-0x10(%rbp)
  10c569:	00 
  10c56a:	48 8b 45 f0          	mov    -0x10(%rbp),%rax
  10c56e:	48 3b 45 d0          	cmp    -0x30(%rbp),%rax
  10c572:	73 1f                	jae    10c593 <_Z5splitPKccPi+0x62>
  10c574:	48 8b 55 b8          	mov    -0x48(%rbp),%rdx
  10c578:	48 8b 45 f0          	mov    -0x10(%rbp),%rax
  10c57c:	48 01 d0             	add    %rdx,%rax
  10c57f:	0f b6 00             	movzbl (%rax),%eax
  10c582:	38 45 b4             	cmp    %al,-0x4c(%rbp)
  10c585:	75 05                	jne    10c58c <_Z5splitPKccPi+0x5b>
  10c587:	48 83 45 f8 01       	addq   $0x1,-0x8(%rbp)
  10c58c:	48 83 45 f0 01       	addq   $0x1,-0x10(%rbp)
  10c591:	eb d7                	jmp    10c56a <_Z5splitPKccPi+0x39>
  10c593:	48 8b 45 f8          	mov    -0x8(%rbp),%rax
  10c597:	48 c1 e0 03          	shl    $0x3,%rax
  10c59b:	48 89 c7             	mov    %rax,%rdi
  10c59e:	e8 c3 08 00 00       	callq  10ce66 <_Z7kmallocm>
  10c5a3:	48 89 45 c8          	mov    %rax,-0x38(%rbp)
  10c5a7:	48 8b 45 f8          	mov    -0x8(%rbp),%rax
  10c5ab:	89 c2                	mov    %eax,%edx
  10c5ad:	48 8b 45 a8          	mov    -0x58(%rbp),%rax
  10c5b1:	89 10                	mov    %edx,(%rax)
  10c5b3:	48 c7 45 e8 00 00 00 	movq   $0x0,-0x18(%rbp)
  10c5ba:	00 
  10c5bb:	48 c7 45 e0 00 00 00 	movq   $0x0,-0x20(%rbp)
  10c5c2:	00 
  10c5c3:	48 c7 45 d8 00 00 00 	movq   $0x0,-0x28(%rbp)
  10c5ca:	00 
  10c5cb:	48 8b 45 d8          	mov    -0x28(%rbp),%rax
  10c5cf:	48 3b 45 d0          	cmp    -0x30(%rbp),%rax
  10c5d3:	0f 83 87 00 00 00    	jae    10c660 <_Z5splitPKccPi+0x12f>
  10c5d9:	48 8b 55 b8          	mov    -0x48(%rbp),%rdx
  10c5dd:	48 8b 45 d8          	mov    -0x28(%rbp),%rax
  10c5e1:	48 01 d0             	add    %rdx,%rax
  10c5e4:	0f b6 00             	movzbl (%rax),%eax
  10c5e7:	38 45 b4             	cmp    %al,-0x4c(%rbp)
  10c5ea:	75 6a                	jne    10c656 <_Z5splitPKccPi+0x125>
  10c5ec:	48 8b 45 d8          	mov    -0x28(%rbp),%rax
  10c5f0:	48 2b 45 e0          	sub    -0x20(%rbp),%rax
  10c5f4:	48 89 45 c0          	mov    %rax,-0x40(%rbp)
  10c5f8:	48 8b 45 c0          	mov    -0x40(%rbp),%rax
  10c5fc:	48 89 c7             	mov    %rax,%rdi
  10c5ff:	e8 62 08 00 00       	callq  10ce66 <_Z7kmallocm>
  10c604:	48 8b 55 e8          	mov    -0x18(%rbp),%rdx
  10c608:	48 8d 0c d5 00 00 00 	lea    0x0(,%rdx,8),%rcx
  10c60f:	00 
  10c610:	48 8b 55 c8          	mov    -0x38(%rbp),%rdx
  10c614:	48 01 ca             	add    %rcx,%rdx
  10c617:	48 89 02             	mov    %rax,(%rdx)
  10c61a:	48 8b 55 b8          	mov    -0x48(%rbp),%rdx
  10c61e:	48 8b 45 e0          	mov    -0x20(%rbp),%rax
  10c622:	48 8d 34 02          	lea    (%rdx,%rax,1),%rsi
  10c626:	48 8b 45 e8          	mov    -0x18(%rbp),%rax
  10c62a:	48 8d 14 c5 00 00 00 	lea    0x0(,%rax,8),%rdx
  10c631:	00 
  10c632:	48 8b 45 c8          	mov    -0x38(%rbp),%rax
  10c636:	48 8d 0c 02          	lea    (%rdx,%rax,1),%rcx
  10c63a:	48 8b 45 c0          	mov    -0x40(%rbp),%rax
  10c63e:	48 89 c2             	mov    %rax,%rdx
  10c641:	48 89 cf             	mov    %rcx,%rdi
  10c644:	e8 c4 05 00 00       	callq  10cc0d <_Z6memcpyPvPKvm>
  10c649:	48 8b 45 e8          	mov    -0x18(%rbp),%rax
  10c64d:	48 89 45 e0          	mov    %rax,-0x20(%rbp)
  10c651:	48 83 45 e8 01       	addq   $0x1,-0x18(%rbp)
  10c656:	48 83 45 d8 01       	addq   $0x1,-0x28(%rbp)
  10c65b:	e9 6b ff ff ff       	jmpq   10c5cb <_Z5splitPKccPi+0x9a>
  10c660:	48 8b 45 c8          	mov    -0x38(%rbp),%rax
  10c664:	c9                   	leaveq 
  10c665:	c3                   	retq   

000000000010c666 <_Z18string_from_doubledh>:
  10c666:	f3 0f 1e fa          	endbr64 
  10c66a:	55                   	push   %rbp
  10c66b:	48 89 e5             	mov    %rsp,%rbp
  10c66e:	48 83 ec 40          	sub    $0x40,%rsp
  10c672:	f2 0f 11 45 c8       	movsd  %xmm0,-0x38(%rbp)
  10c677:	89 f8                	mov    %edi,%eax
  10c679:	88 45 c4             	mov    %al,-0x3c(%rbp)
  10c67c:	80 7d c4 14          	cmpb   $0x14,-0x3c(%rbp)
  10c680:	76 04                	jbe    10c686 <_Z18string_from_doubledh+0x20>
  10c682:	c6 45 c4 14          	movb   $0x14,-0x3c(%rbp)
  10c686:	48 8d 05 13 b2 00 00 	lea    0xb213(%rip),%rax        # 1178a0 <intBuffer>
  10c68d:	48 89 45 f8          	mov    %rax,-0x8(%rbp)
  10c691:	f2 0f 10 45 c8       	movsd  -0x38(%rbp),%xmm0
  10c696:	f2 48 0f 2c c0       	cvttsd2si %xmm0,%rax
  10c69b:	48 89 45 d8          	mov    %rax,-0x28(%rbp)
  10c69f:	48 83 7d d8 00       	cmpq   $0x0,-0x28(%rbp)
  10c6a4:	79 2e                	jns    10c6d4 <_Z18string_from_doubledh+0x6e>
  10c6a6:	48 8b 45 f8          	mov    -0x8(%rbp),%rax
  10c6aa:	c6 00 2d             	movb   $0x2d,(%rax)
  10c6ad:	f2 0f 10 45 c8       	movsd  -0x38(%rbp),%xmm0
  10c6b2:	f2 48 0f 2c c0       	cvttsd2si %xmm0,%rax
  10c6b7:	48 f7 d8             	neg    %rax
  10c6ba:	48 89 c2             	mov    %rax,%rdx
  10c6bd:	48 8b 45 f8          	mov    -0x8(%rbp),%rax
  10c6c1:	48 83 c0 01          	add    $0x1,%rax
  10c6c5:	be 64 00 00 00       	mov    $0x64,%esi
  10c6ca:	48 89 c7             	mov    %rax,%rdi
  10c6cd:	e8 92 fb ff ff       	callq  10c264 <_Z4itoaPhjm>
  10c6d2:	eb 52                	jmp    10c726 <_Z18string_from_doubledh+0xc0>
  10c6d4:	f2 0f 10 45 c8       	movsd  -0x38(%rbp),%xmm0
  10c6d9:	66 0f 2f 05 77 4e 00 	comisd 0x4e77(%rip),%xmm0        # 111558 <_ZL8sc_ascii+0x4f8>
  10c6e0:	00 
  10c6e1:	73 0c                	jae    10c6ef <_Z18string_from_doubledh+0x89>
  10c6e3:	f2 0f 10 45 c8       	movsd  -0x38(%rbp),%xmm0
  10c6e8:	f2 48 0f 2c c0       	cvttsd2si %xmm0,%rax
  10c6ed:	eb 23                	jmp    10c712 <_Z18string_from_doubledh+0xac>
  10c6ef:	f2 0f 10 45 c8       	movsd  -0x38(%rbp),%xmm0
  10c6f4:	f2 0f 10 0d 5c 4e 00 	movsd  0x4e5c(%rip),%xmm1        # 111558 <_ZL8sc_ascii+0x4f8>
  10c6fb:	00 
  10c6fc:	f2 0f 5c c1          	subsd  %xmm1,%xmm0
  10c700:	f2 48 0f 2c c0       	cvttsd2si %xmm0,%rax
  10c705:	48 ba 00 00 00 00 00 	movabs $0x8000000000000000,%rdx
  10c70c:	00 00 80 
  10c70f:	48 31 d0             	xor    %rdx,%rax
  10c712:	48 8b 4d f8          	mov    -0x8(%rbp),%rcx
  10c716:	48 89 c2             	mov    %rax,%rdx
  10c719:	be 64 00 00 00       	mov    $0x64,%esi
  10c71e:	48 89 cf             	mov    %rcx,%rdi
  10c721:	e8 3e fb ff ff       	callq  10c264 <_Z4itoaPhjm>
  10c726:	48 8d 05 f3 b0 00 00 	lea    0xb0f3(%rip),%rax        # 117820 <doubleTo_StringOutput>
  10c72d:	48 89 45 f0          	mov    %rax,-0x10(%rbp)
  10c731:	66 0f ef c0          	pxor   %xmm0,%xmm0
  10c735:	66 0f 2f 45 c8       	comisd -0x38(%rbp),%xmm0
  10c73a:	76 16                	jbe    10c752 <_Z18string_from_doubledh+0xec>
  10c73c:	f2 0f 10 45 c8       	movsd  -0x38(%rbp),%xmm0
  10c741:	f3 0f 7e 0d 17 4e 00 	movq   0x4e17(%rip),%xmm1        # 111560 <_ZL8sc_ascii+0x500>
  10c748:	00 
  10c749:	66 0f 57 c1          	xorpd  %xmm1,%xmm0
  10c74d:	f2 0f 11 45 c8       	movsd  %xmm0,-0x38(%rbp)
  10c752:	48 8b 45 f8          	mov    -0x8(%rbp),%rax
  10c756:	0f b6 00             	movzbl (%rax),%eax
  10c759:	84 c0                	test   %al,%al
  10c75b:	74 19                	je     10c776 <_Z18string_from_doubledh+0x110>
  10c75d:	48 8b 45 f8          	mov    -0x8(%rbp),%rax
  10c761:	0f b6 10             	movzbl (%rax),%edx
  10c764:	48 8b 45 f0          	mov    -0x10(%rbp),%rax
  10c768:	88 10                	mov    %dl,(%rax)
  10c76a:	48 83 45 f8 01       	addq   $0x1,-0x8(%rbp)
  10c76f:	48 83 45 f0 01       	addq   $0x1,-0x10(%rbp)
  10c774:	eb dc                	jmp    10c752 <_Z18string_from_doubledh+0xec>
  10c776:	48 8b 45 f0          	mov    -0x10(%rbp),%rax
  10c77a:	c6 00 2e             	movb   $0x2e,(%rax)
  10c77d:	48 83 45 f0 01       	addq   $0x1,-0x10(%rbp)
  10c782:	f2 0f 10 45 c8       	movsd  -0x38(%rbp),%xmm0
  10c787:	f2 0f 2c c0          	cvttsd2si %xmm0,%eax
  10c78b:	f2 0f 2a c8          	cvtsi2sd %eax,%xmm1
  10c78f:	f2 0f 10 45 c8       	movsd  -0x38(%rbp),%xmm0
  10c794:	f2 0f 5c c1          	subsd  %xmm1,%xmm0
  10c798:	f2 0f 11 45 e8       	movsd  %xmm0,-0x18(%rbp)
  10c79d:	c6 45 e7 00          	movb   $0x0,-0x19(%rbp)
  10c7a1:	0f b6 45 e7          	movzbl -0x19(%rbp),%eax
  10c7a5:	3a 45 c4             	cmp    -0x3c(%rbp),%al
  10c7a8:	73 56                	jae    10c800 <_Z18string_from_doubledh+0x19a>
  10c7aa:	f2 0f 10 4d e8       	movsd  -0x18(%rbp),%xmm1
  10c7af:	f2 0f 10 05 b9 4d 00 	movsd  0x4db9(%rip),%xmm0        # 111570 <_ZL8sc_ascii+0x510>
  10c7b6:	00 
  10c7b7:	f2 0f 59 c1          	mulsd  %xmm1,%xmm0
  10c7bb:	f2 0f 11 45 e8       	movsd  %xmm0,-0x18(%rbp)
  10c7c0:	f2 0f 10 45 e8       	movsd  -0x18(%rbp),%xmm0
  10c7c5:	f2 0f 2c c0          	cvttsd2si %xmm0,%eax
  10c7c9:	83 c0 30             	add    $0x30,%eax
  10c7cc:	89 c2                	mov    %eax,%edx
  10c7ce:	48 8b 45 f0          	mov    -0x10(%rbp),%rax
  10c7d2:	88 10                	mov    %dl,(%rax)
  10c7d4:	f2 0f 10 45 e8       	movsd  -0x18(%rbp),%xmm0
  10c7d9:	f2 0f 2c c0          	cvttsd2si %xmm0,%eax
  10c7dd:	f2 0f 2a c8          	cvtsi2sd %eax,%xmm1
  10c7e1:	f2 0f 10 45 e8       	movsd  -0x18(%rbp),%xmm0
  10c7e6:	f2 0f 5c c1          	subsd  %xmm1,%xmm0
  10c7ea:	f2 0f 11 45 e8       	movsd  %xmm0,-0x18(%rbp)
  10c7ef:	48 83 45 f0 01       	addq   $0x1,-0x10(%rbp)
  10c7f4:	0f b6 45 e7          	movzbl -0x19(%rbp),%eax
  10c7f8:	83 c0 01             	add    $0x1,%eax
  10c7fb:	88 45 e7             	mov    %al,-0x19(%rbp)
  10c7fe:	eb a1                	jmp    10c7a1 <_Z18string_from_doubledh+0x13b>
  10c800:	48 8b 45 f0          	mov    -0x10(%rbp),%rax
  10c804:	c6 00 00             	movb   $0x0,(%rax)
  10c807:	48 8d 05 12 b0 00 00 	lea    0xb012(%rip),%rax        # 117820 <doubleTo_StringOutput>
  10c80e:	c9                   	leaveq 
  10c80f:	c3                   	retq   

000000000010c810 <_Z7kprintfPKcz>:
  10c810:	f3 0f 1e fa          	endbr64 
  10c814:	55                   	push   %rbp
  10c815:	48 89 e5             	mov    %rsp,%rbp
  10c818:	48 81 ec 30 01 00 00 	sub    $0x130,%rsp
  10c81f:	48 89 bd d8 fe ff ff 	mov    %rdi,-0x128(%rbp)
  10c826:	48 89 b5 58 ff ff ff 	mov    %rsi,-0xa8(%rbp)
  10c82d:	48 89 95 60 ff ff ff 	mov    %rdx,-0xa0(%rbp)
  10c834:	48 89 8d 68 ff ff ff 	mov    %rcx,-0x98(%rbp)
  10c83b:	4c 89 85 70 ff ff ff 	mov    %r8,-0x90(%rbp)
  10c842:	4c 89 8d 78 ff ff ff 	mov    %r9,-0x88(%rbp)
  10c849:	84 c0                	test   %al,%al
  10c84b:	74 20                	je     10c86d <_Z7kprintfPKcz+0x5d>
  10c84d:	0f 29 45 80          	movaps %xmm0,-0x80(%rbp)
  10c851:	0f 29 4d 90          	movaps %xmm1,-0x70(%rbp)
  10c855:	0f 29 55 a0          	movaps %xmm2,-0x60(%rbp)
  10c859:	0f 29 5d b0          	movaps %xmm3,-0x50(%rbp)
  10c85d:	0f 29 65 c0          	movaps %xmm4,-0x40(%rbp)
  10c861:	0f 29 6d d0          	movaps %xmm5,-0x30(%rbp)
  10c865:	0f 29 75 e0          	movaps %xmm6,-0x20(%rbp)
  10c869:	0f 29 7d f0          	movaps %xmm7,-0x10(%rbp)
  10c86d:	e8 ba 88 ff ff       	callq  10512c <_ZN7Display13SharedDisplayEv>
  10c872:	48 89 85 40 ff ff ff 	mov    %rax,-0xc0(%rbp)
  10c879:	c7 85 e8 fe ff ff 08 	movl   $0x8,-0x118(%rbp)
  10c880:	00 00 00 
  10c883:	c7 85 ec fe ff ff 30 	movl   $0x30,-0x114(%rbp)
  10c88a:	00 00 00 
  10c88d:	48 8d 45 10          	lea    0x10(%rbp),%rax
  10c891:	48 89 85 f0 fe ff ff 	mov    %rax,-0x110(%rbp)
  10c898:	48 8d 85 50 ff ff ff 	lea    -0xb0(%rbp),%rax
  10c89f:	48 89 85 f8 fe ff ff 	mov    %rax,-0x108(%rbp)
  10c8a6:	48 8b 85 d8 fe ff ff 	mov    -0x128(%rbp),%rax
  10c8ad:	48 89 85 48 ff ff ff 	mov    %rax,-0xb8(%rbp)
  10c8b4:	48 8b 85 48 ff ff ff 	mov    -0xb8(%rbp),%rax
  10c8bb:	0f b6 00             	movzbl (%rax),%eax
  10c8be:	84 c0                	test   %al,%al
  10c8c0:	0f 84 1c 03 00 00    	je     10cbe2 <_Z7kprintfPKcz+0x3d2>
  10c8c6:	48 8b 85 48 ff ff ff 	mov    -0xb8(%rbp),%rax
  10c8cd:	0f b6 00             	movzbl (%rax),%eax
  10c8d0:	3c 25                	cmp    $0x25,%al
  10c8d2:	74 3a                	je     10c90e <_Z7kprintfPKcz+0xfe>
  10c8d4:	48 8b 85 48 ff ff ff 	mov    -0xb8(%rbp),%rax
  10c8db:	0f b6 00             	movzbl (%rax),%eax
  10c8de:	84 c0                	test   %al,%al
  10c8e0:	0f 84 ff 02 00 00    	je     10cbe5 <_Z7kprintfPKcz+0x3d5>
  10c8e6:	48 8b 85 48 ff ff ff 	mov    -0xb8(%rbp),%rax
  10c8ed:	0f b6 00             	movzbl (%rax),%eax
  10c8f0:	0f be d0             	movsbl %al,%edx
  10c8f3:	48 8b 85 40 ff ff ff 	mov    -0xc0(%rbp),%rax
  10c8fa:	89 d6                	mov    %edx,%esi
  10c8fc:	48 89 c7             	mov    %rax,%rdi
  10c8ff:	e8 16 8d ff ff       	callq  10561a <_ZN7Display4putcEc>
  10c904:	48 83 85 48 ff ff ff 	addq   $0x1,-0xb8(%rbp)
  10c90b:	01 
  10c90c:	eb b8                	jmp    10c8c6 <_Z7kprintfPKcz+0xb6>
  10c90e:	48 83 85 48 ff ff ff 	addq   $0x1,-0xb8(%rbp)
  10c915:	01 
  10c916:	48 8b 85 48 ff ff ff 	mov    -0xb8(%rbp),%rax
  10c91d:	0f b6 00             	movzbl (%rax),%eax
  10c920:	0f be c0             	movsbl %al,%eax
  10c923:	83 e8 63             	sub    $0x63,%eax
  10c926:	83 f8 15             	cmp    $0x15,%eax
  10c929:	0f 87 a5 02 00 00    	ja     10cbd4 <_Z7kprintfPKcz+0x3c4>
  10c92f:	89 c0                	mov    %eax,%eax
  10c931:	48 8d 14 85 00 00 00 	lea    0x0(,%rax,4),%rdx
  10c938:	00 
  10c939:	48 8d 05 c0 4b 00 00 	lea    0x4bc0(%rip),%rax        # 111500 <_ZL8sc_ascii+0x4a0>
  10c940:	8b 04 02             	mov    (%rdx,%rax,1),%eax
  10c943:	48 98                	cltq   
  10c945:	48 8d 15 b4 4b 00 00 	lea    0x4bb4(%rip),%rdx        # 111500 <_ZL8sc_ascii+0x4a0>
  10c94c:	48 01 d0             	add    %rdx,%rax
  10c94f:	3e ff e0             	notrack jmpq *%rax
  10c952:	8b 85 e8 fe ff ff    	mov    -0x118(%rbp),%eax
  10c958:	83 f8 2f             	cmp    $0x2f,%eax
  10c95b:	77 23                	ja     10c980 <_Z7kprintfPKcz+0x170>
  10c95d:	48 8b 85 f8 fe ff ff 	mov    -0x108(%rbp),%rax
  10c964:	8b 95 e8 fe ff ff    	mov    -0x118(%rbp),%edx
  10c96a:	89 d2                	mov    %edx,%edx
  10c96c:	48 01 d0             	add    %rdx,%rax
  10c96f:	8b 95 e8 fe ff ff    	mov    -0x118(%rbp),%edx
  10c975:	83 c2 08             	add    $0x8,%edx
  10c978:	89 95 e8 fe ff ff    	mov    %edx,-0x118(%rbp)
  10c97e:	eb 12                	jmp    10c992 <_Z7kprintfPKcz+0x182>
  10c980:	48 8b 85 f0 fe ff ff 	mov    -0x110(%rbp),%rax
  10c987:	48 8d 50 08          	lea    0x8(%rax),%rdx
  10c98b:	48 89 95 f0 fe ff ff 	mov    %rdx,-0x110(%rbp)
  10c992:	48 8b 00             	mov    (%rax),%rax
  10c995:	48 89 85 38 ff ff ff 	mov    %rax,-0xc8(%rbp)
  10c99c:	48 8b 85 38 ff ff ff 	mov    -0xc8(%rbp),%rax
  10c9a3:	0f be d0             	movsbl %al,%edx
  10c9a6:	48 8b 85 40 ff ff ff 	mov    -0xc0(%rbp),%rax
  10c9ad:	89 d6                	mov    %edx,%esi
  10c9af:	48 89 c7             	mov    %rax,%rdi
  10c9b2:	e8 63 8c ff ff       	callq  10561a <_ZN7Display4putcEc>
  10c9b7:	e9 19 02 00 00       	jmpq   10cbd5 <_Z7kprintfPKcz+0x3c5>
  10c9bc:	8b 85 e8 fe ff ff    	mov    -0x118(%rbp),%eax
  10c9c2:	83 f8 2f             	cmp    $0x2f,%eax
  10c9c5:	77 23                	ja     10c9ea <_Z7kprintfPKcz+0x1da>
  10c9c7:	48 8b 85 f8 fe ff ff 	mov    -0x108(%rbp),%rax
  10c9ce:	8b 95 e8 fe ff ff    	mov    -0x118(%rbp),%edx
  10c9d4:	89 d2                	mov    %edx,%edx
  10c9d6:	48 01 d0             	add    %rdx,%rax
  10c9d9:	8b 95 e8 fe ff ff    	mov    -0x118(%rbp),%edx
  10c9df:	83 c2 08             	add    $0x8,%edx
  10c9e2:	89 95 e8 fe ff ff    	mov    %edx,-0x118(%rbp)
  10c9e8:	eb 12                	jmp    10c9fc <_Z7kprintfPKcz+0x1ec>
  10c9ea:	48 8b 85 f0 fe ff ff 	mov    -0x110(%rbp),%rax
  10c9f1:	48 8d 50 08          	lea    0x8(%rax),%rdx
  10c9f5:	48 89 95 f0 fe ff ff 	mov    %rdx,-0x110(%rbp)
  10c9fc:	48 8b 00             	mov    (%rax),%rax
  10c9ff:	48 89 85 30 ff ff ff 	mov    %rax,-0xd0(%rbp)
  10ca06:	48 8b 95 30 ff ff ff 	mov    -0xd0(%rbp),%rdx
  10ca0d:	48 8b 85 40 ff ff ff 	mov    -0xc0(%rbp),%rax
  10ca14:	48 89 d6             	mov    %rdx,%rsi
  10ca17:	48 89 c7             	mov    %rax,%rdi
  10ca1a:	e8 ff 88 ff ff       	callq  10531e <_ZN7Display4putsEPKc>
  10ca1f:	e9 b1 01 00 00       	jmpq   10cbd5 <_Z7kprintfPKcz+0x3c5>
  10ca24:	8b 85 e8 fe ff ff    	mov    -0x118(%rbp),%eax
  10ca2a:	83 f8 2f             	cmp    $0x2f,%eax
  10ca2d:	77 23                	ja     10ca52 <_Z7kprintfPKcz+0x242>
  10ca2f:	48 8b 85 f8 fe ff ff 	mov    -0x108(%rbp),%rax
  10ca36:	8b 95 e8 fe ff ff    	mov    -0x118(%rbp),%edx
  10ca3c:	89 d2                	mov    %edx,%edx
  10ca3e:	48 01 d0             	add    %rdx,%rax
  10ca41:	8b 95 e8 fe ff ff    	mov    -0x118(%rbp),%edx
  10ca47:	83 c2 08             	add    $0x8,%edx
  10ca4a:	89 95 e8 fe ff ff    	mov    %edx,-0x118(%rbp)
  10ca50:	eb 12                	jmp    10ca64 <_Z7kprintfPKcz+0x254>
  10ca52:	48 8b 85 f0 fe ff ff 	mov    -0x110(%rbp),%rax
  10ca59:	48 8d 50 08          	lea    0x8(%rax),%rdx
  10ca5d:	48 89 95 f0 fe ff ff 	mov    %rdx,-0x110(%rbp)
  10ca64:	48 8b 00             	mov    (%rax),%rax
  10ca67:	48 89 85 38 ff ff ff 	mov    %rax,-0xc8(%rbp)
  10ca6e:	48 8d 85 00 ff ff ff 	lea    -0x100(%rbp),%rax
  10ca75:	ba 1e 00 00 00       	mov    $0x1e,%edx
  10ca7a:	be 00 00 00 00       	mov    $0x0,%esi
  10ca7f:	48 89 c7             	mov    %rax,%rdi
  10ca82:	e8 c8 01 00 00       	callq  10cc4f <_Z6memsetPvim>
  10ca87:	48 8b 95 38 ff ff ff 	mov    -0xc8(%rbp),%rdx
  10ca8e:	48 8d 85 00 ff ff ff 	lea    -0x100(%rbp),%rax
  10ca95:	be 64 00 00 00       	mov    $0x64,%esi
  10ca9a:	48 89 c7             	mov    %rax,%rdi
  10ca9d:	e8 c2 f7 ff ff       	callq  10c264 <_Z4itoaPhjm>
  10caa2:	48 8d 95 00 ff ff ff 	lea    -0x100(%rbp),%rdx
  10caa9:	48 8b 85 40 ff ff ff 	mov    -0xc0(%rbp),%rax
  10cab0:	48 89 d6             	mov    %rdx,%rsi
  10cab3:	48 89 c7             	mov    %rax,%rdi
  10cab6:	e8 63 88 ff ff       	callq  10531e <_ZN7Display4putsEPKc>
  10cabb:	e9 15 01 00 00       	jmpq   10cbd5 <_Z7kprintfPKcz+0x3c5>
  10cac0:	8b 85 e8 fe ff ff    	mov    -0x118(%rbp),%eax
  10cac6:	83 f8 2f             	cmp    $0x2f,%eax
  10cac9:	77 23                	ja     10caee <_Z7kprintfPKcz+0x2de>
  10cacb:	48 8b 85 f8 fe ff ff 	mov    -0x108(%rbp),%rax
  10cad2:	8b 95 e8 fe ff ff    	mov    -0x118(%rbp),%edx
  10cad8:	89 d2                	mov    %edx,%edx
  10cada:	48 01 d0             	add    %rdx,%rax
  10cadd:	8b 95 e8 fe ff ff    	mov    -0x118(%rbp),%edx
  10cae3:	83 c2 08             	add    $0x8,%edx
  10cae6:	89 95 e8 fe ff ff    	mov    %edx,-0x118(%rbp)
  10caec:	eb 12                	jmp    10cb00 <_Z7kprintfPKcz+0x2f0>
  10caee:	48 8b 85 f0 fe ff ff 	mov    -0x110(%rbp),%rax
  10caf5:	48 8d 50 08          	lea    0x8(%rax),%rdx
  10caf9:	48 89 95 f0 fe ff ff 	mov    %rdx,-0x110(%rbp)
  10cb00:	48 8b 00             	mov    (%rax),%rax
  10cb03:	48 89 85 38 ff ff ff 	mov    %rax,-0xc8(%rbp)
  10cb0a:	48 8d 85 00 ff ff ff 	lea    -0x100(%rbp),%rax
  10cb11:	ba 1e 00 00 00       	mov    $0x1e,%edx
  10cb16:	be 00 00 00 00       	mov    $0x0,%esi
  10cb1b:	48 89 c7             	mov    %rax,%rdi
  10cb1e:	e8 2c 01 00 00       	callq  10cc4f <_Z6memsetPvim>
  10cb23:	48 8b 95 38 ff ff ff 	mov    -0xc8(%rbp),%rdx
  10cb2a:	48 8d 85 00 ff ff ff 	lea    -0x100(%rbp),%rax
  10cb31:	be 78 00 00 00       	mov    $0x78,%esi
  10cb36:	48 89 c7             	mov    %rax,%rdi
  10cb39:	e8 26 f7 ff ff       	callq  10c264 <_Z4itoaPhjm>
  10cb3e:	48 8d 95 00 ff ff ff 	lea    -0x100(%rbp),%rdx
  10cb45:	48 8b 85 40 ff ff ff 	mov    -0xc0(%rbp),%rax
  10cb4c:	48 89 d6             	mov    %rdx,%rsi
  10cb4f:	48 89 c7             	mov    %rax,%rdi
  10cb52:	e8 c7 87 ff ff       	callq  10531e <_ZN7Display4putsEPKc>
  10cb57:	eb 7c                	jmp    10cbd5 <_Z7kprintfPKcz+0x3c5>
  10cb59:	8b 85 ec fe ff ff    	mov    -0x114(%rbp),%eax
  10cb5f:	3d af 00 00 00       	cmp    $0xaf,%eax
  10cb64:	77 23                	ja     10cb89 <_Z7kprintfPKcz+0x379>
  10cb66:	48 8b 85 f8 fe ff ff 	mov    -0x108(%rbp),%rax
  10cb6d:	8b 95 ec fe ff ff    	mov    -0x114(%rbp),%edx
  10cb73:	89 d2                	mov    %edx,%edx
  10cb75:	48 01 d0             	add    %rdx,%rax
  10cb78:	8b 95 ec fe ff ff    	mov    -0x114(%rbp),%edx
  10cb7e:	83 c2 10             	add    $0x10,%edx
  10cb81:	89 95 ec fe ff ff    	mov    %edx,-0x114(%rbp)
  10cb87:	eb 12                	jmp    10cb9b <_Z7kprintfPKcz+0x38b>
  10cb89:	48 8b 85 f0 fe ff ff 	mov    -0x110(%rbp),%rax
  10cb90:	48 8d 50 08          	lea    0x8(%rax),%rdx
  10cb94:	48 89 95 f0 fe ff ff 	mov    %rdx,-0x110(%rbp)
  10cb9b:	f2 0f 10 00          	movsd  (%rax),%xmm0
  10cb9f:	f2 0f 11 85 28 ff ff 	movsd  %xmm0,-0xd8(%rbp)
  10cba6:	ff 
  10cba7:	48 8b 85 28 ff ff ff 	mov    -0xd8(%rbp),%rax
  10cbae:	bf 08 00 00 00       	mov    $0x8,%edi
  10cbb3:	66 48 0f 6e c0       	movq   %rax,%xmm0
  10cbb8:	e8 a9 fa ff ff       	callq  10c666 <_Z18string_from_doubledh>
  10cbbd:	48 89 c2             	mov    %rax,%rdx
  10cbc0:	48 8b 85 40 ff ff ff 	mov    -0xc0(%rbp),%rax
  10cbc7:	48 89 d6             	mov    %rdx,%rsi
  10cbca:	48 89 c7             	mov    %rax,%rdi
  10cbcd:	e8 4c 87 ff ff       	callq  10531e <_ZN7Display4putsEPKc>
  10cbd2:	eb 01                	jmp    10cbd5 <_Z7kprintfPKcz+0x3c5>
  10cbd4:	90                   	nop
  10cbd5:	48 83 85 48 ff ff ff 	addq   $0x1,-0xb8(%rbp)
  10cbdc:	01 
  10cbdd:	e9 d2 fc ff ff       	jmpq   10c8b4 <_Z7kprintfPKcz+0xa4>
  10cbe2:	90                   	nop
  10cbe3:	eb 01                	jmp    10cbe6 <_Z7kprintfPKcz+0x3d6>
  10cbe5:	90                   	nop
  10cbe6:	90                   	nop
  10cbe7:	c9                   	leaveq 
  10cbe8:	c3                   	retq   

000000000010cbe9 <_Z17kprintf_backspacev>:
  10cbe9:	f3 0f 1e fa          	endbr64 
  10cbed:	55                   	push   %rbp
  10cbee:	48 89 e5             	mov    %rsp,%rbp
  10cbf1:	48 83 ec 10          	sub    $0x10,%rsp
  10cbf5:	e8 32 85 ff ff       	callq  10512c <_ZN7Display13SharedDisplayEv>
  10cbfa:	48 89 45 f8          	mov    %rax,-0x8(%rbp)
  10cbfe:	48 8b 45 f8          	mov    -0x8(%rbp),%rax
  10cc02:	48 89 c7             	mov    %rax,%rdi
  10cc05:	e8 f0 86 ff ff       	callq  1052fa <_ZN7Display13put_backspaceEv>
  10cc0a:	90                   	nop
  10cc0b:	c9                   	leaveq 
  10cc0c:	c3                   	retq   

000000000010cc0d <_Z6memcpyPvPKvm>:
  10cc0d:	f3 0f 1e fa          	endbr64 
  10cc11:	55                   	push   %rbp
  10cc12:	48 89 e5             	mov    %rsp,%rbp
  10cc15:	48 83 ec 20          	sub    $0x20,%rsp
  10cc19:	48 89 7d f8          	mov    %rdi,-0x8(%rbp)
  10cc1d:	48 89 75 f0          	mov    %rsi,-0x10(%rbp)
  10cc21:	48 89 55 e8          	mov    %rdx,-0x18(%rbp)
  10cc25:	48 83 7d e8 00       	cmpq   $0x0,-0x18(%rbp)
  10cc2a:	75 06                	jne    10cc32 <_Z6memcpyPvPKvm+0x25>
  10cc2c:	48 8b 45 f8          	mov    -0x8(%rbp),%rax
  10cc30:	eb 1b                	jmp    10cc4d <_Z6memcpyPvPKvm+0x40>
  10cc32:	48 8b 55 e8          	mov    -0x18(%rbp),%rdx
  10cc36:	48 8b 4d f0          	mov    -0x10(%rbp),%rcx
  10cc3a:	48 8b 45 f8          	mov    -0x8(%rbp),%rax
  10cc3e:	48 89 ce             	mov    %rcx,%rsi
  10cc41:	48 89 c7             	mov    %rax,%rdi
  10cc44:	e8 b0 11 00 00       	callq  10ddf9 <__memcpy>
  10cc49:	48 8b 45 f8          	mov    -0x8(%rbp),%rax
  10cc4d:	c9                   	leaveq 
  10cc4e:	c3                   	retq   

000000000010cc4f <_Z6memsetPvim>:
  10cc4f:	f3 0f 1e fa          	endbr64 
  10cc53:	55                   	push   %rbp
  10cc54:	48 89 e5             	mov    %rsp,%rbp
  10cc57:	48 83 ec 20          	sub    $0x20,%rsp
  10cc5b:	48 89 7d f8          	mov    %rdi,-0x8(%rbp)
  10cc5f:	89 75 f4             	mov    %esi,-0xc(%rbp)
  10cc62:	48 89 55 e8          	mov    %rdx,-0x18(%rbp)
  10cc66:	48 83 7d e8 00       	cmpq   $0x0,-0x18(%rbp)
  10cc6b:	75 06                	jne    10cc73 <_Z6memsetPvim+0x24>
  10cc6d:	48 8b 45 f8          	mov    -0x8(%rbp),%rax
  10cc71:	eb 19                	jmp    10cc8c <_Z6memsetPvim+0x3d>
  10cc73:	48 8b 55 e8          	mov    -0x18(%rbp),%rdx
  10cc77:	8b 4d f4             	mov    -0xc(%rbp),%ecx
  10cc7a:	48 8b 45 f8          	mov    -0x8(%rbp),%rax
  10cc7e:	89 ce                	mov    %ecx,%esi
  10cc80:	48 89 c7             	mov    %rax,%rdi
  10cc83:	e8 68 11 00 00       	callq  10ddf0 <__memset>
  10cc88:	48 8b 45 f8          	mov    -0x8(%rbp),%rax
  10cc8c:	c9                   	leaveq 
  10cc8d:	c3                   	retq   

000000000010cc8e <_Z6memcmpPvS_m>:
  10cc8e:	f3 0f 1e fa          	endbr64 
  10cc92:	55                   	push   %rbp
  10cc93:	48 89 e5             	mov    %rsp,%rbp
  10cc96:	48 83 ec 20          	sub    $0x20,%rsp
  10cc9a:	48 89 7d f8          	mov    %rdi,-0x8(%rbp)
  10cc9e:	48 89 75 f0          	mov    %rsi,-0x10(%rbp)
  10cca2:	48 89 55 e8          	mov    %rdx,-0x18(%rbp)
  10cca6:	48 83 7d e8 00       	cmpq   $0x0,-0x18(%rbp)
  10ccab:	75 07                	jne    10ccb4 <_Z6memcmpPvS_m+0x26>
  10ccad:	b8 ff ff ff ff       	mov    $0xffffffff,%eax
  10ccb2:	eb 1f                	jmp    10ccd3 <_Z6memcmpPvS_m+0x45>
  10ccb4:	48 8b 55 e8          	mov    -0x18(%rbp),%rdx
  10ccb8:	48 8b 4d f0          	mov    -0x10(%rbp),%rcx
  10ccbc:	48 8b 45 f8          	mov    -0x8(%rbp),%rax
  10ccc0:	48 89 ce             	mov    %rcx,%rsi
  10ccc3:	48 89 c7             	mov    %rax,%rdi
  10ccc6:	e8 34 11 00 00       	callq  10ddff <__memcmp>
  10cccb:	85 c0                	test   %eax,%eax
  10cccd:	0f 94 c0             	sete   %al
  10ccd0:	0f b6 c0             	movzbl %al,%eax
  10ccd3:	c9                   	leaveq 
  10ccd4:	c3                   	retq   

000000000010ccd5 <_Z11kmalloc_intmiPm>:
  10ccd5:	f3 0f 1e fa          	endbr64 
  10ccd9:	55                   	push   %rbp
  10ccda:	48 89 e5             	mov    %rsp,%rbp
  10ccdd:	48 83 ec 40          	sub    $0x40,%rsp
  10cce1:	48 89 7d d8          	mov    %rdi,-0x28(%rbp)
  10cce5:	89 75 d4             	mov    %esi,-0x2c(%rbp)
  10cce8:	48 89 55 c8          	mov    %rdx,-0x38(%rbp)
  10ccec:	0f b6 05 25 ac 00 00 	movzbl 0xac25(%rip),%eax        # 117918 <heap_init>
  10ccf3:	84 c0                	test   %al,%al
  10ccf5:	75 79                	jne    10cd70 <_Z11kmalloc_intmiPm+0x9b>
  10ccf7:	83 7d d4 01          	cmpl   $0x1,-0x2c(%rbp)
  10ccfb:	75 38                	jne    10cd35 <_Z11kmalloc_intmiPm+0x60>
  10ccfd:	48 8b 05 8c 27 00 00 	mov    0x278c(%rip),%rax        # 10f490 <free_mem_addr>
  10cd04:	25 ff 0f 00 00       	and    $0xfff,%eax
  10cd09:	48 85 c0             	test   %rax,%rax
  10cd0c:	74 27                	je     10cd35 <_Z11kmalloc_intmiPm+0x60>
  10cd0e:	48 8b 05 7b 27 00 00 	mov    0x277b(%rip),%rax        # 10f490 <free_mem_addr>
  10cd15:	25 00 f0 ff ff       	and    $0xfffff000,%eax
  10cd1a:	48 89 05 6f 27 00 00 	mov    %rax,0x276f(%rip)        # 10f490 <free_mem_addr>
  10cd21:	48 8b 05 68 27 00 00 	mov    0x2768(%rip),%rax        # 10f490 <free_mem_addr>
  10cd28:	48 05 00 10 00 00    	add    $0x1000,%rax
  10cd2e:	48 89 05 5b 27 00 00 	mov    %rax,0x275b(%rip)        # 10f490 <free_mem_addr>
  10cd35:	48 83 7d c8 00       	cmpq   $0x0,-0x38(%rbp)
  10cd3a:	74 0e                	je     10cd4a <_Z11kmalloc_intmiPm+0x75>
  10cd3c:	48 8b 15 4d 27 00 00 	mov    0x274d(%rip),%rdx        # 10f490 <free_mem_addr>
  10cd43:	48 8b 45 c8          	mov    -0x38(%rbp),%rax
  10cd47:	48 89 10             	mov    %rdx,(%rax)
  10cd4a:	48 8b 05 3f 27 00 00 	mov    0x273f(%rip),%rax        # 10f490 <free_mem_addr>
  10cd51:	48 89 45 e8          	mov    %rax,-0x18(%rbp)
  10cd55:	48 8b 15 34 27 00 00 	mov    0x2734(%rip),%rdx        # 10f490 <free_mem_addr>
  10cd5c:	48 8b 45 d8          	mov    -0x28(%rbp),%rax
  10cd60:	48 01 d0             	add    %rdx,%rax
  10cd63:	48 89 05 26 27 00 00 	mov    %rax,0x2726(%rip)        # 10f490 <free_mem_addr>
  10cd6a:	48 8b 45 e8          	mov    -0x18(%rbp),%rax
  10cd6e:	eb 4c                	jmp    10cdbc <_Z11kmalloc_intmiPm+0xe7>
  10cd70:	48 8b 45 d8          	mov    -0x28(%rbp),%rax
  10cd74:	48 89 c7             	mov    %rax,%rdi
  10cd77:	e8 36 68 ff ff       	callq  1035b2 <_Z5allocm>
  10cd7c:	48 89 45 f8          	mov    %rax,-0x8(%rbp)
  10cd80:	48 83 7d c8 00       	cmpq   $0x0,-0x38(%rbp)
  10cd85:	74 31                	je     10cdb8 <_Z11kmalloc_intmiPm+0xe3>
  10cd87:	48 8b 45 f8          	mov    -0x8(%rbp),%rax
  10cd8b:	48 89 c6             	mov    %rax,%rsi
  10cd8e:	48 8d 3d b3 82 00 00 	lea    0x82b3(%rip),%rdi        # 115048 <KernelDirectory>
  10cd95:	e8 ee 35 ff ff       	callq  100388 <_ZN16PageTableManager15PhysicalAddressEm>
  10cd9a:	48 89 45 f0          	mov    %rax,-0x10(%rbp)
  10cd9e:	48 8b 45 f8          	mov    -0x8(%rbp),%rax
  10cda2:	25 ff 0f 00 00       	and    $0xfff,%eax
  10cda7:	48 89 c2             	mov    %rax,%rdx
  10cdaa:	48 8b 45 f0          	mov    -0x10(%rbp),%rax
  10cdae:	48 01 c2             	add    %rax,%rdx
  10cdb1:	48 8b 45 c8          	mov    -0x38(%rbp),%rax
  10cdb5:	48 89 10             	mov    %rdx,(%rax)
  10cdb8:	48 8b 45 f8          	mov    -0x8(%rbp),%rax
  10cdbc:	c9                   	leaveq 
  10cdbd:	c3                   	retq   

000000000010cdbe <_Z5kfreePv>:
  10cdbe:	f3 0f 1e fa          	endbr64 
  10cdc2:	55                   	push   %rbp
  10cdc3:	48 89 e5             	mov    %rsp,%rbp
  10cdc6:	48 83 ec 10          	sub    $0x10,%rsp
  10cdca:	48 89 7d f8          	mov    %rdi,-0x8(%rbp)
  10cdce:	0f b6 05 43 ab 00 00 	movzbl 0xab43(%rip),%eax        # 117918 <heap_init>
  10cdd5:	3c 01                	cmp    $0x1,%al
  10cdd7:	75 0c                	jne    10cde5 <_Z5kfreePv+0x27>
  10cdd9:	48 8b 45 f8          	mov    -0x8(%rbp),%rax
  10cddd:	48 89 c7             	mov    %rax,%rdi
  10cde0:	e8 a3 68 ff ff       	callq  103688 <_Z4freePv>
  10cde5:	90                   	nop
  10cde6:	c9                   	leaveq 
  10cde7:	c3                   	retq   

000000000010cde8 <_Z9kmalloc_am>:
  10cde8:	f3 0f 1e fa          	endbr64 
  10cdec:	55                   	push   %rbp
  10cded:	48 89 e5             	mov    %rsp,%rbp
  10cdf0:	48 83 ec 10          	sub    $0x10,%rsp
  10cdf4:	48 89 7d f8          	mov    %rdi,-0x8(%rbp)
  10cdf8:	48 8b 45 f8          	mov    -0x8(%rbp),%rax
  10cdfc:	ba 00 00 00 00       	mov    $0x0,%edx
  10ce01:	be 01 00 00 00       	mov    $0x1,%esi
  10ce06:	48 89 c7             	mov    %rax,%rdi
  10ce09:	e8 c7 fe ff ff       	callq  10ccd5 <_Z11kmalloc_intmiPm>
  10ce0e:	c9                   	leaveq 
  10ce0f:	c3                   	retq   

000000000010ce10 <_Z9kmalloc_pmPm>:
  10ce10:	f3 0f 1e fa          	endbr64 
  10ce14:	55                   	push   %rbp
  10ce15:	48 89 e5             	mov    %rsp,%rbp
  10ce18:	48 83 ec 10          	sub    $0x10,%rsp
  10ce1c:	48 89 7d f8          	mov    %rdi,-0x8(%rbp)
  10ce20:	48 89 75 f0          	mov    %rsi,-0x10(%rbp)
  10ce24:	48 8b 55 f0          	mov    -0x10(%rbp),%rdx
  10ce28:	48 8b 45 f8          	mov    -0x8(%rbp),%rax
  10ce2c:	be 00 00 00 00       	mov    $0x0,%esi
  10ce31:	48 89 c7             	mov    %rax,%rdi
  10ce34:	e8 9c fe ff ff       	callq  10ccd5 <_Z11kmalloc_intmiPm>
  10ce39:	c9                   	leaveq 
  10ce3a:	c3                   	retq   

000000000010ce3b <_Z10kmalloc_apmPm>:
  10ce3b:	f3 0f 1e fa          	endbr64 
  10ce3f:	55                   	push   %rbp
  10ce40:	48 89 e5             	mov    %rsp,%rbp
  10ce43:	48 83 ec 10          	sub    $0x10,%rsp
  10ce47:	48 89 7d f8          	mov    %rdi,-0x8(%rbp)
  10ce4b:	48 89 75 f0          	mov    %rsi,-0x10(%rbp)
  10ce4f:	48 8b 55 f0          	mov    -0x10(%rbp),%rdx
  10ce53:	48 8b 45 f8          	mov    -0x8(%rbp),%rax
  10ce57:	be 01 00 00 00       	mov    $0x1,%esi
  10ce5c:	48 89 c7             	mov    %rax,%rdi
  10ce5f:	e8 71 fe ff ff       	callq  10ccd5 <_Z11kmalloc_intmiPm>
  10ce64:	c9                   	leaveq 
  10ce65:	c3                   	retq   

000000000010ce66 <_Z7kmallocm>:
  10ce66:	f3 0f 1e fa          	endbr64 
  10ce6a:	55                   	push   %rbp
  10ce6b:	48 89 e5             	mov    %rsp,%rbp
  10ce6e:	48 83 ec 10          	sub    $0x10,%rsp
  10ce72:	48 89 7d f8          	mov    %rdi,-0x8(%rbp)
  10ce76:	48 8b 45 f8          	mov    -0x8(%rbp),%rax
  10ce7a:	ba 00 00 00 00       	mov    $0x0,%edx
  10ce7f:	be 00 00 00 00       	mov    $0x0,%esi
  10ce84:	48 89 c7             	mov    %rax,%rdi
  10ce87:	e8 49 fe ff ff       	callq  10ccd5 <_Z11kmalloc_intmiPm>
  10ce8c:	c9                   	leaveq 
  10ce8d:	c3                   	retq   

000000000010ce8e <_Z14InitialiseRSDPP10KernelInfo>:
  10ce8e:	f3 0f 1e fa          	endbr64 
  10ce92:	55                   	push   %rbp
  10ce93:	48 89 e5             	mov    %rsp,%rbp
  10ce96:	48 81 ec c0 03 00 00 	sub    $0x3c0,%rsp
  10ce9d:	48 89 bd 48 fc ff ff 	mov    %rdi,-0x3b8(%rbp)
  10cea4:	48 8b 85 48 fc ff ff 	mov    -0x3b8(%rbp),%rax
  10ceab:	48 8b 40 30          	mov    0x30(%rax),%rax
  10ceaf:	48 89 45 d8          	mov    %rax,-0x28(%rbp)
  10ceb3:	48 8b 45 d8          	mov    -0x28(%rbp),%rax
  10ceb7:	48 89 c7             	mov    %rax,%rdi
  10ceba:	e8 bd 77 ff ff       	callq  10467c <_ZN4ACPI4RSDP8is_validEv>
  10cebf:	83 f0 01             	xor    $0x1,%eax
  10cec2:	84 c0                	test   %al,%al
  10cec4:	74 14                	je     10ceda <_Z14InitialiseRSDPP10KernelInfo+0x4c>
  10cec6:	48 8d 3d ab 46 00 00 	lea    0x46ab(%rip),%rdi        # 111578 <_ZL8sc_ascii+0x518>
  10cecd:	b8 00 00 00 00       	mov    $0x0,%eax
  10ced2:	e8 39 f9 ff ff       	callq  10c810 <_Z7kprintfPKcz>
  10ced7:	f4                   	hlt    
  10ced8:	eb fd                	jmp    10ced7 <_Z14InitialiseRSDPP10KernelInfo+0x49>
  10ceda:	48 8d 3d af 46 00 00 	lea    0x46af(%rip),%rdi        # 111590 <_ZL8sc_ascii+0x530>
  10cee1:	b8 00 00 00 00       	mov    $0x0,%eax
  10cee6:	e8 25 f9 ff ff       	callq  10c810 <_Z7kprintfPKcz>
  10ceeb:	48 8b 45 d8          	mov    -0x28(%rbp),%rax
  10ceef:	48 89 c6             	mov    %rax,%rsi
  10cef2:	48 8d 3d ab 46 00 00 	lea    0x46ab(%rip),%rdi        # 1115a4 <_ZL8sc_ascii+0x544>
  10cef9:	b8 00 00 00 00       	mov    $0x0,%eax
  10cefe:	e8 0d f9 ff ff       	callq  10c810 <_Z7kprintfPKcz>
  10cf03:	48 8d 3d ab 46 00 00 	lea    0x46ab(%rip),%rdi        # 1115b5 <_ZL8sc_ascii+0x555>
  10cf0a:	b8 00 00 00 00       	mov    $0x0,%eax
  10cf0f:	e8 fc f8 ff ff       	callq  10c810 <_Z7kprintfPKcz>
  10cf14:	48 c7 45 f8 00 00 00 	movq   $0x0,-0x8(%rbp)
  10cf1b:	00 
  10cf1c:	48 83 7d f8 07       	cmpq   $0x7,-0x8(%rbp)
  10cf21:	77 2b                	ja     10cf4e <_Z14InitialiseRSDPP10KernelInfo+0xc0>
  10cf23:	48 8b 55 d8          	mov    -0x28(%rbp),%rdx
  10cf27:	48 8b 45 f8          	mov    -0x8(%rbp),%rax
  10cf2b:	48 01 d0             	add    %rdx,%rax
  10cf2e:	0f b6 00             	movzbl (%rax),%eax
  10cf31:	0f be c0             	movsbl %al,%eax
  10cf34:	89 c6                	mov    %eax,%esi
  10cf36:	48 8d 3d 85 46 00 00 	lea    0x4685(%rip),%rdi        # 1115c2 <_ZL8sc_ascii+0x562>
  10cf3d:	b8 00 00 00 00       	mov    $0x0,%eax
  10cf42:	e8 c9 f8 ff ff       	callq  10c810 <_Z7kprintfPKcz>
  10cf47:	48 83 45 f8 01       	addq   $0x1,-0x8(%rbp)
  10cf4c:	eb ce                	jmp    10cf1c <_Z14InitialiseRSDPP10KernelInfo+0x8e>
  10cf4e:	48 8d 3d 70 46 00 00 	lea    0x4670(%rip),%rdi        # 1115c5 <_ZL8sc_ascii+0x565>
  10cf55:	b8 00 00 00 00       	mov    $0x0,%eax
  10cf5a:	e8 b1 f8 ff ff       	callq  10c810 <_Z7kprintfPKcz>
  10cf5f:	48 8b 45 d8          	mov    -0x28(%rbp),%rax
  10cf63:	0f b6 40 08          	movzbl 0x8(%rax),%eax
  10cf67:	0f b6 c0             	movzbl %al,%eax
  10cf6a:	89 c6                	mov    %eax,%esi
  10cf6c:	48 8d 3d 54 46 00 00 	lea    0x4654(%rip),%rdi        # 1115c7 <_ZL8sc_ascii+0x567>
  10cf73:	b8 00 00 00 00       	mov    $0x0,%eax
  10cf78:	e8 93 f8 ff ff       	callq  10c810 <_Z7kprintfPKcz>
  10cf7d:	48 8d 3d 52 46 00 00 	lea    0x4652(%rip),%rdi        # 1115d6 <_ZL8sc_ascii+0x576>
  10cf84:	b8 00 00 00 00       	mov    $0x0,%eax
  10cf89:	e8 82 f8 ff ff       	callq  10c810 <_Z7kprintfPKcz>
  10cf8e:	48 c7 45 f0 00 00 00 	movq   $0x0,-0x10(%rbp)
  10cf95:	00 
  10cf96:	48 83 7d f0 05       	cmpq   $0x5,-0x10(%rbp)
  10cf9b:	77 2f                	ja     10cfcc <_Z14InitialiseRSDPP10KernelInfo+0x13e>
  10cf9d:	48 8b 55 d8          	mov    -0x28(%rbp),%rdx
  10cfa1:	48 8b 45 f0          	mov    -0x10(%rbp),%rax
  10cfa5:	48 01 d0             	add    %rdx,%rax
  10cfa8:	48 83 c0 09          	add    $0x9,%rax
  10cfac:	0f b6 00             	movzbl (%rax),%eax
  10cfaf:	0f be c0             	movsbl %al,%eax
  10cfb2:	89 c6                	mov    %eax,%esi
  10cfb4:	48 8d 3d 07 46 00 00 	lea    0x4607(%rip),%rdi        # 1115c2 <_ZL8sc_ascii+0x562>
  10cfbb:	b8 00 00 00 00       	mov    $0x0,%eax
  10cfc0:	e8 4b f8 ff ff       	callq  10c810 <_Z7kprintfPKcz>
  10cfc5:	48 83 45 f0 01       	addq   $0x1,-0x10(%rbp)
  10cfca:	eb ca                	jmp    10cf96 <_Z14InitialiseRSDPP10KernelInfo+0x108>
  10cfcc:	48 8d 3d f2 45 00 00 	lea    0x45f2(%rip),%rdi        # 1115c5 <_ZL8sc_ascii+0x565>
  10cfd3:	b8 00 00 00 00       	mov    $0x0,%eax
  10cfd8:	e8 33 f8 ff ff       	callq  10c810 <_Z7kprintfPKcz>
  10cfdd:	48 8b 45 d8          	mov    -0x28(%rbp),%rax
  10cfe1:	0f b6 40 0f          	movzbl 0xf(%rax),%eax
  10cfe5:	0f b6 c0             	movzbl %al,%eax
  10cfe8:	89 c6                	mov    %eax,%esi
  10cfea:	48 8d 3d ee 45 00 00 	lea    0x45ee(%rip),%rdi        # 1115df <_ZL8sc_ascii+0x57f>
  10cff1:	b8 00 00 00 00       	mov    $0x0,%eax
  10cff6:	e8 15 f8 ff ff       	callq  10c810 <_Z7kprintfPKcz>
  10cffb:	48 8b 45 d8          	mov    -0x28(%rbp),%rax
  10cfff:	8b 40 10             	mov    0x10(%rax),%eax
  10d002:	89 c6                	mov    %eax,%esi
  10d004:	48 8d 3d e3 45 00 00 	lea    0x45e3(%rip),%rdi        # 1115ee <_ZL8sc_ascii+0x58e>
  10d00b:	b8 00 00 00 00       	mov    $0x0,%eax
  10d010:	e8 fb f7 ff ff       	callq  10c810 <_Z7kprintfPKcz>
  10d015:	48 8b 45 d8          	mov    -0x28(%rbp),%rax
  10d019:	8b 40 14             	mov    0x14(%rax),%eax
  10d01c:	89 c6                	mov    %eax,%esi
  10d01e:	48 8d 3d de 45 00 00 	lea    0x45de(%rip),%rdi        # 111603 <_ZL8sc_ascii+0x5a3>
  10d025:	b8 00 00 00 00       	mov    $0x0,%eax
  10d02a:	e8 e1 f7 ff ff       	callq  10c810 <_Z7kprintfPKcz>
  10d02f:	48 8b 45 d8          	mov    -0x28(%rbp),%rax
  10d033:	48 8b 40 18          	mov    0x18(%rax),%rax
  10d037:	48 89 c6             	mov    %rax,%rsi
  10d03a:	48 8d 3d cf 45 00 00 	lea    0x45cf(%rip),%rdi        # 111610 <_ZL8sc_ascii+0x5b0>
  10d041:	b8 00 00 00 00       	mov    $0x0,%eax
  10d046:	e8 c5 f7 ff ff       	callq  10c810 <_Z7kprintfPKcz>
  10d04b:	48 8b 45 d8          	mov    -0x28(%rbp),%rax
  10d04f:	0f b6 40 20          	movzbl 0x20(%rax),%eax
  10d053:	0f b6 c0             	movzbl %al,%eax
  10d056:	89 c6                	mov    %eax,%esi
  10d058:	48 8d 3d c6 45 00 00 	lea    0x45c6(%rip),%rdi        # 111625 <_ZL8sc_ascii+0x5c5>
  10d05f:	b8 00 00 00 00       	mov    $0x0,%eax
  10d064:	e8 a7 f7 ff ff       	callq  10c810 <_Z7kprintfPKcz>
  10d069:	48 8b 45 d8          	mov    -0x28(%rbp),%rax
  10d06d:	48 89 c7             	mov    %rax,%rdi
  10d070:	e8 c9 75 ff ff       	callq  10463e <_ZN4ACPI4RSDP18GetRootSystemTableEv>
  10d075:	48 89 45 d0          	mov    %rax,-0x30(%rbp)
  10d079:	48 8b 45 d8          	mov    -0x28(%rbp),%rax
  10d07d:	48 89 c7             	mov    %rax,%rdi
  10d080:	e8 65 76 ff ff       	callq  1046ea <_ZN4ACPI4RSDP13GetTableCountEv>
  10d085:	48 89 45 c8          	mov    %rax,-0x38(%rbp)
  10d089:	48 8b 45 c8          	mov    -0x38(%rbp),%rax
  10d08d:	48 89 c6             	mov    %rax,%rsi
  10d090:	48 8d 3d a7 45 00 00 	lea    0x45a7(%rip),%rdi        # 11163e <_ZL8sc_ascii+0x5de>
  10d097:	b8 00 00 00 00       	mov    $0x0,%eax
  10d09c:	e8 6f f7 ff ff       	callq  10c810 <_Z7kprintfPKcz>
  10d0a1:	48 8d 3d a1 45 00 00 	lea    0x45a1(%rip),%rdi        # 111649 <_ZL8sc_ascii+0x5e9>
  10d0a8:	b8 00 00 00 00       	mov    $0x0,%eax
  10d0ad:	e8 5e f7 ff ff       	callq  10c810 <_Z7kprintfPKcz>
  10d0b2:	48 c7 45 e8 00 00 00 	movq   $0x0,-0x18(%rbp)
  10d0b9:	00 
  10d0ba:	48 8b 45 e8          	mov    -0x18(%rbp),%rax
  10d0be:	48 3b 45 c8          	cmp    -0x38(%rbp),%rax
  10d0c2:	73 65                	jae    10d129 <_Z14InitialiseRSDPP10KernelInfo+0x29b>
  10d0c4:	48 8b 55 e8          	mov    -0x18(%rbp),%rdx
  10d0c8:	48 8b 45 d8          	mov    -0x28(%rbp),%rax
  10d0cc:	48 89 d6             	mov    %rdx,%rsi
  10d0cf:	48 89 c7             	mov    %rax,%rdi
  10d0d2:	e8 67 76 ff ff       	callq  10473e <_ZN4ACPI4RSDP3GetEm>
  10d0d7:	48 89 45 c0          	mov    %rax,-0x40(%rbp)
  10d0db:	c7 45 e4 00 00 00 00 	movl   $0x0,-0x1c(%rbp)
  10d0e2:	83 7d e4 03          	cmpl   $0x3,-0x1c(%rbp)
  10d0e6:	7f 29                	jg     10d111 <_Z14InitialiseRSDPP10KernelInfo+0x283>
  10d0e8:	48 8b 55 c0          	mov    -0x40(%rbp),%rdx
  10d0ec:	8b 45 e4             	mov    -0x1c(%rbp),%eax
  10d0ef:	48 98                	cltq   
  10d0f1:	0f b6 04 02          	movzbl (%rdx,%rax,1),%eax
  10d0f5:	0f be c0             	movsbl %al,%eax
  10d0f8:	89 c6                	mov    %eax,%esi
  10d0fa:	48 8d 3d c1 44 00 00 	lea    0x44c1(%rip),%rdi        # 1115c2 <_ZL8sc_ascii+0x562>
  10d101:	b8 00 00 00 00       	mov    $0x0,%eax
  10d106:	e8 05 f7 ff ff       	callq  10c810 <_Z7kprintfPKcz>
  10d10b:	83 45 e4 01          	addl   $0x1,-0x1c(%rbp)
  10d10f:	eb d1                	jmp    10d0e2 <_Z14InitialiseRSDPP10KernelInfo+0x254>
  10d111:	48 8d 3d 41 45 00 00 	lea    0x4541(%rip),%rdi        # 111659 <_ZL8sc_ascii+0x5f9>
  10d118:	b8 00 00 00 00       	mov    $0x0,%eax
  10d11d:	e8 ee f6 ff ff       	callq  10c810 <_Z7kprintfPKcz>
  10d122:	48 83 45 e8 01       	addq   $0x1,-0x18(%rbp)
  10d127:	eb 91                	jmp    10d0ba <_Z14InitialiseRSDPP10KernelInfo+0x22c>
  10d129:	48 8d 3d 2b 45 00 00 	lea    0x452b(%rip),%rdi        # 11165b <_ZL8sc_ascii+0x5fb>
  10d130:	b8 00 00 00 00       	mov    $0x0,%eax
  10d135:	e8 d6 f6 ff ff       	callq  10c810 <_Z7kprintfPKcz>
  10d13a:	48 8b 45 d8          	mov    -0x28(%rbp),%rax
  10d13e:	48 8d 35 19 45 00 00 	lea    0x4519(%rip),%rsi        # 11165e <_ZL8sc_ascii+0x5fe>
  10d145:	48 89 c7             	mov    %rax,%rdi
  10d148:	e8 91 76 ff ff       	callq  1047de <_ZN4ACPI4RSDP14GetSystemTableEPKc>
  10d14d:	48 89 45 b8          	mov    %rax,-0x48(%rbp)
  10d151:	48 8b 45 b8          	mov    -0x48(%rbp),%rax
  10d155:	48 89 c6             	mov    %rax,%rsi
  10d158:	48 8d 3d 04 45 00 00 	lea    0x4504(%rip),%rdi        # 111663 <_ZL8sc_ascii+0x603>
  10d15f:	b8 00 00 00 00       	mov    $0x0,%eax
  10d164:	e8 a7 f6 ff ff       	callq  10c810 <_Z7kprintfPKcz>
  10d169:	48 8b 45 d8          	mov    -0x28(%rbp),%rax
  10d16d:	48 8d 35 02 45 00 00 	lea    0x4502(%rip),%rsi        # 111676 <_ZL8sc_ascii+0x616>
  10d174:	48 89 c7             	mov    %rax,%rdi
  10d177:	e8 62 76 ff ff       	callq  1047de <_ZN4ACPI4RSDP14GetSystemTableEPKc>
  10d17c:	48 89 45 b0          	mov    %rax,-0x50(%rbp)
  10d180:	48 8b 45 b0          	mov    -0x50(%rbp),%rax
  10d184:	48 89 c6             	mov    %rax,%rsi
  10d187:	48 8d 3d ed 44 00 00 	lea    0x44ed(%rip),%rdi        # 11167b <_ZL8sc_ascii+0x61b>
  10d18e:	b8 00 00 00 00       	mov    $0x0,%eax
  10d193:	e8 78 f6 ff ff       	callq  10c810 <_Z7kprintfPKcz>
  10d198:	48 8b 45 d8          	mov    -0x28(%rbp),%rax
  10d19c:	48 8d 35 eb 44 00 00 	lea    0x44eb(%rip),%rsi        # 11168e <_ZL8sc_ascii+0x62e>
  10d1a3:	48 89 c7             	mov    %rax,%rdi
  10d1a6:	e8 33 76 ff ff       	callq  1047de <_ZN4ACPI4RSDP14GetSystemTableEPKc>
  10d1ab:	48 89 45 a8          	mov    %rax,-0x58(%rbp)
  10d1af:	48 8b 45 a8          	mov    -0x58(%rbp),%rax
  10d1b3:	48 89 c6             	mov    %rax,%rsi
  10d1b6:	48 8d 3d d6 44 00 00 	lea    0x44d6(%rip),%rdi        # 111693 <_ZL8sc_ascii+0x633>
  10d1bd:	b8 00 00 00 00       	mov    $0x0,%eax
  10d1c2:	e8 49 f6 ff ff       	callq  10c810 <_Z7kprintfPKcz>
  10d1c7:	48 8b 45 d8          	mov    -0x28(%rbp),%rax
  10d1cb:	48 8d 35 d4 44 00 00 	lea    0x44d4(%rip),%rsi        # 1116a6 <_ZL8sc_ascii+0x646>
  10d1d2:	48 89 c7             	mov    %rax,%rdi
  10d1d5:	e8 04 76 ff ff       	callq  1047de <_ZN4ACPI4RSDP14GetSystemTableEPKc>
  10d1da:	48 89 45 a0          	mov    %rax,-0x60(%rbp)
  10d1de:	48 8b 45 a0          	mov    -0x60(%rbp),%rax
  10d1e2:	48 89 c6             	mov    %rax,%rsi
  10d1e5:	48 8d 3d bf 44 00 00 	lea    0x44bf(%rip),%rdi        # 1116ab <_ZL8sc_ascii+0x64b>
  10d1ec:	b8 00 00 00 00       	mov    $0x0,%eax
  10d1f1:	e8 1a f6 ff ff       	callq  10c810 <_Z7kprintfPKcz>
  10d1f6:	48 83 7d a0 00       	cmpq   $0x0,-0x60(%rbp)
  10d1fb:	74 0c                	je     10d209 <_Z14InitialiseRSDPP10KernelInfo+0x37b>
  10d1fd:	48 8b 45 a0          	mov    -0x60(%rbp),%rax
  10d201:	48 89 c7             	mov    %rax,%rdi
  10d204:	e8 65 77 ff ff       	callq  10496e <_ZN4ACPI4FADT10ACPIEnableEv>
  10d209:	48 8d 3d af 44 00 00 	lea    0x44af(%rip),%rdi        # 1116bf <_ZL8sc_ascii+0x65f>
  10d210:	b8 00 00 00 00       	mov    $0x0,%eax
  10d215:	e8 f6 f5 ff ff       	callq  10c810 <_Z7kprintfPKcz>
  10d21a:	48 83 7d a0 00       	cmpq   $0x0,-0x60(%rbp)
  10d21f:	0f 84 91 00 00 00    	je     10d2b6 <_Z14InitialiseRSDPP10KernelInfo+0x428>
  10d225:	48 8d 85 50 fc ff ff 	lea    -0x3b0(%rbp),%rax
  10d22c:	48 8b 55 a0          	mov    -0x60(%rbp),%rdx
  10d230:	48 89 d6             	mov    %rdx,%rsi
  10d233:	48 89 c7             	mov    %rax,%rdi
  10d236:	e8 df 16 00 00       	callq  10e91a <_ZN4ACPI4FADT7GetFADTEv>
  10d23b:	0f b6 85 bc fc ff ff 	movzbl -0x344(%rbp),%eax
  10d242:	0f b6 c0             	movzbl %al,%eax
  10d245:	89 c6                	mov    %eax,%esi
  10d247:	48 8d 3d 82 44 00 00 	lea    0x4482(%rip),%rdi        # 1116d0 <_ZL8sc_ascii+0x670>
  10d24e:	b8 00 00 00 00       	mov    $0x0,%eax
  10d253:	e8 b8 f5 ff ff       	callq  10c810 <_Z7kprintfPKcz>
  10d258:	48 8d 85 50 fd ff ff 	lea    -0x2b0(%rbp),%rax
  10d25f:	48 8b 55 a0          	mov    -0x60(%rbp),%rdx
  10d263:	48 89 d6             	mov    %rdx,%rsi
  10d266:	48 89 c7             	mov    %rax,%rdi
  10d269:	e8 ac 16 00 00       	callq  10e91a <_ZN4ACPI4FADT7GetFADTEv>
  10d26e:	8b 85 74 fd ff ff    	mov    -0x28c(%rbp),%eax
  10d274:	89 c6                	mov    %eax,%esi
  10d276:	48 8d 3d 6a 44 00 00 	lea    0x446a(%rip),%rdi        # 1116e7 <_ZL8sc_ascii+0x687>
  10d27d:	b8 00 00 00 00       	mov    $0x0,%eax
  10d282:	e8 89 f5 ff ff       	callq  10c810 <_Z7kprintfPKcz>
  10d287:	48 8d 85 50 fe ff ff 	lea    -0x1b0(%rbp),%rax
  10d28e:	48 8b 55 a0          	mov    -0x60(%rbp),%rdx
  10d292:	48 89 d6             	mov    %rdx,%rsi
  10d295:	48 89 c7             	mov    %rax,%rdi
  10d298:	e8 7d 16 00 00       	callq  10e91a <_ZN4ACPI4FADT7GetFADTEv>
  10d29d:	8b 85 78 fe ff ff    	mov    -0x188(%rbp),%eax
  10d2a3:	89 c6                	mov    %eax,%esi
  10d2a5:	48 8d 3d 54 44 00 00 	lea    0x4454(%rip),%rdi        # 111700 <_ZL8sc_ascii+0x6a0>
  10d2ac:	b8 00 00 00 00       	mov    $0x0,%eax
  10d2b1:	e8 5a f5 ff ff       	callq  10c810 <_Z7kprintfPKcz>
  10d2b6:	e8 67 42 ff ff       	callq  101522 <_ZN18PageFrameAllocator15SharedAllocatorEv>
  10d2bb:	48 89 c7             	mov    %rax,%rdi
  10d2be:	e8 23 16 00 00       	callq  10e8e6 <_ZNK18PageFrameAllocator10GetUsedRAMEv>
  10d2c3:	48 89 45 98          	mov    %rax,-0x68(%rbp)
  10d2c7:	e8 56 42 ff ff       	callq  101522 <_ZN18PageFrameAllocator15SharedAllocatorEv>
  10d2cc:	48 89 c7             	mov    %rax,%rdi
  10d2cf:	e8 f8 15 00 00       	callq  10e8cc <_ZNK18PageFrameAllocator10GetFreeRAMEv>
  10d2d4:	48 89 45 90          	mov    %rax,-0x70(%rbp)
  10d2d8:	e8 45 42 ff ff       	callq  101522 <_ZN18PageFrameAllocator15SharedAllocatorEv>
  10d2dd:	48 89 c7             	mov    %rax,%rdi
  10d2e0:	e8 1b 16 00 00       	callq  10e900 <_ZNK18PageFrameAllocator14GetReservedRAMEv>
  10d2e5:	48 89 45 88          	mov    %rax,-0x78(%rbp)
  10d2e9:	48 8b 45 98          	mov    -0x68(%rbp),%rax
  10d2ed:	48 85 c0             	test   %rax,%rax
  10d2f0:	78 07                	js     10d2f9 <_Z14InitialiseRSDPP10KernelInfo+0x46b>
  10d2f2:	f2 48 0f 2a c0       	cvtsi2sd %rax,%xmm0
  10d2f7:	eb 15                	jmp    10d30e <_Z14InitialiseRSDPP10KernelInfo+0x480>
  10d2f9:	48 89 c2             	mov    %rax,%rdx
  10d2fc:	48 d1 ea             	shr    %rdx
  10d2ff:	83 e0 01             	and    $0x1,%eax
  10d302:	48 09 c2             	or     %rax,%rdx
  10d305:	f2 48 0f 2a c2       	cvtsi2sd %rdx,%xmm0
  10d30a:	f2 0f 58 c0          	addsd  %xmm0,%xmm0
  10d30e:	f2 0f 10 0d ca 45 00 	movsd  0x45ca(%rip),%xmm1        # 1118e0 <_ZL8sc_ascii+0x880>
  10d315:	00 
  10d316:	f2 0f 5e c1          	divsd  %xmm1,%xmm0
  10d31a:	f2 0f 11 45 80       	movsd  %xmm0,-0x80(%rbp)
  10d31f:	48 8b 45 98          	mov    -0x68(%rbp),%rax
  10d323:	48 85 c0             	test   %rax,%rax
  10d326:	78 07                	js     10d32f <_Z14InitialiseRSDPP10KernelInfo+0x4a1>
  10d328:	f2 48 0f 2a c0       	cvtsi2sd %rax,%xmm0
  10d32d:	eb 15                	jmp    10d344 <_Z14InitialiseRSDPP10KernelInfo+0x4b6>
  10d32f:	48 89 c2             	mov    %rax,%rdx
  10d332:	48 d1 ea             	shr    %rdx
  10d335:	83 e0 01             	and    $0x1,%eax
  10d338:	48 09 c2             	or     %rax,%rdx
  10d33b:	f2 48 0f 2a c2       	cvtsi2sd %rdx,%xmm0
  10d340:	f2 0f 58 c0          	addsd  %xmm0,%xmm0
  10d344:	f2 0f 10 0d 9c 45 00 	movsd  0x459c(%rip),%xmm1        # 1118e8 <_ZL8sc_ascii+0x888>
  10d34b:	00 
  10d34c:	f2 0f 5e c1          	divsd  %xmm1,%xmm0
  10d350:	f2 0f 11 85 78 ff ff 	movsd  %xmm0,-0x88(%rbp)
  10d357:	ff 
  10d358:	48 8b 45 90          	mov    -0x70(%rbp),%rax
  10d35c:	48 85 c0             	test   %rax,%rax
  10d35f:	78 07                	js     10d368 <_Z14InitialiseRSDPP10KernelInfo+0x4da>
  10d361:	f2 48 0f 2a c0       	cvtsi2sd %rax,%xmm0
  10d366:	eb 15                	jmp    10d37d <_Z14InitialiseRSDPP10KernelInfo+0x4ef>
  10d368:	48 89 c2             	mov    %rax,%rdx
  10d36b:	48 d1 ea             	shr    %rdx
  10d36e:	83 e0 01             	and    $0x1,%eax
  10d371:	48 09 c2             	or     %rax,%rdx
  10d374:	f2 48 0f 2a c2       	cvtsi2sd %rdx,%xmm0
  10d379:	f2 0f 58 c0          	addsd  %xmm0,%xmm0
  10d37d:	f2 0f 10 0d 5b 45 00 	movsd  0x455b(%rip),%xmm1        # 1118e0 <_ZL8sc_ascii+0x880>
  10d384:	00 
  10d385:	f2 0f 5e c1          	divsd  %xmm1,%xmm0
  10d389:	f2 0f 11 85 70 ff ff 	movsd  %xmm0,-0x90(%rbp)
  10d390:	ff 
  10d391:	48 8b 45 90          	mov    -0x70(%rbp),%rax
  10d395:	48 85 c0             	test   %rax,%rax
  10d398:	78 07                	js     10d3a1 <_Z14InitialiseRSDPP10KernelInfo+0x513>
  10d39a:	f2 48 0f 2a c0       	cvtsi2sd %rax,%xmm0
  10d39f:	eb 15                	jmp    10d3b6 <_Z14InitialiseRSDPP10KernelInfo+0x528>
  10d3a1:	48 89 c2             	mov    %rax,%rdx
  10d3a4:	48 d1 ea             	shr    %rdx
  10d3a7:	83 e0 01             	and    $0x1,%eax
  10d3aa:	48 09 c2             	or     %rax,%rdx
  10d3ad:	f2 48 0f 2a c2       	cvtsi2sd %rdx,%xmm0
  10d3b2:	f2 0f 58 c0          	addsd  %xmm0,%xmm0
  10d3b6:	f2 0f 10 0d 2a 45 00 	movsd  0x452a(%rip),%xmm1        # 1118e8 <_ZL8sc_ascii+0x888>
  10d3bd:	00 
  10d3be:	f2 0f 5e c1          	divsd  %xmm1,%xmm0
  10d3c2:	f2 0f 11 85 68 ff ff 	movsd  %xmm0,-0x98(%rbp)
  10d3c9:	ff 
  10d3ca:	48 8b 45 88          	mov    -0x78(%rbp),%rax
  10d3ce:	48 85 c0             	test   %rax,%rax
  10d3d1:	78 07                	js     10d3da <_Z14InitialiseRSDPP10KernelInfo+0x54c>
  10d3d3:	f2 48 0f 2a c0       	cvtsi2sd %rax,%xmm0
  10d3d8:	eb 15                	jmp    10d3ef <_Z14InitialiseRSDPP10KernelInfo+0x561>
  10d3da:	48 89 c2             	mov    %rax,%rdx
  10d3dd:	48 d1 ea             	shr    %rdx
  10d3e0:	83 e0 01             	and    $0x1,%eax
  10d3e3:	48 09 c2             	or     %rax,%rdx
  10d3e6:	f2 48 0f 2a c2       	cvtsi2sd %rdx,%xmm0
  10d3eb:	f2 0f 58 c0          	addsd  %xmm0,%xmm0
  10d3ef:	f2 0f 10 0d e9 44 00 	movsd  0x44e9(%rip),%xmm1        # 1118e0 <_ZL8sc_ascii+0x880>
  10d3f6:	00 
  10d3f7:	f2 0f 5e c1          	divsd  %xmm1,%xmm0
  10d3fb:	f2 0f 11 85 60 ff ff 	movsd  %xmm0,-0xa0(%rbp)
  10d402:	ff 
  10d403:	48 8b 45 88          	mov    -0x78(%rbp),%rax
  10d407:	48 85 c0             	test   %rax,%rax
  10d40a:	78 07                	js     10d413 <_Z14InitialiseRSDPP10KernelInfo+0x585>
  10d40c:	f2 48 0f 2a c0       	cvtsi2sd %rax,%xmm0
  10d411:	eb 15                	jmp    10d428 <_Z14InitialiseRSDPP10KernelInfo+0x59a>
  10d413:	48 89 c2             	mov    %rax,%rdx
  10d416:	48 d1 ea             	shr    %rdx
  10d419:	83 e0 01             	and    $0x1,%eax
  10d41c:	48 09 c2             	or     %rax,%rdx
  10d41f:	f2 48 0f 2a c2       	cvtsi2sd %rdx,%xmm0
  10d424:	f2 0f 58 c0          	addsd  %xmm0,%xmm0
  10d428:	f2 0f 10 0d b8 44 00 	movsd  0x44b8(%rip),%xmm1        # 1118e8 <_ZL8sc_ascii+0x888>
  10d42f:	00 
  10d430:	f2 0f 5e c1          	divsd  %xmm1,%xmm0
  10d434:	f2 0f 11 85 58 ff ff 	movsd  %xmm0,-0xa8(%rbp)
  10d43b:	ff 
  10d43c:	f2 0f 10 45 80       	movsd  -0x80(%rbp),%xmm0
  10d441:	f2 0f 58 85 70 ff ff 	addsd  -0x90(%rbp),%xmm0
  10d448:	ff 
  10d449:	f2 0f 10 8d 60 ff ff 	movsd  -0xa0(%rbp),%xmm1
  10d450:	ff 
  10d451:	f2 0f 58 c1          	addsd  %xmm1,%xmm0
  10d455:	f2 0f 11 85 50 ff ff 	movsd  %xmm0,-0xb0(%rbp)
  10d45c:	ff 
  10d45d:	48 8d 3d b2 42 00 00 	lea    0x42b2(%rip),%rdi        # 111716 <_ZL8sc_ascii+0x6b6>
  10d464:	b8 00 00 00 00       	mov    $0x0,%eax
  10d469:	e8 a2 f3 ff ff       	callq  10c810 <_Z7kprintfPKcz>
  10d46e:	48 8b 45 98          	mov    -0x68(%rbp),%rax
  10d472:	48 c1 e8 0a          	shr    $0xa,%rax
  10d476:	48 89 c1             	mov    %rax,%rcx
  10d479:	f2 0f 10 85 78 ff ff 	movsd  -0x88(%rbp),%xmm0
  10d480:	ff 
  10d481:	48 8b 55 80          	mov    -0x80(%rbp),%rdx
  10d485:	48 8b 45 98          	mov    -0x68(%rbp),%rax
  10d489:	66 0f 28 c8          	movapd %xmm0,%xmm1
  10d48d:	66 48 0f 6e c2       	movq   %rdx,%xmm0
  10d492:	48 89 ca             	mov    %rcx,%rdx
  10d495:	48 89 c6             	mov    %rax,%rsi
  10d498:	48 8d 3d 89 42 00 00 	lea    0x4289(%rip),%rdi        # 111728 <_ZL8sc_ascii+0x6c8>
  10d49f:	b8 02 00 00 00       	mov    $0x2,%eax
  10d4a4:	e8 67 f3 ff ff       	callq  10c810 <_Z7kprintfPKcz>
  10d4a9:	48 8b 45 90          	mov    -0x70(%rbp),%rax
  10d4ad:	48 c1 e8 0a          	shr    $0xa,%rax
  10d4b1:	48 89 c1             	mov    %rax,%rcx
  10d4b4:	f2 0f 10 85 68 ff ff 	movsd  -0x98(%rbp),%xmm0
  10d4bb:	ff 
  10d4bc:	48 8b 95 70 ff ff ff 	mov    -0x90(%rbp),%rdx
  10d4c3:	48 8b 45 90          	mov    -0x70(%rbp),%rax
  10d4c7:	66 0f 28 c8          	movapd %xmm0,%xmm1
  10d4cb:	66 48 0f 6e c2       	movq   %rdx,%xmm0
  10d4d0:	48 89 ca             	mov    %rcx,%rdx
  10d4d3:	48 89 c6             	mov    %rax,%rsi
  10d4d6:	48 8d 3d 93 42 00 00 	lea    0x4293(%rip),%rdi        # 111770 <_ZL8sc_ascii+0x710>
  10d4dd:	b8 02 00 00 00       	mov    $0x2,%eax
  10d4e2:	e8 29 f3 ff ff       	callq  10c810 <_Z7kprintfPKcz>
  10d4e7:	48 8b 45 88          	mov    -0x78(%rbp),%rax
  10d4eb:	48 c1 e8 0a          	shr    $0xa,%rax
  10d4ef:	48 89 c1             	mov    %rax,%rcx
  10d4f2:	f2 0f 10 85 58 ff ff 	movsd  -0xa8(%rbp),%xmm0
  10d4f9:	ff 
  10d4fa:	48 8b 95 60 ff ff ff 	mov    -0xa0(%rbp),%rdx
  10d501:	48 8b 45 88          	mov    -0x78(%rbp),%rax
  10d505:	66 0f 28 c8          	movapd %xmm0,%xmm1
  10d509:	66 48 0f 6e c2       	movq   %rdx,%xmm0
  10d50e:	48 89 ca             	mov    %rcx,%rdx
  10d511:	48 89 c6             	mov    %rax,%rsi
  10d514:	48 8d 3d 9d 42 00 00 	lea    0x429d(%rip),%rdi        # 1117b8 <_ZL8sc_ascii+0x758>
  10d51b:	b8 02 00 00 00       	mov    $0x2,%eax
  10d520:	e8 eb f2 ff ff       	callq  10c810 <_Z7kprintfPKcz>
  10d525:	48 8b 85 50 ff ff ff 	mov    -0xb0(%rbp),%rax
  10d52c:	66 48 0f 6e c0       	movq   %rax,%xmm0
  10d531:	48 8d 3d d0 42 00 00 	lea    0x42d0(%rip),%rdi        # 111808 <_ZL8sc_ascii+0x7a8>
  10d538:	b8 01 00 00 00       	mov    $0x1,%eax
  10d53d:	e8 ce f2 ff ff       	callq  10c810 <_Z7kprintfPKcz>
  10d542:	48 83 7d b8 00       	cmpq   $0x0,-0x48(%rbp)
  10d547:	74 2e                	je     10d577 <_Z14InitialiseRSDPP10KernelInfo+0x6e9>
  10d549:	48 8d 3d de 42 00 00 	lea    0x42de(%rip),%rdi        # 11182e <_ZL8sc_ascii+0x7ce>
  10d550:	b8 00 00 00 00       	mov    $0x0,%eax
  10d555:	e8 b6 f2 ff ff       	callq  10c810 <_Z7kprintfPKcz>
  10d55a:	48 8b 45 b8          	mov    -0x48(%rbp),%rax
  10d55e:	48 89 c7             	mov    %rax,%rdi
  10d561:	e8 4c 6a ff ff       	callq  103fb2 <_ZN3PCI12EnumeratePCIEPN4ACPI10MCFGHeaderE>
  10d566:	48 8d 3d 58 40 00 00 	lea    0x4058(%rip),%rdi        # 1115c5 <_ZL8sc_ascii+0x565>
  10d56d:	b8 00 00 00 00       	mov    $0x0,%eax
  10d572:	e8 99 f2 ff ff       	callq  10c810 <_Z7kprintfPKcz>
  10d577:	90                   	nop
  10d578:	c9                   	leaveq 
  10d579:	c3                   	retq   

000000000010d57a <_Z17InitialiseDisplayP10KernelInfo>:
  10d57a:	f3 0f 1e fa          	endbr64 
  10d57e:	55                   	push   %rbp
  10d57f:	48 89 e5             	mov    %rsp,%rbp
  10d582:	48 83 ec 20          	sub    $0x20,%rsp
  10d586:	48 89 7d e8          	mov    %rdi,-0x18(%rbp)
  10d58a:	48 8b 45 e8          	mov    -0x18(%rbp),%rax
  10d58e:	0f b6 40 3a          	movzbl 0x3a(%rax),%eax
  10d592:	3c 01                	cmp    $0x1,%al
  10d594:	0f 95 c0             	setne  %al
  10d597:	88 05 83 a3 00 00    	mov    %al,0xa383(%rip)        # 117920 <fromUEFI>
  10d59d:	fa                   	cli    
  10d59e:	e8 8a 47 ff ff       	callq  101d2d <_Z13InitialiseGDTv>
  10d5a3:	48 8b 45 e8          	mov    -0x18(%rbp),%rax
  10d5a7:	0f b6 40 38          	movzbl 0x38(%rax),%eax
  10d5ab:	0f b6 d0             	movzbl %al,%edx
  10d5ae:	48 8b 45 e8          	mov    -0x18(%rbp),%rax
  10d5b2:	48 8b 48 20          	mov    0x20(%rax),%rcx
  10d5b6:	48 8d 45 f0          	lea    -0x10(%rbp),%rax
  10d5ba:	48 89 ce             	mov    %rcx,%rsi
  10d5bd:	48 89 c7             	mov    %rax,%rdi
  10d5c0:	e8 d5 12 00 00       	callq  10e89a <_ZN9MemoryMapC1EP14MemoryMapEntrym>
  10d5c5:	48 8b 45 f0          	mov    -0x10(%rbp),%rax
  10d5c9:	48 8b 55 f8          	mov    -0x8(%rbp),%rdx
  10d5cd:	48 89 05 5c a3 00 00 	mov    %rax,0xa35c(%rip)        # 117930 <_map>
  10d5d4:	48 89 15 5d a3 00 00 	mov    %rdx,0xa35d(%rip)        # 117938 <_map+0x8>
  10d5db:	e8 57 4a ff ff       	callq  102037 <_Z13InitialiseIDTv>
  10d5e0:	48 8b 05 91 1e 00 00 	mov    0x1e91(%rip),%rax        # 10f478 <map>
  10d5e7:	48 89 c7             	mov    %rax,%rdi
  10d5ea:	e8 5e 3f ff ff       	callq  10154d <_Z10InitPagingP9MemoryMap>
  10d5ef:	48 8b 45 e8          	mov    -0x18(%rbp),%rax
  10d5f3:	48 8b 50 18          	mov    0x18(%rax),%rdx
  10d5f7:	48 83 ec 08          	sub    $0x8,%rsp
  10d5fb:	48 8b 45 e8          	mov    -0x18(%rbp),%rax
  10d5ff:	ff 70 10             	pushq  0x10(%rax)
  10d602:	ff 70 08             	pushq  0x8(%rax)
  10d605:	ff 30                	pushq  (%rax)
  10d607:	48 89 d7             	mov    %rdx,%rdi
  10d60a:	e8 48 7b ff ff       	callq  105157 <_Z17InitialiseDisplay11FramebufferP9psf1_font>
  10d60f:	48 83 c4 20          	add    $0x20,%rsp
  10d613:	e8 4b 7c ff ff       	callq  105263 <_Z6clrscrv>
  10d618:	48 8d 3d 29 42 00 00 	lea    0x4229(%rip),%rdi        # 111848 <_ZL8sc_ascii+0x7e8>
  10d61f:	b8 00 00 00 00       	mov    $0x0,%eax
  10d624:	e8 e7 f1 ff ff       	callq  10c810 <_Z7kprintfPKcz>
  10d629:	48 8b 45 e8          	mov    -0x18(%rbp),%rax
  10d62d:	8b 50 0c             	mov    0xc(%rax),%edx
  10d630:	48 8b 45 e8          	mov    -0x18(%rbp),%rax
  10d634:	8b 40 08             	mov    0x8(%rax),%eax
  10d637:	89 c6                	mov    %eax,%esi
  10d639:	48 8d 3d 27 42 00 00 	lea    0x4227(%rip),%rdi        # 111867 <_ZL8sc_ascii+0x807>
  10d640:	b8 00 00 00 00       	mov    $0x0,%eax
  10d645:	e8 c6 f1 ff ff       	callq  10c810 <_Z7kprintfPKcz>
  10d64a:	90                   	nop
  10d64b:	c9                   	leaveq 
  10d64c:	c3                   	retq   

000000000010d64d <_Z20InitialiseFilesystemv>:
  10d64d:	f3 0f 1e fa          	endbr64 
  10d651:	55                   	push   %rbp
  10d652:	48 89 e5             	mov    %rsp,%rbp
  10d655:	48 83 ec 20          	sub    $0x20,%rsp
  10d659:	48 8d 45 e0          	lea    -0x20(%rbp),%rax
  10d65d:	48 89 c6             	mov    %rax,%rsi
  10d660:	48 8d 3d 1e 42 00 00 	lea    0x421e(%rip),%rdi        # 111885 <_ZL8sc_ascii+0x825>
  10d667:	e8 1c dd ff ff       	callq  10b388 <_Z11LoadProgramPKcPm>
  10d66c:	48 89 45 f8          	mov    %rax,-0x8(%rbp)
  10d670:	48 83 7d f8 00       	cmpq   $0x0,-0x8(%rbp)
  10d675:	74 40                	je     10d6b7 <_Z20InitialiseFilesystemv+0x6a>
  10d677:	48 8b 55 e0          	mov    -0x20(%rbp),%rdx
  10d67b:	48 8b 45 f8          	mov    -0x8(%rbp),%rax
  10d67f:	48 89 d6             	mov    %rdx,%rsi
  10d682:	48 89 c7             	mov    %rax,%rdi
  10d685:	e8 0e de ff ff       	callq  10b498 <_Z14PrepareProgramP10Elf64_Ehdrm>
  10d68a:	48 8b 45 f8          	mov    -0x8(%rbp),%rax
  10d68e:	48 8b 40 18          	mov    0x18(%rax),%rax
  10d692:	48 89 45 f0          	mov    %rax,-0x10(%rbp)
  10d696:	48 8b 45 f0          	mov    -0x10(%rbp),%rax
  10d69a:	ff d0                	callq  *%rax
  10d69c:	89 45 ec             	mov    %eax,-0x14(%rbp)
  10d69f:	8b 45 ec             	mov    -0x14(%rbp),%eax
  10d6a2:	89 c6                	mov    %eax,%esi
  10d6a4:	48 8d 3d f5 41 00 00 	lea    0x41f5(%rip),%rdi        # 1118a0 <_ZL8sc_ascii+0x840>
  10d6ab:	b8 00 00 00 00       	mov    $0x0,%eax
  10d6b0:	e8 5b f1 ff ff       	callq  10c810 <_Z7kprintfPKcz>
  10d6b5:	eb 01                	jmp    10d6b8 <_Z20InitialiseFilesystemv+0x6b>
  10d6b7:	90                   	nop
  10d6b8:	c9                   	leaveq 
  10d6b9:	c3                   	retq   

000000000010d6ba <_Z16InitialiseKernelP10KernelInfo>:
  10d6ba:	f3 0f 1e fa          	endbr64 
  10d6be:	55                   	push   %rbp
  10d6bf:	48 89 e5             	mov    %rsp,%rbp
  10d6c2:	53                   	push   %rbx
  10d6c3:	48 83 ec 28          	sub    $0x28,%rsp
  10d6c7:	48 89 7d d8          	mov    %rdi,-0x28(%rbp)
  10d6cb:	48 8d 3d ee 41 00 00 	lea    0x41ee(%rip),%rdi        # 1118c0 <_ZL8sc_ascii+0x860>
  10d6d2:	b8 00 00 00 00       	mov    $0x0,%eax
  10d6d7:	e8 34 f1 ff ff       	callq  10c810 <_Z7kprintfPKcz>
  10d6dc:	be 00 10 00 00       	mov    $0x1000,%esi
  10d6e1:	48 bf 00 00 00 00 00 	movabs $0x100000000000,%rdi
  10d6e8:	10 00 00 
  10d6eb:	e8 e2 5d ff ff       	callq  1034d2 <_Z14InitialiseHeapPvm>
  10d6f0:	e8 00 96 ff ff       	callq  106cf5 <_Z17InitialiseDevicesv>
  10d6f5:	e8 f8 da ff ff       	callq  10b1f2 <_Z21InitialiseFilesystemsv>
  10d6fa:	bf 08 00 00 00       	mov    $0x8,%edi
  10d6ff:	e8 87 62 ff ff       	callq  10398b <_Znwm>
  10d704:	48 89 c3             	mov    %rax,%rbx
  10d707:	48 89 df             	mov    %rbx,%rdi
  10d70a:	e8 81 13 00 00       	callq  10ea90 <_ZN9ATADeviceC1Ev>
  10d70f:	48 89 5d e8          	mov    %rbx,-0x18(%rbp)
  10d713:	48 8b 45 e8          	mov    -0x18(%rbp),%rax
  10d717:	48 89 c7             	mov    %rax,%rdi
  10d71a:	e8 f7 95 ff ff       	callq  106d16 <_Z14RegisterDeviceP6Device>
  10d71f:	48 8b 45 e8          	mov    -0x18(%rbp),%rax
  10d723:	48 89 c7             	mov    %rax,%rdi
  10d726:	e8 c9 96 ff ff       	callq  106df4 <_Z22LocateFilesystemsFAT32P6Device>
  10d72b:	48 8b 45 d8          	mov    -0x28(%rbp),%rax
  10d72f:	48 89 c7             	mov    %rax,%rdi
  10d732:	e8 57 f7 ff ff       	callq  10ce8e <_Z14InitialiseRSDPP10KernelInfo>
  10d737:	e8 11 ff ff ff       	callq  10d64d <_Z20InitialiseFilesystemv>
  10d73c:	e8 02 52 ff ff       	callq  102943 <_Z15InitialiseShellv>
  10d741:	e8 34 50 ff ff       	callq  10277a <_Z13InitialiseIRQv>
  10d746:	e8 26 e7 ff ff       	callq  10be71 <_Z17InitialiseTaskingv>
  10d74b:	90                   	nop
  10d74c:	48 83 c4 28          	add    $0x28,%rsp
  10d750:	5b                   	pop    %rbx
  10d751:	5d                   	pop    %rbp
  10d752:	c3                   	retq   

000000000010d753 <_Z41__static_initialization_and_destruction_0ii>:
  10d753:	f3 0f 1e fa          	endbr64 
  10d757:	55                   	push   %rbp
  10d758:	48 89 e5             	mov    %rsp,%rbp
  10d75b:	48 83 ec 10          	sub    $0x10,%rsp
  10d75f:	89 7d fc             	mov    %edi,-0x4(%rbp)
  10d762:	89 75 f8             	mov    %esi,-0x8(%rbp)
  10d765:	83 7d fc 01          	cmpl   $0x1,-0x4(%rbp)
  10d769:	75 1f                	jne    10d78a <_Z41__static_initialization_and_destruction_0ii+0x37>
  10d76b:	81 7d f8 ff ff 00 00 	cmpl   $0xffff,-0x8(%rbp)
  10d772:	75 16                	jne    10d78a <_Z41__static_initialization_and_destruction_0ii+0x37>
  10d774:	ba 00 00 00 00       	mov    $0x0,%edx
  10d779:	be 00 00 00 00       	mov    $0x0,%esi
  10d77e:	48 8d 3d ab a1 00 00 	lea    0xa1ab(%rip),%rdi        # 117930 <_map>
  10d785:	e8 10 11 00 00       	callq  10e89a <_ZN9MemoryMapC1EP14MemoryMapEntrym>
  10d78a:	90                   	nop
  10d78b:	c9                   	leaveq 
  10d78c:	c3                   	retq   

000000000010d78d <_GLOBAL__sub_I_fromUEFI>:
  10d78d:	f3 0f 1e fa          	endbr64 
  10d791:	55                   	push   %rbp
  10d792:	48 89 e5             	mov    %rsp,%rbp
  10d795:	be ff ff 00 00       	mov    $0xffff,%esi
  10d79a:	bf 01 00 00 00       	mov    $0x1,%edi
  10d79f:	e8 af ff ff ff       	callq  10d753 <_Z41__static_initialization_and_destruction_0ii>
  10d7a4:	5d                   	pop    %rbp
  10d7a5:	c3                   	retq   
  10d7a6:	66 2e 0f 1f 84 00 00 	nopw   %cs:0x0(%rax,%rax,1)
  10d7ad:	00 00 00 

000000000010d7b0 <__gdt_flush>:
  10d7b0:	0f 01 17             	lgdt   (%rdi)
  10d7b3:	66 b8 10 00          	mov    $0x10,%ax
  10d7b7:	8e d8                	mov    %eax,%ds
  10d7b9:	8e c0                	mov    %eax,%es
  10d7bb:	8e e0                	mov    %eax,%fs
  10d7bd:	8e e8                	mov    %eax,%gs
  10d7bf:	8e d0                	mov    %eax,%ss
  10d7c1:	5f                   	pop    %rdi
  10d7c2:	b8 08 00 00 00       	mov    $0x8,%eax
  10d7c7:	50                   	push   %rax
  10d7c8:	57                   	push   %rdi
  10d7c9:	48 cb                	lretq  

000000000010d7cb <__tss_flush>:
  10d7cb:	0f 00 df             	ltr    %di
  10d7ce:	c3                   	retq   
  10d7cf:	90                   	nop

000000000010d7d0 <__set_idt>:
  10d7d0:	48 89 f8             	mov    %rdi,%rax
  10d7d3:	0f 01 18             	lidt   (%rax)
  10d7d6:	c3                   	retq   

000000000010d7d7 <isr_common_stub>:
  10d7d7:	41 57                	push   %r15
  10d7d9:	41 56                	push   %r14
  10d7db:	41 55                	push   %r13
  10d7dd:	41 54                	push   %r12
  10d7df:	41 53                	push   %r11
  10d7e1:	41 52                	push   %r10
  10d7e3:	41 51                	push   %r9
  10d7e5:	41 50                	push   %r8
  10d7e7:	50                   	push   %rax
  10d7e8:	51                   	push   %rcx
  10d7e9:	52                   	push   %rdx
  10d7ea:	53                   	push   %rbx
  10d7eb:	54                   	push   %rsp
  10d7ec:	55                   	push   %rbp
  10d7ed:	56                   	push   %rsi
  10d7ee:	57                   	push   %rdi
  10d7ef:	48 81 ec 00 01 00 00 	sub    $0x100,%rsp
  10d7f6:	66 44 0f 7f bc 24 f0 	movdqa %xmm15,0xf0(%rsp)
  10d7fd:	00 00 00 
  10d800:	66 44 0f 7f b4 24 e0 	movdqa %xmm14,0xe0(%rsp)
  10d807:	00 00 00 
  10d80a:	66 44 0f 7f ac 24 d0 	movdqa %xmm13,0xd0(%rsp)
  10d811:	00 00 00 
  10d814:	66 44 0f 7f a4 24 c0 	movdqa %xmm12,0xc0(%rsp)
  10d81b:	00 00 00 
  10d81e:	66 44 0f 7f 9c 24 b0 	movdqa %xmm11,0xb0(%rsp)
  10d825:	00 00 00 
  10d828:	66 44 0f 7f 94 24 a0 	movdqa %xmm10,0xa0(%rsp)
  10d82f:	00 00 00 
  10d832:	66 44 0f 7f 8c 24 90 	movdqa %xmm9,0x90(%rsp)
  10d839:	00 00 00 
  10d83c:	66 44 0f 7f 84 24 80 	movdqa %xmm8,0x80(%rsp)
  10d843:	00 00 00 
  10d846:	66 0f 7f 7c 24 70    	movdqa %xmm7,0x70(%rsp)
  10d84c:	66 0f 7f 74 24 60    	movdqa %xmm6,0x60(%rsp)
  10d852:	66 0f 7f 6c 24 50    	movdqa %xmm5,0x50(%rsp)
  10d858:	66 0f 7f 64 24 40    	movdqa %xmm4,0x40(%rsp)
  10d85e:	66 0f 7f 5c 24 30    	movdqa %xmm3,0x30(%rsp)
  10d864:	66 0f 7f 54 24 20    	movdqa %xmm2,0x20(%rsp)
  10d86a:	66 0f 7f 4c 24 10    	movdqa %xmm1,0x10(%rsp)
  10d870:	66 0f 7f 04 24       	movdqa %xmm0,(%rsp)
  10d875:	48 89 e7             	mov    %rsp,%rdi
  10d878:	48 83 ec 28          	sub    $0x28,%rsp
  10d87c:	fc                   	cld    
  10d87d:	e8 54 4f ff ff       	callq  1027d6 <ISRHandler>
  10d882:	48 83 c4 28          	add    $0x28,%rsp
  10d886:	66 44 0f 6f bc 24 f0 	movdqa 0xf0(%rsp),%xmm15
  10d88d:	00 00 00 
  10d890:	66 44 0f 6f b4 24 e0 	movdqa 0xe0(%rsp),%xmm14
  10d897:	00 00 00 
  10d89a:	66 44 0f 6f ac 24 d0 	movdqa 0xd0(%rsp),%xmm13
  10d8a1:	00 00 00 
  10d8a4:	66 44 0f 6f a4 24 c0 	movdqa 0xc0(%rsp),%xmm12
  10d8ab:	00 00 00 
  10d8ae:	66 44 0f 6f a4 24 b0 	movdqa 0xb0(%rsp),%xmm12
  10d8b5:	00 00 00 
  10d8b8:	66 44 0f 6f 94 24 a0 	movdqa 0xa0(%rsp),%xmm10
  10d8bf:	00 00 00 
  10d8c2:	66 44 0f 6f 8c 24 90 	movdqa 0x90(%rsp),%xmm9
  10d8c9:	00 00 00 
  10d8cc:	66 44 0f 6f 84 24 80 	movdqa 0x80(%rsp),%xmm8
  10d8d3:	00 00 00 
  10d8d6:	66 0f 6f 7c 24 70    	movdqa 0x70(%rsp),%xmm7
  10d8dc:	66 0f 6f 74 24 60    	movdqa 0x60(%rsp),%xmm6
  10d8e2:	66 0f 6f 6c 24 50    	movdqa 0x50(%rsp),%xmm5
  10d8e8:	66 0f 6f 64 24 40    	movdqa 0x40(%rsp),%xmm4
  10d8ee:	66 0f 6f 5c 24 30    	movdqa 0x30(%rsp),%xmm3
  10d8f4:	66 0f 6f 54 24 20    	movdqa 0x20(%rsp),%xmm2
  10d8fa:	66 0f 6f 4c 24 10    	movdqa 0x10(%rsp),%xmm1
  10d900:	66 0f 6f 04 24       	movdqa (%rsp),%xmm0
  10d905:	48 81 c4 00 01 00 00 	add    $0x100,%rsp
  10d90c:	5f                   	pop    %rdi
  10d90d:	5e                   	pop    %rsi
  10d90e:	5d                   	pop    %rbp
  10d90f:	48 83 c4 08          	add    $0x8,%rsp
  10d913:	5b                   	pop    %rbx
  10d914:	5a                   	pop    %rdx
  10d915:	59                   	pop    %rcx
  10d916:	58                   	pop    %rax
  10d917:	41 58                	pop    %r8
  10d919:	41 59                	pop    %r9
  10d91b:	41 5a                	pop    %r10
  10d91d:	41 5b                	pop    %r11
  10d91f:	41 5c                	pop    %r12
  10d921:	41 5d                	pop    %r13
  10d923:	41 5e                	pop    %r14
  10d925:	41 5f                	pop    %r15
  10d927:	48 83 c4 10          	add    $0x10,%rsp
  10d92b:	48 cf                	iretq  

000000000010d92d <irq_common_stub>:
  10d92d:	41 57                	push   %r15
  10d92f:	41 56                	push   %r14
  10d931:	41 55                	push   %r13
  10d933:	41 54                	push   %r12
  10d935:	41 53                	push   %r11
  10d937:	41 52                	push   %r10
  10d939:	41 51                	push   %r9
  10d93b:	41 50                	push   %r8
  10d93d:	50                   	push   %rax
  10d93e:	51                   	push   %rcx
  10d93f:	52                   	push   %rdx
  10d940:	53                   	push   %rbx
  10d941:	54                   	push   %rsp
  10d942:	55                   	push   %rbp
  10d943:	56                   	push   %rsi
  10d944:	57                   	push   %rdi
  10d945:	48 81 ec 00 01 00 00 	sub    $0x100,%rsp
  10d94c:	66 44 0f 7f bc 24 f0 	movdqa %xmm15,0xf0(%rsp)
  10d953:	00 00 00 
  10d956:	66 44 0f 7f b4 24 e0 	movdqa %xmm14,0xe0(%rsp)
  10d95d:	00 00 00 
  10d960:	66 44 0f 7f ac 24 d0 	movdqa %xmm13,0xd0(%rsp)
  10d967:	00 00 00 
  10d96a:	66 44 0f 7f a4 24 c0 	movdqa %xmm12,0xc0(%rsp)
  10d971:	00 00 00 
  10d974:	66 44 0f 7f 9c 24 b0 	movdqa %xmm11,0xb0(%rsp)
  10d97b:	00 00 00 
  10d97e:	66 44 0f 7f 94 24 a0 	movdqa %xmm10,0xa0(%rsp)
  10d985:	00 00 00 
  10d988:	66 44 0f 7f 8c 24 90 	movdqa %xmm9,0x90(%rsp)
  10d98f:	00 00 00 
  10d992:	66 44 0f 7f 84 24 80 	movdqa %xmm8,0x80(%rsp)
  10d999:	00 00 00 
  10d99c:	66 0f 7f 7c 24 70    	movdqa %xmm7,0x70(%rsp)
  10d9a2:	66 0f 7f 74 24 60    	movdqa %xmm6,0x60(%rsp)
  10d9a8:	66 0f 7f 6c 24 50    	movdqa %xmm5,0x50(%rsp)
  10d9ae:	66 0f 7f 64 24 40    	movdqa %xmm4,0x40(%rsp)
  10d9b4:	66 0f 7f 5c 24 30    	movdqa %xmm3,0x30(%rsp)
  10d9ba:	66 0f 7f 54 24 20    	movdqa %xmm2,0x20(%rsp)
  10d9c0:	66 0f 7f 4c 24 10    	movdqa %xmm1,0x10(%rsp)
  10d9c6:	66 0f 7f 04 24       	movdqa %xmm0,(%rsp)
  10d9cb:	48 89 e7             	mov    %rsp,%rdi
  10d9ce:	48 83 ec 28          	sub    $0x28,%rsp
  10d9d2:	fc                   	cld    
  10d9d3:	e8 86 4e ff ff       	callq  10285e <IRQHandler>
  10d9d8:	48 83 c4 28          	add    $0x28,%rsp
  10d9dc:	66 44 0f 6f bc 24 f0 	movdqa 0xf0(%rsp),%xmm15
  10d9e3:	00 00 00 
  10d9e6:	66 44 0f 6f b4 24 e0 	movdqa 0xe0(%rsp),%xmm14
  10d9ed:	00 00 00 
  10d9f0:	66 44 0f 6f ac 24 d0 	movdqa 0xd0(%rsp),%xmm13
  10d9f7:	00 00 00 
  10d9fa:	66 44 0f 6f a4 24 c0 	movdqa 0xc0(%rsp),%xmm12
  10da01:	00 00 00 
  10da04:	66 44 0f 6f a4 24 b0 	movdqa 0xb0(%rsp),%xmm12
  10da0b:	00 00 00 
  10da0e:	66 44 0f 6f 94 24 a0 	movdqa 0xa0(%rsp),%xmm10
  10da15:	00 00 00 
  10da18:	66 44 0f 6f 8c 24 90 	movdqa 0x90(%rsp),%xmm9
  10da1f:	00 00 00 
  10da22:	66 44 0f 6f 84 24 80 	movdqa 0x80(%rsp),%xmm8
  10da29:	00 00 00 
  10da2c:	66 0f 6f 7c 24 70    	movdqa 0x70(%rsp),%xmm7
  10da32:	66 0f 6f 74 24 60    	movdqa 0x60(%rsp),%xmm6
  10da38:	66 0f 6f 6c 24 50    	movdqa 0x50(%rsp),%xmm5
  10da3e:	66 0f 6f 64 24 40    	movdqa 0x40(%rsp),%xmm4
  10da44:	66 0f 6f 5c 24 30    	movdqa 0x30(%rsp),%xmm3
  10da4a:	66 0f 6f 54 24 20    	movdqa 0x20(%rsp),%xmm2
  10da50:	66 0f 6f 4c 24 10    	movdqa 0x10(%rsp),%xmm1
  10da56:	66 0f 6f 04 24       	movdqa (%rsp),%xmm0
  10da5b:	48 81 c4 00 01 00 00 	add    $0x100,%rsp
  10da62:	5f                   	pop    %rdi
  10da63:	5e                   	pop    %rsi
  10da64:	5d                   	pop    %rbp
  10da65:	48 83 c4 08          	add    $0x8,%rsp
  10da69:	5b                   	pop    %rbx
  10da6a:	5a                   	pop    %rdx
  10da6b:	59                   	pop    %rcx
  10da6c:	58                   	pop    %rax
  10da6d:	41 58                	pop    %r8
  10da6f:	41 59                	pop    %r9
  10da71:	41 5a                	pop    %r10
  10da73:	41 5b                	pop    %r11
  10da75:	41 5c                	pop    %r12
  10da77:	41 5d                	pop    %r13
  10da79:	41 5e                	pop    %r14
  10da7b:	41 5f                	pop    %r15
  10da7d:	48 83 c4 10          	add    $0x10,%rsp
  10da81:	48 cf                	iretq  

000000000010da83 <isr0>:
  10da83:	6a 00                	pushq  $0x0
  10da85:	6a 00                	pushq  $0x0
  10da87:	e9 4b fd ff ff       	jmpq   10d7d7 <isr_common_stub>

000000000010da8c <isr1>:
  10da8c:	6a 00                	pushq  $0x0
  10da8e:	6a 01                	pushq  $0x1
  10da90:	e9 42 fd ff ff       	jmpq   10d7d7 <isr_common_stub>

000000000010da95 <isr2>:
  10da95:	6a 00                	pushq  $0x0
  10da97:	6a 02                	pushq  $0x2
  10da99:	e9 39 fd ff ff       	jmpq   10d7d7 <isr_common_stub>

000000000010da9e <isr3>:
  10da9e:	6a 00                	pushq  $0x0
  10daa0:	6a 03                	pushq  $0x3
  10daa2:	e9 30 fd ff ff       	jmpq   10d7d7 <isr_common_stub>

000000000010daa7 <isr4>:
  10daa7:	6a 00                	pushq  $0x0
  10daa9:	6a 04                	pushq  $0x4
  10daab:	e9 27 fd ff ff       	jmpq   10d7d7 <isr_common_stub>

000000000010dab0 <isr5>:
  10dab0:	6a 00                	pushq  $0x0
  10dab2:	6a 05                	pushq  $0x5
  10dab4:	e9 1e fd ff ff       	jmpq   10d7d7 <isr_common_stub>

000000000010dab9 <isr6>:
  10dab9:	6a 00                	pushq  $0x0
  10dabb:	6a 06                	pushq  $0x6
  10dabd:	e9 15 fd ff ff       	jmpq   10d7d7 <isr_common_stub>

000000000010dac2 <isr7>:
  10dac2:	6a 00                	pushq  $0x0
  10dac4:	6a 07                	pushq  $0x7
  10dac6:	e9 0c fd ff ff       	jmpq   10d7d7 <isr_common_stub>

000000000010dacb <isr8>:
  10dacb:	6a 08                	pushq  $0x8
  10dacd:	e9 05 fd ff ff       	jmpq   10d7d7 <isr_common_stub>

000000000010dad2 <isr9>:
  10dad2:	6a 00                	pushq  $0x0
  10dad4:	6a 09                	pushq  $0x9
  10dad6:	e9 fc fc ff ff       	jmpq   10d7d7 <isr_common_stub>

000000000010dadb <isr10>:
  10dadb:	6a 0a                	pushq  $0xa
  10dadd:	e9 f5 fc ff ff       	jmpq   10d7d7 <isr_common_stub>

000000000010dae2 <isr11>:
  10dae2:	6a 0b                	pushq  $0xb
  10dae4:	e9 ee fc ff ff       	jmpq   10d7d7 <isr_common_stub>

000000000010dae9 <isr12>:
  10dae9:	6a 0c                	pushq  $0xc
  10daeb:	e9 e7 fc ff ff       	jmpq   10d7d7 <isr_common_stub>

000000000010daf0 <isr13>:
  10daf0:	6a 0d                	pushq  $0xd
  10daf2:	e9 e0 fc ff ff       	jmpq   10d7d7 <isr_common_stub>

000000000010daf7 <isr14>:
  10daf7:	6a 0e                	pushq  $0xe
  10daf9:	e9 d9 fc ff ff       	jmpq   10d7d7 <isr_common_stub>

000000000010dafe <isr15>:
  10dafe:	6a 0f                	pushq  $0xf
  10db00:	e9 d2 fc ff ff       	jmpq   10d7d7 <isr_common_stub>

000000000010db05 <isr16>:
  10db05:	6a 10                	pushq  $0x10
  10db07:	e9 cb fc ff ff       	jmpq   10d7d7 <isr_common_stub>

000000000010db0c <isr17>:
  10db0c:	6a 11                	pushq  $0x11
  10db0e:	e9 c4 fc ff ff       	jmpq   10d7d7 <isr_common_stub>

000000000010db13 <isr18>:
  10db13:	6a 12                	pushq  $0x12
  10db15:	e9 bd fc ff ff       	jmpq   10d7d7 <isr_common_stub>

000000000010db1a <isr19>:
  10db1a:	6a 13                	pushq  $0x13
  10db1c:	e9 b6 fc ff ff       	jmpq   10d7d7 <isr_common_stub>

000000000010db21 <isr20>:
  10db21:	6a 14                	pushq  $0x14
  10db23:	e9 af fc ff ff       	jmpq   10d7d7 <isr_common_stub>

000000000010db28 <isr21>:
  10db28:	6a 15                	pushq  $0x15
  10db2a:	e9 a8 fc ff ff       	jmpq   10d7d7 <isr_common_stub>

000000000010db2f <isr22>:
  10db2f:	6a 16                	pushq  $0x16
  10db31:	e9 a1 fc ff ff       	jmpq   10d7d7 <isr_common_stub>

000000000010db36 <isr23>:
  10db36:	6a 17                	pushq  $0x17
  10db38:	e9 9a fc ff ff       	jmpq   10d7d7 <isr_common_stub>

000000000010db3d <isr24>:
  10db3d:	6a 18                	pushq  $0x18
  10db3f:	e9 93 fc ff ff       	jmpq   10d7d7 <isr_common_stub>

000000000010db44 <isr25>:
  10db44:	6a 19                	pushq  $0x19
  10db46:	e9 8c fc ff ff       	jmpq   10d7d7 <isr_common_stub>

000000000010db4b <isr26>:
  10db4b:	6a 1a                	pushq  $0x1a
  10db4d:	e9 85 fc ff ff       	jmpq   10d7d7 <isr_common_stub>

000000000010db52 <isr27>:
  10db52:	6a 1b                	pushq  $0x1b
  10db54:	e9 7e fc ff ff       	jmpq   10d7d7 <isr_common_stub>

000000000010db59 <isr28>:
  10db59:	6a 1c                	pushq  $0x1c
  10db5b:	e9 77 fc ff ff       	jmpq   10d7d7 <isr_common_stub>

000000000010db60 <isr29>:
  10db60:	6a 1d                	pushq  $0x1d
  10db62:	e9 70 fc ff ff       	jmpq   10d7d7 <isr_common_stub>

000000000010db67 <isr30>:
  10db67:	6a 1e                	pushq  $0x1e
  10db69:	e9 69 fc ff ff       	jmpq   10d7d7 <isr_common_stub>

000000000010db6e <isr31>:
  10db6e:	6a 1f                	pushq  $0x1f
  10db70:	e9 62 fc ff ff       	jmpq   10d7d7 <isr_common_stub>

000000000010db75 <irq0>:
  10db75:	6a 00                	pushq  $0x0
  10db77:	6a 20                	pushq  $0x20
  10db79:	e9 af fd ff ff       	jmpq   10d92d <irq_common_stub>

000000000010db7e <irq1>:
  10db7e:	6a 00                	pushq  $0x0
  10db80:	6a 21                	pushq  $0x21
  10db82:	e9 a6 fd ff ff       	jmpq   10d92d <irq_common_stub>

000000000010db87 <irq2>:
  10db87:	6a 00                	pushq  $0x0
  10db89:	6a 22                	pushq  $0x22
  10db8b:	e9 9d fd ff ff       	jmpq   10d92d <irq_common_stub>

000000000010db90 <irq3>:
  10db90:	6a 00                	pushq  $0x0
  10db92:	6a 23                	pushq  $0x23
  10db94:	e9 94 fd ff ff       	jmpq   10d92d <irq_common_stub>

000000000010db99 <irq4>:
  10db99:	6a 00                	pushq  $0x0
  10db9b:	6a 24                	pushq  $0x24
  10db9d:	e9 8b fd ff ff       	jmpq   10d92d <irq_common_stub>

000000000010dba2 <irq5>:
  10dba2:	6a 00                	pushq  $0x0
  10dba4:	6a 25                	pushq  $0x25
  10dba6:	e9 82 fd ff ff       	jmpq   10d92d <irq_common_stub>

000000000010dbab <irq6>:
  10dbab:	6a 00                	pushq  $0x0
  10dbad:	6a 26                	pushq  $0x26
  10dbaf:	e9 79 fd ff ff       	jmpq   10d92d <irq_common_stub>

000000000010dbb4 <irq7>:
  10dbb4:	6a 00                	pushq  $0x0
  10dbb6:	6a 27                	pushq  $0x27
  10dbb8:	e9 70 fd ff ff       	jmpq   10d92d <irq_common_stub>

000000000010dbbd <irq8>:
  10dbbd:	6a 00                	pushq  $0x0
  10dbbf:	6a 28                	pushq  $0x28
  10dbc1:	e9 67 fd ff ff       	jmpq   10d92d <irq_common_stub>

000000000010dbc6 <irq9>:
  10dbc6:	6a 00                	pushq  $0x0
  10dbc8:	6a 29                	pushq  $0x29
  10dbca:	e9 5e fd ff ff       	jmpq   10d92d <irq_common_stub>

000000000010dbcf <irq10>:
  10dbcf:	6a 00                	pushq  $0x0
  10dbd1:	6a 2a                	pushq  $0x2a
  10dbd3:	e9 55 fd ff ff       	jmpq   10d92d <irq_common_stub>

000000000010dbd8 <irq11>:
  10dbd8:	6a 00                	pushq  $0x0
  10dbda:	6a 2b                	pushq  $0x2b
  10dbdc:	e9 4c fd ff ff       	jmpq   10d92d <irq_common_stub>

000000000010dbe1 <irq12>:
  10dbe1:	6a 00                	pushq  $0x0
  10dbe3:	6a 2c                	pushq  $0x2c
  10dbe5:	e9 43 fd ff ff       	jmpq   10d92d <irq_common_stub>

000000000010dbea <irq13>:
  10dbea:	6a 00                	pushq  $0x0
  10dbec:	6a 2d                	pushq  $0x2d
  10dbee:	e9 3a fd ff ff       	jmpq   10d92d <irq_common_stub>

000000000010dbf3 <irq14>:
  10dbf3:	6a 00                	pushq  $0x0
  10dbf5:	6a 2e                	pushq  $0x2e
  10dbf7:	e9 31 fd ff ff       	jmpq   10d92d <irq_common_stub>

000000000010dbfc <irq15>:
  10dbfc:	6a 00                	pushq  $0x0
  10dbfe:	6a 2f                	pushq  $0x2f
  10dc00:	e9 28 fd ff ff       	jmpq   10d92d <irq_common_stub>
  10dc05:	66 2e 0f 1f 84 00 00 	nopw   %cs:0x0(%rax,%rax,1)
  10dc0c:	00 00 00 
  10dc0f:	90                   	nop

000000000010dc10 <StartProcess>:
  10dc10:	48 89 ec             	mov    %rbp,%rsp
  10dc13:	5d                   	pop    %rbp
  10dc14:	48 89 ec             	mov    %rbp,%rsp
  10dc17:	5d                   	pop    %rbp
  10dc18:	48 89 ec             	mov    %rbp,%rsp
  10dc1b:	5d                   	pop    %rbp
  10dc1c:	58                   	pop    %rax
  10dc1d:	48 83 c4 28          	add    $0x28,%rsp
  10dc21:	48 89 26             	mov    %rsp,(%rsi)
  10dc24:	0f 22 d9             	mov    %rcx,%cr3
  10dc27:	48 89 fc             	mov    %rdi,%rsp
  10dc2a:	66 44 0f 6f bc 24 f0 	movdqa 0xf0(%rsp),%xmm15
  10dc31:	00 00 00 
  10dc34:	66 44 0f 6f b4 24 e0 	movdqa 0xe0(%rsp),%xmm14
  10dc3b:	00 00 00 
  10dc3e:	66 44 0f 6f ac 24 d0 	movdqa 0xd0(%rsp),%xmm13
  10dc45:	00 00 00 
  10dc48:	66 44 0f 6f a4 24 c0 	movdqa 0xc0(%rsp),%xmm12
  10dc4f:	00 00 00 
  10dc52:	66 44 0f 6f a4 24 b0 	movdqa 0xb0(%rsp),%xmm12
  10dc59:	00 00 00 
  10dc5c:	66 44 0f 6f 94 24 a0 	movdqa 0xa0(%rsp),%xmm10
  10dc63:	00 00 00 
  10dc66:	66 44 0f 6f 8c 24 90 	movdqa 0x90(%rsp),%xmm9
  10dc6d:	00 00 00 
  10dc70:	66 44 0f 6f 84 24 80 	movdqa 0x80(%rsp),%xmm8
  10dc77:	00 00 00 
  10dc7a:	66 0f 6f 7c 24 70    	movdqa 0x70(%rsp),%xmm7
  10dc80:	66 0f 6f 74 24 60    	movdqa 0x60(%rsp),%xmm6
  10dc86:	66 0f 6f 6c 24 50    	movdqa 0x50(%rsp),%xmm5
  10dc8c:	66 0f 6f 64 24 40    	movdqa 0x40(%rsp),%xmm4
  10dc92:	66 0f 6f 5c 24 30    	movdqa 0x30(%rsp),%xmm3
  10dc98:	66 0f 6f 54 24 20    	movdqa 0x20(%rsp),%xmm2
  10dc9e:	66 0f 6f 4c 24 10    	movdqa 0x10(%rsp),%xmm1
  10dca4:	66 0f 6f 04 24       	movdqa (%rsp),%xmm0
  10dca9:	48 81 c4 00 01 00 00 	add    $0x100,%rsp
  10dcb0:	5f                   	pop    %rdi
  10dcb1:	5e                   	pop    %rsi
  10dcb2:	5d                   	pop    %rbp
  10dcb3:	48 83 c4 08          	add    $0x8,%rsp
  10dcb7:	5b                   	pop    %rbx
  10dcb8:	5a                   	pop    %rdx
  10dcb9:	59                   	pop    %rcx
  10dcba:	58                   	pop    %rax
  10dcbb:	41 58                	pop    %r8
  10dcbd:	41 59                	pop    %r9
  10dcbf:	41 5a                	pop    %r10
  10dcc1:	41 5b                	pop    %r11
  10dcc3:	41 5c                	pop    %r12
  10dcc5:	41 5d                	pop    %r13
  10dcc7:	41 5e                	pop    %r14
  10dcc9:	41 5f                	pop    %r15
  10dccb:	48 83 c4 10          	add    $0x10,%rsp
  10dccf:	fb                   	sti    
  10dcd0:	48 cf                	iretq  

000000000010dcd2 <StartProcess_FirstTime>:
  10dcd2:	0f 22 de             	mov    %rsi,%cr3
  10dcd5:	48 89 fc             	mov    %rdi,%rsp
  10dcd8:	66 44 0f 6f bc 24 f0 	movdqa 0xf0(%rsp),%xmm15
  10dcdf:	00 00 00 
  10dce2:	66 44 0f 6f b4 24 e0 	movdqa 0xe0(%rsp),%xmm14
  10dce9:	00 00 00 
  10dcec:	66 44 0f 6f ac 24 d0 	movdqa 0xd0(%rsp),%xmm13
  10dcf3:	00 00 00 
  10dcf6:	66 44 0f 6f a4 24 c0 	movdqa 0xc0(%rsp),%xmm12
  10dcfd:	00 00 00 
  10dd00:	66 44 0f 6f a4 24 b0 	movdqa 0xb0(%rsp),%xmm12
  10dd07:	00 00 00 
  10dd0a:	66 44 0f 6f 94 24 a0 	movdqa 0xa0(%rsp),%xmm10
  10dd11:	00 00 00 
  10dd14:	66 44 0f 6f 8c 24 90 	movdqa 0x90(%rsp),%xmm9
  10dd1b:	00 00 00 
  10dd1e:	66 44 0f 6f 84 24 80 	movdqa 0x80(%rsp),%xmm8
  10dd25:	00 00 00 
  10dd28:	66 0f 6f 7c 24 70    	movdqa 0x70(%rsp),%xmm7
  10dd2e:	66 0f 6f 74 24 60    	movdqa 0x60(%rsp),%xmm6
  10dd34:	66 0f 6f 6c 24 50    	movdqa 0x50(%rsp),%xmm5
  10dd3a:	66 0f 6f 64 24 40    	movdqa 0x40(%rsp),%xmm4
  10dd40:	66 0f 6f 5c 24 30    	movdqa 0x30(%rsp),%xmm3
  10dd46:	66 0f 6f 54 24 20    	movdqa 0x20(%rsp),%xmm2
  10dd4c:	66 0f 6f 4c 24 10    	movdqa 0x10(%rsp),%xmm1
  10dd52:	66 0f 6f 04 24       	movdqa (%rsp),%xmm0
  10dd57:	48 81 c4 00 01 00 00 	add    $0x100,%rsp
  10dd5e:	5f                   	pop    %rdi
  10dd5f:	5e                   	pop    %rsi
  10dd60:	5d                   	pop    %rbp
  10dd61:	48 83 c4 08          	add    $0x8,%rsp
  10dd65:	5b                   	pop    %rbx
  10dd66:	5a                   	pop    %rdx
  10dd67:	59                   	pop    %rcx
  10dd68:	58                   	pop    %rax
  10dd69:	41 58                	pop    %r8
  10dd6b:	41 59                	pop    %r9
  10dd6d:	41 5a                	pop    %r10
  10dd6f:	41 5b                	pop    %r11
  10dd71:	41 5c                	pop    %r12
  10dd73:	41 5d                	pop    %r13
  10dd75:	41 5e                	pop    %r14
  10dd77:	41 5f                	pop    %r15
  10dd79:	48 83 c4 10          	add    $0x10,%rsp
  10dd7d:	fb                   	sti    
  10dd7e:	48 cf                	iretq  

000000000010dd80 <__strlen>:
  10dd80:	53                   	push   %rbx
  10dd81:	51                   	push   %rcx
  10dd82:	48 89 fb             	mov    %rdi,%rbx
  10dd85:	30 c0                	xor    %al,%al
  10dd87:	b9 ff ff ff ff       	mov    $0xffffffff,%ecx
  10dd8c:	f2 ae                	repnz scas %es:(%rdi),%al
  10dd8e:	48 29 df             	sub    %rbx,%rdi
  10dd91:	48 89 f8             	mov    %rdi,%rax
  10dd94:	48 ff c8             	dec    %rax
  10dd97:	59                   	pop    %rcx
  10dd98:	5b                   	pop    %rbx
  10dd99:	c3                   	retq   

000000000010dd9a <__strcmp>:
  10dd9a:	57                   	push   %rdi
  10dd9b:	56                   	push   %rsi
  10dd9c:	e8 df ff ff ff       	callq  10dd80 <__strlen>
  10dda1:	48 89 c1             	mov    %rax,%rcx
  10dda4:	48 89 f7             	mov    %rsi,%rdi
  10dda7:	e8 d4 ff ff ff       	callq  10dd80 <__strlen>
  10ddac:	48 89 c2             	mov    %rax,%rdx
  10ddaf:	5e                   	pop    %rsi
  10ddb0:	5f                   	pop    %rdi
  10ddb1:	48 31 c0             	xor    %rax,%rax
  10ddb4:	48 39 d1             	cmp    %rdx,%rcx
  10ddb7:	74 07                	je     10ddc0 <compare>
  10ddb9:	48 89 d0             	mov    %rdx,%rax
  10ddbc:	48 29 c8             	sub    %rcx,%rax
  10ddbf:	c3                   	retq   

000000000010ddc0 <compare>:
  10ddc0:	fc                   	cld    
  10ddc1:	f3 a6                	repz cmpsb %es:(%rdi),%ds:(%rsi)
  10ddc3:	0f 94 c0             	sete   %al
  10ddc6:	c3                   	retq   

000000000010ddc7 <__strncmp>:
  10ddc7:	48 31 c0             	xor    %rax,%rax
  10ddca:	48 89 d1             	mov    %rdx,%rcx
  10ddcd:	fc                   	cld    
  10ddce:	f3 a6                	repz cmpsb %es:(%rdi),%ds:(%rsi)
  10ddd0:	0f 94 c0             	sete   %al
  10ddd3:	c3                   	retq   

000000000010ddd4 <__strcpy>:
  10ddd4:	57                   	push   %rdi
  10ddd5:	48 89 f7             	mov    %rsi,%rdi
  10ddd8:	e8 a3 ff ff ff       	callq  10dd80 <__strlen>
  10dddd:	48 89 c2             	mov    %rax,%rdx
  10dde0:	48 ff c2             	inc    %rdx
  10dde3:	5f                   	pop    %rdi
  10dde4:	e8 10 00 00 00       	callq  10ddf9 <__memcpy>
  10dde9:	48 89 f8             	mov    %rdi,%rax
  10ddec:	c3                   	retq   
  10dded:	0f 1f 00             	nopl   (%rax)

000000000010ddf0 <__memset>:
  10ddf0:	48 89 d1             	mov    %rdx,%rcx
  10ddf3:	48 89 f0             	mov    %rsi,%rax
  10ddf6:	f3 aa                	rep stos %al,%es:(%rdi)
  10ddf8:	c3                   	retq   

000000000010ddf9 <__memcpy>:
  10ddf9:	48 89 d1             	mov    %rdx,%rcx
  10ddfc:	f3 a4                	rep movsb %ds:(%rsi),%es:(%rdi)
  10ddfe:	c3                   	retq   

000000000010ddff <__memcmp>:
  10ddff:	48 31 c0             	xor    %rax,%rax
  10de02:	48 89 d1             	mov    %rdx,%rcx
  10de05:	fc                   	cld    
  10de06:	f3 a6                	repz cmpsb %es:(%rdi),%ds:(%rsi)
  10de08:	0f 94 c0             	sete   %al
  10de0b:	c3                   	retq   

Disassembly of section .text._ZN14PageMapIndexerC2Em:

000000000010de0c <_ZN14PageMapIndexerC1Em>:
  10de0c:	f3 0f 1e fa          	endbr64 
  10de10:	55                   	push   %rbp
  10de11:	48 89 e5             	mov    %rsp,%rbp
  10de14:	48 83 ec 10          	sub    $0x10,%rsp
  10de18:	48 89 7d f8          	mov    %rdi,-0x8(%rbp)
  10de1c:	48 89 75 f0          	mov    %rsi,-0x10(%rbp)
  10de20:	48 c1 6d f0 0c       	shrq   $0xc,-0x10(%rbp)
  10de25:	48 8b 45 f0          	mov    -0x10(%rbp),%rax
  10de29:	25 ff 01 00 00       	and    $0x1ff,%eax
  10de2e:	48 89 c2             	mov    %rax,%rdx
  10de31:	48 8b 45 f8          	mov    -0x8(%rbp),%rax
  10de35:	48 89 50 18          	mov    %rdx,0x18(%rax)
  10de39:	48 c1 6d f0 09       	shrq   $0x9,-0x10(%rbp)
  10de3e:	48 8b 45 f0          	mov    -0x10(%rbp),%rax
  10de42:	25 ff 01 00 00       	and    $0x1ff,%eax
  10de47:	48 89 c2             	mov    %rax,%rdx
  10de4a:	48 8b 45 f8          	mov    -0x8(%rbp),%rax
  10de4e:	48 89 50 10          	mov    %rdx,0x10(%rax)
  10de52:	48 c1 6d f0 09       	shrq   $0x9,-0x10(%rbp)
  10de57:	48 8b 45 f0          	mov    -0x10(%rbp),%rax
  10de5b:	25 ff 01 00 00       	and    $0x1ff,%eax
  10de60:	48 89 c2             	mov    %rax,%rdx
  10de63:	48 8b 45 f8          	mov    -0x8(%rbp),%rax
  10de67:	48 89 50 08          	mov    %rdx,0x8(%rax)
  10de6b:	48 c1 6d f0 09       	shrq   $0x9,-0x10(%rbp)
  10de70:	48 8b 45 f0          	mov    -0x10(%rbp),%rax
  10de74:	25 ff 01 00 00       	and    $0x1ff,%eax
  10de79:	48 89 c2             	mov    %rax,%rdx
  10de7c:	48 8b 45 f8          	mov    -0x8(%rbp),%rax
  10de80:	48 89 10             	mov    %rdx,(%rax)
  10de83:	90                   	nop
  10de84:	c9                   	leaveq 
  10de85:	c3                   	retq   

Disassembly of section .text._ZN16PageTableManagerC2EP9PageTable:

000000000010de86 <_ZN16PageTableManagerC1EP9PageTable>:
  10de86:	f3 0f 1e fa          	endbr64 
  10de8a:	55                   	push   %rbp
  10de8b:	48 89 e5             	mov    %rsp,%rbp
  10de8e:	48 83 ec 10          	sub    $0x10,%rsp
  10de92:	48 89 7d f8          	mov    %rdi,-0x8(%rbp)
  10de96:	48 89 75 f0          	mov    %rsi,-0x10(%rbp)
  10de9a:	48 8b 45 f8          	mov    -0x8(%rbp),%rax
  10de9e:	48 8b 55 f0          	mov    -0x10(%rbp),%rdx
  10dea2:	48 89 10             	mov    %rdx,(%rax)
  10dea5:	90                   	nop
  10dea6:	c9                   	leaveq 
  10dea7:	c3                   	retq   

Disassembly of section .text._ZN16PageTableManager7GetPML4Ev:

000000000010dea8 <_ZN16PageTableManager7GetPML4Ev>:
  10dea8:	f3 0f 1e fa          	endbr64 
  10deac:	55                   	push   %rbp
  10dead:	48 89 e5             	mov    %rsp,%rbp
  10deb0:	48 83 ec 08          	sub    $0x8,%rsp
  10deb4:	48 89 7d f8          	mov    %rdi,-0x8(%rbp)
  10deb8:	48 8b 45 f8          	mov    -0x8(%rbp),%rax
  10debc:	48 8b 00             	mov    (%rax),%rax
  10debf:	c9                   	leaveq 
  10dec0:	c3                   	retq   

Disassembly of section .text._ZN6Bitmap7SetSizeEm:

000000000010dec2 <_ZN6Bitmap7SetSizeEm>:
  10dec2:	f3 0f 1e fa          	endbr64 
  10dec6:	55                   	push   %rbp
  10dec7:	48 89 e5             	mov    %rsp,%rbp
  10deca:	48 83 ec 10          	sub    $0x10,%rsp
  10dece:	48 89 7d f8          	mov    %rdi,-0x8(%rbp)
  10ded2:	48 89 75 f0          	mov    %rsi,-0x10(%rbp)
  10ded6:	48 8b 45 f8          	mov    -0x8(%rbp),%rax
  10deda:	48 8b 55 f0          	mov    -0x10(%rbp),%rdx
  10dede:	48 89 10             	mov    %rdx,(%rax)
  10dee1:	90                   	nop
  10dee2:	c9                   	leaveq 
  10dee3:	c3                   	retq   

Disassembly of section .text._ZN6Bitmap9SetBufferEPm:

000000000010dee4 <_ZN6Bitmap9SetBufferEPm>:
  10dee4:	f3 0f 1e fa          	endbr64 
  10dee8:	55                   	push   %rbp
  10dee9:	48 89 e5             	mov    %rsp,%rbp
  10deec:	48 83 ec 10          	sub    $0x10,%rsp
  10def0:	48 89 7d f8          	mov    %rdi,-0x8(%rbp)
  10def4:	48 89 75 f0          	mov    %rsi,-0x10(%rbp)
  10def8:	48 8b 45 f8          	mov    -0x8(%rbp),%rax
  10defc:	48 8b 55 f0          	mov    -0x10(%rbp),%rdx
  10df00:	48 89 50 08          	mov    %rdx,0x8(%rax)
  10df04:	90                   	nop
  10df05:	c9                   	leaveq 
  10df06:	c3                   	retq   

Disassembly of section .text._ZNK9MemoryMap13GetEntryCountEv:

000000000010df08 <_ZNK9MemoryMap13GetEntryCountEv>:
  10df08:	f3 0f 1e fa          	endbr64 
  10df0c:	55                   	push   %rbp
  10df0d:	48 89 e5             	mov    %rsp,%rbp
  10df10:	48 83 ec 08          	sub    $0x8,%rsp
  10df14:	48 89 7d f8          	mov    %rdi,-0x8(%rbp)
  10df18:	48 8b 45 f8          	mov    -0x8(%rbp),%rax
  10df1c:	48 8b 40 08          	mov    0x8(%rax),%rax
  10df20:	c9                   	leaveq 
  10df21:	c3                   	retq   

Disassembly of section .text._ZNK9MemoryMap8GetEntryEm:

000000000010df22 <_ZNK9MemoryMap8GetEntryEm>:
  10df22:	f3 0f 1e fa          	endbr64 
  10df26:	55                   	push   %rbp
  10df27:	48 89 e5             	mov    %rsp,%rbp
  10df2a:	48 83 ec 10          	sub    $0x10,%rsp
  10df2e:	48 89 7d f8          	mov    %rdi,-0x8(%rbp)
  10df32:	48 89 75 f0          	mov    %rsi,-0x10(%rbp)
  10df36:	48 8b 45 f8          	mov    -0x8(%rbp),%rax
  10df3a:	48 8b 08             	mov    (%rax),%rcx
  10df3d:	48 8b 55 f0          	mov    -0x10(%rbp),%rdx
  10df41:	48 89 d0             	mov    %rdx,%rax
  10df44:	48 01 c0             	add    %rax,%rax
  10df47:	48 01 d0             	add    %rdx,%rax
  10df4a:	48 c1 e0 03          	shl    $0x3,%rax
  10df4e:	48 01 c8             	add    %rcx,%rax
  10df51:	c9                   	leaveq 
  10df52:	c3                   	retq   

Disassembly of section .text._ZN6vectorIPN4AHCI10AHCIDeviceEED2Ev:

000000000010df54 <_ZN6vectorIPN4AHCI10AHCIDeviceEED1Ev>:
  10df54:	f3 0f 1e fa          	endbr64 
  10df58:	55                   	push   %rbp
  10df59:	48 89 e5             	mov    %rsp,%rbp
  10df5c:	48 83 ec 10          	sub    $0x10,%rsp
  10df60:	48 89 7d f8          	mov    %rdi,-0x8(%rbp)
  10df64:	48 8b 45 f8          	mov    -0x8(%rbp),%rax
  10df68:	48 8b 40 10          	mov    0x10(%rax),%rax
  10df6c:	48 85 c0             	test   %rax,%rax
  10df6f:	74 10                	je     10df81 <_ZN6vectorIPN4AHCI10AHCIDeviceEED1Ev+0x2d>
  10df71:	48 8b 45 f8          	mov    -0x8(%rbp),%rax
  10df75:	48 8b 40 10          	mov    0x10(%rax),%rax
  10df79:	48 89 c7             	mov    %rax,%rdi
  10df7c:	e8 65 5a ff ff       	callq  1039e6 <_ZdaPv>
  10df81:	90                   	nop
  10df82:	c9                   	leaveq 
  10df83:	c3                   	retq   

Disassembly of section .text._ZNK6vectorIPN4AHCI10AHCIDeviceEE4sizeEv:

000000000010df84 <_ZNK6vectorIPN4AHCI10AHCIDeviceEE4sizeEv>:
  10df84:	f3 0f 1e fa          	endbr64 
  10df88:	55                   	push   %rbp
  10df89:	48 89 e5             	mov    %rsp,%rbp
  10df8c:	48 83 ec 08          	sub    $0x8,%rsp
  10df90:	48 89 7d f8          	mov    %rdi,-0x8(%rbp)
  10df94:	48 8b 45 f8          	mov    -0x8(%rbp),%rax
  10df98:	48 8b 40 08          	mov    0x8(%rax),%rax
  10df9c:	c9                   	leaveq 
  10df9d:	c3                   	retq   

Disassembly of section .text._ZN6vectorIPN4AHCI10AHCIDeviceEEixEm:

000000000010df9e <_ZN6vectorIPN4AHCI10AHCIDeviceEEixEm>:
  10df9e:	f3 0f 1e fa          	endbr64 
  10dfa2:	55                   	push   %rbp
  10dfa3:	48 89 e5             	mov    %rsp,%rbp
  10dfa6:	48 83 ec 10          	sub    $0x10,%rsp
  10dfaa:	48 89 7d f8          	mov    %rdi,-0x8(%rbp)
  10dfae:	48 89 75 f0          	mov    %rsi,-0x10(%rbp)
  10dfb2:	48 8b 45 f8          	mov    -0x8(%rbp),%rax
  10dfb6:	48 8b 40 08          	mov    0x8(%rax),%rax
  10dfba:	48 39 45 f0          	cmp    %rax,-0x10(%rbp)
  10dfbe:	73 15                	jae    10dfd5 <_ZN6vectorIPN4AHCI10AHCIDeviceEEixEm+0x37>
  10dfc0:	48 8b 45 f8          	mov    -0x8(%rbp),%rax
  10dfc4:	48 8b 40 10          	mov    0x10(%rax),%rax
  10dfc8:	48 8b 55 f0          	mov    -0x10(%rbp),%rdx
  10dfcc:	48 c1 e2 03          	shl    $0x3,%rdx
  10dfd0:	48 01 d0             	add    %rdx,%rax
  10dfd3:	eb 00                	jmp    10dfd5 <_ZN6vectorIPN4AHCI10AHCIDeviceEEixEm+0x37>
  10dfd5:	c9                   	leaveq 
  10dfd6:	c3                   	retq   

Disassembly of section .text._ZN6DeviceD2Ev:

000000000010dfd8 <_ZN6DeviceD1Ev>:
  10dfd8:	f3 0f 1e fa          	endbr64 
  10dfdc:	55                   	push   %rbp
  10dfdd:	48 89 e5             	mov    %rsp,%rbp
  10dfe0:	48 83 ec 08          	sub    $0x8,%rsp
  10dfe4:	48 89 7d f8          	mov    %rdi,-0x8(%rbp)
  10dfe8:	48 8d 15 f1 14 00 00 	lea    0x14f1(%rip),%rdx        # 10f4e0 <_ZTV6Device+0x10>
  10dfef:	48 8b 45 f8          	mov    -0x8(%rbp),%rax
  10dff3:	48 89 10             	mov    %rdx,(%rax)
  10dff6:	90                   	nop
  10dff7:	c9                   	leaveq 
  10dff8:	c3                   	retq   

Disassembly of section .text._ZN6DeviceD0Ev:

000000000010dffa <_ZN6DeviceD0Ev>:
  10dffa:	f3 0f 1e fa          	endbr64 
  10dffe:	55                   	push   %rbp
  10dfff:	48 89 e5             	mov    %rsp,%rbp
  10e002:	48 83 ec 10          	sub    $0x10,%rsp
  10e006:	48 89 7d f8          	mov    %rdi,-0x8(%rbp)
  10e00a:	48 8b 45 f8          	mov    -0x8(%rbp),%rax
  10e00e:	48 89 c7             	mov    %rax,%rdi
  10e011:	e8 c2 ff ff ff       	callq  10dfd8 <_ZN6DeviceD1Ev>
  10e016:	48 8b 45 f8          	mov    -0x8(%rbp),%rax
  10e01a:	be 08 00 00 00       	mov    $0x8,%esi
  10e01f:	48 89 c7             	mov    %rax,%rdi
  10e022:	e8 de 59 ff ff       	callq  103a05 <_ZdlPvm>
  10e027:	c9                   	leaveq 
  10e028:	c3                   	retq   

Disassembly of section .text._ZN9ATADeviceD2Ev:

000000000010e02a <_ZN9ATADeviceD1Ev>:
  10e02a:	f3 0f 1e fa          	endbr64 
  10e02e:	55                   	push   %rbp
  10e02f:	48 89 e5             	mov    %rsp,%rbp
  10e032:	48 83 ec 10          	sub    $0x10,%rsp
  10e036:	48 89 7d f8          	mov    %rdi,-0x8(%rbp)
  10e03a:	48 8d 15 67 14 00 00 	lea    0x1467(%rip),%rdx        # 10f4a8 <_ZTV9ATADevice+0x10>
  10e041:	48 8b 45 f8          	mov    -0x8(%rbp),%rax
  10e045:	48 89 10             	mov    %rdx,(%rax)
  10e048:	48 8b 45 f8          	mov    -0x8(%rbp),%rax
  10e04c:	48 89 c7             	mov    %rax,%rdi
  10e04f:	e8 84 ff ff ff       	callq  10dfd8 <_ZN6DeviceD1Ev>
  10e054:	90                   	nop
  10e055:	c9                   	leaveq 
  10e056:	c3                   	retq   

Disassembly of section .text._ZN9ATADeviceD0Ev:

000000000010e058 <_ZN9ATADeviceD0Ev>:
  10e058:	f3 0f 1e fa          	endbr64 
  10e05c:	55                   	push   %rbp
  10e05d:	48 89 e5             	mov    %rsp,%rbp
  10e060:	48 83 ec 10          	sub    $0x10,%rsp
  10e064:	48 89 7d f8          	mov    %rdi,-0x8(%rbp)
  10e068:	48 8b 45 f8          	mov    -0x8(%rbp),%rax
  10e06c:	48 89 c7             	mov    %rax,%rdi
  10e06f:	e8 b6 ff ff ff       	callq  10e02a <_ZN9ATADeviceD1Ev>
  10e074:	48 8b 45 f8          	mov    -0x8(%rbp),%rax
  10e078:	be 08 00 00 00       	mov    $0x8,%esi
  10e07d:	48 89 c7             	mov    %rax,%rdi
  10e080:	e8 80 59 ff ff       	callq  103a05 <_ZdlPvm>
  10e085:	c9                   	leaveq 
  10e086:	c3                   	retq   

Disassembly of section .text._ZN9ATADevice7GetTypeEv:

000000000010e088 <_ZN9ATADevice7GetTypeEv>:
  10e088:	f3 0f 1e fa          	endbr64 
  10e08c:	55                   	push   %rbp
  10e08d:	48 89 e5             	mov    %rsp,%rbp
  10e090:	48 83 ec 08          	sub    $0x8,%rsp
  10e094:	48 89 7d f8          	mov    %rdi,-0x8(%rbp)
  10e098:	b8 01 00 00 00       	mov    $0x1,%eax
  10e09d:	c9                   	leaveq 
  10e09e:	c3                   	retq   

Disassembly of section .text._ZN6DeviceC2Ev:

000000000010e0a0 <_ZN6DeviceC1Ev>:
  10e0a0:	f3 0f 1e fa          	endbr64 
  10e0a4:	55                   	push   %rbp
  10e0a5:	48 89 e5             	mov    %rsp,%rbp
  10e0a8:	48 83 ec 08          	sub    $0x8,%rsp
  10e0ac:	48 89 7d f8          	mov    %rdi,-0x8(%rbp)
  10e0b0:	48 8d 15 29 14 00 00 	lea    0x1429(%rip),%rdx        # 10f4e0 <_ZTV6Device+0x10>
  10e0b7:	48 8b 45 f8          	mov    -0x8(%rbp),%rax
  10e0bb:	48 89 10             	mov    %rdx,(%rax)
  10e0be:	90                   	nop
  10e0bf:	c9                   	leaveq 
  10e0c0:	c3                   	retq   

Disassembly of section .text._ZN4AHCI10AHCIDevice7GetTypeEv:

000000000010e0c2 <_ZN4AHCI10AHCIDevice7GetTypeEv>:
  10e0c2:	f3 0f 1e fa          	endbr64 
  10e0c6:	55                   	push   %rbp
  10e0c7:	48 89 e5             	mov    %rsp,%rbp
  10e0ca:	48 83 ec 08          	sub    $0x8,%rsp
  10e0ce:	48 89 7d f8          	mov    %rdi,-0x8(%rbp)
  10e0d2:	b8 02 00 00 00       	mov    $0x2,%eax
  10e0d7:	c9                   	leaveq 
  10e0d8:	c3                   	retq   

Disassembly of section .text._ZN6vectorIPN4AHCI10AHCIDeviceEEC2Ev:

000000000010e0da <_ZN6vectorIPN4AHCI10AHCIDeviceEEC1Ev>:
  10e0da:	f3 0f 1e fa          	endbr64 
  10e0de:	55                   	push   %rbp
  10e0df:	48 89 e5             	mov    %rsp,%rbp
  10e0e2:	48 83 ec 10          	sub    $0x10,%rsp
  10e0e6:	48 89 7d f8          	mov    %rdi,-0x8(%rbp)
  10e0ea:	bf 10 00 00 00       	mov    $0x10,%edi
  10e0ef:	e8 b5 58 ff ff       	callq  1039a9 <_Znam>
  10e0f4:	48 89 c2             	mov    %rax,%rdx
  10e0f7:	48 8b 45 f8          	mov    -0x8(%rbp),%rax
  10e0fb:	48 89 50 10          	mov    %rdx,0x10(%rax)
  10e0ff:	48 8b 45 f8          	mov    -0x8(%rbp),%rax
  10e103:	48 c7 40 08 00 00 00 	movq   $0x0,0x8(%rax)
  10e10a:	00 
  10e10b:	48 8b 45 f8          	mov    -0x8(%rbp),%rax
  10e10f:	48 c7 00 02 00 00 00 	movq   $0x2,(%rax)
  10e116:	90                   	nop
  10e117:	c9                   	leaveq 
  10e118:	c3                   	retq   

Disassembly of section .text._ZN6vectorIPN4AHCI10AHCIDeviceEE9push_backERKS2_:

000000000010e11a <_ZN6vectorIPN4AHCI10AHCIDeviceEE9push_backERKS2_>:
  10e11a:	f3 0f 1e fa          	endbr64 
  10e11e:	55                   	push   %rbp
  10e11f:	48 89 e5             	mov    %rsp,%rbp
  10e122:	48 83 ec 10          	sub    $0x10,%rsp
  10e126:	48 89 7d f8          	mov    %rdi,-0x8(%rbp)
  10e12a:	48 89 75 f0          	mov    %rsi,-0x10(%rbp)
  10e12e:	48 8b 45 f8          	mov    -0x8(%rbp),%rax
  10e132:	48 8b 50 08          	mov    0x8(%rax),%rdx
  10e136:	48 8b 45 f8          	mov    -0x8(%rbp),%rax
  10e13a:	48 8b 00             	mov    (%rax),%rax
  10e13d:	48 39 c2             	cmp    %rax,%rdx
  10e140:	75 1a                	jne    10e15c <_ZN6vectorIPN4AHCI10AHCIDeviceEE9push_backERKS2_+0x42>
  10e142:	48 8b 45 f8          	mov    -0x8(%rbp),%rax
  10e146:	48 8b 00             	mov    (%rax),%rax
  10e149:	48 8d 14 00          	lea    (%rax,%rax,1),%rdx
  10e14d:	48 8b 45 f8          	mov    -0x8(%rbp),%rax
  10e151:	48 89 d6             	mov    %rdx,%rsi
  10e154:	48 89 c7             	mov    %rax,%rdi
  10e157:	e8 32 00 00 00       	callq  10e18e <_ZN6vectorIPN4AHCI10AHCIDeviceEE6resizeEm>
  10e15c:	48 8b 45 f8          	mov    -0x8(%rbp),%rax
  10e160:	48 8b 70 10          	mov    0x10(%rax),%rsi
  10e164:	48 8b 45 f8          	mov    -0x8(%rbp),%rax
  10e168:	48 8b 40 08          	mov    0x8(%rax),%rax
  10e16c:	48 8d 48 01          	lea    0x1(%rax),%rcx
  10e170:	48 8b 55 f8          	mov    -0x8(%rbp),%rdx
  10e174:	48 89 4a 08          	mov    %rcx,0x8(%rdx)
  10e178:	48 c1 e0 03          	shl    $0x3,%rax
  10e17c:	48 8d 14 06          	lea    (%rsi,%rax,1),%rdx
  10e180:	48 8b 45 f0          	mov    -0x10(%rbp),%rax
  10e184:	48 8b 00             	mov    (%rax),%rax
  10e187:	48 89 02             	mov    %rax,(%rdx)
  10e18a:	90                   	nop
  10e18b:	c9                   	leaveq 
  10e18c:	c3                   	retq   

Disassembly of section .text._ZN6vectorIPN4AHCI10AHCIDeviceEE6resizeEm:

000000000010e18e <_ZN6vectorIPN4AHCI10AHCIDeviceEE6resizeEm>:
  10e18e:	f3 0f 1e fa          	endbr64 
  10e192:	55                   	push   %rbp
  10e193:	48 89 e5             	mov    %rsp,%rbp
  10e196:	48 83 ec 20          	sub    $0x20,%rsp
  10e19a:	48 89 7d e8          	mov    %rdi,-0x18(%rbp)
  10e19e:	48 89 75 e0          	mov    %rsi,-0x20(%rbp)
  10e1a2:	48 8b 45 e8          	mov    -0x18(%rbp),%rax
  10e1a6:	48 8b 55 e0          	mov    -0x20(%rbp),%rdx
  10e1aa:	48 89 10             	mov    %rdx,(%rax)
  10e1ad:	48 8b 45 e8          	mov    -0x18(%rbp),%rax
  10e1b1:	48 8b 00             	mov    (%rax),%rax
  10e1b4:	48 ba ff ff ff ff ff 	movabs $0xfffffffffffffff,%rdx
  10e1bb:	ff ff 0f 
  10e1be:	48 39 d0             	cmp    %rdx,%rax
  10e1c1:	77 06                	ja     10e1c9 <_ZN6vectorIPN4AHCI10AHCIDeviceEE6resizeEm+0x3b>
  10e1c3:	48 c1 e0 03          	shl    $0x3,%rax
  10e1c7:	eb 07                	jmp    10e1d0 <_ZN6vectorIPN4AHCI10AHCIDeviceEE6resizeEm+0x42>
  10e1c9:	48 c7 c0 ff ff ff ff 	mov    $0xffffffffffffffff,%rax
  10e1d0:	48 89 c7             	mov    %rax,%rdi
  10e1d3:	e8 d1 57 ff ff       	callq  1039a9 <_Znam>
  10e1d8:	48 89 45 f8          	mov    %rax,-0x8(%rbp)
  10e1dc:	48 8b 45 e8          	mov    -0x18(%rbp),%rax
  10e1e0:	48 8b 40 08          	mov    0x8(%rax),%rax
  10e1e4:	48 8d 14 c5 00 00 00 	lea    0x0(,%rax,8),%rdx
  10e1eb:	00 
  10e1ec:	48 8b 45 e8          	mov    -0x18(%rbp),%rax
  10e1f0:	48 8b 48 10          	mov    0x10(%rax),%rcx
  10e1f4:	48 8b 45 f8          	mov    -0x8(%rbp),%rax
  10e1f8:	48 89 ce             	mov    %rcx,%rsi
  10e1fb:	48 89 c7             	mov    %rax,%rdi
  10e1fe:	e8 0a ea ff ff       	callq  10cc0d <_Z6memcpyPvPKvm>
  10e203:	48 8b 45 e8          	mov    -0x18(%rbp),%rax
  10e207:	48 8b 40 10          	mov    0x10(%rax),%rax
  10e20b:	48 85 c0             	test   %rax,%rax
  10e20e:	74 10                	je     10e220 <_ZN6vectorIPN4AHCI10AHCIDeviceEE6resizeEm+0x92>
  10e210:	48 8b 45 e8          	mov    -0x18(%rbp),%rax
  10e214:	48 8b 40 10          	mov    0x10(%rax),%rax
  10e218:	48 89 c7             	mov    %rax,%rdi
  10e21b:	e8 c6 57 ff ff       	callq  1039e6 <_ZdaPv>
  10e220:	48 8b 45 e8          	mov    -0x18(%rbp),%rax
  10e224:	48 8b 55 f8          	mov    -0x8(%rbp),%rdx
  10e228:	48 89 50 10          	mov    %rdx,0x10(%rax)
  10e22c:	90                   	nop
  10e22d:	c9                   	leaveq 
  10e22e:	c3                   	retq   

Disassembly of section .text._ZN4AHCI10AHCIDeviceD2Ev:

000000000010e230 <_ZN4AHCI10AHCIDeviceD1Ev>:
  10e230:	f3 0f 1e fa          	endbr64 
  10e234:	55                   	push   %rbp
  10e235:	48 89 e5             	mov    %rsp,%rbp
  10e238:	48 83 ec 10          	sub    $0x10,%rsp
  10e23c:	48 89 7d f8          	mov    %rdi,-0x8(%rbp)
  10e240:	48 8d 15 d1 12 00 00 	lea    0x12d1(%rip),%rdx        # 10f518 <_ZTVN4AHCI10AHCIDeviceE+0x10>
  10e247:	48 8b 45 f8          	mov    -0x8(%rbp),%rax
  10e24b:	48 89 10             	mov    %rdx,(%rax)
  10e24e:	48 8b 45 f8          	mov    -0x8(%rbp),%rax
  10e252:	48 89 c7             	mov    %rax,%rdi
  10e255:	e8 7e fd ff ff       	callq  10dfd8 <_ZN6DeviceD1Ev>
  10e25a:	90                   	nop
  10e25b:	c9                   	leaveq 
  10e25c:	c3                   	retq   

Disassembly of section .text._ZN4AHCI10AHCIDeviceD0Ev:

000000000010e25e <_ZN4AHCI10AHCIDeviceD0Ev>:
  10e25e:	f3 0f 1e fa          	endbr64 
  10e262:	55                   	push   %rbp
  10e263:	48 89 e5             	mov    %rsp,%rbp
  10e266:	48 83 ec 10          	sub    $0x10,%rsp
  10e26a:	48 89 7d f8          	mov    %rdi,-0x8(%rbp)
  10e26e:	48 8b 45 f8          	mov    -0x8(%rbp),%rax
  10e272:	48 89 c7             	mov    %rax,%rdi
  10e275:	e8 b6 ff ff ff       	callq  10e230 <_ZN4AHCI10AHCIDeviceD1Ev>
  10e27a:	48 8b 45 f8          	mov    -0x8(%rbp),%rax
  10e27e:	be 10 00 00 00       	mov    $0x10,%esi
  10e283:	48 89 c7             	mov    %rax,%rdi
  10e286:	e8 7a 57 ff ff       	callq  103a05 <_ZdlPvm>
  10e28b:	c9                   	leaveq 
  10e28c:	c3                   	retq   

Disassembly of section .text._ZN10ActiveFileC2Ev:

000000000010e28e <_ZN10ActiveFileC1Ev>:
  10e28e:	f3 0f 1e fa          	endbr64 
  10e292:	55                   	push   %rbp
  10e293:	48 89 e5             	mov    %rsp,%rbp
  10e296:	48 83 ec 08          	sub    $0x8,%rsp
  10e29a:	48 89 7d f8          	mov    %rdi,-0x8(%rbp)
  10e29e:	48 8d 15 8b 13 00 00 	lea    0x138b(%rip),%rdx        # 10f630 <_ZTV10ActiveFile+0x10>
  10e2a5:	48 8b 45 f8          	mov    -0x8(%rbp),%rax
  10e2a9:	48 89 10             	mov    %rdx,(%rax)
  10e2ac:	48 8b 45 f8          	mov    -0x8(%rbp),%rax
  10e2b0:	48 c7 40 08 00 00 00 	movq   $0x0,0x8(%rax)
  10e2b7:	00 
  10e2b8:	90                   	nop
  10e2b9:	c9                   	leaveq 
  10e2ba:	c3                   	retq   

Disassembly of section .text._ZN10ActiveFileD2Ev:

000000000010e2bc <_ZN10ActiveFileD1Ev>:
  10e2bc:	f3 0f 1e fa          	endbr64 
  10e2c0:	55                   	push   %rbp
  10e2c1:	48 89 e5             	mov    %rsp,%rbp
  10e2c4:	48 83 ec 08          	sub    $0x8,%rsp
  10e2c8:	48 89 7d f8          	mov    %rdi,-0x8(%rbp)
  10e2cc:	48 8d 15 5d 13 00 00 	lea    0x135d(%rip),%rdx        # 10f630 <_ZTV10ActiveFile+0x10>
  10e2d3:	48 8b 45 f8          	mov    -0x8(%rbp),%rax
  10e2d7:	48 89 10             	mov    %rdx,(%rax)
  10e2da:	90                   	nop
  10e2db:	c9                   	leaveq 
  10e2dc:	c3                   	retq   

Disassembly of section .text._ZN10FilesystemC2EP6Devicej:

000000000010e2de <_ZN10FilesystemC1EP6Devicej>:
  10e2de:	f3 0f 1e fa          	endbr64 
  10e2e2:	55                   	push   %rbp
  10e2e3:	48 89 e5             	mov    %rsp,%rbp
  10e2e6:	48 83 ec 18          	sub    $0x18,%rsp
  10e2ea:	48 89 7d f8          	mov    %rdi,-0x8(%rbp)
  10e2ee:	48 89 75 f0          	mov    %rsi,-0x10(%rbp)
  10e2f2:	89 55 ec             	mov    %edx,-0x14(%rbp)
  10e2f5:	48 8d 15 dc 12 00 00 	lea    0x12dc(%rip),%rdx        # 10f5d8 <_ZTV10Filesystem+0x10>
  10e2fc:	48 8b 45 f8          	mov    -0x8(%rbp),%rax
  10e300:	48 89 10             	mov    %rdx,(%rax)
  10e303:	48 8b 45 f8          	mov    -0x8(%rbp),%rax
  10e307:	48 8b 55 f0          	mov    -0x10(%rbp),%rdx
  10e30b:	48 89 50 08          	mov    %rdx,0x8(%rax)
  10e30f:	48 8b 45 f8          	mov    -0x8(%rbp),%rax
  10e313:	8b 55 ec             	mov    -0x14(%rbp),%edx
  10e316:	89 50 10             	mov    %edx,0x10(%rax)
  10e319:	90                   	nop
  10e31a:	c9                   	leaveq 
  10e31b:	c3                   	retq   

Disassembly of section .text._ZN10FilesystemD2Ev:

000000000010e31c <_ZN10FilesystemD1Ev>:
  10e31c:	f3 0f 1e fa          	endbr64 
  10e320:	55                   	push   %rbp
  10e321:	48 89 e5             	mov    %rsp,%rbp
  10e324:	48 83 ec 08          	sub    $0x8,%rsp
  10e328:	48 89 7d f8          	mov    %rdi,-0x8(%rbp)
  10e32c:	48 8d 15 a5 12 00 00 	lea    0x12a5(%rip),%rdx        # 10f5d8 <_ZTV10Filesystem+0x10>
  10e333:	48 8b 45 f8          	mov    -0x8(%rbp),%rax
  10e337:	48 89 10             	mov    %rdx,(%rax)
  10e33a:	90                   	nop
  10e33b:	c9                   	leaveq 
  10e33c:	c3                   	retq   

Disassembly of section .text._ZN16FAT32_ActiveFileC2Ev:

000000000010e33e <_ZN16FAT32_ActiveFileC1Ev>:
  10e33e:	f3 0f 1e fa          	endbr64 
  10e342:	55                   	push   %rbp
  10e343:	48 89 e5             	mov    %rsp,%rbp
  10e346:	48 83 ec 10          	sub    $0x10,%rsp
  10e34a:	48 89 7d f8          	mov    %rdi,-0x8(%rbp)
  10e34e:	48 8b 45 f8          	mov    -0x8(%rbp),%rax
  10e352:	48 89 c7             	mov    %rax,%rdi
  10e355:	e8 34 ff ff ff       	callq  10e28e <_ZN10ActiveFileC1Ev>
  10e35a:	48 8d 15 47 12 00 00 	lea    0x1247(%rip),%rdx        # 10f5a8 <_ZTV16FAT32_ActiveFile+0x10>
  10e361:	48 8b 45 f8          	mov    -0x8(%rbp),%rax
  10e365:	48 89 10             	mov    %rdx,(%rax)
  10e368:	90                   	nop
  10e369:	c9                   	leaveq 
  10e36a:	c3                   	retq   

Disassembly of section .text._ZN6vectorI8DirEntryED2Ev:

000000000010e36c <_ZN6vectorI8DirEntryED1Ev>:
  10e36c:	f3 0f 1e fa          	endbr64 
  10e370:	55                   	push   %rbp
  10e371:	48 89 e5             	mov    %rsp,%rbp
  10e374:	48 83 ec 10          	sub    $0x10,%rsp
  10e378:	48 89 7d f8          	mov    %rdi,-0x8(%rbp)
  10e37c:	48 8b 45 f8          	mov    -0x8(%rbp),%rax
  10e380:	48 8b 40 10          	mov    0x10(%rax),%rax
  10e384:	48 85 c0             	test   %rax,%rax
  10e387:	74 10                	je     10e399 <_ZN6vectorI8DirEntryED1Ev+0x2d>
  10e389:	48 8b 45 f8          	mov    -0x8(%rbp),%rax
  10e38d:	48 8b 40 10          	mov    0x10(%rax),%rax
  10e391:	48 89 c7             	mov    %rax,%rdi
  10e394:	e8 4d 56 ff ff       	callq  1039e6 <_ZdaPv>
  10e399:	90                   	nop
  10e39a:	c9                   	leaveq 
  10e39b:	c3                   	retq   

Disassembly of section .text._ZNK6vectorI8DirEntryE4sizeEv:

000000000010e39c <_ZNK6vectorI8DirEntryE4sizeEv>:
  10e39c:	f3 0f 1e fa          	endbr64 
  10e3a0:	55                   	push   %rbp
  10e3a1:	48 89 e5             	mov    %rsp,%rbp
  10e3a4:	48 83 ec 08          	sub    $0x8,%rsp
  10e3a8:	48 89 7d f8          	mov    %rdi,-0x8(%rbp)
  10e3ac:	48 8b 45 f8          	mov    -0x8(%rbp),%rax
  10e3b0:	48 8b 40 08          	mov    0x8(%rax),%rax
  10e3b4:	c9                   	leaveq 
  10e3b5:	c3                   	retq   

Disassembly of section .text._ZN6vectorI8DirEntryEixEm:

000000000010e3b6 <_ZN6vectorI8DirEntryEixEm>:
  10e3b6:	f3 0f 1e fa          	endbr64 
  10e3ba:	55                   	push   %rbp
  10e3bb:	48 89 e5             	mov    %rsp,%rbp
  10e3be:	48 83 ec 10          	sub    $0x10,%rsp
  10e3c2:	48 89 7d f8          	mov    %rdi,-0x8(%rbp)
  10e3c6:	48 89 75 f0          	mov    %rsi,-0x10(%rbp)
  10e3ca:	48 8b 45 f8          	mov    -0x8(%rbp),%rax
  10e3ce:	48 8b 40 08          	mov    0x8(%rax),%rax
  10e3d2:	48 39 45 f0          	cmp    %rax,-0x10(%rbp)
  10e3d6:	73 26                	jae    10e3fe <_ZN6vectorI8DirEntryEixEm+0x48>
  10e3d8:	48 8b 45 f8          	mov    -0x8(%rbp),%rax
  10e3dc:	48 8b 48 10          	mov    0x10(%rax),%rcx
  10e3e0:	48 8b 55 f0          	mov    -0x10(%rbp),%rdx
  10e3e4:	48 89 d0             	mov    %rdx,%rax
  10e3e7:	48 c1 e0 03          	shl    $0x3,%rax
  10e3eb:	48 01 d0             	add    %rdx,%rax
  10e3ee:	48 c1 e0 02          	shl    $0x2,%rax
  10e3f2:	48 01 d0             	add    %rdx,%rax
  10e3f5:	48 c1 e0 02          	shl    $0x2,%rax
  10e3f9:	48 01 c8             	add    %rcx,%rax
  10e3fc:	eb 00                	jmp    10e3fe <_ZN6vectorI8DirEntryEixEm+0x48>
  10e3fe:	c9                   	leaveq 
  10e3ff:	c3                   	retq   

Disassembly of section .text._ZN6vectorIjEC2Ev:

000000000010e400 <_ZN6vectorIjEC1Ev>:
  10e400:	f3 0f 1e fa          	endbr64 
  10e404:	55                   	push   %rbp
  10e405:	48 89 e5             	mov    %rsp,%rbp
  10e408:	48 83 ec 10          	sub    $0x10,%rsp
  10e40c:	48 89 7d f8          	mov    %rdi,-0x8(%rbp)
  10e410:	bf 08 00 00 00       	mov    $0x8,%edi
  10e415:	e8 8f 55 ff ff       	callq  1039a9 <_Znam>
  10e41a:	48 89 c2             	mov    %rax,%rdx
  10e41d:	48 8b 45 f8          	mov    -0x8(%rbp),%rax
  10e421:	48 89 50 10          	mov    %rdx,0x10(%rax)
  10e425:	48 8b 45 f8          	mov    -0x8(%rbp),%rax
  10e429:	48 c7 40 08 00 00 00 	movq   $0x0,0x8(%rax)
  10e430:	00 
  10e431:	48 8b 45 f8          	mov    -0x8(%rbp),%rax
  10e435:	48 c7 00 02 00 00 00 	movq   $0x2,(%rax)
  10e43c:	90                   	nop
  10e43d:	c9                   	leaveq 
  10e43e:	c3                   	retq   

Disassembly of section .text._ZN6vectorIjED2Ev:

000000000010e440 <_ZN6vectorIjED1Ev>:
  10e440:	f3 0f 1e fa          	endbr64 
  10e444:	55                   	push   %rbp
  10e445:	48 89 e5             	mov    %rsp,%rbp
  10e448:	48 83 ec 10          	sub    $0x10,%rsp
  10e44c:	48 89 7d f8          	mov    %rdi,-0x8(%rbp)
  10e450:	48 8b 45 f8          	mov    -0x8(%rbp),%rax
  10e454:	48 8b 40 10          	mov    0x10(%rax),%rax
  10e458:	48 85 c0             	test   %rax,%rax
  10e45b:	74 10                	je     10e46d <_ZN6vectorIjED1Ev+0x2d>
  10e45d:	48 8b 45 f8          	mov    -0x8(%rbp),%rax
  10e461:	48 8b 40 10          	mov    0x10(%rax),%rax
  10e465:	48 89 c7             	mov    %rax,%rdi
  10e468:	e8 79 55 ff ff       	callq  1039e6 <_ZdaPv>
  10e46d:	90                   	nop
  10e46e:	c9                   	leaveq 
  10e46f:	c3                   	retq   

Disassembly of section .text._ZN6vectorIjE9push_backERKj:

000000000010e470 <_ZN6vectorIjE9push_backERKj>:
  10e470:	f3 0f 1e fa          	endbr64 
  10e474:	55                   	push   %rbp
  10e475:	48 89 e5             	mov    %rsp,%rbp
  10e478:	48 83 ec 10          	sub    $0x10,%rsp
  10e47c:	48 89 7d f8          	mov    %rdi,-0x8(%rbp)
  10e480:	48 89 75 f0          	mov    %rsi,-0x10(%rbp)
  10e484:	48 8b 45 f8          	mov    -0x8(%rbp),%rax
  10e488:	48 8b 50 08          	mov    0x8(%rax),%rdx
  10e48c:	48 8b 45 f8          	mov    -0x8(%rbp),%rax
  10e490:	48 8b 00             	mov    (%rax),%rax
  10e493:	48 39 c2             	cmp    %rax,%rdx
  10e496:	75 1a                	jne    10e4b2 <_ZN6vectorIjE9push_backERKj+0x42>
  10e498:	48 8b 45 f8          	mov    -0x8(%rbp),%rax
  10e49c:	48 8b 00             	mov    (%rax),%rax
  10e49f:	48 8d 14 00          	lea    (%rax,%rax,1),%rdx
  10e4a3:	48 8b 45 f8          	mov    -0x8(%rbp),%rax
  10e4a7:	48 89 d6             	mov    %rdx,%rsi
  10e4aa:	48 89 c7             	mov    %rax,%rdi
  10e4ad:	e8 84 02 00 00       	callq  10e736 <_ZN6vectorIjE6resizeEm>
  10e4b2:	48 8b 45 f8          	mov    -0x8(%rbp),%rax
  10e4b6:	48 8b 70 10          	mov    0x10(%rax),%rsi
  10e4ba:	48 8b 45 f8          	mov    -0x8(%rbp),%rax
  10e4be:	48 8b 40 08          	mov    0x8(%rax),%rax
  10e4c2:	48 8d 48 01          	lea    0x1(%rax),%rcx
  10e4c6:	48 8b 55 f8          	mov    -0x8(%rbp),%rdx
  10e4ca:	48 89 4a 08          	mov    %rcx,0x8(%rdx)
  10e4ce:	48 c1 e0 02          	shl    $0x2,%rax
  10e4d2:	48 8d 14 06          	lea    (%rsi,%rax,1),%rdx
  10e4d6:	48 8b 45 f0          	mov    -0x10(%rbp),%rax
  10e4da:	8b 00                	mov    (%rax),%eax
  10e4dc:	89 02                	mov    %eax,(%rdx)
  10e4de:	90                   	nop
  10e4df:	c9                   	leaveq 
  10e4e0:	c3                   	retq   

Disassembly of section .text._ZN6vectorIjEC2ERKS0_:

000000000010e4e2 <_ZN6vectorIjEC1ERKS0_>:
  10e4e2:	f3 0f 1e fa          	endbr64 
  10e4e6:	55                   	push   %rbp
  10e4e7:	48 89 e5             	mov    %rsp,%rbp
  10e4ea:	48 83 ec 10          	sub    $0x10,%rsp
  10e4ee:	48 89 7d f8          	mov    %rdi,-0x8(%rbp)
  10e4f2:	48 89 75 f0          	mov    %rsi,-0x10(%rbp)
  10e4f6:	48 8b 45 f0          	mov    -0x10(%rbp),%rax
  10e4fa:	48 8b 10             	mov    (%rax),%rdx
  10e4fd:	48 8b 45 f8          	mov    -0x8(%rbp),%rax
  10e501:	48 89 10             	mov    %rdx,(%rax)
  10e504:	48 8b 45 f0          	mov    -0x10(%rbp),%rax
  10e508:	48 8b 50 08          	mov    0x8(%rax),%rdx
  10e50c:	48 8b 45 f8          	mov    -0x8(%rbp),%rax
  10e510:	48 89 50 08          	mov    %rdx,0x8(%rax)
  10e514:	48 8b 45 f8          	mov    -0x8(%rbp),%rax
  10e518:	48 8b 00             	mov    (%rax),%rax
  10e51b:	48 ba fe ff ff ff ff 	movabs $0x1ffffffffffffffe,%rdx
  10e522:	ff ff 1f 
  10e525:	48 39 d0             	cmp    %rdx,%rax
  10e528:	77 06                	ja     10e530 <_ZN6vectorIjEC1ERKS0_+0x4e>
  10e52a:	48 c1 e0 02          	shl    $0x2,%rax
  10e52e:	eb 07                	jmp    10e537 <_ZN6vectorIjEC1ERKS0_+0x55>
  10e530:	48 c7 c0 ff ff ff ff 	mov    $0xffffffffffffffff,%rax
  10e537:	48 89 c7             	mov    %rax,%rdi
  10e53a:	e8 6a 54 ff ff       	callq  1039a9 <_Znam>
  10e53f:	48 89 c2             	mov    %rax,%rdx
  10e542:	48 8b 45 f8          	mov    -0x8(%rbp),%rax
  10e546:	48 89 50 10          	mov    %rdx,0x10(%rax)
  10e54a:	48 8b 45 f8          	mov    -0x8(%rbp),%rax
  10e54e:	48 8b 40 08          	mov    0x8(%rax),%rax
  10e552:	48 8d 14 85 00 00 00 	lea    0x0(,%rax,4),%rdx
  10e559:	00 
  10e55a:	48 8b 45 f0          	mov    -0x10(%rbp),%rax
  10e55e:	48 8b 48 10          	mov    0x10(%rax),%rcx
  10e562:	48 8b 45 f8          	mov    -0x8(%rbp),%rax
  10e566:	48 8b 40 10          	mov    0x10(%rax),%rax
  10e56a:	48 89 ce             	mov    %rcx,%rsi
  10e56d:	48 89 c7             	mov    %rax,%rdi
  10e570:	e8 98 e6 ff ff       	callq  10cc0d <_Z6memcpyPvPKvm>
  10e575:	90                   	nop
  10e576:	c9                   	leaveq 
  10e577:	c3                   	retq   

Disassembly of section .text._ZNK6vectorIjE4sizeEv:

000000000010e578 <_ZNK6vectorIjE4sizeEv>:
  10e578:	f3 0f 1e fa          	endbr64 
  10e57c:	55                   	push   %rbp
  10e57d:	48 89 e5             	mov    %rsp,%rbp
  10e580:	48 83 ec 08          	sub    $0x8,%rsp
  10e584:	48 89 7d f8          	mov    %rdi,-0x8(%rbp)
  10e588:	48 8b 45 f8          	mov    -0x8(%rbp),%rax
  10e58c:	48 8b 40 08          	mov    0x8(%rax),%rax
  10e590:	c9                   	leaveq 
  10e591:	c3                   	retq   

Disassembly of section .text._ZN6vectorIjEixEm:

000000000010e592 <_ZN6vectorIjEixEm>:
  10e592:	f3 0f 1e fa          	endbr64 
  10e596:	55                   	push   %rbp
  10e597:	48 89 e5             	mov    %rsp,%rbp
  10e59a:	48 83 ec 10          	sub    $0x10,%rsp
  10e59e:	48 89 7d f8          	mov    %rdi,-0x8(%rbp)
  10e5a2:	48 89 75 f0          	mov    %rsi,-0x10(%rbp)
  10e5a6:	48 8b 45 f8          	mov    -0x8(%rbp),%rax
  10e5aa:	48 8b 40 08          	mov    0x8(%rax),%rax
  10e5ae:	48 39 45 f0          	cmp    %rax,-0x10(%rbp)
  10e5b2:	73 15                	jae    10e5c9 <_ZN6vectorIjEixEm+0x37>
  10e5b4:	48 8b 45 f8          	mov    -0x8(%rbp),%rax
  10e5b8:	48 8b 40 10          	mov    0x10(%rax),%rax
  10e5bc:	48 8b 55 f0          	mov    -0x10(%rbp),%rdx
  10e5c0:	48 c1 e2 02          	shl    $0x2,%rdx
  10e5c4:	48 01 d0             	add    %rdx,%rax
  10e5c7:	eb 00                	jmp    10e5c9 <_ZN6vectorIjEixEm+0x37>
  10e5c9:	c9                   	leaveq 
  10e5ca:	c3                   	retq   

Disassembly of section .text._ZN6vectorI8DirEntryE9push_backERKS0_:

000000000010e5cc <_ZN6vectorI8DirEntryE9push_backERKS0_>:
  10e5cc:	f3 0f 1e fa          	endbr64 
  10e5d0:	55                   	push   %rbp
  10e5d1:	48 89 e5             	mov    %rsp,%rbp
  10e5d4:	53                   	push   %rbx
  10e5d5:	48 83 ec 18          	sub    $0x18,%rsp
  10e5d9:	48 89 7d e8          	mov    %rdi,-0x18(%rbp)
  10e5dd:	48 89 75 e0          	mov    %rsi,-0x20(%rbp)
  10e5e1:	48 8b 45 e8          	mov    -0x18(%rbp),%rax
  10e5e5:	48 8b 50 08          	mov    0x8(%rax),%rdx
  10e5e9:	48 8b 45 e8          	mov    -0x18(%rbp),%rax
  10e5ed:	48 8b 00             	mov    (%rax),%rax
  10e5f0:	48 39 c2             	cmp    %rax,%rdx
  10e5f3:	75 1a                	jne    10e60f <_ZN6vectorI8DirEntryE9push_backERKS0_+0x43>
  10e5f5:	48 8b 45 e8          	mov    -0x18(%rbp),%rax
  10e5f9:	48 8b 00             	mov    (%rax),%rax
  10e5fc:	48 8d 14 00          	lea    (%rax,%rax,1),%rdx
  10e600:	48 8b 45 e8          	mov    -0x18(%rbp),%rax
  10e604:	48 89 d6             	mov    %rdx,%rsi
  10e607:	48 89 c7             	mov    %rax,%rdi
  10e60a:	e8 c9 01 00 00       	callq  10e7d8 <_ZN6vectorI8DirEntryE6resizeEm>
  10e60f:	48 8b 45 e8          	mov    -0x18(%rbp),%rax
  10e613:	48 8b 70 10          	mov    0x10(%rax),%rsi
  10e617:	48 8b 45 e8          	mov    -0x18(%rbp),%rax
  10e61b:	48 8b 50 08          	mov    0x8(%rax),%rdx
  10e61f:	48 8d 4a 01          	lea    0x1(%rdx),%rcx
  10e623:	48 8b 45 e8          	mov    -0x18(%rbp),%rax
  10e627:	48 89 48 08          	mov    %rcx,0x8(%rax)
  10e62b:	48 89 d0             	mov    %rdx,%rax
  10e62e:	48 c1 e0 03          	shl    $0x3,%rax
  10e632:	48 01 d0             	add    %rdx,%rax
  10e635:	48 c1 e0 02          	shl    $0x2,%rax
  10e639:	48 01 d0             	add    %rdx,%rax
  10e63c:	48 c1 e0 02          	shl    $0x2,%rax
  10e640:	48 8d 14 06          	lea    (%rsi,%rax,1),%rdx
  10e644:	48 8b 45 e0          	mov    -0x20(%rbp),%rax
  10e648:	48 8b 08             	mov    (%rax),%rcx
  10e64b:	48 8b 58 08          	mov    0x8(%rax),%rbx
  10e64f:	48 89 0a             	mov    %rcx,(%rdx)
  10e652:	48 89 5a 08          	mov    %rbx,0x8(%rdx)
  10e656:	48 8b 48 10          	mov    0x10(%rax),%rcx
  10e65a:	48 8b 58 18          	mov    0x18(%rax),%rbx
  10e65e:	48 89 4a 10          	mov    %rcx,0x10(%rdx)
  10e662:	48 89 5a 18          	mov    %rbx,0x18(%rdx)
  10e666:	48 8b 48 20          	mov    0x20(%rax),%rcx
  10e66a:	48 8b 58 28          	mov    0x28(%rax),%rbx
  10e66e:	48 89 4a 20          	mov    %rcx,0x20(%rdx)
  10e672:	48 89 5a 28          	mov    %rbx,0x28(%rdx)
  10e676:	48 8b 48 30          	mov    0x30(%rax),%rcx
  10e67a:	48 8b 58 38          	mov    0x38(%rax),%rbx
  10e67e:	48 89 4a 30          	mov    %rcx,0x30(%rdx)
  10e682:	48 89 5a 38          	mov    %rbx,0x38(%rdx)
  10e686:	48 8b 48 40          	mov    0x40(%rax),%rcx
  10e68a:	48 8b 58 48          	mov    0x48(%rax),%rbx
  10e68e:	48 89 4a 40          	mov    %rcx,0x40(%rdx)
  10e692:	48 89 5a 48          	mov    %rbx,0x48(%rdx)
  10e696:	48 8b 48 50          	mov    0x50(%rax),%rcx
  10e69a:	48 8b 58 58          	mov    0x58(%rax),%rbx
  10e69e:	48 89 4a 50          	mov    %rcx,0x50(%rdx)
  10e6a2:	48 89 5a 58          	mov    %rbx,0x58(%rdx)
  10e6a6:	48 8b 48 60          	mov    0x60(%rax),%rcx
  10e6aa:	48 8b 58 68          	mov    0x68(%rax),%rbx
  10e6ae:	48 89 4a 60          	mov    %rcx,0x60(%rdx)
  10e6b2:	48 89 5a 68          	mov    %rbx,0x68(%rdx)
  10e6b6:	48 8b 48 70          	mov    0x70(%rax),%rcx
  10e6ba:	48 8b 58 78          	mov    0x78(%rax),%rbx
  10e6be:	48 89 4a 70          	mov    %rcx,0x70(%rdx)
  10e6c2:	48 89 5a 78          	mov    %rbx,0x78(%rdx)
  10e6c6:	48 8b 88 80 00 00 00 	mov    0x80(%rax),%rcx
  10e6cd:	48 8b 98 88 00 00 00 	mov    0x88(%rax),%rbx
  10e6d4:	48 89 8a 80 00 00 00 	mov    %rcx,0x80(%rdx)
  10e6db:	48 89 9a 88 00 00 00 	mov    %rbx,0x88(%rdx)
  10e6e2:	8b 80 90 00 00 00    	mov    0x90(%rax),%eax
  10e6e8:	89 82 90 00 00 00    	mov    %eax,0x90(%rdx)
  10e6ee:	90                   	nop
  10e6ef:	48 83 c4 18          	add    $0x18,%rsp
  10e6f3:	5b                   	pop    %rbx
  10e6f4:	5d                   	pop    %rbp
  10e6f5:	c3                   	retq   

Disassembly of section .text._ZN6vectorI8DirEntryEC2Ev:

000000000010e6f6 <_ZN6vectorI8DirEntryEC1Ev>:
  10e6f6:	f3 0f 1e fa          	endbr64 
  10e6fa:	55                   	push   %rbp
  10e6fb:	48 89 e5             	mov    %rsp,%rbp
  10e6fe:	48 83 ec 10          	sub    $0x10,%rsp
  10e702:	48 89 7d f8          	mov    %rdi,-0x8(%rbp)
  10e706:	bf 28 01 00 00       	mov    $0x128,%edi
  10e70b:	e8 99 52 ff ff       	callq  1039a9 <_Znam>
  10e710:	48 89 c2             	mov    %rax,%rdx
  10e713:	48 8b 45 f8          	mov    -0x8(%rbp),%rax
  10e717:	48 89 50 10          	mov    %rdx,0x10(%rax)
  10e71b:	48 8b 45 f8          	mov    -0x8(%rbp),%rax
  10e71f:	48 c7 40 08 00 00 00 	movq   $0x0,0x8(%rax)
  10e726:	00 
  10e727:	48 8b 45 f8          	mov    -0x8(%rbp),%rax
  10e72b:	48 c7 00 02 00 00 00 	movq   $0x2,(%rax)
  10e732:	90                   	nop
  10e733:	c9                   	leaveq 
  10e734:	c3                   	retq   

Disassembly of section .text._ZN6vectorIjE6resizeEm:

000000000010e736 <_ZN6vectorIjE6resizeEm>:
  10e736:	f3 0f 1e fa          	endbr64 
  10e73a:	55                   	push   %rbp
  10e73b:	48 89 e5             	mov    %rsp,%rbp
  10e73e:	48 83 ec 20          	sub    $0x20,%rsp
  10e742:	48 89 7d e8          	mov    %rdi,-0x18(%rbp)
  10e746:	48 89 75 e0          	mov    %rsi,-0x20(%rbp)
  10e74a:	48 8b 45 e8          	mov    -0x18(%rbp),%rax
  10e74e:	48 8b 55 e0          	mov    -0x20(%rbp),%rdx
  10e752:	48 89 10             	mov    %rdx,(%rax)
  10e755:	48 8b 45 e8          	mov    -0x18(%rbp),%rax
  10e759:	48 8b 00             	mov    (%rax),%rax
  10e75c:	48 ba fe ff ff ff ff 	movabs $0x1ffffffffffffffe,%rdx
  10e763:	ff ff 1f 
  10e766:	48 39 d0             	cmp    %rdx,%rax
  10e769:	77 06                	ja     10e771 <_ZN6vectorIjE6resizeEm+0x3b>
  10e76b:	48 c1 e0 02          	shl    $0x2,%rax
  10e76f:	eb 07                	jmp    10e778 <_ZN6vectorIjE6resizeEm+0x42>
  10e771:	48 c7 c0 ff ff ff ff 	mov    $0xffffffffffffffff,%rax
  10e778:	48 89 c7             	mov    %rax,%rdi
  10e77b:	e8 29 52 ff ff       	callq  1039a9 <_Znam>
  10e780:	48 89 45 f8          	mov    %rax,-0x8(%rbp)
  10e784:	48 8b 45 e8          	mov    -0x18(%rbp),%rax
  10e788:	48 8b 40 08          	mov    0x8(%rax),%rax
  10e78c:	48 8d 14 85 00 00 00 	lea    0x0(,%rax,4),%rdx
  10e793:	00 
  10e794:	48 8b 45 e8          	mov    -0x18(%rbp),%rax
  10e798:	48 8b 48 10          	mov    0x10(%rax),%rcx
  10e79c:	48 8b 45 f8          	mov    -0x8(%rbp),%rax
  10e7a0:	48 89 ce             	mov    %rcx,%rsi
  10e7a3:	48 89 c7             	mov    %rax,%rdi
  10e7a6:	e8 62 e4 ff ff       	callq  10cc0d <_Z6memcpyPvPKvm>
  10e7ab:	48 8b 45 e8          	mov    -0x18(%rbp),%rax
  10e7af:	48 8b 40 10          	mov    0x10(%rax),%rax
  10e7b3:	48 85 c0             	test   %rax,%rax
  10e7b6:	74 10                	je     10e7c8 <_ZN6vectorIjE6resizeEm+0x92>
  10e7b8:	48 8b 45 e8          	mov    -0x18(%rbp),%rax
  10e7bc:	48 8b 40 10          	mov    0x10(%rax),%rax
  10e7c0:	48 89 c7             	mov    %rax,%rdi
  10e7c3:	e8 1e 52 ff ff       	callq  1039e6 <_ZdaPv>
  10e7c8:	48 8b 45 e8          	mov    -0x18(%rbp),%rax
  10e7cc:	48 8b 55 f8          	mov    -0x8(%rbp),%rdx
  10e7d0:	48 89 50 10          	mov    %rdx,0x10(%rax)
  10e7d4:	90                   	nop
  10e7d5:	c9                   	leaveq 
  10e7d6:	c3                   	retq   

Disassembly of section .text._ZN6vectorI8DirEntryE6resizeEm:

000000000010e7d8 <_ZN6vectorI8DirEntryE6resizeEm>:
  10e7d8:	f3 0f 1e fa          	endbr64 
  10e7dc:	55                   	push   %rbp
  10e7dd:	48 89 e5             	mov    %rsp,%rbp
  10e7e0:	48 83 ec 20          	sub    $0x20,%rsp
  10e7e4:	48 89 7d e8          	mov    %rdi,-0x18(%rbp)
  10e7e8:	48 89 75 e0          	mov    %rsi,-0x20(%rbp)
  10e7ec:	48 8b 45 e8          	mov    -0x18(%rbp),%rax
  10e7f0:	48 8b 55 e0          	mov    -0x20(%rbp),%rdx
  10e7f4:	48 89 10             	mov    %rdx,(%rax)
  10e7f7:	48 8b 45 e8          	mov    -0x18(%rbp),%rax
  10e7fb:	48 8b 10             	mov    (%rax),%rdx
  10e7fe:	48 b8 7c d6 0d a6 c8 	movabs $0xdd67c8a60dd67c,%rax
  10e805:	67 dd 00 
  10e808:	48 39 c2             	cmp    %rax,%rdx
  10e80b:	77 17                	ja     10e824 <_ZN6vectorI8DirEntryE6resizeEm+0x4c>
  10e80d:	48 89 d0             	mov    %rdx,%rax
  10e810:	48 c1 e0 03          	shl    $0x3,%rax
  10e814:	48 01 d0             	add    %rdx,%rax
  10e817:	48 c1 e0 02          	shl    $0x2,%rax
  10e81b:	48 01 d0             	add    %rdx,%rax
  10e81e:	48 c1 e0 02          	shl    $0x2,%rax
  10e822:	eb 07                	jmp    10e82b <_ZN6vectorI8DirEntryE6resizeEm+0x53>
  10e824:	48 c7 c0 ff ff ff ff 	mov    $0xffffffffffffffff,%rax
  10e82b:	48 89 c7             	mov    %rax,%rdi
  10e82e:	e8 76 51 ff ff       	callq  1039a9 <_Znam>
  10e833:	48 89 45 f8          	mov    %rax,-0x8(%rbp)
  10e837:	48 8b 45 e8          	mov    -0x18(%rbp),%rax
  10e83b:	48 8b 50 08          	mov    0x8(%rax),%rdx
  10e83f:	48 89 d0             	mov    %rdx,%rax
  10e842:	48 c1 e0 03          	shl    $0x3,%rax
  10e846:	48 01 d0             	add    %rdx,%rax
  10e849:	48 c1 e0 02          	shl    $0x2,%rax
  10e84d:	48 01 d0             	add    %rdx,%rax
  10e850:	48 c1 e0 02          	shl    $0x2,%rax
  10e854:	48 89 c2             	mov    %rax,%rdx
  10e857:	48 8b 45 e8          	mov    -0x18(%rbp),%rax
  10e85b:	48 8b 48 10          	mov    0x10(%rax),%rcx
  10e85f:	48 8b 45 f8          	mov    -0x8(%rbp),%rax
  10e863:	48 89 ce             	mov    %rcx,%rsi
  10e866:	48 89 c7             	mov    %rax,%rdi
  10e869:	e8 9f e3 ff ff       	callq  10cc0d <_Z6memcpyPvPKvm>
  10e86e:	48 8b 45 e8          	mov    -0x18(%rbp),%rax
  10e872:	48 8b 40 10          	mov    0x10(%rax),%rax
  10e876:	48 85 c0             	test   %rax,%rax
  10e879:	74 10                	je     10e88b <_ZN6vectorI8DirEntryE6resizeEm+0xb3>
  10e87b:	48 8b 45 e8          	mov    -0x18(%rbp),%rax
  10e87f:	48 8b 40 10          	mov    0x10(%rax),%rax
  10e883:	48 89 c7             	mov    %rax,%rdi
  10e886:	e8 5b 51 ff ff       	callq  1039e6 <_ZdaPv>
  10e88b:	48 8b 45 e8          	mov    -0x18(%rbp),%rax
  10e88f:	48 8b 55 f8          	mov    -0x8(%rbp),%rdx
  10e893:	48 89 50 10          	mov    %rdx,0x10(%rax)
  10e897:	90                   	nop
  10e898:	c9                   	leaveq 
  10e899:	c3                   	retq   

Disassembly of section .text._ZN9MemoryMapC2EP14MemoryMapEntrym:

000000000010e89a <_ZN9MemoryMapC1EP14MemoryMapEntrym>:
  10e89a:	f3 0f 1e fa          	endbr64 
  10e89e:	55                   	push   %rbp
  10e89f:	48 89 e5             	mov    %rsp,%rbp
  10e8a2:	48 83 ec 18          	sub    $0x18,%rsp
  10e8a6:	48 89 7d f8          	mov    %rdi,-0x8(%rbp)
  10e8aa:	48 89 75 f0          	mov    %rsi,-0x10(%rbp)
  10e8ae:	48 89 55 e8          	mov    %rdx,-0x18(%rbp)
  10e8b2:	48 8b 45 f8          	mov    -0x8(%rbp),%rax
  10e8b6:	48 8b 55 f0          	mov    -0x10(%rbp),%rdx
  10e8ba:	48 89 10             	mov    %rdx,(%rax)
  10e8bd:	48 8b 45 f8          	mov    -0x8(%rbp),%rax
  10e8c1:	48 8b 55 e8          	mov    -0x18(%rbp),%rdx
  10e8c5:	48 89 50 08          	mov    %rdx,0x8(%rax)
  10e8c9:	90                   	nop
  10e8ca:	c9                   	leaveq 
  10e8cb:	c3                   	retq   

Disassembly of section .text._ZNK18PageFrameAllocator10GetFreeRAMEv:

000000000010e8cc <_ZNK18PageFrameAllocator10GetFreeRAMEv>:
  10e8cc:	f3 0f 1e fa          	endbr64 
  10e8d0:	55                   	push   %rbp
  10e8d1:	48 89 e5             	mov    %rsp,%rbp
  10e8d4:	48 83 ec 08          	sub    $0x8,%rsp
  10e8d8:	48 89 7d f8          	mov    %rdi,-0x8(%rbp)
  10e8dc:	48 8b 45 f8          	mov    -0x8(%rbp),%rax
  10e8e0:	48 8b 40 10          	mov    0x10(%rax),%rax
  10e8e4:	c9                   	leaveq 
  10e8e5:	c3                   	retq   

Disassembly of section .text._ZNK18PageFrameAllocator10GetUsedRAMEv:

000000000010e8e6 <_ZNK18PageFrameAllocator10GetUsedRAMEv>:
  10e8e6:	f3 0f 1e fa          	endbr64 
  10e8ea:	55                   	push   %rbp
  10e8eb:	48 89 e5             	mov    %rsp,%rbp
  10e8ee:	48 83 ec 08          	sub    $0x8,%rsp
  10e8f2:	48 89 7d f8          	mov    %rdi,-0x8(%rbp)
  10e8f6:	48 8b 45 f8          	mov    -0x8(%rbp),%rax
  10e8fa:	48 8b 40 18          	mov    0x18(%rax),%rax
  10e8fe:	c9                   	leaveq 
  10e8ff:	c3                   	retq   

Disassembly of section .text._ZNK18PageFrameAllocator14GetReservedRAMEv:

000000000010e900 <_ZNK18PageFrameAllocator14GetReservedRAMEv>:
  10e900:	f3 0f 1e fa          	endbr64 
  10e904:	55                   	push   %rbp
  10e905:	48 89 e5             	mov    %rsp,%rbp
  10e908:	48 83 ec 08          	sub    $0x8,%rsp
  10e90c:	48 89 7d f8          	mov    %rdi,-0x8(%rbp)
  10e910:	48 8b 45 f8          	mov    -0x8(%rbp),%rax
  10e914:	48 8b 40 20          	mov    0x20(%rax),%rax
  10e918:	c9                   	leaveq 
  10e919:	c3                   	retq   

Disassembly of section .text._ZN4ACPI4FADT7GetFADTEv:

000000000010e91a <_ZN4ACPI4FADT7GetFADTEv>:
  10e91a:	f3 0f 1e fa          	endbr64 
  10e91e:	55                   	push   %rbp
  10e91f:	48 89 e5             	mov    %rsp,%rbp
  10e922:	53                   	push   %rbx
  10e923:	48 83 ec 10          	sub    $0x10,%rsp
  10e927:	48 89 7d f0          	mov    %rdi,-0x10(%rbp)
  10e92b:	48 89 75 e8          	mov    %rsi,-0x18(%rbp)
  10e92f:	48 8b 45 f0          	mov    -0x10(%rbp),%rax
  10e933:	48 8b 55 e8          	mov    -0x18(%rbp),%rdx
  10e937:	48 8b 0a             	mov    (%rdx),%rcx
  10e93a:	48 8b 5a 08          	mov    0x8(%rdx),%rbx
  10e93e:	48 89 08             	mov    %rcx,(%rax)
  10e941:	48 89 58 08          	mov    %rbx,0x8(%rax)
  10e945:	48 8b 4a 10          	mov    0x10(%rdx),%rcx
  10e949:	48 8b 5a 18          	mov    0x18(%rdx),%rbx
  10e94d:	48 89 48 10          	mov    %rcx,0x10(%rax)
  10e951:	48 89 58 18          	mov    %rbx,0x18(%rax)
  10e955:	48 8b 4a 20          	mov    0x20(%rdx),%rcx
  10e959:	48 8b 5a 28          	mov    0x28(%rdx),%rbx
  10e95d:	48 89 48 20          	mov    %rcx,0x20(%rax)
  10e961:	48 89 58 28          	mov    %rbx,0x28(%rax)
  10e965:	48 8b 4a 30          	mov    0x30(%rdx),%rcx
  10e969:	48 8b 5a 38          	mov    0x38(%rdx),%rbx
  10e96d:	48 89 48 30          	mov    %rcx,0x30(%rax)
  10e971:	48 89 58 38          	mov    %rbx,0x38(%rax)
  10e975:	48 8b 4a 40          	mov    0x40(%rdx),%rcx
  10e979:	48 8b 5a 48          	mov    0x48(%rdx),%rbx
  10e97d:	48 89 48 40          	mov    %rcx,0x40(%rax)
  10e981:	48 89 58 48          	mov    %rbx,0x48(%rax)
  10e985:	48 8b 4a 50          	mov    0x50(%rdx),%rcx
  10e989:	48 8b 5a 58          	mov    0x58(%rdx),%rbx
  10e98d:	48 89 48 50          	mov    %rcx,0x50(%rax)
  10e991:	48 89 58 58          	mov    %rbx,0x58(%rax)
  10e995:	48 8b 4a 60          	mov    0x60(%rdx),%rcx
  10e999:	48 8b 5a 68          	mov    0x68(%rdx),%rbx
  10e99d:	48 89 48 60          	mov    %rcx,0x60(%rax)
  10e9a1:	48 89 58 68          	mov    %rbx,0x68(%rax)
  10e9a5:	48 8b 4a 70          	mov    0x70(%rdx),%rcx
  10e9a9:	48 8b 5a 78          	mov    0x78(%rdx),%rbx
  10e9ad:	48 89 48 70          	mov    %rcx,0x70(%rax)
  10e9b1:	48 89 58 78          	mov    %rbx,0x78(%rax)
  10e9b5:	48 8b 8a 80 00 00 00 	mov    0x80(%rdx),%rcx
  10e9bc:	48 8b 9a 88 00 00 00 	mov    0x88(%rdx),%rbx
  10e9c3:	48 89 88 80 00 00 00 	mov    %rcx,0x80(%rax)
  10e9ca:	48 89 98 88 00 00 00 	mov    %rbx,0x88(%rax)
  10e9d1:	48 8b 8a 90 00 00 00 	mov    0x90(%rdx),%rcx
  10e9d8:	48 8b 9a 98 00 00 00 	mov    0x98(%rdx),%rbx
  10e9df:	48 89 88 90 00 00 00 	mov    %rcx,0x90(%rax)
  10e9e6:	48 89 98 98 00 00 00 	mov    %rbx,0x98(%rax)
  10e9ed:	48 8b 8a a0 00 00 00 	mov    0xa0(%rdx),%rcx
  10e9f4:	48 8b 9a a8 00 00 00 	mov    0xa8(%rdx),%rbx
  10e9fb:	48 89 88 a0 00 00 00 	mov    %rcx,0xa0(%rax)
  10ea02:	48 89 98 a8 00 00 00 	mov    %rbx,0xa8(%rax)
  10ea09:	48 8b 8a b0 00 00 00 	mov    0xb0(%rdx),%rcx
  10ea10:	48 8b 9a b8 00 00 00 	mov    0xb8(%rdx),%rbx
  10ea17:	48 89 88 b0 00 00 00 	mov    %rcx,0xb0(%rax)
  10ea1e:	48 89 98 b8 00 00 00 	mov    %rbx,0xb8(%rax)
  10ea25:	48 8b 8a c0 00 00 00 	mov    0xc0(%rdx),%rcx
  10ea2c:	48 8b 9a c8 00 00 00 	mov    0xc8(%rdx),%rbx
  10ea33:	48 89 88 c0 00 00 00 	mov    %rcx,0xc0(%rax)
  10ea3a:	48 89 98 c8 00 00 00 	mov    %rbx,0xc8(%rax)
  10ea41:	48 8b 8a d0 00 00 00 	mov    0xd0(%rdx),%rcx
  10ea48:	48 8b 9a d8 00 00 00 	mov    0xd8(%rdx),%rbx
  10ea4f:	48 89 88 d0 00 00 00 	mov    %rcx,0xd0(%rax)
  10ea56:	48 89 98 d8 00 00 00 	mov    %rbx,0xd8(%rax)
  10ea5d:	48 8b 8a e0 00 00 00 	mov    0xe0(%rdx),%rcx
  10ea64:	48 8b 9a e8 00 00 00 	mov    0xe8(%rdx),%rbx
  10ea6b:	48 89 88 e0 00 00 00 	mov    %rcx,0xe0(%rax)
  10ea72:	48 89 98 e8 00 00 00 	mov    %rbx,0xe8(%rax)
  10ea79:	8b 92 f0 00 00 00    	mov    0xf0(%rdx),%edx
  10ea7f:	89 90 f0 00 00 00    	mov    %edx,0xf0(%rax)
  10ea85:	48 8b 45 f0          	mov    -0x10(%rbp),%rax
  10ea89:	48 83 c4 10          	add    $0x10,%rsp
  10ea8d:	5b                   	pop    %rbx
  10ea8e:	5d                   	pop    %rbp
  10ea8f:	c3                   	retq   

Disassembly of section .text._ZN9ATADeviceC2Ev:

000000000010ea90 <_ZN9ATADeviceC1Ev>:
  10ea90:	f3 0f 1e fa          	endbr64 
  10ea94:	55                   	push   %rbp
  10ea95:	48 89 e5             	mov    %rsp,%rbp
  10ea98:	48 83 ec 10          	sub    $0x10,%rsp
  10ea9c:	48 89 7d f8          	mov    %rdi,-0x8(%rbp)
  10eaa0:	48 8b 45 f8          	mov    -0x8(%rbp),%rax
  10eaa4:	48 89 c7             	mov    %rax,%rdi
  10eaa7:	e8 f4 f5 ff ff       	callq  10e0a0 <_ZN6DeviceC1Ev>
  10eaac:	48 8d 15 f5 09 00 00 	lea    0x9f5(%rip),%rdx        # 10f4a8 <_ZTV9ATADevice+0x10>
  10eab3:	48 8b 45 f8          	mov    -0x8(%rbp),%rax
  10eab7:	48 89 10             	mov    %rdx,(%rax)
  10eaba:	90                   	nop
  10eabb:	c9                   	leaveq 
  10eabc:	c3                   	retq   
