
bin/kernel.elf:     file format elf64-x86-64


Disassembly of section .text:

0000000000100000 <_ZL8SetEntryP14PageTableEntrym>:
  100000:	f3 0f 1e fa          	endbr64 
  100004:	55                   	push   %rbp
  100005:	48 89 e5             	mov    %rsp,%rbp
  100008:	48 83 ec 10          	sub    $0x10,%rsp
  10000c:	48 89 7d f8          	mov    %rdi,-0x8(%rbp)
  100010:	48 89 75 f0          	mov    %rsi,-0x10(%rbp)
  100014:	48 8b 45 f0          	mov    -0x10(%rbp),%rax
  100018:	83 e0 01             	and    $0x1,%eax
  10001b:	48 8b 55 f8          	mov    -0x8(%rbp),%rdx
  10001f:	83 e0 01             	and    $0x1,%eax
  100022:	89 c1                	mov    %eax,%ecx
  100024:	0f b6 02             	movzbl (%rdx),%eax
  100027:	83 e0 fe             	and    $0xfffffffe,%eax
  10002a:	09 c8                	or     %ecx,%eax
  10002c:	88 02                	mov    %al,(%rdx)
  10002e:	48 8b 45 f0          	mov    -0x10(%rbp),%rax
  100032:	48 d1 e8             	shr    %rax
  100035:	83 e0 01             	and    $0x1,%eax
  100038:	48 8b 55 f8          	mov    -0x8(%rbp),%rdx
  10003c:	83 e0 01             	and    $0x1,%eax
  10003f:	8d 0c 00             	lea    (%rax,%rax,1),%ecx
  100042:	0f b6 02             	movzbl (%rdx),%eax
  100045:	83 e0 fd             	and    $0xfffffffd,%eax
  100048:	09 c8                	or     %ecx,%eax
  10004a:	88 02                	mov    %al,(%rdx)
  10004c:	48 8b 45 f0          	mov    -0x10(%rbp),%rax
  100050:	48 c1 e8 02          	shr    $0x2,%rax
  100054:	83 e0 01             	and    $0x1,%eax
  100057:	48 8b 55 f8          	mov    -0x8(%rbp),%rdx
  10005b:	83 e0 01             	and    $0x1,%eax
  10005e:	8d 0c 85 00 00 00 00 	lea    0x0(,%rax,4),%ecx
  100065:	0f b6 02             	movzbl (%rdx),%eax
  100068:	83 e0 fb             	and    $0xfffffffb,%eax
  10006b:	09 c8                	or     %ecx,%eax
  10006d:	88 02                	mov    %al,(%rdx)
  10006f:	48 8b 45 f0          	mov    -0x10(%rbp),%rax
  100073:	48 c1 e8 03          	shr    $0x3,%rax
  100077:	83 e0 01             	and    $0x1,%eax
  10007a:	48 8b 55 f8          	mov    -0x8(%rbp),%rdx
  10007e:	83 e0 01             	and    $0x1,%eax
  100081:	8d 0c c5 00 00 00 00 	lea    0x0(,%rax,8),%ecx
  100088:	0f b6 02             	movzbl (%rdx),%eax
  10008b:	83 e0 f7             	and    $0xfffffff7,%eax
  10008e:	09 c8                	or     %ecx,%eax
  100090:	88 02                	mov    %al,(%rdx)
  100092:	48 8b 45 f0          	mov    -0x10(%rbp),%rax
  100096:	48 c1 e8 04          	shr    $0x4,%rax
  10009a:	83 e0 01             	and    $0x1,%eax
  10009d:	48 8b 55 f8          	mov    -0x8(%rbp),%rdx
  1000a1:	83 e0 01             	and    $0x1,%eax
  1000a4:	c1 e0 04             	shl    $0x4,%eax
  1000a7:	89 c1                	mov    %eax,%ecx
  1000a9:	0f b6 02             	movzbl (%rdx),%eax
  1000ac:	83 e0 ef             	and    $0xffffffef,%eax
  1000af:	09 c8                	or     %ecx,%eax
  1000b1:	88 02                	mov    %al,(%rdx)
  1000b3:	48 8b 45 f0          	mov    -0x10(%rbp),%rax
  1000b7:	48 c1 e8 3f          	shr    $0x3f,%rax
  1000bb:	83 e0 01             	and    $0x1,%eax
  1000be:	48 8b 55 f8          	mov    -0x8(%rbp),%rdx
  1000c2:	c1 e0 07             	shl    $0x7,%eax
  1000c5:	89 c1                	mov    %eax,%ecx
  1000c7:	0f b6 42 07          	movzbl 0x7(%rdx),%eax
  1000cb:	83 e0 7f             	and    $0x7f,%eax
  1000ce:	09 c8                	or     %ecx,%eax
  1000d0:	88 42 07             	mov    %al,0x7(%rdx)
  1000d3:	90                   	nop
  1000d4:	c9                   	leaveq 
  1000d5:	c3                   	retq   

00000000001000d6 <_ZN16PageTableManager9MapMemoryEmmm>:
  1000d6:	f3 0f 1e fa          	endbr64 
  1000da:	55                   	push   %rbp
  1000db:	48 89 e5             	mov    %rsp,%rbp
  1000de:	48 83 c4 80          	add    $0xffffffffffffff80,%rsp
  1000e2:	48 89 7d 98          	mov    %rdi,-0x68(%rbp)
  1000e6:	48 89 75 90          	mov    %rsi,-0x70(%rbp)
  1000ea:	48 89 55 88          	mov    %rdx,-0x78(%rbp)
  1000ee:	48 89 4d 80          	mov    %rcx,-0x80(%rbp)
  1000f2:	48 8b 55 90          	mov    -0x70(%rbp),%rdx
  1000f6:	48 8d 45 c0          	lea    -0x40(%rbp),%rax
  1000fa:	48 89 d6             	mov    %rdx,%rsi
  1000fd:	48 89 c7             	mov    %rax,%rdi
  100100:	e8 97 dd 00 00       	callq  10de9c <_ZN14PageMapIndexerC1Em>
  100105:	48 8b 45 98          	mov    -0x68(%rbp),%rax
  100109:	48 8b 00             	mov    (%rax),%rax
  10010c:	48 8b 55 c0          	mov    -0x40(%rbp),%rdx
  100110:	48 8b 04 d0          	mov    (%rax,%rdx,8),%rax
  100114:	48 89 45 b8          	mov    %rax,-0x48(%rbp)
  100118:	0f b6 45 b8          	movzbl -0x48(%rbp),%eax
  10011c:	83 e0 01             	and    $0x1,%eax
  10011f:	84 c0                	test   %al,%al
  100121:	0f 85 82 00 00 00    	jne    1001a9 <_ZN16PageTableManager9MapMemoryEmmm+0xd3>
  100127:	e8 f6 13 00 00       	callq  101522 <_ZN18PageFrameAllocator15SharedAllocatorEv>
  10012c:	48 89 c7             	mov    %rax,%rdi
  10012f:	e8 42 11 00 00       	callq  101276 <_ZN18PageFrameAllocator11RequestPageEv>
  100134:	48 89 45 f8          	mov    %rax,-0x8(%rbp)
  100138:	48 8b 45 f8          	mov    -0x8(%rbp),%rax
  10013c:	ba 00 10 00 00       	mov    $0x1000,%edx
  100141:	be 00 00 00 00       	mov    $0x0,%esi
  100146:	48 89 c7             	mov    %rax,%rdi
  100149:	e8 f5 ca 00 00       	callq  10cc43 <_Z6memsetPvim>
  10014e:	48 8b 45 f8          	mov    -0x8(%rbp),%rax
  100152:	48 c1 e8 0c          	shr    $0xc,%rax
  100156:	25 ff ff ff 0f       	and    $0xfffffff,%eax
  10015b:	89 c0                	mov    %eax,%eax
  10015d:	25 ff ff ff 0f       	and    $0xfffffff,%eax
  100162:	48 c1 e0 0c          	shl    $0xc,%rax
  100166:	48 89 c2             	mov    %rax,%rdx
  100169:	48 8b 45 b8          	mov    -0x48(%rbp),%rax
  10016d:	48 b9 ff 0f 00 00 00 	movabs $0xffffff0000000fff,%rcx
  100174:	ff ff ff 
  100177:	48 21 c8             	and    %rcx,%rax
  10017a:	48 09 d0             	or     %rdx,%rax
  10017d:	48 89 45 b8          	mov    %rax,-0x48(%rbp)
  100181:	48 8b 55 80          	mov    -0x80(%rbp),%rdx
  100185:	48 8d 45 b8          	lea    -0x48(%rbp),%rax
  100189:	48 89 d6             	mov    %rdx,%rsi
  10018c:	48 89 c7             	mov    %rax,%rdi
  10018f:	e8 6c fe ff ff       	callq  100000 <_ZL8SetEntryP14PageTableEntrym>
  100194:	48 8b 45 98          	mov    -0x68(%rbp),%rax
  100198:	48 8b 00             	mov    (%rax),%rax
  10019b:	48 8b 55 c0          	mov    -0x40(%rbp),%rdx
  10019f:	48 8b 4d b8          	mov    -0x48(%rbp),%rcx
  1001a3:	48 89 0c d0          	mov    %rcx,(%rax,%rdx,8)
  1001a7:	eb 16                	jmp    1001bf <_ZN16PageTableManager9MapMemoryEmmm+0xe9>
  1001a9:	48 8b 45 b8          	mov    -0x48(%rbp),%rax
  1001ad:	48 c1 e8 0c          	shr    $0xc,%rax
  1001b1:	25 ff ff ff 0f       	and    $0xfffffff,%eax
  1001b6:	c1 e0 0c             	shl    $0xc,%eax
  1001b9:	48 98                	cltq   
  1001bb:	48 89 45 f8          	mov    %rax,-0x8(%rbp)
  1001bf:	48 8b 55 c8          	mov    -0x38(%rbp),%rdx
  1001c3:	48 8b 45 f8          	mov    -0x8(%rbp),%rax
  1001c7:	48 8b 04 d0          	mov    (%rax,%rdx,8),%rax
  1001cb:	48 89 45 b0          	mov    %rax,-0x50(%rbp)
  1001cf:	0f b6 45 b0          	movzbl -0x50(%rbp),%eax
  1001d3:	83 e0 01             	and    $0x1,%eax
  1001d6:	84 c0                	test   %al,%al
  1001d8:	75 7f                	jne    100259 <_ZN16PageTableManager9MapMemoryEmmm+0x183>
  1001da:	e8 43 13 00 00       	callq  101522 <_ZN18PageFrameAllocator15SharedAllocatorEv>
  1001df:	48 89 c7             	mov    %rax,%rdi
  1001e2:	e8 8f 10 00 00       	callq  101276 <_ZN18PageFrameAllocator11RequestPageEv>
  1001e7:	48 89 45 f0          	mov    %rax,-0x10(%rbp)
  1001eb:	48 8b 45 f0          	mov    -0x10(%rbp),%rax
  1001ef:	ba 00 10 00 00       	mov    $0x1000,%edx
  1001f4:	be 00 00 00 00       	mov    $0x0,%esi
  1001f9:	48 89 c7             	mov    %rax,%rdi
  1001fc:	e8 42 ca 00 00       	callq  10cc43 <_Z6memsetPvim>
  100201:	48 8b 45 f0          	mov    -0x10(%rbp),%rax
  100205:	48 c1 e8 0c          	shr    $0xc,%rax
  100209:	25 ff ff ff 0f       	and    $0xfffffff,%eax
  10020e:	89 c0                	mov    %eax,%eax
  100210:	25 ff ff ff 0f       	and    $0xfffffff,%eax
  100215:	48 c1 e0 0c          	shl    $0xc,%rax
  100219:	48 89 c2             	mov    %rax,%rdx
  10021c:	48 8b 45 b0          	mov    -0x50(%rbp),%rax
  100220:	48 b9 ff 0f 00 00 00 	movabs $0xffffff0000000fff,%rcx
  100227:	ff ff ff 
  10022a:	48 21 c8             	and    %rcx,%rax
  10022d:	48 09 d0             	or     %rdx,%rax
  100230:	48 89 45 b0          	mov    %rax,-0x50(%rbp)
  100234:	48 8b 55 80          	mov    -0x80(%rbp),%rdx
  100238:	48 8d 45 b0          	lea    -0x50(%rbp),%rax
  10023c:	48 89 d6             	mov    %rdx,%rsi
  10023f:	48 89 c7             	mov    %rax,%rdi
  100242:	e8 b9 fd ff ff       	callq  100000 <_ZL8SetEntryP14PageTableEntrym>
  100247:	48 8b 55 c8          	mov    -0x38(%rbp),%rdx
  10024b:	48 8b 45 f8          	mov    -0x8(%rbp),%rax
  10024f:	48 8b 4d b0          	mov    -0x50(%rbp),%rcx
  100253:	48 89 0c d0          	mov    %rcx,(%rax,%rdx,8)
  100257:	eb 16                	jmp    10026f <_ZN16PageTableManager9MapMemoryEmmm+0x199>
  100259:	48 8b 45 b0          	mov    -0x50(%rbp),%rax
  10025d:	48 c1 e8 0c          	shr    $0xc,%rax
  100261:	25 ff ff ff 0f       	and    $0xfffffff,%eax
  100266:	c1 e0 0c             	shl    $0xc,%eax
  100269:	48 98                	cltq   
  10026b:	48 89 45 f0          	mov    %rax,-0x10(%rbp)
  10026f:	48 8b 55 d0          	mov    -0x30(%rbp),%rdx
  100273:	48 8b 45 f0          	mov    -0x10(%rbp),%rax
  100277:	48 8b 04 d0          	mov    (%rax,%rdx,8),%rax
  10027b:	48 89 45 a8          	mov    %rax,-0x58(%rbp)
  10027f:	0f b6 45 a8          	movzbl -0x58(%rbp),%eax
  100283:	83 e0 01             	and    $0x1,%eax
  100286:	84 c0                	test   %al,%al
  100288:	75 7f                	jne    100309 <_ZN16PageTableManager9MapMemoryEmmm+0x233>
  10028a:	e8 93 12 00 00       	callq  101522 <_ZN18PageFrameAllocator15SharedAllocatorEv>
  10028f:	48 89 c7             	mov    %rax,%rdi
  100292:	e8 df 0f 00 00       	callq  101276 <_ZN18PageFrameAllocator11RequestPageEv>
  100297:	48 89 45 e8          	mov    %rax,-0x18(%rbp)
  10029b:	48 8b 45 e8          	mov    -0x18(%rbp),%rax
  10029f:	ba 00 10 00 00       	mov    $0x1000,%edx
  1002a4:	be 00 00 00 00       	mov    $0x0,%esi
  1002a9:	48 89 c7             	mov    %rax,%rdi
  1002ac:	e8 92 c9 00 00       	callq  10cc43 <_Z6memsetPvim>
  1002b1:	48 8b 45 e8          	mov    -0x18(%rbp),%rax
  1002b5:	48 c1 e8 0c          	shr    $0xc,%rax
  1002b9:	25 ff ff ff 0f       	and    $0xfffffff,%eax
  1002be:	89 c0                	mov    %eax,%eax
  1002c0:	25 ff ff ff 0f       	and    $0xfffffff,%eax
  1002c5:	48 c1 e0 0c          	shl    $0xc,%rax
  1002c9:	48 89 c2             	mov    %rax,%rdx
  1002cc:	48 8b 45 a8          	mov    -0x58(%rbp),%rax
  1002d0:	48 b9 ff 0f 00 00 00 	movabs $0xffffff0000000fff,%rcx
  1002d7:	ff ff ff 
  1002da:	48 21 c8             	and    %rcx,%rax
  1002dd:	48 09 d0             	or     %rdx,%rax
  1002e0:	48 89 45 a8          	mov    %rax,-0x58(%rbp)
  1002e4:	48 8b 55 80          	mov    -0x80(%rbp),%rdx
  1002e8:	48 8d 45 a8          	lea    -0x58(%rbp),%rax
  1002ec:	48 89 d6             	mov    %rdx,%rsi
  1002ef:	48 89 c7             	mov    %rax,%rdi
  1002f2:	e8 09 fd ff ff       	callq  100000 <_ZL8SetEntryP14PageTableEntrym>
  1002f7:	48 8b 55 d0          	mov    -0x30(%rbp),%rdx
  1002fb:	48 8b 45 f0          	mov    -0x10(%rbp),%rax
  1002ff:	48 8b 4d a8          	mov    -0x58(%rbp),%rcx
  100303:	48 89 0c d0          	mov    %rcx,(%rax,%rdx,8)
  100307:	eb 16                	jmp    10031f <_ZN16PageTableManager9MapMemoryEmmm+0x249>
  100309:	48 8b 45 a8          	mov    -0x58(%rbp),%rax
  10030d:	48 c1 e8 0c          	shr    $0xc,%rax
  100311:	25 ff ff ff 0f       	and    $0xfffffff,%eax
  100316:	c1 e0 0c             	shl    $0xc,%eax
  100319:	48 98                	cltq   
  10031b:	48 89 45 e8          	mov    %rax,-0x18(%rbp)
  10031f:	48 8b 55 d8          	mov    -0x28(%rbp),%rdx
  100323:	48 8b 45 e8          	mov    -0x18(%rbp),%rax
  100327:	48 8b 04 d0          	mov    (%rax,%rdx,8),%rax
  10032b:	48 89 45 a0          	mov    %rax,-0x60(%rbp)
  10032f:	48 8b 45 88          	mov    -0x78(%rbp),%rax
  100333:	48 c1 e8 0c          	shr    $0xc,%rax
  100337:	25 ff ff ff 0f       	and    $0xfffffff,%eax
  10033c:	89 c0                	mov    %eax,%eax
  10033e:	25 ff ff ff 0f       	and    $0xfffffff,%eax
  100343:	48 c1 e0 0c          	shl    $0xc,%rax
  100347:	48 89 c2             	mov    %rax,%rdx
  10034a:	48 8b 45 a0          	mov    -0x60(%rbp),%rax
  10034e:	48 b9 ff 0f 00 00 00 	movabs $0xffffff0000000fff,%rcx
  100355:	ff ff ff 
  100358:	48 21 c8             	and    %rcx,%rax
  10035b:	48 09 d0             	or     %rdx,%rax
  10035e:	48 89 45 a0          	mov    %rax,-0x60(%rbp)
  100362:	48 8b 55 80          	mov    -0x80(%rbp),%rdx
  100366:	48 8d 45 a0          	lea    -0x60(%rbp),%rax
  10036a:	48 89 d6             	mov    %rdx,%rsi
  10036d:	48 89 c7             	mov    %rax,%rdi
  100370:	e8 8b fc ff ff       	callq  100000 <_ZL8SetEntryP14PageTableEntrym>
  100375:	48 8b 55 d8          	mov    -0x28(%rbp),%rdx
  100379:	48 8b 45 e8          	mov    -0x18(%rbp),%rax
  10037d:	48 8b 4d a0          	mov    -0x60(%rbp),%rcx
  100381:	48 89 0c d0          	mov    %rcx,(%rax,%rdx,8)
  100385:	90                   	nop
  100386:	c9                   	leaveq 
  100387:	c3                   	retq   

0000000000100388 <_ZN16PageTableManager15PhysicalAddressEm>:
  100388:	f3 0f 1e fa          	endbr64 
  10038c:	55                   	push   %rbp
  10038d:	48 89 e5             	mov    %rsp,%rbp
  100390:	48 83 ec 70          	sub    $0x70,%rsp
  100394:	48 89 7d 98          	mov    %rdi,-0x68(%rbp)
  100398:	48 89 75 90          	mov    %rsi,-0x70(%rbp)
  10039c:	48 8b 55 90          	mov    -0x70(%rbp),%rdx
  1003a0:	48 8d 45 c0          	lea    -0x40(%rbp),%rax
  1003a4:	48 89 d6             	mov    %rdx,%rsi
  1003a7:	48 89 c7             	mov    %rax,%rdi
  1003aa:	e8 ed da 00 00       	callq  10de9c <_ZN14PageMapIndexerC1Em>
  1003af:	48 8b 45 98          	mov    -0x68(%rbp),%rax
  1003b3:	48 8b 00             	mov    (%rax),%rax
  1003b6:	48 8b 55 c0          	mov    -0x40(%rbp),%rdx
  1003ba:	48 8b 04 d0          	mov    (%rax,%rdx,8),%rax
  1003be:	48 89 45 b8          	mov    %rax,-0x48(%rbp)
  1003c2:	48 8b 45 b8          	mov    -0x48(%rbp),%rax
  1003c6:	48 c1 e8 0c          	shr    $0xc,%rax
  1003ca:	25 ff ff ff 0f       	and    $0xfffffff,%eax
  1003cf:	c1 e0 0c             	shl    $0xc,%eax
  1003d2:	48 98                	cltq   
  1003d4:	48 89 45 f8          	mov    %rax,-0x8(%rbp)
  1003d8:	48 8b 55 c8          	mov    -0x38(%rbp),%rdx
  1003dc:	48 8b 45 f8          	mov    -0x8(%rbp),%rax
  1003e0:	48 8b 04 d0          	mov    (%rax,%rdx,8),%rax
  1003e4:	48 89 45 b0          	mov    %rax,-0x50(%rbp)
  1003e8:	48 8b 45 b0          	mov    -0x50(%rbp),%rax
  1003ec:	48 c1 e8 0c          	shr    $0xc,%rax
  1003f0:	25 ff ff ff 0f       	and    $0xfffffff,%eax
  1003f5:	c1 e0 0c             	shl    $0xc,%eax
  1003f8:	48 98                	cltq   
  1003fa:	48 89 45 f0          	mov    %rax,-0x10(%rbp)
  1003fe:	48 8b 55 d0          	mov    -0x30(%rbp),%rdx
  100402:	48 8b 45 f0          	mov    -0x10(%rbp),%rax
  100406:	48 8b 04 d0          	mov    (%rax,%rdx,8),%rax
  10040a:	48 89 45 a8          	mov    %rax,-0x58(%rbp)
  10040e:	48 8b 45 a8          	mov    -0x58(%rbp),%rax
  100412:	48 c1 e8 0c          	shr    $0xc,%rax
  100416:	25 ff ff ff 0f       	and    $0xfffffff,%eax
  10041b:	c1 e0 0c             	shl    $0xc,%eax
  10041e:	48 98                	cltq   
  100420:	48 89 45 e8          	mov    %rax,-0x18(%rbp)
  100424:	48 8b 55 d8          	mov    -0x28(%rbp),%rdx
  100428:	48 8b 45 e8          	mov    -0x18(%rbp),%rax
  10042c:	48 8b 04 d0          	mov    (%rax,%rdx,8),%rax
  100430:	48 89 45 a0          	mov    %rax,-0x60(%rbp)
  100434:	48 8b 45 a0          	mov    -0x60(%rbp),%rax
  100438:	48 c1 e8 0c          	shr    $0xc,%rax
  10043c:	25 ff ff ff 0f       	and    $0xfffffff,%eax
  100441:	c1 e0 0c             	shl    $0xc,%eax
  100444:	48 98                	cltq   
  100446:	48 89 45 e0          	mov    %rax,-0x20(%rbp)
  10044a:	48 8b 45 e0          	mov    -0x20(%rbp),%rax
  10044e:	c9                   	leaveq 
  10044f:	c3                   	retq   

0000000000100450 <_ZN16PageTableManager12SetAsCurrentEv>:
  100450:	f3 0f 1e fa          	endbr64 
  100454:	55                   	push   %rbp
  100455:	48 89 e5             	mov    %rsp,%rbp
  100458:	48 83 ec 20          	sub    $0x20,%rsp
  10045c:	48 89 7d e8          	mov    %rdi,-0x18(%rbp)
  100460:	48 8b 45 e8          	mov    -0x18(%rbp),%rax
  100464:	48 8b 00             	mov    (%rax),%rax
  100467:	48 89 c2             	mov    %rax,%rdx
  10046a:	48 8b 45 e8          	mov    -0x18(%rbp),%rax
  10046e:	48 89 d6             	mov    %rdx,%rsi
  100471:	48 89 c7             	mov    %rax,%rdi
  100474:	e8 0f ff ff ff       	callq  100388 <_ZN16PageTableManager15PhysicalAddressEm>
  100479:	48 89 45 f8          	mov    %rax,-0x8(%rbp)
  10047d:	48 8b 45 f8          	mov    -0x8(%rbp),%rax
  100481:	0f 22 d8             	mov    %rax,%cr3
  100484:	48 8b 45 e8          	mov    -0x18(%rbp),%rax
  100488:	48 89 05 c1 4b 01 00 	mov    %rax,0x14bc1(%rip)        # 115050 <CurrentDirectory>
  10048f:	90                   	nop
  100490:	c9                   	leaveq 
  100491:	c3                   	retq   

0000000000100492 <_ZN16PageTableManager5CloneEv>:
  100492:	f3 0f 1e fa          	endbr64 
  100496:	55                   	push   %rbp
  100497:	48 89 e5             	mov    %rsp,%rbp
  10049a:	53                   	push   %rbx
  10049b:	48 83 ec 28          	sub    $0x28,%rsp
  10049f:	48 89 7d d8          	mov    %rdi,-0x28(%rbp)
  1004a3:	48 8d 3d 9e 4b 01 00 	lea    0x14b9e(%rip),%rdi        # 115048 <KernelDirectory>
  1004aa:	e8 89 da 00 00       	callq  10df38 <_ZN16PageTableManager7GetPML4Ev>
  1004af:	48 89 c2             	mov    %rax,%rdx
  1004b2:	48 8b 45 d8          	mov    -0x28(%rbp),%rax
  1004b6:	48 8b 08             	mov    (%rax),%rcx
  1004b9:	48 8b 45 d8          	mov    -0x28(%rbp),%rax
  1004bd:	48 89 ce             	mov    %rcx,%rsi
  1004c0:	48 89 c7             	mov    %rax,%rdi
  1004c3:	e8 82 08 00 00       	callq  100d4a <_ZN16PageTableManager9ClonePML4EP9PageTableS1_>
  1004c8:	48 89 45 e8          	mov    %rax,-0x18(%rbp)
  1004cc:	bf 08 00 00 00       	mov    $0x8,%edi
  1004d1:	e8 07 35 00 00       	callq  1039dd <_Znwm>
  1004d6:	48 89 c3             	mov    %rax,%rbx
  1004d9:	48 8b 45 e8          	mov    -0x18(%rbp),%rax
  1004dd:	48 89 c6             	mov    %rax,%rsi
  1004e0:	48 89 df             	mov    %rbx,%rdi
  1004e3:	e8 2e da 00 00       	callq  10df16 <_ZN16PageTableManagerC1EP9PageTable>
  1004e8:	48 89 5d e0          	mov    %rbx,-0x20(%rbp)
  1004ec:	48 8b 45 e0          	mov    -0x20(%rbp),%rax
  1004f0:	48 83 c4 28          	add    $0x28,%rsp
  1004f4:	5b                   	pop    %rbx
  1004f5:	5d                   	pop    %rbp
  1004f6:	c3                   	retq   
  1004f7:	90                   	nop

00000000001004f8 <_ZN16PageTableManager9ClonePageEPv>:
  1004f8:	f3 0f 1e fa          	endbr64 
  1004fc:	55                   	push   %rbp
  1004fd:	48 89 e5             	mov    %rsp,%rbp
  100500:	48 83 ec 20          	sub    $0x20,%rsp
  100504:	48 89 7d e8          	mov    %rdi,-0x18(%rbp)
  100508:	48 89 75 e0          	mov    %rsi,-0x20(%rbp)
  10050c:	e8 11 10 00 00       	callq  101522 <_ZN18PageFrameAllocator15SharedAllocatorEv>
  100511:	48 89 c7             	mov    %rax,%rdi
  100514:	e8 5d 0d 00 00       	callq  101276 <_ZN18PageFrameAllocator11RequestPageEv>
  100519:	48 89 45 f8          	mov    %rax,-0x8(%rbp)
  10051d:	48 8b 4d e0          	mov    -0x20(%rbp),%rcx
  100521:	48 8b 45 f8          	mov    -0x8(%rbp),%rax
  100525:	ba 00 10 00 00       	mov    $0x1000,%edx
  10052a:	48 89 ce             	mov    %rcx,%rsi
  10052d:	48 89 c7             	mov    %rax,%rdi
  100530:	e8 cc c6 00 00       	callq  10cc01 <_Z6memcpyPvPKvm>
  100535:	48 8b 45 f8          	mov    -0x8(%rbp),%rax
  100539:	c9                   	leaveq 
  10053a:	c3                   	retq   
  10053b:	90                   	nop

000000000010053c <_ZN16PageTableManager7ClonePTEP9PageTableS1_>:
  10053c:	f3 0f 1e fa          	endbr64 
  100540:	55                   	push   %rbp
  100541:	48 89 e5             	mov    %rsp,%rbp
  100544:	48 83 ec 50          	sub    $0x50,%rsp
  100548:	48 89 7d c8          	mov    %rdi,-0x38(%rbp)
  10054c:	48 89 75 c0          	mov    %rsi,-0x40(%rbp)
  100550:	48 89 55 b8          	mov    %rdx,-0x48(%rbp)
  100554:	e8 c9 0f 00 00       	callq  101522 <_ZN18PageFrameAllocator15SharedAllocatorEv>
  100559:	48 89 c7             	mov    %rax,%rdi
  10055c:	e8 15 0d 00 00       	callq  101276 <_ZN18PageFrameAllocator11RequestPageEv>
  100561:	48 89 45 f0          	mov    %rax,-0x10(%rbp)
  100565:	48 8b 45 f0          	mov    -0x10(%rbp),%rax
  100569:	ba 00 10 00 00       	mov    $0x1000,%edx
  10056e:	be 00 00 00 00       	mov    $0x0,%esi
  100573:	48 89 c7             	mov    %rax,%rdi
  100576:	e8 c8 c6 00 00       	callq  10cc43 <_Z6memsetPvim>
  10057b:	c7 45 fc 00 00 00 00 	movl   $0x0,-0x4(%rbp)
  100582:	81 7d fc ff 01 00 00 	cmpl   $0x1ff,-0x4(%rbp)
  100589:	0f 87 40 02 00 00    	ja     1007cf <_ZN16PageTableManager7ClonePTEP9PageTableS1_+0x293>
  10058f:	48 8b 45 c0          	mov    -0x40(%rbp),%rax
  100593:	8b 55 fc             	mov    -0x4(%rbp),%edx
  100596:	48 8b 04 d0          	mov    (%rax,%rdx,8),%rax
  10059a:	48 c1 e8 0c          	shr    $0xc,%rax
  10059e:	25 ff ff ff 0f       	and    $0xfffffff,%eax
  1005a3:	85 c0                	test   %eax,%eax
  1005a5:	0f 84 1a 02 00 00    	je     1007c5 <_ZN16PageTableManager7ClonePTEP9PageTableS1_+0x289>
  1005ab:	8b 45 fc             	mov    -0x4(%rbp),%eax
  1005ae:	48 8d 14 c5 00 00 00 	lea    0x0(,%rax,8),%rdx
  1005b5:	00 
  1005b6:	48 8b 45 c0          	mov    -0x40(%rbp),%rax
  1005ba:	48 01 d0             	add    %rdx,%rax
  1005bd:	48 8b 00             	mov    (%rax),%rax
  1005c0:	48 89 45 e8          	mov    %rax,-0x18(%rbp)
  1005c4:	8b 45 fc             	mov    -0x4(%rbp),%eax
  1005c7:	48 8d 14 c5 00 00 00 	lea    0x0(,%rax,8),%rdx
  1005ce:	00 
  1005cf:	48 8b 45 b8          	mov    -0x48(%rbp),%rax
  1005d3:	48 01 d0             	add    %rdx,%rax
  1005d6:	48 8b 00             	mov    (%rax),%rax
  1005d9:	48 89 45 e0          	mov    %rax,-0x20(%rbp)
  1005dd:	48 8b 45 e8          	mov    -0x18(%rbp),%rax
  1005e1:	48 3b 45 e0          	cmp    -0x20(%rbp),%rax
  1005e5:	75 1b                	jne    100602 <_ZN16PageTableManager7ClonePTEP9PageTableS1_+0xc6>
  1005e7:	48 8b 45 f0          	mov    -0x10(%rbp),%rax
  1005eb:	8b 55 fc             	mov    -0x4(%rbp),%edx
  1005ee:	48 8b 4d c0          	mov    -0x40(%rbp),%rcx
  1005f2:	8b 75 fc             	mov    -0x4(%rbp),%esi
  1005f5:	48 8b 0c f1          	mov    (%rcx,%rsi,8),%rcx
  1005f9:	48 89 0c d0          	mov    %rcx,(%rax,%rdx,8)
  1005fd:	e9 c4 01 00 00       	jmpq   1007c6 <_ZN16PageTableManager7ClonePTEP9PageTableS1_+0x28a>
  100602:	48 8b 45 c0          	mov    -0x40(%rbp),%rax
  100606:	8b 55 fc             	mov    -0x4(%rbp),%edx
  100609:	48 8b 04 d0          	mov    (%rax,%rdx,8),%rax
  10060d:	48 c1 e8 0c          	shr    $0xc,%rax
  100611:	25 ff ff ff 0f       	and    $0xfffffff,%eax
  100616:	c1 e0 0c             	shl    $0xc,%eax
  100619:	48 98                	cltq   
  10061b:	48 89 45 d8          	mov    %rax,-0x28(%rbp)
  10061f:	48 8b 55 d8          	mov    -0x28(%rbp),%rdx
  100623:	48 8b 45 c8          	mov    -0x38(%rbp),%rax
  100627:	48 89 d6             	mov    %rdx,%rsi
  10062a:	48 89 c7             	mov    %rax,%rdi
  10062d:	e8 c6 fe ff ff       	callq  1004f8 <_ZN16PageTableManager9ClonePageEPv>
  100632:	48 89 45 d0          	mov    %rax,-0x30(%rbp)
  100636:	48 8b 45 d0          	mov    -0x30(%rbp),%rax
  10063a:	48 c1 e8 0c          	shr    $0xc,%rax
  10063e:	89 c1                	mov    %eax,%ecx
  100640:	81 e1 ff ff ff 0f    	and    $0xfffffff,%ecx
  100646:	48 8b 45 f0          	mov    -0x10(%rbp),%rax
  10064a:	8b 55 fc             	mov    -0x4(%rbp),%edx
  10064d:	89 c9                	mov    %ecx,%ecx
  10064f:	81 e1 ff ff ff 0f    	and    $0xfffffff,%ecx
  100655:	48 89 ce             	mov    %rcx,%rsi
  100658:	48 c1 e6 0c          	shl    $0xc,%rsi
  10065c:	48 8b 0c d0          	mov    (%rax,%rdx,8),%rcx
  100660:	48 bf ff 0f 00 00 00 	movabs $0xffffff0000000fff,%rdi
  100667:	ff ff ff 
  10066a:	48 21 f9             	and    %rdi,%rcx
  10066d:	48 09 f1             	or     %rsi,%rcx
  100670:	48 89 0c d0          	mov    %rcx,(%rax,%rdx,8)
  100674:	48 8b 45 c0          	mov    -0x40(%rbp),%rax
  100678:	8b 55 fc             	mov    -0x4(%rbp),%edx
  10067b:	0f b6 04 d0          	movzbl (%rax,%rdx,8),%eax
  10067f:	83 e0 01             	and    $0x1,%eax
  100682:	84 c0                	test   %al,%al
  100684:	74 11                	je     100697 <_ZN16PageTableManager7ClonePTEP9PageTableS1_+0x15b>
  100686:	48 8b 45 f0          	mov    -0x10(%rbp),%rax
  10068a:	8b 55 fc             	mov    -0x4(%rbp),%edx
  10068d:	0f b6 0c d0          	movzbl (%rax,%rdx,8),%ecx
  100691:	83 c9 01             	or     $0x1,%ecx
  100694:	88 0c d0             	mov    %cl,(%rax,%rdx,8)
  100697:	48 8b 45 c0          	mov    -0x40(%rbp),%rax
  10069b:	8b 55 fc             	mov    -0x4(%rbp),%edx
  10069e:	0f b6 04 d0          	movzbl (%rax,%rdx,8),%eax
  1006a2:	d0 e8                	shr    %al
  1006a4:	83 e0 01             	and    $0x1,%eax
  1006a7:	84 c0                	test   %al,%al
  1006a9:	74 11                	je     1006bc <_ZN16PageTableManager7ClonePTEP9PageTableS1_+0x180>
  1006ab:	48 8b 45 f0          	mov    -0x10(%rbp),%rax
  1006af:	8b 55 fc             	mov    -0x4(%rbp),%edx
  1006b2:	0f b6 0c d0          	movzbl (%rax,%rdx,8),%ecx
  1006b6:	83 c9 02             	or     $0x2,%ecx
  1006b9:	88 0c d0             	mov    %cl,(%rax,%rdx,8)
  1006bc:	48 8b 45 c0          	mov    -0x40(%rbp),%rax
  1006c0:	8b 55 fc             	mov    -0x4(%rbp),%edx
  1006c3:	0f b6 04 d0          	movzbl (%rax,%rdx,8),%eax
  1006c7:	c0 e8 02             	shr    $0x2,%al
  1006ca:	83 e0 01             	and    $0x1,%eax
  1006cd:	84 c0                	test   %al,%al
  1006cf:	74 11                	je     1006e2 <_ZN16PageTableManager7ClonePTEP9PageTableS1_+0x1a6>
  1006d1:	48 8b 45 f0          	mov    -0x10(%rbp),%rax
  1006d5:	8b 55 fc             	mov    -0x4(%rbp),%edx
  1006d8:	0f b6 0c d0          	movzbl (%rax,%rdx,8),%ecx
  1006dc:	83 c9 04             	or     $0x4,%ecx
  1006df:	88 0c d0             	mov    %cl,(%rax,%rdx,8)
  1006e2:	48 8b 45 c0          	mov    -0x40(%rbp),%rax
  1006e6:	8b 55 fc             	mov    -0x4(%rbp),%edx
  1006e9:	0f b6 04 d0          	movzbl (%rax,%rdx,8),%eax
  1006ed:	c0 e8 03             	shr    $0x3,%al
  1006f0:	83 e0 01             	and    $0x1,%eax
  1006f3:	84 c0                	test   %al,%al
  1006f5:	74 11                	je     100708 <_ZN16PageTableManager7ClonePTEP9PageTableS1_+0x1cc>
  1006f7:	48 8b 45 f0          	mov    -0x10(%rbp),%rax
  1006fb:	8b 55 fc             	mov    -0x4(%rbp),%edx
  1006fe:	0f b6 0c d0          	movzbl (%rax,%rdx,8),%ecx
  100702:	83 c9 08             	or     $0x8,%ecx
  100705:	88 0c d0             	mov    %cl,(%rax,%rdx,8)
  100708:	48 8b 45 c0          	mov    -0x40(%rbp),%rax
  10070c:	8b 55 fc             	mov    -0x4(%rbp),%edx
  10070f:	0f b6 04 d0          	movzbl (%rax,%rdx,8),%eax
  100713:	c0 e8 05             	shr    $0x5,%al
  100716:	83 e0 01             	and    $0x1,%eax
  100719:	84 c0                	test   %al,%al
  10071b:	74 11                	je     10072e <_ZN16PageTableManager7ClonePTEP9PageTableS1_+0x1f2>
  10071d:	48 8b 45 f0          	mov    -0x10(%rbp),%rax
  100721:	8b 55 fc             	mov    -0x4(%rbp),%edx
  100724:	0f b6 0c d0          	movzbl (%rax,%rdx,8),%ecx
  100728:	83 c9 20             	or     $0x20,%ecx
  10072b:	88 0c d0             	mov    %cl,(%rax,%rdx,8)
  10072e:	48 8b 45 c0          	mov    -0x40(%rbp),%rax
  100732:	8b 55 fc             	mov    -0x4(%rbp),%edx
  100735:	0f b6 04 d0          	movzbl (%rax,%rdx,8),%eax
  100739:	c0 e8 06             	shr    $0x6,%al
  10073c:	83 e0 01             	and    $0x1,%eax
  10073f:	84 c0                	test   %al,%al
  100741:	74 11                	je     100754 <_ZN16PageTableManager7ClonePTEP9PageTableS1_+0x218>
  100743:	48 8b 45 f0          	mov    -0x10(%rbp),%rax
  100747:	8b 55 fc             	mov    -0x4(%rbp),%edx
  10074a:	0f b6 0c d0          	movzbl (%rax,%rdx,8),%ecx
  10074e:	83 c9 40             	or     $0x40,%ecx
  100751:	88 0c d0             	mov    %cl,(%rax,%rdx,8)
  100754:	48 8b 45 c0          	mov    -0x40(%rbp),%rax
  100758:	8b 55 fc             	mov    -0x4(%rbp),%edx
  10075b:	0f b6 04 d0          	movzbl (%rax,%rdx,8),%eax
  10075f:	c0 e8 07             	shr    $0x7,%al
  100762:	84 c0                	test   %al,%al
  100764:	74 11                	je     100777 <_ZN16PageTableManager7ClonePTEP9PageTableS1_+0x23b>
  100766:	48 8b 45 f0          	mov    -0x10(%rbp),%rax
  10076a:	8b 55 fc             	mov    -0x4(%rbp),%edx
  10076d:	0f b6 0c d0          	movzbl (%rax,%rdx,8),%ecx
  100771:	83 c9 80             	or     $0xffffff80,%ecx
  100774:	88 0c d0             	mov    %cl,(%rax,%rdx,8)
  100777:	48 8b 45 c0          	mov    -0x40(%rbp),%rax
  10077b:	8b 55 fc             	mov    -0x4(%rbp),%edx
  10077e:	0f b6 44 d0 01       	movzbl 0x1(%rax,%rdx,8),%eax
  100783:	83 e0 01             	and    $0x1,%eax
  100786:	84 c0                	test   %al,%al
  100788:	74 13                	je     10079d <_ZN16PageTableManager7ClonePTEP9PageTableS1_+0x261>
  10078a:	48 8b 45 f0          	mov    -0x10(%rbp),%rax
  10078e:	8b 55 fc             	mov    -0x4(%rbp),%edx
  100791:	0f b6 4c d0 01       	movzbl 0x1(%rax,%rdx,8),%ecx
  100796:	83 c9 01             	or     $0x1,%ecx
  100799:	88 4c d0 01          	mov    %cl,0x1(%rax,%rdx,8)
  10079d:	48 8b 45 c0          	mov    -0x40(%rbp),%rax
  1007a1:	8b 55 fc             	mov    -0x4(%rbp),%edx
  1007a4:	0f b6 44 d0 07       	movzbl 0x7(%rax,%rdx,8),%eax
  1007a9:	c0 e8 07             	shr    $0x7,%al
  1007ac:	84 c0                	test   %al,%al
  1007ae:	74 16                	je     1007c6 <_ZN16PageTableManager7ClonePTEP9PageTableS1_+0x28a>
  1007b0:	48 8b 45 f0          	mov    -0x10(%rbp),%rax
  1007b4:	8b 55 fc             	mov    -0x4(%rbp),%edx
  1007b7:	0f b6 4c d0 07       	movzbl 0x7(%rax,%rdx,8),%ecx
  1007bc:	83 c9 80             	or     $0xffffff80,%ecx
  1007bf:	88 4c d0 07          	mov    %cl,0x7(%rax,%rdx,8)
  1007c3:	eb 01                	jmp    1007c6 <_ZN16PageTableManager7ClonePTEP9PageTableS1_+0x28a>
  1007c5:	90                   	nop
  1007c6:	83 45 fc 01          	addl   $0x1,-0x4(%rbp)
  1007ca:	e9 b3 fd ff ff       	jmpq   100582 <_ZN16PageTableManager7ClonePTEP9PageTableS1_+0x46>
  1007cf:	48 8b 45 f0          	mov    -0x10(%rbp),%rax
  1007d3:	c9                   	leaveq 
  1007d4:	c3                   	retq   
  1007d5:	90                   	nop

00000000001007d6 <_ZN16PageTableManager7ClonePDEP9PageTableS1_>:
  1007d6:	f3 0f 1e fa          	endbr64 
  1007da:	55                   	push   %rbp
  1007db:	48 89 e5             	mov    %rsp,%rbp
  1007de:	48 83 ec 60          	sub    $0x60,%rsp
  1007e2:	48 89 7d b8          	mov    %rdi,-0x48(%rbp)
  1007e6:	48 89 75 b0          	mov    %rsi,-0x50(%rbp)
  1007ea:	48 89 55 a8          	mov    %rdx,-0x58(%rbp)
  1007ee:	e8 2f 0d 00 00       	callq  101522 <_ZN18PageFrameAllocator15SharedAllocatorEv>
  1007f3:	48 89 c7             	mov    %rax,%rdi
  1007f6:	e8 7b 0a 00 00       	callq  101276 <_ZN18PageFrameAllocator11RequestPageEv>
  1007fb:	48 89 45 f0          	mov    %rax,-0x10(%rbp)
  1007ff:	48 8b 45 f0          	mov    -0x10(%rbp),%rax
  100803:	ba 00 10 00 00       	mov    $0x1000,%edx
  100808:	be 00 00 00 00       	mov    $0x0,%esi
  10080d:	48 89 c7             	mov    %rax,%rdi
  100810:	e8 2e c4 00 00       	callq  10cc43 <_Z6memsetPvim>
  100815:	c7 45 fc 00 00 00 00 	movl   $0x0,-0x4(%rbp)
  10081c:	81 7d fc ff 01 00 00 	cmpl   $0x1ff,-0x4(%rbp)
  100823:	0f 87 61 02 00 00    	ja     100a8a <_ZN16PageTableManager7ClonePDEP9PageTableS1_+0x2b4>
  100829:	48 8b 45 b0          	mov    -0x50(%rbp),%rax
  10082d:	8b 55 fc             	mov    -0x4(%rbp),%edx
  100830:	48 8b 04 d0          	mov    (%rax,%rdx,8),%rax
  100834:	48 c1 e8 0c          	shr    $0xc,%rax
  100838:	25 ff ff ff 0f       	and    $0xfffffff,%eax
  10083d:	85 c0                	test   %eax,%eax
  10083f:	0f 84 3b 02 00 00    	je     100a80 <_ZN16PageTableManager7ClonePDEP9PageTableS1_+0x2aa>
  100845:	8b 45 fc             	mov    -0x4(%rbp),%eax
  100848:	48 8d 14 c5 00 00 00 	lea    0x0(,%rax,8),%rdx
  10084f:	00 
  100850:	48 8b 45 b0          	mov    -0x50(%rbp),%rax
  100854:	48 01 d0             	add    %rdx,%rax
  100857:	48 8b 00             	mov    (%rax),%rax
  10085a:	48 89 45 e8          	mov    %rax,-0x18(%rbp)
  10085e:	8b 45 fc             	mov    -0x4(%rbp),%eax
  100861:	48 8d 14 c5 00 00 00 	lea    0x0(,%rax,8),%rdx
  100868:	00 
  100869:	48 8b 45 a8          	mov    -0x58(%rbp),%rax
  10086d:	48 01 d0             	add    %rdx,%rax
  100870:	48 8b 00             	mov    (%rax),%rax
  100873:	48 89 45 e0          	mov    %rax,-0x20(%rbp)
  100877:	48 8b 45 e8          	mov    -0x18(%rbp),%rax
  10087b:	48 3b 45 e0          	cmp    -0x20(%rbp),%rax
  10087f:	75 1b                	jne    10089c <_ZN16PageTableManager7ClonePDEP9PageTableS1_+0xc6>
  100881:	48 8b 45 f0          	mov    -0x10(%rbp),%rax
  100885:	8b 55 fc             	mov    -0x4(%rbp),%edx
  100888:	48 8b 4d b0          	mov    -0x50(%rbp),%rcx
  10088c:	8b 75 fc             	mov    -0x4(%rbp),%esi
  10088f:	48 8b 0c f1          	mov    (%rcx,%rsi,8),%rcx
  100893:	48 89 0c d0          	mov    %rcx,(%rax,%rdx,8)
  100897:	e9 e5 01 00 00       	jmpq   100a81 <_ZN16PageTableManager7ClonePDEP9PageTableS1_+0x2ab>
  10089c:	48 8b 45 b0          	mov    -0x50(%rbp),%rax
  1008a0:	8b 55 fc             	mov    -0x4(%rbp),%edx
  1008a3:	48 8b 04 d0          	mov    (%rax,%rdx,8),%rax
  1008a7:	48 c1 e8 0c          	shr    $0xc,%rax
  1008ab:	25 ff ff ff 0f       	and    $0xfffffff,%eax
  1008b0:	c1 e0 0c             	shl    $0xc,%eax
  1008b3:	48 98                	cltq   
  1008b5:	48 89 45 d8          	mov    %rax,-0x28(%rbp)
  1008b9:	48 8b 45 a8          	mov    -0x58(%rbp),%rax
  1008bd:	8b 55 fc             	mov    -0x4(%rbp),%edx
  1008c0:	48 8b 04 d0          	mov    (%rax,%rdx,8),%rax
  1008c4:	48 c1 e8 0c          	shr    $0xc,%rax
  1008c8:	25 ff ff ff 0f       	and    $0xfffffff,%eax
  1008cd:	c1 e0 0c             	shl    $0xc,%eax
  1008d0:	48 98                	cltq   
  1008d2:	48 89 45 d0          	mov    %rax,-0x30(%rbp)
  1008d6:	48 8b 55 d0          	mov    -0x30(%rbp),%rdx
  1008da:	48 8b 4d d8          	mov    -0x28(%rbp),%rcx
  1008de:	48 8b 45 b8          	mov    -0x48(%rbp),%rax
  1008e2:	48 89 ce             	mov    %rcx,%rsi
  1008e5:	48 89 c7             	mov    %rax,%rdi
  1008e8:	e8 4f fc ff ff       	callq  10053c <_ZN16PageTableManager7ClonePTEP9PageTableS1_>
  1008ed:	48 89 45 c8          	mov    %rax,-0x38(%rbp)
  1008f1:	48 8b 45 c8          	mov    -0x38(%rbp),%rax
  1008f5:	48 c1 e8 0c          	shr    $0xc,%rax
  1008f9:	89 c1                	mov    %eax,%ecx
  1008fb:	81 e1 ff ff ff 0f    	and    $0xfffffff,%ecx
  100901:	48 8b 45 f0          	mov    -0x10(%rbp),%rax
  100905:	8b 55 fc             	mov    -0x4(%rbp),%edx
  100908:	89 c9                	mov    %ecx,%ecx
  10090a:	81 e1 ff ff ff 0f    	and    $0xfffffff,%ecx
  100910:	48 89 ce             	mov    %rcx,%rsi
  100913:	48 c1 e6 0c          	shl    $0xc,%rsi
  100917:	48 8b 0c d0          	mov    (%rax,%rdx,8),%rcx
  10091b:	48 bf ff 0f 00 00 00 	movabs $0xffffff0000000fff,%rdi
  100922:	ff ff ff 
  100925:	48 21 f9             	and    %rdi,%rcx
  100928:	48 09 f1             	or     %rsi,%rcx
  10092b:	48 89 0c d0          	mov    %rcx,(%rax,%rdx,8)
  10092f:	48 8b 45 b0          	mov    -0x50(%rbp),%rax
  100933:	8b 55 fc             	mov    -0x4(%rbp),%edx
  100936:	0f b6 04 d0          	movzbl (%rax,%rdx,8),%eax
  10093a:	83 e0 01             	and    $0x1,%eax
  10093d:	84 c0                	test   %al,%al
  10093f:	74 11                	je     100952 <_ZN16PageTableManager7ClonePDEP9PageTableS1_+0x17c>
  100941:	48 8b 45 f0          	mov    -0x10(%rbp),%rax
  100945:	8b 55 fc             	mov    -0x4(%rbp),%edx
  100948:	0f b6 0c d0          	movzbl (%rax,%rdx,8),%ecx
  10094c:	83 c9 01             	or     $0x1,%ecx
  10094f:	88 0c d0             	mov    %cl,(%rax,%rdx,8)
  100952:	48 8b 45 b0          	mov    -0x50(%rbp),%rax
  100956:	8b 55 fc             	mov    -0x4(%rbp),%edx
  100959:	0f b6 04 d0          	movzbl (%rax,%rdx,8),%eax
  10095d:	d0 e8                	shr    %al
  10095f:	83 e0 01             	and    $0x1,%eax
  100962:	84 c0                	test   %al,%al
  100964:	74 11                	je     100977 <_ZN16PageTableManager7ClonePDEP9PageTableS1_+0x1a1>
  100966:	48 8b 45 f0          	mov    -0x10(%rbp),%rax
  10096a:	8b 55 fc             	mov    -0x4(%rbp),%edx
  10096d:	0f b6 0c d0          	movzbl (%rax,%rdx,8),%ecx
  100971:	83 c9 02             	or     $0x2,%ecx
  100974:	88 0c d0             	mov    %cl,(%rax,%rdx,8)
  100977:	48 8b 45 b0          	mov    -0x50(%rbp),%rax
  10097b:	8b 55 fc             	mov    -0x4(%rbp),%edx
  10097e:	0f b6 04 d0          	movzbl (%rax,%rdx,8),%eax
  100982:	c0 e8 02             	shr    $0x2,%al
  100985:	83 e0 01             	and    $0x1,%eax
  100988:	84 c0                	test   %al,%al
  10098a:	74 11                	je     10099d <_ZN16PageTableManager7ClonePDEP9PageTableS1_+0x1c7>
  10098c:	48 8b 45 f0          	mov    -0x10(%rbp),%rax
  100990:	8b 55 fc             	mov    -0x4(%rbp),%edx
  100993:	0f b6 0c d0          	movzbl (%rax,%rdx,8),%ecx
  100997:	83 c9 04             	or     $0x4,%ecx
  10099a:	88 0c d0             	mov    %cl,(%rax,%rdx,8)
  10099d:	48 8b 45 b0          	mov    -0x50(%rbp),%rax
  1009a1:	8b 55 fc             	mov    -0x4(%rbp),%edx
  1009a4:	0f b6 04 d0          	movzbl (%rax,%rdx,8),%eax
  1009a8:	c0 e8 03             	shr    $0x3,%al
  1009ab:	83 e0 01             	and    $0x1,%eax
  1009ae:	84 c0                	test   %al,%al
  1009b0:	74 11                	je     1009c3 <_ZN16PageTableManager7ClonePDEP9PageTableS1_+0x1ed>
  1009b2:	48 8b 45 f0          	mov    -0x10(%rbp),%rax
  1009b6:	8b 55 fc             	mov    -0x4(%rbp),%edx
  1009b9:	0f b6 0c d0          	movzbl (%rax,%rdx,8),%ecx
  1009bd:	83 c9 08             	or     $0x8,%ecx
  1009c0:	88 0c d0             	mov    %cl,(%rax,%rdx,8)
  1009c3:	48 8b 45 b0          	mov    -0x50(%rbp),%rax
  1009c7:	8b 55 fc             	mov    -0x4(%rbp),%edx
  1009ca:	0f b6 04 d0          	movzbl (%rax,%rdx,8),%eax
  1009ce:	c0 e8 05             	shr    $0x5,%al
  1009d1:	83 e0 01             	and    $0x1,%eax
  1009d4:	84 c0                	test   %al,%al
  1009d6:	74 11                	je     1009e9 <_ZN16PageTableManager7ClonePDEP9PageTableS1_+0x213>
  1009d8:	48 8b 45 f0          	mov    -0x10(%rbp),%rax
  1009dc:	8b 55 fc             	mov    -0x4(%rbp),%edx
  1009df:	0f b6 0c d0          	movzbl (%rax,%rdx,8),%ecx
  1009e3:	83 c9 20             	or     $0x20,%ecx
  1009e6:	88 0c d0             	mov    %cl,(%rax,%rdx,8)
  1009e9:	48 8b 45 b0          	mov    -0x50(%rbp),%rax
  1009ed:	8b 55 fc             	mov    -0x4(%rbp),%edx
  1009f0:	0f b6 04 d0          	movzbl (%rax,%rdx,8),%eax
  1009f4:	c0 e8 06             	shr    $0x6,%al
  1009f7:	83 e0 01             	and    $0x1,%eax
  1009fa:	84 c0                	test   %al,%al
  1009fc:	74 11                	je     100a0f <_ZN16PageTableManager7ClonePDEP9PageTableS1_+0x239>
  1009fe:	48 8b 45 f0          	mov    -0x10(%rbp),%rax
  100a02:	8b 55 fc             	mov    -0x4(%rbp),%edx
  100a05:	0f b6 0c d0          	movzbl (%rax,%rdx,8),%ecx
  100a09:	83 c9 40             	or     $0x40,%ecx
  100a0c:	88 0c d0             	mov    %cl,(%rax,%rdx,8)
  100a0f:	48 8b 45 b0          	mov    -0x50(%rbp),%rax
  100a13:	8b 55 fc             	mov    -0x4(%rbp),%edx
  100a16:	0f b6 04 d0          	movzbl (%rax,%rdx,8),%eax
  100a1a:	c0 e8 07             	shr    $0x7,%al
  100a1d:	84 c0                	test   %al,%al
  100a1f:	74 11                	je     100a32 <_ZN16PageTableManager7ClonePDEP9PageTableS1_+0x25c>
  100a21:	48 8b 45 f0          	mov    -0x10(%rbp),%rax
  100a25:	8b 55 fc             	mov    -0x4(%rbp),%edx
  100a28:	0f b6 0c d0          	movzbl (%rax,%rdx,8),%ecx
  100a2c:	83 c9 80             	or     $0xffffff80,%ecx
  100a2f:	88 0c d0             	mov    %cl,(%rax,%rdx,8)
  100a32:	48 8b 45 b0          	mov    -0x50(%rbp),%rax
  100a36:	8b 55 fc             	mov    -0x4(%rbp),%edx
  100a39:	0f b6 44 d0 01       	movzbl 0x1(%rax,%rdx,8),%eax
  100a3e:	83 e0 01             	and    $0x1,%eax
  100a41:	84 c0                	test   %al,%al
  100a43:	74 13                	je     100a58 <_ZN16PageTableManager7ClonePDEP9PageTableS1_+0x282>
  100a45:	48 8b 45 f0          	mov    -0x10(%rbp),%rax
  100a49:	8b 55 fc             	mov    -0x4(%rbp),%edx
  100a4c:	0f b6 4c d0 01       	movzbl 0x1(%rax,%rdx,8),%ecx
  100a51:	83 c9 01             	or     $0x1,%ecx
  100a54:	88 4c d0 01          	mov    %cl,0x1(%rax,%rdx,8)
  100a58:	48 8b 45 b0          	mov    -0x50(%rbp),%rax
  100a5c:	8b 55 fc             	mov    -0x4(%rbp),%edx
  100a5f:	0f b6 44 d0 07       	movzbl 0x7(%rax,%rdx,8),%eax
  100a64:	c0 e8 07             	shr    $0x7,%al
  100a67:	84 c0                	test   %al,%al
  100a69:	74 16                	je     100a81 <_ZN16PageTableManager7ClonePDEP9PageTableS1_+0x2ab>
  100a6b:	48 8b 45 f0          	mov    -0x10(%rbp),%rax
  100a6f:	8b 55 fc             	mov    -0x4(%rbp),%edx
  100a72:	0f b6 4c d0 07       	movzbl 0x7(%rax,%rdx,8),%ecx
  100a77:	83 c9 80             	or     $0xffffff80,%ecx
  100a7a:	88 4c d0 07          	mov    %cl,0x7(%rax,%rdx,8)
  100a7e:	eb 01                	jmp    100a81 <_ZN16PageTableManager7ClonePDEP9PageTableS1_+0x2ab>
  100a80:	90                   	nop
  100a81:	83 45 fc 01          	addl   $0x1,-0x4(%rbp)
  100a85:	e9 92 fd ff ff       	jmpq   10081c <_ZN16PageTableManager7ClonePDEP9PageTableS1_+0x46>
  100a8a:	48 8b 45 f0          	mov    -0x10(%rbp),%rax
  100a8e:	c9                   	leaveq 
  100a8f:	c3                   	retq   

0000000000100a90 <_ZN16PageTableManager8ClonePDPEP9PageTableS1_>:
  100a90:	f3 0f 1e fa          	endbr64 
  100a94:	55                   	push   %rbp
  100a95:	48 89 e5             	mov    %rsp,%rbp
  100a98:	48 83 ec 60          	sub    $0x60,%rsp
  100a9c:	48 89 7d b8          	mov    %rdi,-0x48(%rbp)
  100aa0:	48 89 75 b0          	mov    %rsi,-0x50(%rbp)
  100aa4:	48 89 55 a8          	mov    %rdx,-0x58(%rbp)
  100aa8:	e8 75 0a 00 00       	callq  101522 <_ZN18PageFrameAllocator15SharedAllocatorEv>
  100aad:	48 89 c7             	mov    %rax,%rdi
  100ab0:	e8 c1 07 00 00       	callq  101276 <_ZN18PageFrameAllocator11RequestPageEv>
  100ab5:	48 89 45 f0          	mov    %rax,-0x10(%rbp)
  100ab9:	48 8b 45 f0          	mov    -0x10(%rbp),%rax
  100abd:	ba 00 10 00 00       	mov    $0x1000,%edx
  100ac2:	be 00 00 00 00       	mov    $0x0,%esi
  100ac7:	48 89 c7             	mov    %rax,%rdi
  100aca:	e8 74 c1 00 00       	callq  10cc43 <_Z6memsetPvim>
  100acf:	c7 45 fc 00 00 00 00 	movl   $0x0,-0x4(%rbp)
  100ad6:	81 7d fc ff 01 00 00 	cmpl   $0x1ff,-0x4(%rbp)
  100add:	0f 87 61 02 00 00    	ja     100d44 <_ZN16PageTableManager8ClonePDPEP9PageTableS1_+0x2b4>
  100ae3:	48 8b 45 b0          	mov    -0x50(%rbp),%rax
  100ae7:	8b 55 fc             	mov    -0x4(%rbp),%edx
  100aea:	48 8b 04 d0          	mov    (%rax,%rdx,8),%rax
  100aee:	48 c1 e8 0c          	shr    $0xc,%rax
  100af2:	25 ff ff ff 0f       	and    $0xfffffff,%eax
  100af7:	85 c0                	test   %eax,%eax
  100af9:	0f 84 3b 02 00 00    	je     100d3a <_ZN16PageTableManager8ClonePDPEP9PageTableS1_+0x2aa>
  100aff:	8b 45 fc             	mov    -0x4(%rbp),%eax
  100b02:	48 8d 14 c5 00 00 00 	lea    0x0(,%rax,8),%rdx
  100b09:	00 
  100b0a:	48 8b 45 b0          	mov    -0x50(%rbp),%rax
  100b0e:	48 01 d0             	add    %rdx,%rax
  100b11:	48 8b 00             	mov    (%rax),%rax
  100b14:	48 89 45 e8          	mov    %rax,-0x18(%rbp)
  100b18:	8b 45 fc             	mov    -0x4(%rbp),%eax
  100b1b:	48 8d 14 c5 00 00 00 	lea    0x0(,%rax,8),%rdx
  100b22:	00 
  100b23:	48 8b 45 a8          	mov    -0x58(%rbp),%rax
  100b27:	48 01 d0             	add    %rdx,%rax
  100b2a:	48 8b 00             	mov    (%rax),%rax
  100b2d:	48 89 45 e0          	mov    %rax,-0x20(%rbp)
  100b31:	48 8b 45 e8          	mov    -0x18(%rbp),%rax
  100b35:	48 3b 45 e0          	cmp    -0x20(%rbp),%rax
  100b39:	75 1b                	jne    100b56 <_ZN16PageTableManager8ClonePDPEP9PageTableS1_+0xc6>
  100b3b:	48 8b 45 f0          	mov    -0x10(%rbp),%rax
  100b3f:	8b 55 fc             	mov    -0x4(%rbp),%edx
  100b42:	48 8b 4d b0          	mov    -0x50(%rbp),%rcx
  100b46:	8b 75 fc             	mov    -0x4(%rbp),%esi
  100b49:	48 8b 0c f1          	mov    (%rcx,%rsi,8),%rcx
  100b4d:	48 89 0c d0          	mov    %rcx,(%rax,%rdx,8)
  100b51:	e9 e5 01 00 00       	jmpq   100d3b <_ZN16PageTableManager8ClonePDPEP9PageTableS1_+0x2ab>
  100b56:	48 8b 45 b0          	mov    -0x50(%rbp),%rax
  100b5a:	8b 55 fc             	mov    -0x4(%rbp),%edx
  100b5d:	48 8b 04 d0          	mov    (%rax,%rdx,8),%rax
  100b61:	48 c1 e8 0c          	shr    $0xc,%rax
  100b65:	25 ff ff ff 0f       	and    $0xfffffff,%eax
  100b6a:	c1 e0 0c             	shl    $0xc,%eax
  100b6d:	48 98                	cltq   
  100b6f:	48 89 45 d8          	mov    %rax,-0x28(%rbp)
  100b73:	48 8b 45 a8          	mov    -0x58(%rbp),%rax
  100b77:	8b 55 fc             	mov    -0x4(%rbp),%edx
  100b7a:	48 8b 04 d0          	mov    (%rax,%rdx,8),%rax
  100b7e:	48 c1 e8 0c          	shr    $0xc,%rax
  100b82:	25 ff ff ff 0f       	and    $0xfffffff,%eax
  100b87:	c1 e0 0c             	shl    $0xc,%eax
  100b8a:	48 98                	cltq   
  100b8c:	48 89 45 d0          	mov    %rax,-0x30(%rbp)
  100b90:	48 8b 55 d0          	mov    -0x30(%rbp),%rdx
  100b94:	48 8b 4d d8          	mov    -0x28(%rbp),%rcx
  100b98:	48 8b 45 b8          	mov    -0x48(%rbp),%rax
  100b9c:	48 89 ce             	mov    %rcx,%rsi
  100b9f:	48 89 c7             	mov    %rax,%rdi
  100ba2:	e8 2f fc ff ff       	callq  1007d6 <_ZN16PageTableManager7ClonePDEP9PageTableS1_>
  100ba7:	48 89 45 c8          	mov    %rax,-0x38(%rbp)
  100bab:	48 8b 45 c8          	mov    -0x38(%rbp),%rax
  100baf:	48 c1 e8 0c          	shr    $0xc,%rax
  100bb3:	89 c1                	mov    %eax,%ecx
  100bb5:	81 e1 ff ff ff 0f    	and    $0xfffffff,%ecx
  100bbb:	48 8b 45 f0          	mov    -0x10(%rbp),%rax
  100bbf:	8b 55 fc             	mov    -0x4(%rbp),%edx
  100bc2:	89 c9                	mov    %ecx,%ecx
  100bc4:	81 e1 ff ff ff 0f    	and    $0xfffffff,%ecx
  100bca:	48 89 ce             	mov    %rcx,%rsi
  100bcd:	48 c1 e6 0c          	shl    $0xc,%rsi
  100bd1:	48 8b 0c d0          	mov    (%rax,%rdx,8),%rcx
  100bd5:	48 bf ff 0f 00 00 00 	movabs $0xffffff0000000fff,%rdi
  100bdc:	ff ff ff 
  100bdf:	48 21 f9             	and    %rdi,%rcx
  100be2:	48 09 f1             	or     %rsi,%rcx
  100be5:	48 89 0c d0          	mov    %rcx,(%rax,%rdx,8)
  100be9:	48 8b 45 b0          	mov    -0x50(%rbp),%rax
  100bed:	8b 55 fc             	mov    -0x4(%rbp),%edx
  100bf0:	0f b6 04 d0          	movzbl (%rax,%rdx,8),%eax
  100bf4:	83 e0 01             	and    $0x1,%eax
  100bf7:	84 c0                	test   %al,%al
  100bf9:	74 11                	je     100c0c <_ZN16PageTableManager8ClonePDPEP9PageTableS1_+0x17c>
  100bfb:	48 8b 45 f0          	mov    -0x10(%rbp),%rax
  100bff:	8b 55 fc             	mov    -0x4(%rbp),%edx
  100c02:	0f b6 0c d0          	movzbl (%rax,%rdx,8),%ecx
  100c06:	83 c9 01             	or     $0x1,%ecx
  100c09:	88 0c d0             	mov    %cl,(%rax,%rdx,8)
  100c0c:	48 8b 45 b0          	mov    -0x50(%rbp),%rax
  100c10:	8b 55 fc             	mov    -0x4(%rbp),%edx
  100c13:	0f b6 04 d0          	movzbl (%rax,%rdx,8),%eax
  100c17:	d0 e8                	shr    %al
  100c19:	83 e0 01             	and    $0x1,%eax
  100c1c:	84 c0                	test   %al,%al
  100c1e:	74 11                	je     100c31 <_ZN16PageTableManager8ClonePDPEP9PageTableS1_+0x1a1>
  100c20:	48 8b 45 f0          	mov    -0x10(%rbp),%rax
  100c24:	8b 55 fc             	mov    -0x4(%rbp),%edx
  100c27:	0f b6 0c d0          	movzbl (%rax,%rdx,8),%ecx
  100c2b:	83 c9 02             	or     $0x2,%ecx
  100c2e:	88 0c d0             	mov    %cl,(%rax,%rdx,8)
  100c31:	48 8b 45 b0          	mov    -0x50(%rbp),%rax
  100c35:	8b 55 fc             	mov    -0x4(%rbp),%edx
  100c38:	0f b6 04 d0          	movzbl (%rax,%rdx,8),%eax
  100c3c:	c0 e8 02             	shr    $0x2,%al
  100c3f:	83 e0 01             	and    $0x1,%eax
  100c42:	84 c0                	test   %al,%al
  100c44:	74 11                	je     100c57 <_ZN16PageTableManager8ClonePDPEP9PageTableS1_+0x1c7>
  100c46:	48 8b 45 f0          	mov    -0x10(%rbp),%rax
  100c4a:	8b 55 fc             	mov    -0x4(%rbp),%edx
  100c4d:	0f b6 0c d0          	movzbl (%rax,%rdx,8),%ecx
  100c51:	83 c9 04             	or     $0x4,%ecx
  100c54:	88 0c d0             	mov    %cl,(%rax,%rdx,8)
  100c57:	48 8b 45 b0          	mov    -0x50(%rbp),%rax
  100c5b:	8b 55 fc             	mov    -0x4(%rbp),%edx
  100c5e:	0f b6 04 d0          	movzbl (%rax,%rdx,8),%eax
  100c62:	c0 e8 03             	shr    $0x3,%al
  100c65:	83 e0 01             	and    $0x1,%eax
  100c68:	84 c0                	test   %al,%al
  100c6a:	74 11                	je     100c7d <_ZN16PageTableManager8ClonePDPEP9PageTableS1_+0x1ed>
  100c6c:	48 8b 45 f0          	mov    -0x10(%rbp),%rax
  100c70:	8b 55 fc             	mov    -0x4(%rbp),%edx
  100c73:	0f b6 0c d0          	movzbl (%rax,%rdx,8),%ecx
  100c77:	83 c9 08             	or     $0x8,%ecx
  100c7a:	88 0c d0             	mov    %cl,(%rax,%rdx,8)
  100c7d:	48 8b 45 b0          	mov    -0x50(%rbp),%rax
  100c81:	8b 55 fc             	mov    -0x4(%rbp),%edx
  100c84:	0f b6 04 d0          	movzbl (%rax,%rdx,8),%eax
  100c88:	c0 e8 05             	shr    $0x5,%al
  100c8b:	83 e0 01             	and    $0x1,%eax
  100c8e:	84 c0                	test   %al,%al
  100c90:	74 11                	je     100ca3 <_ZN16PageTableManager8ClonePDPEP9PageTableS1_+0x213>
  100c92:	48 8b 45 f0          	mov    -0x10(%rbp),%rax
  100c96:	8b 55 fc             	mov    -0x4(%rbp),%edx
  100c99:	0f b6 0c d0          	movzbl (%rax,%rdx,8),%ecx
  100c9d:	83 c9 20             	or     $0x20,%ecx
  100ca0:	88 0c d0             	mov    %cl,(%rax,%rdx,8)
  100ca3:	48 8b 45 b0          	mov    -0x50(%rbp),%rax
  100ca7:	8b 55 fc             	mov    -0x4(%rbp),%edx
  100caa:	0f b6 04 d0          	movzbl (%rax,%rdx,8),%eax
  100cae:	c0 e8 06             	shr    $0x6,%al
  100cb1:	83 e0 01             	and    $0x1,%eax
  100cb4:	84 c0                	test   %al,%al
  100cb6:	74 11                	je     100cc9 <_ZN16PageTableManager8ClonePDPEP9PageTableS1_+0x239>
  100cb8:	48 8b 45 f0          	mov    -0x10(%rbp),%rax
  100cbc:	8b 55 fc             	mov    -0x4(%rbp),%edx
  100cbf:	0f b6 0c d0          	movzbl (%rax,%rdx,8),%ecx
  100cc3:	83 c9 40             	or     $0x40,%ecx
  100cc6:	88 0c d0             	mov    %cl,(%rax,%rdx,8)
  100cc9:	48 8b 45 b0          	mov    -0x50(%rbp),%rax
  100ccd:	8b 55 fc             	mov    -0x4(%rbp),%edx
  100cd0:	0f b6 04 d0          	movzbl (%rax,%rdx,8),%eax
  100cd4:	c0 e8 07             	shr    $0x7,%al
  100cd7:	84 c0                	test   %al,%al
  100cd9:	74 11                	je     100cec <_ZN16PageTableManager8ClonePDPEP9PageTableS1_+0x25c>
  100cdb:	48 8b 45 f0          	mov    -0x10(%rbp),%rax
  100cdf:	8b 55 fc             	mov    -0x4(%rbp),%edx
  100ce2:	0f b6 0c d0          	movzbl (%rax,%rdx,8),%ecx
  100ce6:	83 c9 80             	or     $0xffffff80,%ecx
  100ce9:	88 0c d0             	mov    %cl,(%rax,%rdx,8)
  100cec:	48 8b 45 b0          	mov    -0x50(%rbp),%rax
  100cf0:	8b 55 fc             	mov    -0x4(%rbp),%edx
  100cf3:	0f b6 44 d0 01       	movzbl 0x1(%rax,%rdx,8),%eax
  100cf8:	83 e0 01             	and    $0x1,%eax
  100cfb:	84 c0                	test   %al,%al
  100cfd:	74 13                	je     100d12 <_ZN16PageTableManager8ClonePDPEP9PageTableS1_+0x282>
  100cff:	48 8b 45 f0          	mov    -0x10(%rbp),%rax
  100d03:	8b 55 fc             	mov    -0x4(%rbp),%edx
  100d06:	0f b6 4c d0 01       	movzbl 0x1(%rax,%rdx,8),%ecx
  100d0b:	83 c9 01             	or     $0x1,%ecx
  100d0e:	88 4c d0 01          	mov    %cl,0x1(%rax,%rdx,8)
  100d12:	48 8b 45 b0          	mov    -0x50(%rbp),%rax
  100d16:	8b 55 fc             	mov    -0x4(%rbp),%edx
  100d19:	0f b6 44 d0 07       	movzbl 0x7(%rax,%rdx,8),%eax
  100d1e:	c0 e8 07             	shr    $0x7,%al
  100d21:	84 c0                	test   %al,%al
  100d23:	74 16                	je     100d3b <_ZN16PageTableManager8ClonePDPEP9PageTableS1_+0x2ab>
  100d25:	48 8b 45 f0          	mov    -0x10(%rbp),%rax
  100d29:	8b 55 fc             	mov    -0x4(%rbp),%edx
  100d2c:	0f b6 4c d0 07       	movzbl 0x7(%rax,%rdx,8),%ecx
  100d31:	83 c9 80             	or     $0xffffff80,%ecx
  100d34:	88 4c d0 07          	mov    %cl,0x7(%rax,%rdx,8)
  100d38:	eb 01                	jmp    100d3b <_ZN16PageTableManager8ClonePDPEP9PageTableS1_+0x2ab>
  100d3a:	90                   	nop
  100d3b:	83 45 fc 01          	addl   $0x1,-0x4(%rbp)
  100d3f:	e9 92 fd ff ff       	jmpq   100ad6 <_ZN16PageTableManager8ClonePDPEP9PageTableS1_+0x46>
  100d44:	48 8b 45 f0          	mov    -0x10(%rbp),%rax
  100d48:	c9                   	leaveq 
  100d49:	c3                   	retq   

0000000000100d4a <_ZN16PageTableManager9ClonePML4EP9PageTableS1_>:
  100d4a:	f3 0f 1e fa          	endbr64 
  100d4e:	55                   	push   %rbp
  100d4f:	48 89 e5             	mov    %rsp,%rbp
  100d52:	48 83 ec 60          	sub    $0x60,%rsp
  100d56:	48 89 7d b8          	mov    %rdi,-0x48(%rbp)
  100d5a:	48 89 75 b0          	mov    %rsi,-0x50(%rbp)
  100d5e:	48 89 55 a8          	mov    %rdx,-0x58(%rbp)
  100d62:	e8 bb 07 00 00       	callq  101522 <_ZN18PageFrameAllocator15SharedAllocatorEv>
  100d67:	48 89 c7             	mov    %rax,%rdi
  100d6a:	e8 07 05 00 00       	callq  101276 <_ZN18PageFrameAllocator11RequestPageEv>
  100d6f:	48 89 45 f0          	mov    %rax,-0x10(%rbp)
  100d73:	48 8b 45 f0          	mov    -0x10(%rbp),%rax
  100d77:	ba 00 10 00 00       	mov    $0x1000,%edx
  100d7c:	be 00 00 00 00       	mov    $0x0,%esi
  100d81:	48 89 c7             	mov    %rax,%rdi
  100d84:	e8 ba be 00 00       	callq  10cc43 <_Z6memsetPvim>
  100d89:	c7 45 fc 00 00 00 00 	movl   $0x0,-0x4(%rbp)
  100d90:	81 7d fc ff 01 00 00 	cmpl   $0x1ff,-0x4(%rbp)
  100d97:	0f 87 61 02 00 00    	ja     100ffe <_ZN16PageTableManager9ClonePML4EP9PageTableS1_+0x2b4>
  100d9d:	48 8b 45 b0          	mov    -0x50(%rbp),%rax
  100da1:	8b 55 fc             	mov    -0x4(%rbp),%edx
  100da4:	48 8b 04 d0          	mov    (%rax,%rdx,8),%rax
  100da8:	48 c1 e8 0c          	shr    $0xc,%rax
  100dac:	25 ff ff ff 0f       	and    $0xfffffff,%eax
  100db1:	85 c0                	test   %eax,%eax
  100db3:	0f 84 3b 02 00 00    	je     100ff4 <_ZN16PageTableManager9ClonePML4EP9PageTableS1_+0x2aa>
  100db9:	8b 45 fc             	mov    -0x4(%rbp),%eax
  100dbc:	48 8d 14 c5 00 00 00 	lea    0x0(,%rax,8),%rdx
  100dc3:	00 
  100dc4:	48 8b 45 b0          	mov    -0x50(%rbp),%rax
  100dc8:	48 01 d0             	add    %rdx,%rax
  100dcb:	48 8b 00             	mov    (%rax),%rax
  100dce:	48 89 45 e8          	mov    %rax,-0x18(%rbp)
  100dd2:	8b 45 fc             	mov    -0x4(%rbp),%eax
  100dd5:	48 8d 14 c5 00 00 00 	lea    0x0(,%rax,8),%rdx
  100ddc:	00 
  100ddd:	48 8b 45 a8          	mov    -0x58(%rbp),%rax
  100de1:	48 01 d0             	add    %rdx,%rax
  100de4:	48 8b 00             	mov    (%rax),%rax
  100de7:	48 89 45 e0          	mov    %rax,-0x20(%rbp)
  100deb:	48 8b 45 e8          	mov    -0x18(%rbp),%rax
  100def:	48 3b 45 e0          	cmp    -0x20(%rbp),%rax
  100df3:	75 1b                	jne    100e10 <_ZN16PageTableManager9ClonePML4EP9PageTableS1_+0xc6>
  100df5:	48 8b 45 f0          	mov    -0x10(%rbp),%rax
  100df9:	8b 55 fc             	mov    -0x4(%rbp),%edx
  100dfc:	48 8b 4d b0          	mov    -0x50(%rbp),%rcx
  100e00:	8b 75 fc             	mov    -0x4(%rbp),%esi
  100e03:	48 8b 0c f1          	mov    (%rcx,%rsi,8),%rcx
  100e07:	48 89 0c d0          	mov    %rcx,(%rax,%rdx,8)
  100e0b:	e9 e5 01 00 00       	jmpq   100ff5 <_ZN16PageTableManager9ClonePML4EP9PageTableS1_+0x2ab>
  100e10:	48 8b 45 b0          	mov    -0x50(%rbp),%rax
  100e14:	8b 55 fc             	mov    -0x4(%rbp),%edx
  100e17:	48 8b 04 d0          	mov    (%rax,%rdx,8),%rax
  100e1b:	48 c1 e8 0c          	shr    $0xc,%rax
  100e1f:	25 ff ff ff 0f       	and    $0xfffffff,%eax
  100e24:	c1 e0 0c             	shl    $0xc,%eax
  100e27:	48 98                	cltq   
  100e29:	48 89 45 d8          	mov    %rax,-0x28(%rbp)
  100e2d:	48 8b 45 a8          	mov    -0x58(%rbp),%rax
  100e31:	8b 55 fc             	mov    -0x4(%rbp),%edx
  100e34:	48 8b 04 d0          	mov    (%rax,%rdx,8),%rax
  100e38:	48 c1 e8 0c          	shr    $0xc,%rax
  100e3c:	25 ff ff ff 0f       	and    $0xfffffff,%eax
  100e41:	c1 e0 0c             	shl    $0xc,%eax
  100e44:	48 98                	cltq   
  100e46:	48 89 45 d0          	mov    %rax,-0x30(%rbp)
  100e4a:	48 8b 55 d0          	mov    -0x30(%rbp),%rdx
  100e4e:	48 8b 4d d8          	mov    -0x28(%rbp),%rcx
  100e52:	48 8b 45 b8          	mov    -0x48(%rbp),%rax
  100e56:	48 89 ce             	mov    %rcx,%rsi
  100e59:	48 89 c7             	mov    %rax,%rdi
  100e5c:	e8 2f fc ff ff       	callq  100a90 <_ZN16PageTableManager8ClonePDPEP9PageTableS1_>
  100e61:	48 89 45 c8          	mov    %rax,-0x38(%rbp)
  100e65:	48 8b 45 c8          	mov    -0x38(%rbp),%rax
  100e69:	48 c1 e8 0c          	shr    $0xc,%rax
  100e6d:	89 c1                	mov    %eax,%ecx
  100e6f:	81 e1 ff ff ff 0f    	and    $0xfffffff,%ecx
  100e75:	48 8b 45 f0          	mov    -0x10(%rbp),%rax
  100e79:	8b 55 fc             	mov    -0x4(%rbp),%edx
  100e7c:	89 c9                	mov    %ecx,%ecx
  100e7e:	81 e1 ff ff ff 0f    	and    $0xfffffff,%ecx
  100e84:	48 89 ce             	mov    %rcx,%rsi
  100e87:	48 c1 e6 0c          	shl    $0xc,%rsi
  100e8b:	48 8b 0c d0          	mov    (%rax,%rdx,8),%rcx
  100e8f:	48 bf ff 0f 00 00 00 	movabs $0xffffff0000000fff,%rdi
  100e96:	ff ff ff 
  100e99:	48 21 f9             	and    %rdi,%rcx
  100e9c:	48 09 f1             	or     %rsi,%rcx
  100e9f:	48 89 0c d0          	mov    %rcx,(%rax,%rdx,8)
  100ea3:	48 8b 45 b0          	mov    -0x50(%rbp),%rax
  100ea7:	8b 55 fc             	mov    -0x4(%rbp),%edx
  100eaa:	0f b6 04 d0          	movzbl (%rax,%rdx,8),%eax
  100eae:	83 e0 01             	and    $0x1,%eax
  100eb1:	84 c0                	test   %al,%al
  100eb3:	74 11                	je     100ec6 <_ZN16PageTableManager9ClonePML4EP9PageTableS1_+0x17c>
  100eb5:	48 8b 45 f0          	mov    -0x10(%rbp),%rax
  100eb9:	8b 55 fc             	mov    -0x4(%rbp),%edx
  100ebc:	0f b6 0c d0          	movzbl (%rax,%rdx,8),%ecx
  100ec0:	83 c9 01             	or     $0x1,%ecx
  100ec3:	88 0c d0             	mov    %cl,(%rax,%rdx,8)
  100ec6:	48 8b 45 b0          	mov    -0x50(%rbp),%rax
  100eca:	8b 55 fc             	mov    -0x4(%rbp),%edx
  100ecd:	0f b6 04 d0          	movzbl (%rax,%rdx,8),%eax
  100ed1:	d0 e8                	shr    %al
  100ed3:	83 e0 01             	and    $0x1,%eax
  100ed6:	84 c0                	test   %al,%al
  100ed8:	74 11                	je     100eeb <_ZN16PageTableManager9ClonePML4EP9PageTableS1_+0x1a1>
  100eda:	48 8b 45 f0          	mov    -0x10(%rbp),%rax
  100ede:	8b 55 fc             	mov    -0x4(%rbp),%edx
  100ee1:	0f b6 0c d0          	movzbl (%rax,%rdx,8),%ecx
  100ee5:	83 c9 02             	or     $0x2,%ecx
  100ee8:	88 0c d0             	mov    %cl,(%rax,%rdx,8)
  100eeb:	48 8b 45 b0          	mov    -0x50(%rbp),%rax
  100eef:	8b 55 fc             	mov    -0x4(%rbp),%edx
  100ef2:	0f b6 04 d0          	movzbl (%rax,%rdx,8),%eax
  100ef6:	c0 e8 02             	shr    $0x2,%al
  100ef9:	83 e0 01             	and    $0x1,%eax
  100efc:	84 c0                	test   %al,%al
  100efe:	74 11                	je     100f11 <_ZN16PageTableManager9ClonePML4EP9PageTableS1_+0x1c7>
  100f00:	48 8b 45 f0          	mov    -0x10(%rbp),%rax
  100f04:	8b 55 fc             	mov    -0x4(%rbp),%edx
  100f07:	0f b6 0c d0          	movzbl (%rax,%rdx,8),%ecx
  100f0b:	83 c9 04             	or     $0x4,%ecx
  100f0e:	88 0c d0             	mov    %cl,(%rax,%rdx,8)
  100f11:	48 8b 45 b0          	mov    -0x50(%rbp),%rax
  100f15:	8b 55 fc             	mov    -0x4(%rbp),%edx
  100f18:	0f b6 04 d0          	movzbl (%rax,%rdx,8),%eax
  100f1c:	c0 e8 03             	shr    $0x3,%al
  100f1f:	83 e0 01             	and    $0x1,%eax
  100f22:	84 c0                	test   %al,%al
  100f24:	74 11                	je     100f37 <_ZN16PageTableManager9ClonePML4EP9PageTableS1_+0x1ed>
  100f26:	48 8b 45 f0          	mov    -0x10(%rbp),%rax
  100f2a:	8b 55 fc             	mov    -0x4(%rbp),%edx
  100f2d:	0f b6 0c d0          	movzbl (%rax,%rdx,8),%ecx
  100f31:	83 c9 08             	or     $0x8,%ecx
  100f34:	88 0c d0             	mov    %cl,(%rax,%rdx,8)
  100f37:	48 8b 45 b0          	mov    -0x50(%rbp),%rax
  100f3b:	8b 55 fc             	mov    -0x4(%rbp),%edx
  100f3e:	0f b6 04 d0          	movzbl (%rax,%rdx,8),%eax
  100f42:	c0 e8 05             	shr    $0x5,%al
  100f45:	83 e0 01             	and    $0x1,%eax
  100f48:	84 c0                	test   %al,%al
  100f4a:	74 11                	je     100f5d <_ZN16PageTableManager9ClonePML4EP9PageTableS1_+0x213>
  100f4c:	48 8b 45 f0          	mov    -0x10(%rbp),%rax
  100f50:	8b 55 fc             	mov    -0x4(%rbp),%edx
  100f53:	0f b6 0c d0          	movzbl (%rax,%rdx,8),%ecx
  100f57:	83 c9 20             	or     $0x20,%ecx
  100f5a:	88 0c d0             	mov    %cl,(%rax,%rdx,8)
  100f5d:	48 8b 45 b0          	mov    -0x50(%rbp),%rax
  100f61:	8b 55 fc             	mov    -0x4(%rbp),%edx
  100f64:	0f b6 04 d0          	movzbl (%rax,%rdx,8),%eax
  100f68:	c0 e8 06             	shr    $0x6,%al
  100f6b:	83 e0 01             	and    $0x1,%eax
  100f6e:	84 c0                	test   %al,%al
  100f70:	74 11                	je     100f83 <_ZN16PageTableManager9ClonePML4EP9PageTableS1_+0x239>
  100f72:	48 8b 45 f0          	mov    -0x10(%rbp),%rax
  100f76:	8b 55 fc             	mov    -0x4(%rbp),%edx
  100f79:	0f b6 0c d0          	movzbl (%rax,%rdx,8),%ecx
  100f7d:	83 c9 40             	or     $0x40,%ecx
  100f80:	88 0c d0             	mov    %cl,(%rax,%rdx,8)
  100f83:	48 8b 45 b0          	mov    -0x50(%rbp),%rax
  100f87:	8b 55 fc             	mov    -0x4(%rbp),%edx
  100f8a:	0f b6 04 d0          	movzbl (%rax,%rdx,8),%eax
  100f8e:	c0 e8 07             	shr    $0x7,%al
  100f91:	84 c0                	test   %al,%al
  100f93:	74 11                	je     100fa6 <_ZN16PageTableManager9ClonePML4EP9PageTableS1_+0x25c>
  100f95:	48 8b 45 f0          	mov    -0x10(%rbp),%rax
  100f99:	8b 55 fc             	mov    -0x4(%rbp),%edx
  100f9c:	0f b6 0c d0          	movzbl (%rax,%rdx,8),%ecx
  100fa0:	83 c9 80             	or     $0xffffff80,%ecx
  100fa3:	88 0c d0             	mov    %cl,(%rax,%rdx,8)
  100fa6:	48 8b 45 b0          	mov    -0x50(%rbp),%rax
  100faa:	8b 55 fc             	mov    -0x4(%rbp),%edx
  100fad:	0f b6 44 d0 01       	movzbl 0x1(%rax,%rdx,8),%eax
  100fb2:	83 e0 01             	and    $0x1,%eax
  100fb5:	84 c0                	test   %al,%al
  100fb7:	74 13                	je     100fcc <_ZN16PageTableManager9ClonePML4EP9PageTableS1_+0x282>
  100fb9:	48 8b 45 f0          	mov    -0x10(%rbp),%rax
  100fbd:	8b 55 fc             	mov    -0x4(%rbp),%edx
  100fc0:	0f b6 4c d0 01       	movzbl 0x1(%rax,%rdx,8),%ecx
  100fc5:	83 c9 01             	or     $0x1,%ecx
  100fc8:	88 4c d0 01          	mov    %cl,0x1(%rax,%rdx,8)
  100fcc:	48 8b 45 b0          	mov    -0x50(%rbp),%rax
  100fd0:	8b 55 fc             	mov    -0x4(%rbp),%edx
  100fd3:	0f b6 44 d0 07       	movzbl 0x7(%rax,%rdx,8),%eax
  100fd8:	c0 e8 07             	shr    $0x7,%al
  100fdb:	84 c0                	test   %al,%al
  100fdd:	74 16                	je     100ff5 <_ZN16PageTableManager9ClonePML4EP9PageTableS1_+0x2ab>
  100fdf:	48 8b 45 f0          	mov    -0x10(%rbp),%rax
  100fe3:	8b 55 fc             	mov    -0x4(%rbp),%edx
  100fe6:	0f b6 4c d0 07       	movzbl 0x7(%rax,%rdx,8),%ecx
  100feb:	83 c9 80             	or     $0xffffff80,%ecx
  100fee:	88 4c d0 07          	mov    %cl,0x7(%rax,%rdx,8)
  100ff2:	eb 01                	jmp    100ff5 <_ZN16PageTableManager9ClonePML4EP9PageTableS1_+0x2ab>
  100ff4:	90                   	nop
  100ff5:	83 45 fc 01          	addl   $0x1,-0x4(%rbp)
  100ff9:	e9 92 fd ff ff       	jmpq   100d90 <_ZN16PageTableManager9ClonePML4EP9PageTableS1_+0x46>
  100ffe:	48 8b 45 f0          	mov    -0x10(%rbp),%rax
  101002:	c9                   	leaveq 
  101003:	c3                   	retq   

0000000000101004 <_ZN18PageFrameAllocator13ReadMemoryMapEP9MemoryMap>:
  101004:	f3 0f 1e fa          	endbr64 
  101008:	55                   	push   %rbp
  101009:	48 89 e5             	mov    %rsp,%rbp
  10100c:	48 83 ec 60          	sub    $0x60,%rsp
  101010:	48 89 7d a8          	mov    %rdi,-0x58(%rbp)
  101014:	48 89 75 a0          	mov    %rsi,-0x60(%rbp)
  101018:	48 c7 45 f8 00 00 00 	movq   $0x0,-0x8(%rbp)
  10101f:	00 
  101020:	48 c7 45 f0 00 00 00 	movq   $0x0,-0x10(%rbp)
  101027:	00 
  101028:	48 c7 45 e8 00 00 00 	movq   $0x0,-0x18(%rbp)
  10102f:	00 
  101030:	48 8b 45 a0          	mov    -0x60(%rbp),%rax
  101034:	48 89 c7             	mov    %rax,%rdi
  101037:	e8 5c cf 00 00       	callq  10df98 <_ZNK9MemoryMap13GetEntryCountEv>
  10103c:	48 39 45 e8          	cmp    %rax,-0x18(%rbp)
  101040:	0f 92 c0             	setb   %al
  101043:	84 c0                	test   %al,%al
  101045:	74 5a                	je     1010a1 <_ZN18PageFrameAllocator13ReadMemoryMapEP9MemoryMap+0x9d>
  101047:	48 8b 55 e8          	mov    -0x18(%rbp),%rdx
  10104b:	48 8b 45 a0          	mov    -0x60(%rbp),%rax
  10104f:	48 89 d6             	mov    %rdx,%rsi
  101052:	48 89 c7             	mov    %rax,%rdi
  101055:	e8 44 2a 00 00       	callq  103a9e <_ZN9MemoryMap15IsUsuableMemoryEm>
  10105a:	84 c0                	test   %al,%al
  10105c:	74 3c                	je     10109a <_ZN18PageFrameAllocator13ReadMemoryMapEP9MemoryMap+0x96>
  10105e:	48 8b 55 e8          	mov    -0x18(%rbp),%rdx
  101062:	48 8b 45 a0          	mov    -0x60(%rbp),%rax
  101066:	48 89 d6             	mov    %rdx,%rsi
  101069:	48 89 c7             	mov    %rax,%rdi
  10106c:	e8 41 cf 00 00       	callq  10dfb2 <_ZNK9MemoryMap8GetEntryEm>
  101071:	48 89 45 b8          	mov    %rax,-0x48(%rbp)
  101075:	48 8b 45 b8          	mov    -0x48(%rbp),%rax
  101079:	48 8b 40 08          	mov    0x8(%rax),%rax
  10107d:	48 39 45 f0          	cmp    %rax,-0x10(%rbp)
  101081:	73 17                	jae    10109a <_ZN18PageFrameAllocator13ReadMemoryMapEP9MemoryMap+0x96>
  101083:	48 8b 45 b8          	mov    -0x48(%rbp),%rax
  101087:	48 8b 00             	mov    (%rax),%rax
  10108a:	48 89 45 f8          	mov    %rax,-0x8(%rbp)
  10108e:	48 8b 45 b8          	mov    -0x48(%rbp),%rax
  101092:	48 8b 40 08          	mov    0x8(%rax),%rax
  101096:	48 89 45 f0          	mov    %rax,-0x10(%rbp)
  10109a:	48 83 45 e8 01       	addq   $0x1,-0x18(%rbp)
  10109f:	eb 8f                	jmp    101030 <_ZN18PageFrameAllocator13ReadMemoryMapEP9MemoryMap+0x2c>
  1010a1:	48 8b 45 f8          	mov    -0x8(%rbp),%rax
  1010a5:	48 89 45 e0          	mov    %rax,-0x20(%rbp)
  1010a9:	48 8b 05 d8 e3 00 00 	mov    0xe3d8(%rip),%rax        # 10f488 <kernelEnd>
  1010b0:	48 39 45 e0          	cmp    %rax,-0x20(%rbp)
  1010b4:	73 11                	jae    1010c7 <_ZN18PageFrameAllocator13ReadMemoryMapEP9MemoryMap+0xc3>
  1010b6:	48 8b 05 cb e3 00 00 	mov    0xe3cb(%rip),%rax        # 10f488 <kernelEnd>
  1010bd:	48 05 00 10 00 00    	add    $0x1000,%rax
  1010c3:	48 89 45 e0          	mov    %rax,-0x20(%rbp)
  1010c7:	48 8b 45 a0          	mov    -0x60(%rbp),%rax
  1010cb:	48 89 c7             	mov    %rax,%rdi
  1010ce:	e8 05 2b 00 00       	callq  103bd8 <_ZN9MemoryMap20GetTotalSystemMemoryEv>
  1010d3:	48 89 45 d0          	mov    %rax,-0x30(%rbp)
  1010d7:	48 8b 45 a8          	mov    -0x58(%rbp),%rax
  1010db:	48 8b 55 d0          	mov    -0x30(%rbp),%rdx
  1010df:	48 89 50 10          	mov    %rdx,0x10(%rax)
  1010e3:	48 8b 45 a8          	mov    -0x58(%rbp),%rax
  1010e7:	48 c7 40 18 00 00 00 	movq   $0x0,0x18(%rax)
  1010ee:	00 
  1010ef:	48 8b 45 a8          	mov    -0x58(%rbp),%rax
  1010f3:	48 c7 40 20 00 00 00 	movq   $0x0,0x20(%rax)
  1010fa:	00 
  1010fb:	48 8b 45 d0          	mov    -0x30(%rbp),%rax
  1010ff:	48 c1 e8 0c          	shr    $0xc,%rax
  101103:	48 89 45 c8          	mov    %rax,-0x38(%rbp)
  101107:	48 8b 45 c8          	mov    -0x38(%rbp),%rax
  10110b:	48 c1 e8 06          	shr    $0x6,%rax
  10110f:	48 89 45 c8          	mov    %rax,-0x38(%rbp)
  101113:	48 83 45 c8 01       	addq   $0x1,-0x38(%rbp)
  101118:	48 8b 45 a8          	mov    -0x58(%rbp),%rax
  10111c:	48 8b 55 e0          	mov    -0x20(%rbp),%rdx
  101120:	48 89 d6             	mov    %rdx,%rsi
  101123:	48 89 c7             	mov    %rax,%rdi
  101126:	e8 49 ce 00 00       	callq  10df74 <_ZN6Bitmap9SetBufferEPm>
  10112b:	48 8b 45 a8          	mov    -0x58(%rbp),%rax
  10112f:	48 8b 55 c8          	mov    -0x38(%rbp),%rdx
  101133:	48 c1 e2 03          	shl    $0x3,%rdx
  101137:	48 89 d6             	mov    %rdx,%rsi
  10113a:	48 89 c7             	mov    %rax,%rdi
  10113d:	e8 10 ce 00 00       	callq  10df52 <_ZN6Bitmap7SetSizeEm>
  101142:	48 8b 45 c8          	mov    -0x38(%rbp),%rax
  101146:	48 8d 14 c5 00 00 00 	lea    0x0(,%rax,8),%rdx
  10114d:	00 
  10114e:	48 8b 45 a8          	mov    -0x58(%rbp),%rax
  101152:	48 8b 40 08          	mov    0x8(%rax),%rax
  101156:	be 00 00 00 00       	mov    $0x0,%esi
  10115b:	48 89 c7             	mov    %rax,%rdi
  10115e:	e8 e0 ba 00 00       	callq  10cc43 <_Z6memsetPvim>
  101163:	48 8b 45 d0          	mov    -0x30(%rbp),%rax
  101167:	48 c1 e8 0c          	shr    $0xc,%rax
  10116b:	48 8d 50 01          	lea    0x1(%rax),%rdx
  10116f:	48 8b 45 a8          	mov    -0x58(%rbp),%rax
  101173:	be 00 00 00 00       	mov    $0x0,%esi
  101178:	48 89 c7             	mov    %rax,%rdi
  10117b:	e8 5a 01 00 00       	callq  1012da <_ZN18PageFrameAllocator12ReservePagesEPvm>
  101180:	48 c7 45 d8 00 00 00 	movq   $0x0,-0x28(%rbp)
  101187:	00 
  101188:	48 8b 45 a0          	mov    -0x60(%rbp),%rax
  10118c:	48 89 c7             	mov    %rax,%rdi
  10118f:	e8 04 ce 00 00       	callq  10df98 <_ZNK9MemoryMap13GetEntryCountEv>
  101194:	48 39 45 d8          	cmp    %rax,-0x28(%rbp)
  101198:	0f 92 c0             	setb   %al
  10119b:	84 c0                	test   %al,%al
  10119d:	74 5d                	je     1011fc <_ZN18PageFrameAllocator13ReadMemoryMapEP9MemoryMap+0x1f8>
  10119f:	48 8b 55 d8          	mov    -0x28(%rbp),%rdx
  1011a3:	48 8b 45 a0          	mov    -0x60(%rbp),%rax
  1011a7:	48 89 d6             	mov    %rdx,%rsi
  1011aa:	48 89 c7             	mov    %rax,%rdi
  1011ad:	e8 ec 28 00 00       	callq  103a9e <_ZN9MemoryMap15IsUsuableMemoryEm>
  1011b2:	84 c0                	test   %al,%al
  1011b4:	74 3f                	je     1011f5 <_ZN18PageFrameAllocator13ReadMemoryMapEP9MemoryMap+0x1f1>
  1011b6:	48 8b 55 d8          	mov    -0x28(%rbp),%rdx
  1011ba:	48 8b 45 a0          	mov    -0x60(%rbp),%rax
  1011be:	48 89 d6             	mov    %rdx,%rsi
  1011c1:	48 89 c7             	mov    %rax,%rdi
  1011c4:	e8 e9 cd 00 00       	callq  10dfb2 <_ZNK9MemoryMap8GetEntryEm>
  1011c9:	48 89 45 c0          	mov    %rax,-0x40(%rbp)
  1011cd:	48 8b 45 c0          	mov    -0x40(%rbp),%rax
  1011d1:	48 8b 40 08          	mov    0x8(%rax),%rax
  1011d5:	48 c1 e8 0c          	shr    $0xc,%rax
  1011d9:	48 89 c2             	mov    %rax,%rdx
  1011dc:	48 8b 45 c0          	mov    -0x40(%rbp),%rax
  1011e0:	48 8b 00             	mov    (%rax),%rax
  1011e3:	48 89 c1             	mov    %rax,%rcx
  1011e6:	48 8b 45 a8          	mov    -0x58(%rbp),%rax
  1011ea:	48 89 ce             	mov    %rcx,%rsi
  1011ed:	48 89 c7             	mov    %rax,%rdi
  1011f0:	e8 77 01 00 00       	callq  10136c <_ZN18PageFrameAllocator14UnreservePagesEPvm>
  1011f5:	48 83 45 d8 01       	addq   $0x1,-0x28(%rbp)
  1011fa:	eb 8c                	jmp    101188 <_ZN18PageFrameAllocator13ReadMemoryMapEP9MemoryMap+0x184>
  1011fc:	48 8b 45 a8          	mov    -0x58(%rbp),%rax
  101200:	ba 00 01 00 00       	mov    $0x100,%edx
  101205:	be 00 00 00 00       	mov    $0x0,%esi
  10120a:	48 89 c7             	mov    %rax,%rdi
  10120d:	e8 7e 02 00 00       	callq  101490 <_ZN18PageFrameAllocator9LockPagesEPvm>
  101212:	48 8b 15 6f e2 00 00 	mov    0xe26f(%rip),%rdx        # 10f488 <kernelEnd>
  101219:	48 8b 05 60 e2 00 00 	mov    0xe260(%rip),%rax        # 10f480 <kernelStart>
  101220:	48 29 c2             	sub    %rax,%rdx
  101223:	48 89 d0             	mov    %rdx,%rax
  101226:	48 05 00 10 00 00    	add    $0x1000,%rax
  10122c:	48 c1 e8 0c          	shr    $0xc,%rax
  101230:	48 89 c2             	mov    %rax,%rdx
  101233:	48 8b 05 46 e2 00 00 	mov    0xe246(%rip),%rax        # 10f480 <kernelStart>
  10123a:	48 89 c1             	mov    %rax,%rcx
  10123d:	48 8b 45 a8          	mov    -0x58(%rbp),%rax
  101241:	48 89 ce             	mov    %rcx,%rsi
  101244:	48 89 c7             	mov    %rax,%rdi
  101247:	e8 44 02 00 00       	callq  101490 <_ZN18PageFrameAllocator9LockPagesEPvm>
  10124c:	48 8b 45 c8          	mov    -0x38(%rbp),%rax
  101250:	48 c1 e0 03          	shl    $0x3,%rax
  101254:	48 c1 e8 0c          	shr    $0xc,%rax
  101258:	48 8d 50 01          	lea    0x1(%rax),%rdx
  10125c:	48 8b 45 a8          	mov    -0x58(%rbp),%rax
  101260:	48 8b 48 08          	mov    0x8(%rax),%rcx
  101264:	48 8b 45 a8          	mov    -0x58(%rbp),%rax
  101268:	48 89 ce             	mov    %rcx,%rsi
  10126b:	48 89 c7             	mov    %rax,%rdi
  10126e:	e8 67 00 00 00       	callq  1012da <_ZN18PageFrameAllocator12ReservePagesEPvm>
  101273:	90                   	nop
  101274:	c9                   	leaveq 
  101275:	c3                   	retq   

0000000000101276 <_ZN18PageFrameAllocator11RequestPageEv>:
  101276:	f3 0f 1e fa          	endbr64 
  10127a:	55                   	push   %rbp
  10127b:	48 89 e5             	mov    %rsp,%rbp
  10127e:	48 83 ec 20          	sub    $0x20,%rsp
  101282:	48 89 7d e8          	mov    %rdi,-0x18(%rbp)
  101286:	48 8b 45 e8          	mov    -0x18(%rbp),%rax
  10128a:	48 89 c7             	mov    %rax,%rdi
  10128d:	e8 10 af 00 00       	callq  10c1a2 <_ZN6Bitmap5FirstEv>
  101292:	48 89 45 f8          	mov    %rax,-0x8(%rbp)
  101296:	48 83 7d f8 ff       	cmpq   $0xffffffffffffffff,-0x8(%rbp)
  10129b:	75 14                	jne    1012b1 <_ZN18PageFrameAllocator11RequestPageEv+0x3b>
  10129d:	48 8d 3d 5c ed 00 00 	lea    0xed5c(%rip),%rdi        # 110000 <__rodata>
  1012a4:	b8 00 00 00 00       	mov    $0x0,%eax
  1012a9:	e8 56 b5 00 00       	callq  10c804 <_Z7kprintfPKcz>
  1012ae:	f4                   	hlt    
  1012af:	eb fd                	jmp    1012ae <_ZN18PageFrameAllocator11RequestPageEv+0x38>
  1012b1:	48 8b 45 f8          	mov    -0x8(%rbp),%rax
  1012b5:	48 c1 e0 0c          	shl    $0xc,%rax
  1012b9:	48 89 c1             	mov    %rax,%rcx
  1012bc:	48 8b 45 e8          	mov    -0x18(%rbp),%rax
  1012c0:	ba 01 00 00 00       	mov    $0x1,%edx
  1012c5:	48 89 ce             	mov    %rcx,%rsi
  1012c8:	48 89 c7             	mov    %rax,%rdi
  1012cb:	e8 c0 01 00 00       	callq  101490 <_ZN18PageFrameAllocator9LockPagesEPvm>
  1012d0:	48 8b 45 f8          	mov    -0x8(%rbp),%rax
  1012d4:	48 c1 e0 0c          	shl    $0xc,%rax
  1012d8:	c9                   	leaveq 
  1012d9:	c3                   	retq   

00000000001012da <_ZN18PageFrameAllocator12ReservePagesEPvm>:
  1012da:	f3 0f 1e fa          	endbr64 
  1012de:	55                   	push   %rbp
  1012df:	48 89 e5             	mov    %rsp,%rbp
  1012e2:	48 83 ec 30          	sub    $0x30,%rsp
  1012e6:	48 89 7d e8          	mov    %rdi,-0x18(%rbp)
  1012ea:	48 89 75 e0          	mov    %rsi,-0x20(%rbp)
  1012ee:	48 89 55 d8          	mov    %rdx,-0x28(%rbp)
  1012f2:	c7 45 fc 00 00 00 00 	movl   $0x0,-0x4(%rbp)
  1012f9:	8b 45 fc             	mov    -0x4(%rbp),%eax
  1012fc:	48 39 45 d8          	cmp    %rax,-0x28(%rbp)
  101300:	76 66                	jbe    101368 <_ZN18PageFrameAllocator12ReservePagesEPvm+0x8e>
  101302:	8b 45 fc             	mov    -0x4(%rbp),%eax
  101305:	c1 e0 0c             	shl    $0xc,%eax
  101308:	89 c2                	mov    %eax,%edx
  10130a:	48 8b 45 e0          	mov    -0x20(%rbp),%rax
  10130e:	48 01 d0             	add    %rdx,%rax
  101311:	48 89 45 f0          	mov    %rax,-0x10(%rbp)
  101315:	48 8b 45 e8          	mov    -0x18(%rbp),%rax
  101319:	48 8b 55 f0          	mov    -0x10(%rbp),%rdx
  10131d:	48 89 d1             	mov    %rdx,%rcx
  101320:	48 c1 e9 0c          	shr    $0xc,%rcx
  101324:	ba 01 00 00 00       	mov    $0x1,%edx
  101329:	48 89 ce             	mov    %rcx,%rsi
  10132c:	48 89 c7             	mov    %rax,%rdi
  10132f:	e8 ae ad 00 00       	callq  10c0e2 <_ZN6Bitmap3SetEmb>
  101334:	48 8b 45 e8          	mov    -0x18(%rbp),%rax
  101338:	48 8b 40 10          	mov    0x10(%rax),%rax
  10133c:	48 8d 90 00 f0 ff ff 	lea    -0x1000(%rax),%rdx
  101343:	48 8b 45 e8          	mov    -0x18(%rbp),%rax
  101347:	48 89 50 10          	mov    %rdx,0x10(%rax)
  10134b:	48 8b 45 e8          	mov    -0x18(%rbp),%rax
  10134f:	48 8b 40 20          	mov    0x20(%rax),%rax
  101353:	48 8d 90 00 10 00 00 	lea    0x1000(%rax),%rdx
  10135a:	48 8b 45 e8          	mov    -0x18(%rbp),%rax
  10135e:	48 89 50 20          	mov    %rdx,0x20(%rax)
  101362:	83 45 fc 01          	addl   $0x1,-0x4(%rbp)
  101366:	eb 91                	jmp    1012f9 <_ZN18PageFrameAllocator12ReservePagesEPvm+0x1f>
  101368:	90                   	nop
  101369:	c9                   	leaveq 
  10136a:	c3                   	retq   
  10136b:	90                   	nop

000000000010136c <_ZN18PageFrameAllocator14UnreservePagesEPvm>:
  10136c:	f3 0f 1e fa          	endbr64 
  101370:	55                   	push   %rbp
  101371:	48 89 e5             	mov    %rsp,%rbp
  101374:	48 83 ec 30          	sub    $0x30,%rsp
  101378:	48 89 7d e8          	mov    %rdi,-0x18(%rbp)
  10137c:	48 89 75 e0          	mov    %rsi,-0x20(%rbp)
  101380:	48 89 55 d8          	mov    %rdx,-0x28(%rbp)
  101384:	c7 45 fc 00 00 00 00 	movl   $0x0,-0x4(%rbp)
  10138b:	8b 45 fc             	mov    -0x4(%rbp),%eax
  10138e:	48 39 45 d8          	cmp    %rax,-0x28(%rbp)
  101392:	76 66                	jbe    1013fa <_ZN18PageFrameAllocator14UnreservePagesEPvm+0x8e>
  101394:	8b 45 fc             	mov    -0x4(%rbp),%eax
  101397:	c1 e0 0c             	shl    $0xc,%eax
  10139a:	89 c2                	mov    %eax,%edx
  10139c:	48 8b 45 e0          	mov    -0x20(%rbp),%rax
  1013a0:	48 01 d0             	add    %rdx,%rax
  1013a3:	48 89 45 f0          	mov    %rax,-0x10(%rbp)
  1013a7:	48 8b 45 e8          	mov    -0x18(%rbp),%rax
  1013ab:	48 8b 55 f0          	mov    -0x10(%rbp),%rdx
  1013af:	48 89 d1             	mov    %rdx,%rcx
  1013b2:	48 c1 e9 0c          	shr    $0xc,%rcx
  1013b6:	ba 00 00 00 00       	mov    $0x0,%edx
  1013bb:	48 89 ce             	mov    %rcx,%rsi
  1013be:	48 89 c7             	mov    %rax,%rdi
  1013c1:	e8 1c ad 00 00       	callq  10c0e2 <_ZN6Bitmap3SetEmb>
  1013c6:	48 8b 45 e8          	mov    -0x18(%rbp),%rax
  1013ca:	48 8b 40 10          	mov    0x10(%rax),%rax
  1013ce:	48 8d 90 00 10 00 00 	lea    0x1000(%rax),%rdx
  1013d5:	48 8b 45 e8          	mov    -0x18(%rbp),%rax
  1013d9:	48 89 50 10          	mov    %rdx,0x10(%rax)
  1013dd:	48 8b 45 e8          	mov    -0x18(%rbp),%rax
  1013e1:	48 8b 40 20          	mov    0x20(%rax),%rax
  1013e5:	48 8d 90 00 f0 ff ff 	lea    -0x1000(%rax),%rdx
  1013ec:	48 8b 45 e8          	mov    -0x18(%rbp),%rax
  1013f0:	48 89 50 20          	mov    %rdx,0x20(%rax)
  1013f4:	83 45 fc 01          	addl   $0x1,-0x4(%rbp)
  1013f8:	eb 91                	jmp    10138b <_ZN18PageFrameAllocator14UnreservePagesEPvm+0x1f>
  1013fa:	90                   	nop
  1013fb:	c9                   	leaveq 
  1013fc:	c3                   	retq   
  1013fd:	90                   	nop

00000000001013fe <_ZN18PageFrameAllocator9FreePagesEPvm>:
  1013fe:	f3 0f 1e fa          	endbr64 
  101402:	55                   	push   %rbp
  101403:	48 89 e5             	mov    %rsp,%rbp
  101406:	48 83 ec 30          	sub    $0x30,%rsp
  10140a:	48 89 7d e8          	mov    %rdi,-0x18(%rbp)
  10140e:	48 89 75 e0          	mov    %rsi,-0x20(%rbp)
  101412:	48 89 55 d8          	mov    %rdx,-0x28(%rbp)
  101416:	c7 45 fc 00 00 00 00 	movl   $0x0,-0x4(%rbp)
  10141d:	8b 45 fc             	mov    -0x4(%rbp),%eax
  101420:	48 39 45 d8          	cmp    %rax,-0x28(%rbp)
  101424:	76 66                	jbe    10148c <_ZN18PageFrameAllocator9FreePagesEPvm+0x8e>
  101426:	8b 45 fc             	mov    -0x4(%rbp),%eax
  101429:	c1 e0 0c             	shl    $0xc,%eax
  10142c:	89 c2                	mov    %eax,%edx
  10142e:	48 8b 45 e0          	mov    -0x20(%rbp),%rax
  101432:	48 01 d0             	add    %rdx,%rax
  101435:	48 89 45 f0          	mov    %rax,-0x10(%rbp)
  101439:	48 8b 45 e8          	mov    -0x18(%rbp),%rax
  10143d:	48 8b 55 f0          	mov    -0x10(%rbp),%rdx
  101441:	48 89 d1             	mov    %rdx,%rcx
  101444:	48 c1 e9 0c          	shr    $0xc,%rcx
  101448:	ba 00 00 00 00       	mov    $0x0,%edx
  10144d:	48 89 ce             	mov    %rcx,%rsi
  101450:	48 89 c7             	mov    %rax,%rdi
  101453:	e8 8a ac 00 00       	callq  10c0e2 <_ZN6Bitmap3SetEmb>
  101458:	48 8b 45 e8          	mov    -0x18(%rbp),%rax
  10145c:	48 8b 40 10          	mov    0x10(%rax),%rax
  101460:	48 8d 90 00 10 00 00 	lea    0x1000(%rax),%rdx
  101467:	48 8b 45 e8          	mov    -0x18(%rbp),%rax
  10146b:	48 89 50 10          	mov    %rdx,0x10(%rax)
  10146f:	48 8b 45 e8          	mov    -0x18(%rbp),%rax
  101473:	48 8b 40 18          	mov    0x18(%rax),%rax
  101477:	48 8d 90 00 f0 ff ff 	lea    -0x1000(%rax),%rdx
  10147e:	48 8b 45 e8          	mov    -0x18(%rbp),%rax
  101482:	48 89 50 18          	mov    %rdx,0x18(%rax)
  101486:	83 45 fc 01          	addl   $0x1,-0x4(%rbp)
  10148a:	eb 91                	jmp    10141d <_ZN18PageFrameAllocator9FreePagesEPvm+0x1f>
  10148c:	90                   	nop
  10148d:	c9                   	leaveq 
  10148e:	c3                   	retq   
  10148f:	90                   	nop

0000000000101490 <_ZN18PageFrameAllocator9LockPagesEPvm>:
  101490:	f3 0f 1e fa          	endbr64 
  101494:	55                   	push   %rbp
  101495:	48 89 e5             	mov    %rsp,%rbp
  101498:	48 83 ec 30          	sub    $0x30,%rsp
  10149c:	48 89 7d e8          	mov    %rdi,-0x18(%rbp)
  1014a0:	48 89 75 e0          	mov    %rsi,-0x20(%rbp)
  1014a4:	48 89 55 d8          	mov    %rdx,-0x28(%rbp)
  1014a8:	c7 45 fc 00 00 00 00 	movl   $0x0,-0x4(%rbp)
  1014af:	8b 45 fc             	mov    -0x4(%rbp),%eax
  1014b2:	48 39 45 d8          	cmp    %rax,-0x28(%rbp)
  1014b6:	76 66                	jbe    10151e <_ZN18PageFrameAllocator9LockPagesEPvm+0x8e>
  1014b8:	8b 45 fc             	mov    -0x4(%rbp),%eax
  1014bb:	c1 e0 0c             	shl    $0xc,%eax
  1014be:	89 c2                	mov    %eax,%edx
  1014c0:	48 8b 45 e0          	mov    -0x20(%rbp),%rax
  1014c4:	48 01 d0             	add    %rdx,%rax
  1014c7:	48 89 45 f0          	mov    %rax,-0x10(%rbp)
  1014cb:	48 8b 45 e8          	mov    -0x18(%rbp),%rax
  1014cf:	48 8b 55 f0          	mov    -0x10(%rbp),%rdx
  1014d3:	48 89 d1             	mov    %rdx,%rcx
  1014d6:	48 c1 e9 0c          	shr    $0xc,%rcx
  1014da:	ba 01 00 00 00       	mov    $0x1,%edx
  1014df:	48 89 ce             	mov    %rcx,%rsi
  1014e2:	48 89 c7             	mov    %rax,%rdi
  1014e5:	e8 f8 ab 00 00       	callq  10c0e2 <_ZN6Bitmap3SetEmb>
  1014ea:	48 8b 45 e8          	mov    -0x18(%rbp),%rax
  1014ee:	48 8b 40 10          	mov    0x10(%rax),%rax
  1014f2:	48 8d 90 00 f0 ff ff 	lea    -0x1000(%rax),%rdx
  1014f9:	48 8b 45 e8          	mov    -0x18(%rbp),%rax
  1014fd:	48 89 50 10          	mov    %rdx,0x10(%rax)
  101501:	48 8b 45 e8          	mov    -0x18(%rbp),%rax
  101505:	48 8b 40 18          	mov    0x18(%rax),%rax
  101509:	48 8d 90 00 10 00 00 	lea    0x1000(%rax),%rdx
  101510:	48 8b 45 e8          	mov    -0x18(%rbp),%rax
  101514:	48 89 50 18          	mov    %rdx,0x18(%rax)
  101518:	83 45 fc 01          	addl   $0x1,-0x4(%rbp)
  10151c:	eb 91                	jmp    1014af <_ZN18PageFrameAllocator9LockPagesEPvm+0x1f>
  10151e:	90                   	nop
  10151f:	c9                   	leaveq 
  101520:	c3                   	retq   
  101521:	90                   	nop

0000000000101522 <_ZN18PageFrameAllocator15SharedAllocatorEv>:
  101522:	f3 0f 1e fa          	endbr64 
  101526:	55                   	push   %rbp
  101527:	48 89 e5             	mov    %rsp,%rbp
  10152a:	48 8b 05 cf 3a 01 00 	mov    0x13acf(%rip),%rax        # 115000 <_ZN18PageFrameAllocator11s_AllocatorE>
  101531:	48 85 c0             	test   %rax,%rax
  101534:	75 0e                	jne    101544 <_ZN18PageFrameAllocator15SharedAllocatorEv+0x22>
  101536:	48 8d 05 e3 3a 01 00 	lea    0x13ae3(%rip),%rax        # 115020 <allocator>
  10153d:	48 89 05 bc 3a 01 00 	mov    %rax,0x13abc(%rip)        # 115000 <_ZN18PageFrameAllocator11s_AllocatorE>
  101544:	48 8b 05 b5 3a 01 00 	mov    0x13ab5(%rip),%rax        # 115000 <_ZN18PageFrameAllocator11s_AllocatorE>
  10154b:	5d                   	pop    %rbp
  10154c:	c3                   	retq   

000000000010154d <_Z10InitPagingP9MemoryMap>:
  10154d:	f3 0f 1e fa          	endbr64 
  101551:	55                   	push   %rbp
  101552:	48 89 e5             	mov    %rsp,%rbp
  101555:	48 83 ec 30          	sub    $0x30,%rsp
  101559:	48 89 7d d8          	mov    %rdi,-0x28(%rbp)
  10155d:	e8 c0 ff ff ff       	callq  101522 <_ZN18PageFrameAllocator15SharedAllocatorEv>
  101562:	48 89 c2             	mov    %rax,%rdx
  101565:	48 8b 45 d8          	mov    -0x28(%rbp),%rax
  101569:	48 89 c6             	mov    %rax,%rsi
  10156c:	48 89 d7             	mov    %rdx,%rdi
  10156f:	e8 90 fa ff ff       	callq  101004 <_ZN18PageFrameAllocator13ReadMemoryMapEP9MemoryMap>
  101574:	e8 a9 ff ff ff       	callq  101522 <_ZN18PageFrameAllocator15SharedAllocatorEv>
  101579:	48 89 c7             	mov    %rax,%rdi
  10157c:	e8 f5 fc ff ff       	callq  101276 <_ZN18PageFrameAllocator11RequestPageEv>
  101581:	48 89 45 f0          	mov    %rax,-0x10(%rbp)
  101585:	48 8b 45 f0          	mov    -0x10(%rbp),%rax
  101589:	ba 00 10 00 00       	mov    $0x1000,%edx
  10158e:	be 00 00 00 00       	mov    $0x0,%esi
  101593:	48 89 c7             	mov    %rax,%rdi
  101596:	e8 a8 b6 00 00       	callq  10cc43 <_Z6memsetPvim>
  10159b:	48 8b 55 f0          	mov    -0x10(%rbp),%rdx
  10159f:	48 8d 45 e8          	lea    -0x18(%rbp),%rax
  1015a3:	48 89 d6             	mov    %rdx,%rsi
  1015a6:	48 89 c7             	mov    %rax,%rdi
  1015a9:	e8 68 c9 00 00       	callq  10df16 <_ZN16PageTableManagerC1EP9PageTable>
  1015ae:	48 8b 45 e8          	mov    -0x18(%rbp),%rax
  1015b2:	48 89 05 8f 3a 01 00 	mov    %rax,0x13a8f(%rip)        # 115048 <KernelDirectory>
  1015b9:	48 c7 45 f8 00 00 00 	movq   $0x0,-0x8(%rbp)
  1015c0:	00 
  1015c1:	48 8b 45 d8          	mov    -0x28(%rbp),%rax
  1015c5:	48 89 c7             	mov    %rax,%rdi
  1015c8:	e8 0b 26 00 00       	callq  103bd8 <_ZN9MemoryMap20GetTotalSystemMemoryEv>
  1015cd:	48 39 45 f8          	cmp    %rax,-0x8(%rbp)
  1015d1:	0f 92 c0             	setb   %al
  1015d4:	84 c0                	test   %al,%al
  1015d6:	74 26                	je     1015fe <_Z10InitPagingP9MemoryMap+0xb1>
  1015d8:	48 8b 55 f8          	mov    -0x8(%rbp),%rdx
  1015dc:	48 8b 45 f8          	mov    -0x8(%rbp),%rax
  1015e0:	b9 03 00 00 00       	mov    $0x3,%ecx
  1015e5:	48 89 c6             	mov    %rax,%rsi
  1015e8:	48 8d 3d 59 3a 01 00 	lea    0x13a59(%rip),%rdi        # 115048 <KernelDirectory>
  1015ef:	e8 e2 ea ff ff       	callq  1000d6 <_ZN16PageTableManager9MapMemoryEmmm>
  1015f4:	48 81 45 f8 00 10 00 	addq   $0x1000,-0x8(%rbp)
  1015fb:	00 
  1015fc:	eb c3                	jmp    1015c1 <_Z10InitPagingP9MemoryMap+0x74>
  1015fe:	48 8d 05 28 00 00 00 	lea    0x28(%rip),%rax        # 10162d <_Z16PageFaultHandlerP9Registers>
  101605:	48 89 c1             	mov    %rax,%rcx
  101608:	ba 8e 00 00 00       	mov    $0x8e,%edx
  10160d:	be 0e 00 00 00       	mov    $0xe,%esi
  101612:	48 8d 3d 47 3b 01 00 	lea    0x13b47(%rip),%rdi        # 115160 <idtr>
  101619:	e8 94 09 00 00       	callq  101fb2 <_ZN4IDTR7SetGateEhhm>
  10161e:	48 8d 3d 23 3a 01 00 	lea    0x13a23(%rip),%rdi        # 115048 <KernelDirectory>
  101625:	e8 26 ee ff ff       	callq  100450 <_ZN16PageTableManager12SetAsCurrentEv>
  10162a:	90                   	nop
  10162b:	c9                   	leaveq 
  10162c:	c3                   	retq   

000000000010162d <_Z16PageFaultHandlerP9Registers>:
  10162d:	f3 0f 1e fa          	endbr64 
  101631:	55                   	push   %rbp
  101632:	48 89 e5             	mov    %rsp,%rbp
  101635:	48 83 ec 30          	sub    $0x30,%rsp
  101639:	48 89 7d d8          	mov    %rdi,-0x28(%rbp)
  10163d:	0f 20 d0             	mov    %cr2,%rax
  101640:	48 89 45 f8          	mov    %rax,-0x8(%rbp)
  101644:	48 8b 45 d8          	mov    -0x28(%rbp),%rax
  101648:	48 8b 80 88 01 00 00 	mov    0x188(%rax),%rax
  10164f:	89 45 f4             	mov    %eax,-0xc(%rbp)
  101652:	8b 45 f4             	mov    -0xc(%rbp),%eax
  101655:	83 e0 01             	and    $0x1,%eax
  101658:	85 c0                	test   %eax,%eax
  10165a:	0f 94 c0             	sete   %al
  10165d:	0f b6 c0             	movzbl %al,%eax
  101660:	89 45 f0             	mov    %eax,-0x10(%rbp)
  101663:	8b 45 f4             	mov    -0xc(%rbp),%eax
  101666:	83 e0 02             	and    $0x2,%eax
  101669:	89 45 ec             	mov    %eax,-0x14(%rbp)
  10166c:	8b 45 f4             	mov    -0xc(%rbp),%eax
  10166f:	83 e0 04             	and    $0x4,%eax
  101672:	89 45 e8             	mov    %eax,-0x18(%rbp)
  101675:	8b 45 f4             	mov    -0xc(%rbp),%eax
  101678:	83 e0 08             	and    $0x8,%eax
  10167b:	89 45 e4             	mov    %eax,-0x1c(%rbp)
  10167e:	8b 45 f4             	mov    -0xc(%rbp),%eax
  101681:	83 e0 10             	and    $0x10,%eax
  101684:	89 45 e0             	mov    %eax,-0x20(%rbp)
  101687:	48 8d 3d aa e9 00 00 	lea    0xe9aa(%rip),%rdi        # 110038 <__rodata+0x38>
  10168e:	b8 00 00 00 00       	mov    $0x0,%eax
  101693:	e8 6c b1 00 00       	callq  10c804 <_Z7kprintfPKcz>
  101698:	48 8b 05 b1 39 01 00 	mov    0x139b1(%rip),%rax        # 115050 <CurrentDirectory>
  10169f:	48 8b 55 f8          	mov    -0x8(%rbp),%rdx
  1016a3:	48 89 d6             	mov    %rdx,%rsi
  1016a6:	48 89 c7             	mov    %rax,%rdi
  1016a9:	e8 da ec ff ff       	callq  100388 <_ZN16PageTableManager15PhysicalAddressEm>
  1016ae:	48 89 c6             	mov    %rax,%rsi
  1016b1:	8b 55 f4             	mov    -0xc(%rbp),%edx
  1016b4:	48 8b 45 f8          	mov    -0x8(%rbp),%rax
  1016b8:	89 d1                	mov    %edx,%ecx
  1016ba:	48 89 f2             	mov    %rsi,%rdx
  1016bd:	48 89 c6             	mov    %rax,%rsi
  1016c0:	48 8d 3d a9 e9 00 00 	lea    0xe9a9(%rip),%rdi        # 110070 <__rodata+0x70>
  1016c7:	b8 00 00 00 00       	mov    $0x0,%eax
  1016cc:	e8 33 b1 00 00       	callq  10c804 <_Z7kprintfPKcz>
  1016d1:	48 8d 3d d3 e9 00 00 	lea    0xe9d3(%rip),%rdi        # 1100ab <__rodata+0xab>
  1016d8:	b8 00 00 00 00       	mov    $0x0,%eax
  1016dd:	e8 22 b1 00 00       	callq  10c804 <_Z7kprintfPKcz>
  1016e2:	8b 45 f0             	mov    -0x10(%rbp),%eax
  1016e5:	89 c6                	mov    %eax,%esi
  1016e7:	48 8d 3d c5 e9 00 00 	lea    0xe9c5(%rip),%rdi        # 1100b3 <__rodata+0xb3>
  1016ee:	b8 00 00 00 00       	mov    $0x0,%eax
  1016f3:	e8 0c b1 00 00       	callq  10c804 <_Z7kprintfPKcz>
  1016f8:	8b 45 ec             	mov    -0x14(%rbp),%eax
  1016fb:	89 c6                	mov    %eax,%esi
  1016fd:	48 8d 3d bc e9 00 00 	lea    0xe9bc(%rip),%rdi        # 1100c0 <__rodata+0xc0>
  101704:	b8 00 00 00 00       	mov    $0x0,%eax
  101709:	e8 f6 b0 00 00       	callq  10c804 <_Z7kprintfPKcz>
  10170e:	8b 45 e8             	mov    -0x18(%rbp),%eax
  101711:	89 c6                	mov    %eax,%esi
  101713:	48 8d 3d b1 e9 00 00 	lea    0xe9b1(%rip),%rdi        # 1100cb <__rodata+0xcb>
  10171a:	b8 00 00 00 00       	mov    $0x0,%eax
  10171f:	e8 e0 b0 00 00       	callq  10c804 <_Z7kprintfPKcz>
  101724:	8b 45 e4             	mov    -0x1c(%rbp),%eax
  101727:	89 c6                	mov    %eax,%esi
  101729:	48 8d 3d ac e9 00 00 	lea    0xe9ac(%rip),%rdi        # 1100dc <__rodata+0xdc>
  101730:	b8 00 00 00 00       	mov    $0x0,%eax
  101735:	e8 ca b0 00 00       	callq  10c804 <_Z7kprintfPKcz>
  10173a:	8b 45 e0             	mov    -0x20(%rbp),%eax
  10173d:	89 c6                	mov    %eax,%esi
  10173f:	48 8d 3d a4 e9 00 00 	lea    0xe9a4(%rip),%rdi        # 1100ea <__rodata+0xea>
  101746:	b8 00 00 00 00       	mov    $0x0,%eax
  10174b:	e8 b4 b0 00 00       	callq  10c804 <_Z7kprintfPKcz>
  101750:	48 8d 3d b1 e9 00 00 	lea    0xe9b1(%rip),%rdi        # 110108 <__rodata+0x108>
  101757:	b8 00 00 00 00       	mov    $0x0,%eax
  10175c:	e8 a3 b0 00 00       	callq  10c804 <_Z7kprintfPKcz>
  101761:	f4                   	hlt    
  101762:	eb fd                	jmp    101761 <_Z16PageFaultHandlerP9Registers+0x134>

0000000000101764 <_Z41__static_initialization_and_destruction_0ii>:
  101764:	f3 0f 1e fa          	endbr64 
  101768:	55                   	push   %rbp
  101769:	48 89 e5             	mov    %rsp,%rbp
  10176c:	48 83 ec 10          	sub    $0x10,%rsp
  101770:	89 7d fc             	mov    %edi,-0x4(%rbp)
  101773:	89 75 f8             	mov    %esi,-0x8(%rbp)
  101776:	83 7d fc 01          	cmpl   $0x1,-0x4(%rbp)
  10177a:	75 1a                	jne    101796 <_Z41__static_initialization_and_destruction_0ii+0x32>
  10177c:	81 7d f8 ff ff 00 00 	cmpl   $0xffff,-0x8(%rbp)
  101783:	75 11                	jne    101796 <_Z41__static_initialization_and_destruction_0ii+0x32>
  101785:	be 00 00 00 00       	mov    $0x0,%esi
  10178a:	48 8d 3d b7 38 01 00 	lea    0x138b7(%rip),%rdi        # 115048 <KernelDirectory>
  101791:	e8 80 c7 00 00       	callq  10df16 <_ZN16PageTableManagerC1EP9PageTable>
  101796:	90                   	nop
  101797:	c9                   	leaveq 
  101798:	c3                   	retq   

0000000000101799 <_GLOBAL__sub_I_KernelDirectory>:
  101799:	f3 0f 1e fa          	endbr64 
  10179d:	55                   	push   %rbp
  10179e:	48 89 e5             	mov    %rsp,%rbp
  1017a1:	be ff ff 00 00       	mov    $0xffff,%esi
  1017a6:	bf 01 00 00 00       	mov    $0x1,%edi
  1017ab:	e8 b4 ff ff ff       	callq  101764 <_Z41__static_initialization_and_destruction_0ii>
  1017b0:	5d                   	pop    %rbp
  1017b1:	c3                   	retq   

00000000001017b2 <_Z5__inbt>:
  1017b2:	f3 0f 1e fa          	endbr64 
  1017b6:	55                   	push   %rbp
  1017b7:	48 89 e5             	mov    %rsp,%rbp
  1017ba:	48 83 ec 18          	sub    $0x18,%rsp
  1017be:	89 f8                	mov    %edi,%eax
  1017c0:	66 89 45 ec          	mov    %ax,-0x14(%rbp)
  1017c4:	0f b7 45 ec          	movzwl -0x14(%rbp),%eax
  1017c8:	89 c2                	mov    %eax,%edx
  1017ca:	ec                   	in     (%dx),%al
  1017cb:	88 45 ff             	mov    %al,-0x1(%rbp)
  1017ce:	0f b6 45 ff          	movzbl -0x1(%rbp),%eax
  1017d2:	c9                   	leaveq 
  1017d3:	c3                   	retq   

00000000001017d4 <_Z5__inwt>:
  1017d4:	f3 0f 1e fa          	endbr64 
  1017d8:	55                   	push   %rbp
  1017d9:	48 89 e5             	mov    %rsp,%rbp
  1017dc:	48 83 ec 18          	sub    $0x18,%rsp
  1017e0:	89 f8                	mov    %edi,%eax
  1017e2:	66 89 45 ec          	mov    %ax,-0x14(%rbp)
  1017e6:	0f b7 45 ec          	movzwl -0x14(%rbp),%eax
  1017ea:	89 c2                	mov    %eax,%edx
  1017ec:	66 ed                	in     (%dx),%ax
  1017ee:	66 89 45 fe          	mov    %ax,-0x2(%rbp)
  1017f2:	0f b7 45 fe          	movzwl -0x2(%rbp),%eax
  1017f6:	c9                   	leaveq 
  1017f7:	c3                   	retq   

00000000001017f8 <_Z5__inlj>:
  1017f8:	f3 0f 1e fa          	endbr64 
  1017fc:	55                   	push   %rbp
  1017fd:	48 89 e5             	mov    %rsp,%rbp
  101800:	48 83 ec 18          	sub    $0x18,%rsp
  101804:	89 7d ec             	mov    %edi,-0x14(%rbp)
  101807:	8b 45 ec             	mov    -0x14(%rbp),%eax
  10180a:	89 c2                	mov    %eax,%edx
  10180c:	ed                   	in     (%dx),%eax
  10180d:	89 45 fc             	mov    %eax,-0x4(%rbp)
  101810:	8b 45 fc             	mov    -0x4(%rbp),%eax
  101813:	c9                   	leaveq 
  101814:	c3                   	retq   

0000000000101815 <_Z6__outbth>:
  101815:	f3 0f 1e fa          	endbr64 
  101819:	55                   	push   %rbp
  10181a:	48 89 e5             	mov    %rsp,%rbp
  10181d:	48 83 ec 08          	sub    $0x8,%rsp
  101821:	89 f8                	mov    %edi,%eax
  101823:	89 f2                	mov    %esi,%edx
  101825:	66 89 45 fc          	mov    %ax,-0x4(%rbp)
  101829:	89 d0                	mov    %edx,%eax
  10182b:	88 45 f8             	mov    %al,-0x8(%rbp)
  10182e:	0f b6 45 f8          	movzbl -0x8(%rbp),%eax
  101832:	0f b7 55 fc          	movzwl -0x4(%rbp),%edx
  101836:	ee                   	out    %al,(%dx)
  101837:	90                   	nop
  101838:	c9                   	leaveq 
  101839:	c3                   	retq   

000000000010183a <_Z6__outwtt>:
  10183a:	f3 0f 1e fa          	endbr64 
  10183e:	55                   	push   %rbp
  10183f:	48 89 e5             	mov    %rsp,%rbp
  101842:	48 83 ec 08          	sub    $0x8,%rsp
  101846:	89 fa                	mov    %edi,%edx
  101848:	89 f0                	mov    %esi,%eax
  10184a:	66 89 55 fc          	mov    %dx,-0x4(%rbp)
  10184e:	66 89 45 f8          	mov    %ax,-0x8(%rbp)
  101852:	0f b7 45 f8          	movzwl -0x8(%rbp),%eax
  101856:	0f b7 55 fc          	movzwl -0x4(%rbp),%edx
  10185a:	66 ef                	out    %ax,(%dx)
  10185c:	90                   	nop
  10185d:	c9                   	leaveq 
  10185e:	c3                   	retq   

000000000010185f <_Z6__outljj>:
  10185f:	f3 0f 1e fa          	endbr64 
  101863:	55                   	push   %rbp
  101864:	48 89 e5             	mov    %rsp,%rbp
  101867:	48 83 ec 08          	sub    $0x8,%rsp
  10186b:	89 7d fc             	mov    %edi,-0x4(%rbp)
  10186e:	89 75 f8             	mov    %esi,-0x8(%rbp)
  101871:	8b 55 fc             	mov    -0x4(%rbp),%edx
  101874:	8b 45 f8             	mov    -0x8(%rbp),%eax
  101877:	ef                   	out    %eax,(%dx)
  101878:	90                   	nop
  101879:	c9                   	leaveq 
  10187a:	c3                   	retq   

000000000010187b <_Z7io_waitv>:
  10187b:	f3 0f 1e fa          	endbr64 
  10187f:	55                   	push   %rbp
  101880:	48 89 e5             	mov    %rsp,%rbp
  101883:	b8 00 00 00 00       	mov    $0x0,%eax
  101888:	e6 80                	out    %al,$0x80
  10188a:	90                   	nop
  10188b:	5d                   	pop    %rbp
  10188c:	c3                   	retq   

000000000010188d <_Z10GetYearRTCv>:
  10188d:	f3 0f 1e fa          	endbr64 
  101891:	55                   	push   %rbp
  101892:	48 89 e5             	mov    %rsp,%rbp
  101895:	be 09 00 00 00       	mov    $0x9,%esi
  10189a:	bf 70 00 00 00       	mov    $0x70,%edi
  10189f:	e8 71 ff ff ff       	callq  101815 <_Z6__outbth>
  1018a4:	bf 71 00 00 00       	mov    $0x71,%edi
  1018a9:	e8 04 ff ff ff       	callq  1017b2 <_Z5__inbt>
  1018ae:	5d                   	pop    %rbp
  1018af:	c3                   	retq   

00000000001018b0 <_Z11GetMonthRTCv>:
  1018b0:	f3 0f 1e fa          	endbr64 
  1018b4:	55                   	push   %rbp
  1018b5:	48 89 e5             	mov    %rsp,%rbp
  1018b8:	be 08 00 00 00       	mov    $0x8,%esi
  1018bd:	bf 70 00 00 00       	mov    $0x70,%edi
  1018c2:	e8 4e ff ff ff       	callq  101815 <_Z6__outbth>
  1018c7:	bf 71 00 00 00       	mov    $0x71,%edi
  1018cc:	e8 e1 fe ff ff       	callq  1017b2 <_Z5__inbt>
  1018d1:	5d                   	pop    %rbp
  1018d2:	c3                   	retq   

00000000001018d3 <_Z9GetDayRTCv>:
  1018d3:	f3 0f 1e fa          	endbr64 
  1018d7:	55                   	push   %rbp
  1018d8:	48 89 e5             	mov    %rsp,%rbp
  1018db:	be 07 00 00 00       	mov    $0x7,%esi
  1018e0:	bf 70 00 00 00       	mov    $0x70,%edi
  1018e5:	e8 2b ff ff ff       	callq  101815 <_Z6__outbth>
  1018ea:	bf 71 00 00 00       	mov    $0x71,%edi
  1018ef:	e8 be fe ff ff       	callq  1017b2 <_Z5__inbt>
  1018f4:	5d                   	pop    %rbp
  1018f5:	c3                   	retq   

00000000001018f6 <_Z13GetWeekdayRTCv>:
  1018f6:	f3 0f 1e fa          	endbr64 
  1018fa:	55                   	push   %rbp
  1018fb:	48 89 e5             	mov    %rsp,%rbp
  1018fe:	be 06 00 00 00       	mov    $0x6,%esi
  101903:	bf 70 00 00 00       	mov    $0x70,%edi
  101908:	e8 08 ff ff ff       	callq  101815 <_Z6__outbth>
  10190d:	bf 71 00 00 00       	mov    $0x71,%edi
  101912:	e8 9b fe ff ff       	callq  1017b2 <_Z5__inbt>
  101917:	5d                   	pop    %rbp
  101918:	c3                   	retq   

0000000000101919 <_Z10GetHourRTCv>:
  101919:	f3 0f 1e fa          	endbr64 
  10191d:	55                   	push   %rbp
  10191e:	48 89 e5             	mov    %rsp,%rbp
  101921:	be 04 00 00 00       	mov    $0x4,%esi
  101926:	bf 70 00 00 00       	mov    $0x70,%edi
  10192b:	e8 e5 fe ff ff       	callq  101815 <_Z6__outbth>
  101930:	bf 71 00 00 00       	mov    $0x71,%edi
  101935:	e8 78 fe ff ff       	callq  1017b2 <_Z5__inbt>
  10193a:	5d                   	pop    %rbp
  10193b:	c3                   	retq   

000000000010193c <_Z12GetMinuteRTCv>:
  10193c:	f3 0f 1e fa          	endbr64 
  101940:	55                   	push   %rbp
  101941:	48 89 e5             	mov    %rsp,%rbp
  101944:	be 02 00 00 00       	mov    $0x2,%esi
  101949:	bf 70 00 00 00       	mov    $0x70,%edi
  10194e:	e8 c2 fe ff ff       	callq  101815 <_Z6__outbth>
  101953:	bf 71 00 00 00       	mov    $0x71,%edi
  101958:	e8 55 fe ff ff       	callq  1017b2 <_Z5__inbt>
  10195d:	5d                   	pop    %rbp
  10195e:	c3                   	retq   

000000000010195f <_Z12GetSecondRTCv>:
  10195f:	f3 0f 1e fa          	endbr64 
  101963:	55                   	push   %rbp
  101964:	48 89 e5             	mov    %rsp,%rbp
  101967:	be 00 00 00 00       	mov    $0x0,%esi
  10196c:	bf 70 00 00 00       	mov    $0x70,%edi
  101971:	e8 9f fe ff ff       	callq  101815 <_Z6__outbth>
  101976:	bf 71 00 00 00       	mov    $0x71,%edi
  10197b:	e8 32 fe ff ff       	callq  1017b2 <_Z5__inbt>
  101980:	5d                   	pop    %rbp
  101981:	c3                   	retq   

0000000000101982 <_Z7InitRTCP2tm>:
  101982:	f3 0f 1e fa          	endbr64 
  101986:	55                   	push   %rbp
  101987:	48 89 e5             	mov    %rsp,%rbp
  10198a:	48 83 ec 10          	sub    $0x10,%rsp
  10198e:	48 89 7d f8          	mov    %rdi,-0x8(%rbp)
  101992:	48 8b 45 f8          	mov    -0x8(%rbp),%rax
  101996:	48 89 c7             	mov    %rax,%rdi
  101999:	e8 03 00 00 00       	callq  1019a1 <_Z10GetTimeRTCP2tm>
  10199e:	90                   	nop
  10199f:	c9                   	leaveq 
  1019a0:	c3                   	retq   

00000000001019a1 <_Z10GetTimeRTCP2tm>:
  1019a1:	f3 0f 1e fa          	endbr64 
  1019a5:	55                   	push   %rbp
  1019a6:	48 89 e5             	mov    %rsp,%rbp
  1019a9:	48 83 ec 10          	sub    $0x10,%rsp
  1019ad:	48 89 7d f8          	mov    %rdi,-0x8(%rbp)
  1019b1:	e8 d7 fe ff ff       	callq  10188d <_Z10GetYearRTCv>
  1019b6:	0f b6 d0             	movzbl %al,%edx
  1019b9:	48 8b 45 f8          	mov    -0x8(%rbp),%rax
  1019bd:	89 10                	mov    %edx,(%rax)
  1019bf:	e8 ec fe ff ff       	callq  1018b0 <_Z11GetMonthRTCv>
  1019c4:	0f b6 d0             	movzbl %al,%edx
  1019c7:	48 8b 45 f8          	mov    -0x8(%rbp),%rax
  1019cb:	89 50 04             	mov    %edx,0x4(%rax)
  1019ce:	e8 00 ff ff ff       	callq  1018d3 <_Z9GetDayRTCv>
  1019d3:	0f b6 d0             	movzbl %al,%edx
  1019d6:	48 8b 45 f8          	mov    -0x8(%rbp),%rax
  1019da:	89 50 08             	mov    %edx,0x8(%rax)
  1019dd:	e8 37 ff ff ff       	callq  101919 <_Z10GetHourRTCv>
  1019e2:	0f b6 d0             	movzbl %al,%edx
  1019e5:	48 8b 45 f8          	mov    -0x8(%rbp),%rax
  1019e9:	89 50 0c             	mov    %edx,0xc(%rax)
  1019ec:	e8 4b ff ff ff       	callq  10193c <_Z12GetMinuteRTCv>
  1019f1:	0f b6 d0             	movzbl %al,%edx
  1019f4:	48 8b 45 f8          	mov    -0x8(%rbp),%rax
  1019f8:	89 50 10             	mov    %edx,0x10(%rax)
  1019fb:	e8 5f ff ff ff       	callq  10195f <_Z12GetSecondRTCv>
  101a00:	0f b6 d0             	movzbl %al,%edx
  101a03:	48 8b 45 f8          	mov    -0x8(%rbp),%rax
  101a07:	89 50 14             	mov    %edx,0x14(%rax)
  101a0a:	90                   	nop
  101a0b:	c9                   	leaveq 
  101a0c:	c3                   	retq   

0000000000101a0d <_Z9StartTaskm>:
  101a0d:	f3 0f 1e fa          	endbr64 
  101a11:	55                   	push   %rbp
  101a12:	48 89 e5             	mov    %rsp,%rbp
  101a15:	48 83 ec 08          	sub    $0x8,%rsp
  101a19:	48 89 7d f8          	mov    %rdi,-0x8(%rbp)
  101a1d:	0f b6 05 4c 36 01 00 	movzbl 0x1364c(%rip),%eax        # 115070 <_ZL11task_was_on>
  101a24:	84 c0                	test   %al,%al
  101a26:	74 0d                	je     101a35 <_Z9StartTaskm+0x28>
  101a28:	48 8b 45 f8          	mov    -0x8(%rbp),%rax
  101a2c:	48 89 05 35 36 01 00 	mov    %rax,0x13635(%rip)        # 115068 <_ZL4task>
  101a33:	eb 01                	jmp    101a36 <_Z9StartTaskm+0x29>
  101a35:	90                   	nop
  101a36:	c9                   	leaveq 
  101a37:	c3                   	retq   

0000000000101a38 <_Z13EnableTaskingv>:
  101a38:	f3 0f 1e fa          	endbr64 
  101a3c:	55                   	push   %rbp
  101a3d:	48 89 e5             	mov    %rsp,%rbp
  101a40:	c6 05 29 36 01 00 01 	movb   $0x1,0x13629(%rip)        # 115070 <_ZL11task_was_on>
  101a47:	48 c7 05 16 36 01 00 	movq   $0x1,0x13616(%rip)        # 115068 <_ZL4task>
  101a4e:	01 00 00 00 
  101a52:	90                   	nop
  101a53:	5d                   	pop    %rbp
  101a54:	c3                   	retq   

0000000000101a55 <timer_callback>:
  101a55:	f3 0f 1e fa          	endbr64 
  101a59:	55                   	push   %rbp
  101a5a:	48 89 e5             	mov    %rsp,%rbp
  101a5d:	48 8b 05 04 36 01 00 	mov    0x13604(%rip),%rax        # 115068 <_ZL4task>
  101a64:	48 85 c0             	test   %rax,%rax
  101a67:	0f 85 95 00 00 00    	jne    101b02 <timer_callback+0xad>
  101a6d:	50                   	push   %rax
  101a6e:	53                   	push   %rbx
  101a6f:	51                   	push   %rcx
  101a70:	52                   	push   %rdx
  101a71:	56                   	push   %rsi
  101a72:	57                   	push   %rdi
  101a73:	55                   	push   %rbp
  101a74:	41 50                	push   %r8
  101a76:	41 51                	push   %r9
  101a78:	41 52                	push   %r10
  101a7a:	41 53                	push   %r11
  101a7c:	41 54                	push   %r12
  101a7e:	41 55                	push   %r13
  101a80:	41 56                	push   %r14
  101a82:	41 57                	push   %r15
  101a84:	8b 05 ce 35 01 00    	mov    0x135ce(%rip),%eax        # 115058 <tick>
  101a8a:	83 c0 01             	add    $0x1,%eax
  101a8d:	89 05 c5 35 01 00    	mov    %eax,0x135c5(%rip)        # 115058 <tick>
  101a93:	8b 05 c3 35 01 00    	mov    0x135c3(%rip),%eax        # 11505c <frequency>
  101a99:	89 c0                	mov    %eax,%eax
  101a9b:	48 85 c0             	test   %rax,%rax
  101a9e:	78 07                	js     101aa7 <timer_callback+0x52>
  101aa0:	f2 48 0f 2a c0       	cvtsi2sd %rax,%xmm0
  101aa5:	eb 15                	jmp    101abc <timer_callback+0x67>
  101aa7:	48 89 c2             	mov    %rax,%rdx
  101aaa:	48 d1 ea             	shr    %rdx
  101aad:	83 e0 01             	and    $0x1,%eax
  101ab0:	48 09 c2             	or     %rax,%rdx
  101ab3:	f2 48 0f 2a c2       	cvtsi2sd %rdx,%xmm0
  101ab8:	f2 0f 58 c0          	addsd  %xmm0,%xmm0
  101abc:	f2 0f 10 0d 84 e6 00 	movsd  0xe684(%rip),%xmm1        # 110148 <__rodata+0x148>
  101ac3:	00 
  101ac4:	f2 0f 5e c8          	divsd  %xmm0,%xmm1
  101ac8:	f2 0f 10 05 90 35 01 	movsd  0x13590(%rip),%xmm0        # 115060 <timeSinceBoot>
  101acf:	00 
  101ad0:	f2 0f 58 c1          	addsd  %xmm1,%xmm0
  101ad4:	f2 0f 11 05 84 35 01 	movsd  %xmm0,0x13584(%rip)        # 115060 <timeSinceBoot>
  101adb:	00 
  101adc:	41 5f                	pop    %r15
  101ade:	41 5e                	pop    %r14
  101ae0:	41 5d                	pop    %r13
  101ae2:	41 5c                	pop    %r12
  101ae4:	41 5b                	pop    %r11
  101ae6:	41 5a                	pop    %r10
  101ae8:	41 59                	pop    %r9
  101aea:	41 58                	pop    %r8
  101aec:	5d                   	pop    %rbp
  101aed:	5f                   	pop    %rdi
  101aee:	5e                   	pop    %rsi
  101aef:	ba 20 00 00 00       	mov    $0x20,%edx
  101af4:	b8 20 00 00 00       	mov    $0x20,%eax
  101af9:	ee                   	out    %al,(%dx)
  101afa:	5a                   	pop    %rdx
  101afb:	59                   	pop    %rcx
  101afc:	5b                   	pop    %rbx
  101afd:	58                   	pop    %rax
  101afe:	48 cf                	iretq  
  101b00:	eb 05                	jmp    101b07 <timer_callback+0xb2>
  101b02:	e8 af a2 00 00       	callq  10bdb6 <_Z8Schedulev>
  101b07:	90                   	nop
  101b08:	5d                   	pop    %rbp
  101b09:	c3                   	retq   

0000000000101b0a <_Z9InitTimerj>:
  101b0a:	f3 0f 1e fa          	endbr64 
  101b0e:	55                   	push   %rbp
  101b0f:	48 89 e5             	mov    %rsp,%rbp
  101b12:	48 83 ec 20          	sub    $0x20,%rsp
  101b16:	89 7d ec             	mov    %edi,-0x14(%rbp)
  101b19:	8b 45 ec             	mov    -0x14(%rbp),%eax
  101b1c:	89 05 3a 35 01 00    	mov    %eax,0x1353a(%rip)        # 11505c <frequency>
  101b22:	48 8d 05 2c ff ff ff 	lea    -0xd4(%rip),%rax        # 101a55 <timer_callback>
  101b29:	48 89 c6             	mov    %rax,%rsi
  101b2c:	48 8d 3d 0d e6 00 00 	lea    0xe60d(%rip),%rdi        # 110140 <__rodata+0x140>
  101b33:	b8 00 00 00 00       	mov    $0x0,%eax
  101b38:	e8 c7 ac 00 00       	callq  10c804 <_Z7kprintfPKcz>
  101b3d:	48 8d 05 11 ff ff ff 	lea    -0xef(%rip),%rax        # 101a55 <timer_callback>
  101b44:	48 89 c1             	mov    %rax,%rcx
  101b47:	ba 8e 00 00 00       	mov    $0x8e,%edx
  101b4c:	be 20 00 00 00       	mov    $0x20,%esi
  101b51:	48 8d 3d 08 36 01 00 	lea    0x13608(%rip),%rdi        # 115160 <idtr>
  101b58:	e8 55 04 00 00       	callq  101fb2 <_ZN4IDTR7SetGateEhhm>
  101b5d:	b8 dc 34 12 00       	mov    $0x1234dc,%eax
  101b62:	ba 00 00 00 00       	mov    $0x0,%edx
  101b67:	f7 75 ec             	divl   -0x14(%rbp)
  101b6a:	89 45 fc             	mov    %eax,-0x4(%rbp)
  101b6d:	8b 45 fc             	mov    -0x4(%rbp),%eax
  101b70:	88 45 fb             	mov    %al,-0x5(%rbp)
  101b73:	8b 45 fc             	mov    -0x4(%rbp),%eax
  101b76:	c1 e8 08             	shr    $0x8,%eax
  101b79:	88 45 fa             	mov    %al,-0x6(%rbp)
  101b7c:	be 36 00 00 00       	mov    $0x36,%esi
  101b81:	bf 43 00 00 00       	mov    $0x43,%edi
  101b86:	e8 8a fc ff ff       	callq  101815 <_Z6__outbth>
  101b8b:	0f b6 45 fb          	movzbl -0x5(%rbp),%eax
  101b8f:	89 c6                	mov    %eax,%esi
  101b91:	bf 40 00 00 00       	mov    $0x40,%edi
  101b96:	e8 7a fc ff ff       	callq  101815 <_Z6__outbth>
  101b9b:	0f b6 45 fa          	movzbl -0x6(%rbp),%eax
  101b9f:	89 c6                	mov    %eax,%esi
  101ba1:	bf 40 00 00 00       	mov    $0x40,%edi
  101ba6:	e8 6a fc ff ff       	callq  101815 <_Z6__outbth>
  101bab:	90                   	nop
  101bac:	c9                   	leaveq 
  101bad:	c3                   	retq   

0000000000101bae <_Z8SleepForj>:
  101bae:	f3 0f 1e fa          	endbr64 
  101bb2:	55                   	push   %rbp
  101bb3:	48 89 e5             	mov    %rsp,%rbp
  101bb6:	48 83 ec 10          	sub    $0x10,%rsp
  101bba:	89 7d fc             	mov    %edi,-0x4(%rbp)
  101bbd:	8b 45 fc             	mov    -0x4(%rbp),%eax
  101bc0:	48 85 c0             	test   %rax,%rax
  101bc3:	78 07                	js     101bcc <_Z8SleepForj+0x1e>
  101bc5:	f2 48 0f 2a c0       	cvtsi2sd %rax,%xmm0
  101bca:	eb 15                	jmp    101be1 <_Z8SleepForj+0x33>
  101bcc:	48 89 c2             	mov    %rax,%rdx
  101bcf:	48 d1 ea             	shr    %rdx
  101bd2:	83 e0 01             	and    $0x1,%eax
  101bd5:	48 09 c2             	or     %rax,%rdx
  101bd8:	f2 48 0f 2a c2       	cvtsi2sd %rdx,%xmm0
  101bdd:	f2 0f 58 c0          	addsd  %xmm0,%xmm0
  101be1:	f2 0f 10 0d 67 e5 00 	movsd  0xe567(%rip),%xmm1        # 110150 <__rodata+0x150>
  101be8:	00 
  101be9:	f2 0f 5e c1          	divsd  %xmm1,%xmm0
  101bed:	e8 03 00 00 00       	callq  101bf5 <_Z15SleepForSecondsd>
  101bf2:	90                   	nop
  101bf3:	c9                   	leaveq 
  101bf4:	c3                   	retq   

0000000000101bf5 <_Z15SleepForSecondsd>:
  101bf5:	f3 0f 1e fa          	endbr64 
  101bf9:	55                   	push   %rbp
  101bfa:	48 89 e5             	mov    %rsp,%rbp
  101bfd:	48 83 ec 18          	sub    $0x18,%rsp
  101c01:	f2 0f 11 45 e8       	movsd  %xmm0,-0x18(%rbp)
  101c06:	f2 0f 10 05 52 34 01 	movsd  0x13452(%rip),%xmm0        # 115060 <timeSinceBoot>
  101c0d:	00 
  101c0e:	f2 0f 10 4d e8       	movsd  -0x18(%rbp),%xmm1
  101c13:	f2 0f 58 c1          	addsd  %xmm1,%xmm0
  101c17:	f2 0f 11 45 f8       	movsd  %xmm0,-0x8(%rbp)
  101c1c:	f2 0f 10 0d 3c 34 01 	movsd  0x1343c(%rip),%xmm1        # 115060 <timeSinceBoot>
  101c23:	00 
  101c24:	f2 0f 10 45 f8       	movsd  -0x8(%rbp),%xmm0
  101c29:	66 0f 2f c1          	comisd %xmm1,%xmm0
  101c2d:	77 02                	ja     101c31 <_Z15SleepForSecondsd+0x3c>
  101c2f:	eb 03                	jmp    101c34 <_Z15SleepForSecondsd+0x3f>
  101c31:	f4                   	hlt    
  101c32:	eb e8                	jmp    101c1c <_Z15SleepForSecondsd+0x27>
  101c34:	c9                   	leaveq 
  101c35:	c3                   	retq   

0000000000101c36 <_ZN4GDTR7SetGateEhmjhh>:
  101c36:	f3 0f 1e fa          	endbr64 
  101c3a:	55                   	push   %rbp
  101c3b:	48 89 e5             	mov    %rsp,%rbp
  101c3e:	48 83 ec 20          	sub    $0x20,%rsp
  101c42:	48 89 7d f8          	mov    %rdi,-0x8(%rbp)
  101c46:	89 f0                	mov    %esi,%eax
  101c48:	48 89 55 e8          	mov    %rdx,-0x18(%rbp)
  101c4c:	89 4d f0             	mov    %ecx,-0x10(%rbp)
  101c4f:	44 89 c1             	mov    %r8d,%ecx
  101c52:	44 89 ca             	mov    %r9d,%edx
  101c55:	88 45 f4             	mov    %al,-0xc(%rbp)
  101c58:	89 c8                	mov    %ecx,%eax
  101c5a:	88 45 e4             	mov    %al,-0x1c(%rbp)
  101c5d:	89 d0                	mov    %edx,%eax
  101c5f:	88 45 e0             	mov    %al,-0x20(%rbp)
  101c62:	48 8b 45 f8          	mov    -0x8(%rbp),%rax
  101c66:	48 8b 40 02          	mov    0x2(%rax),%rax
  101c6a:	0f b6 55 f4          	movzbl -0xc(%rbp),%edx
  101c6e:	48 c1 e2 03          	shl    $0x3,%rdx
  101c72:	48 01 d0             	add    %rdx,%rax
  101c75:	48 8b 55 e8          	mov    -0x18(%rbp),%rdx
  101c79:	66 89 50 02          	mov    %dx,0x2(%rax)
  101c7d:	48 8b 45 e8          	mov    -0x18(%rbp),%rax
  101c81:	48 c1 e8 10          	shr    $0x10,%rax
  101c85:	48 89 c1             	mov    %rax,%rcx
  101c88:	48 8b 45 f8          	mov    -0x8(%rbp),%rax
  101c8c:	48 8b 40 02          	mov    0x2(%rax),%rax
  101c90:	0f b6 55 f4          	movzbl -0xc(%rbp),%edx
  101c94:	48 c1 e2 03          	shl    $0x3,%rdx
  101c98:	48 01 d0             	add    %rdx,%rax
  101c9b:	89 ca                	mov    %ecx,%edx
  101c9d:	88 50 04             	mov    %dl,0x4(%rax)
  101ca0:	48 8b 45 e8          	mov    -0x18(%rbp),%rax
  101ca4:	48 c1 e8 18          	shr    $0x18,%rax
  101ca8:	48 89 c1             	mov    %rax,%rcx
  101cab:	48 8b 45 f8          	mov    -0x8(%rbp),%rax
  101caf:	48 8b 40 02          	mov    0x2(%rax),%rax
  101cb3:	0f b6 55 f4          	movzbl -0xc(%rbp),%edx
  101cb7:	48 c1 e2 03          	shl    $0x3,%rdx
  101cbb:	48 01 d0             	add    %rdx,%rax
  101cbe:	89 ca                	mov    %ecx,%edx
  101cc0:	88 50 07             	mov    %dl,0x7(%rax)
  101cc3:	48 8b 45 f8          	mov    -0x8(%rbp),%rax
  101cc7:	48 8b 40 02          	mov    0x2(%rax),%rax
  101ccb:	0f b6 55 f4          	movzbl -0xc(%rbp),%edx
  101ccf:	48 c1 e2 03          	shl    $0x3,%rdx
  101cd3:	48 01 d0             	add    %rdx,%rax
  101cd6:	8b 55 f0             	mov    -0x10(%rbp),%edx
  101cd9:	66 89 10             	mov    %dx,(%rax)
  101cdc:	8b 45 f0             	mov    -0x10(%rbp),%eax
  101cdf:	c1 e8 10             	shr    $0x10,%eax
  101ce2:	89 c1                	mov    %eax,%ecx
  101ce4:	48 8b 45 f8          	mov    -0x8(%rbp),%rax
  101ce8:	48 8b 40 02          	mov    0x2(%rax),%rax
  101cec:	0f b6 55 f4          	movzbl -0xc(%rbp),%edx
  101cf0:	48 c1 e2 03          	shl    $0x3,%rdx
  101cf4:	48 01 d0             	add    %rdx,%rax
  101cf7:	83 e1 0f             	and    $0xf,%ecx
  101cfa:	89 ca                	mov    %ecx,%edx
  101cfc:	88 50 06             	mov    %dl,0x6(%rax)
  101cff:	48 8b 45 f8          	mov    -0x8(%rbp),%rax
  101d03:	48 8b 40 02          	mov    0x2(%rax),%rax
  101d07:	0f b6 55 f4          	movzbl -0xc(%rbp),%edx
  101d0b:	48 c1 e2 03          	shl    $0x3,%rdx
  101d0f:	48 01 d0             	add    %rdx,%rax
  101d12:	0f b6 48 06          	movzbl 0x6(%rax),%ecx
  101d16:	0f b6 45 e0          	movzbl -0x20(%rbp),%eax
  101d1a:	83 e0 f0             	and    $0xfffffff0,%eax
  101d1d:	89 c6                	mov    %eax,%esi
  101d1f:	48 8b 45 f8          	mov    -0x8(%rbp),%rax
  101d23:	48 8b 40 02          	mov    0x2(%rax),%rax
  101d27:	0f b6 55 f4          	movzbl -0xc(%rbp),%edx
  101d2b:	48 c1 e2 03          	shl    $0x3,%rdx
  101d2f:	48 01 d0             	add    %rdx,%rax
  101d32:	09 f1                	or     %esi,%ecx
  101d34:	89 ca                	mov    %ecx,%edx
  101d36:	88 50 06             	mov    %dl,0x6(%rax)
  101d39:	48 8b 45 f8          	mov    -0x8(%rbp),%rax
  101d3d:	48 8b 40 02          	mov    0x2(%rax),%rax
  101d41:	0f b6 55 f4          	movzbl -0xc(%rbp),%edx
  101d45:	48 c1 e2 03          	shl    $0x3,%rdx
  101d49:	48 01 c2             	add    %rax,%rdx
  101d4c:	0f b6 45 e4          	movzbl -0x1c(%rbp),%eax
  101d50:	88 42 05             	mov    %al,0x5(%rdx)
  101d53:	90                   	nop
  101d54:	c9                   	leaveq 
  101d55:	c3                   	retq   

0000000000101d56 <_ZN4GDTR5FlushEv>:
  101d56:	f3 0f 1e fa          	endbr64 
  101d5a:	55                   	push   %rbp
  101d5b:	48 89 e5             	mov    %rsp,%rbp
  101d5e:	48 83 ec 10          	sub    $0x10,%rsp
  101d62:	48 89 7d f8          	mov    %rdi,-0x8(%rbp)
  101d66:	48 8b 45 f8          	mov    -0x8(%rbp),%rax
  101d6a:	48 89 c7             	mov    %rax,%rdi
  101d6d:	e8 2e ba 00 00       	callq  10d7a0 <__gdt_flush>
  101d72:	90                   	nop
  101d73:	c9                   	leaveq 
  101d74:	c3                   	retq   

0000000000101d75 <_Z13InitialiseGDTv>:
  101d75:	f3 0f 1e fa          	endbr64 
  101d79:	55                   	push   %rbp
  101d7a:	48 89 e5             	mov    %rsp,%rbp
  101d7d:	48 83 ec 20          	sub    $0x20,%rsp
  101d81:	48 8d 05 f8 32 01 00 	lea    0x132f8(%rip),%rax        # 115080 <_ZL5gates>
  101d88:	48 89 45 f0          	mov    %rax,-0x10(%rbp)
  101d8c:	66 c7 45 ee 4f 00    	movw   $0x4f,-0x12(%rbp)
  101d92:	48 89 e0             	mov    %rsp,%rax
  101d95:	48 89 45 f8          	mov    %rax,-0x8(%rbp)
  101d99:	48 8b 45 f8          	mov    -0x8(%rbp),%rax
  101d9d:	89 05 41 33 01 00    	mov    %eax,0x13341(%rip)        # 1150e4 <_ZL3tss+0x4>
  101da3:	48 8b 45 f8          	mov    -0x8(%rbp),%rax
  101da7:	48 c1 e8 20          	shr    $0x20,%rax
  101dab:	89 05 37 33 01 00    	mov    %eax,0x13337(%rip)        # 1150e8 <_ZL3tss+0x8>
  101db1:	48 8d 45 ee          	lea    -0x12(%rbp),%rax
  101db5:	41 b9 00 00 00 00    	mov    $0x0,%r9d
  101dbb:	41 b8 00 00 00 00    	mov    $0x0,%r8d
  101dc1:	b9 00 00 00 00       	mov    $0x0,%ecx
  101dc6:	ba 00 00 00 00       	mov    $0x0,%edx
  101dcb:	be 00 00 00 00       	mov    $0x0,%esi
  101dd0:	48 89 c7             	mov    %rax,%rdi
  101dd3:	e8 5e fe ff ff       	callq  101c36 <_ZN4GDTR7SetGateEhmjhh>
  101dd8:	48 8d 45 ee          	lea    -0x12(%rbp),%rax
  101ddc:	41 b9 a0 00 00 00    	mov    $0xa0,%r9d
  101de2:	41 b8 9a 00 00 00    	mov    $0x9a,%r8d
  101de8:	b9 00 00 00 00       	mov    $0x0,%ecx
  101ded:	ba 00 00 00 00       	mov    $0x0,%edx
  101df2:	be 01 00 00 00       	mov    $0x1,%esi
  101df7:	48 89 c7             	mov    %rax,%rdi
  101dfa:	e8 37 fe ff ff       	callq  101c36 <_ZN4GDTR7SetGateEhmjhh>
  101dff:	48 8d 45 ee          	lea    -0x12(%rbp),%rax
  101e03:	41 b9 a0 00 00 00    	mov    $0xa0,%r9d
  101e09:	41 b8 92 00 00 00    	mov    $0x92,%r8d
  101e0f:	b9 00 00 00 00       	mov    $0x0,%ecx
  101e14:	ba 00 00 00 00       	mov    $0x0,%edx
  101e19:	be 02 00 00 00       	mov    $0x2,%esi
  101e1e:	48 89 c7             	mov    %rax,%rdi
  101e21:	e8 10 fe ff ff       	callq  101c36 <_ZN4GDTR7SetGateEhmjhh>
  101e26:	48 8d 45 ee          	lea    -0x12(%rbp),%rax
  101e2a:	41 b9 00 00 00 00    	mov    $0x0,%r9d
  101e30:	41 b8 00 00 00 00    	mov    $0x0,%r8d
  101e36:	b9 00 00 00 00       	mov    $0x0,%ecx
  101e3b:	ba 00 00 00 00       	mov    $0x0,%edx
  101e40:	be 03 00 00 00       	mov    $0x3,%esi
  101e45:	48 89 c7             	mov    %rax,%rdi
  101e48:	e8 e9 fd ff ff       	callq  101c36 <_ZN4GDTR7SetGateEhmjhh>
  101e4d:	48 8d 45 ee          	lea    -0x12(%rbp),%rax
  101e51:	41 b9 a0 00 00 00    	mov    $0xa0,%r9d
  101e57:	41 b8 f2 00 00 00    	mov    $0xf2,%r8d
  101e5d:	b9 00 00 00 00       	mov    $0x0,%ecx
  101e62:	ba 00 00 00 00       	mov    $0x0,%edx
  101e67:	be 04 00 00 00       	mov    $0x4,%esi
  101e6c:	48 89 c7             	mov    %rax,%rdi
  101e6f:	e8 c2 fd ff ff       	callq  101c36 <_ZN4GDTR7SetGateEhmjhh>
  101e74:	48 8d 45 ee          	lea    -0x12(%rbp),%rax
  101e78:	41 b9 a0 00 00 00    	mov    $0xa0,%r9d
  101e7e:	41 b8 fa 00 00 00    	mov    $0xfa,%r8d
  101e84:	b9 00 00 00 00       	mov    $0x0,%ecx
  101e89:	ba 00 00 00 00       	mov    $0x0,%edx
  101e8e:	be 05 00 00 00       	mov    $0x5,%esi
  101e93:	48 89 c7             	mov    %rax,%rdi
  101e96:	e8 9b fd ff ff       	callq  101c36 <_ZN4GDTR7SetGateEhmjhh>
  101e9b:	48 8d 45 ee          	lea    -0x12(%rbp),%rax
  101e9f:	41 b9 a0 00 00 00    	mov    $0xa0,%r9d
  101ea5:	41 b8 92 00 00 00    	mov    $0x92,%r8d
  101eab:	b9 00 00 00 00       	mov    $0x0,%ecx
  101eb0:	ba 00 00 00 00       	mov    $0x0,%edx
  101eb5:	be 06 00 00 00       	mov    $0x6,%esi
  101eba:	48 89 c7             	mov    %rax,%rdi
  101ebd:	e8 74 fd ff ff       	callq  101c36 <_ZN4GDTR7SetGateEhmjhh>
  101ec2:	48 8d 45 ee          	lea    -0x12(%rbp),%rax
  101ec6:	41 b9 a0 00 00 00    	mov    $0xa0,%r9d
  101ecc:	41 b8 9a 00 00 00    	mov    $0x9a,%r8d
  101ed2:	b9 00 00 00 00       	mov    $0x0,%ecx
  101ed7:	ba 00 00 00 00       	mov    $0x0,%edx
  101edc:	be 07 00 00 00       	mov    $0x7,%esi
  101ee1:	48 89 c7             	mov    %rax,%rdi
  101ee4:	e8 4d fd ff ff       	callq  101c36 <_ZN4GDTR7SetGateEhmjhh>
  101ee9:	48 8d 15 f0 31 01 00 	lea    0x131f0(%rip),%rdx        # 1150e0 <_ZL3tss>
  101ef0:	48 8d 45 ee          	lea    -0x12(%rbp),%rax
  101ef4:	41 b9 a0 00 00 00    	mov    $0xa0,%r9d
  101efa:	41 b8 82 00 00 00    	mov    $0x82,%r8d
  101f00:	b9 00 00 00 00       	mov    $0x0,%ecx
  101f05:	be 08 00 00 00       	mov    $0x8,%esi
  101f0a:	48 89 c7             	mov    %rax,%rdi
  101f0d:	e8 24 fd ff ff       	callq  101c36 <_ZN4GDTR7SetGateEhmjhh>
  101f12:	48 8d 45 ee          	lea    -0x12(%rbp),%rax
  101f16:	41 b9 00 00 00 00    	mov    $0x0,%r9d
  101f1c:	41 b8 00 00 00 00    	mov    $0x0,%r8d
  101f22:	b9 00 00 00 00       	mov    $0x0,%ecx
  101f27:	ba 00 00 00 00       	mov    $0x0,%edx
  101f2c:	be 09 00 00 00       	mov    $0x9,%esi
  101f31:	48 89 c7             	mov    %rax,%rdi
  101f34:	e8 fd fc ff ff       	callq  101c36 <_ZN4GDTR7SetGateEhmjhh>
  101f39:	48 8d 45 ee          	lea    -0x12(%rbp),%rax
  101f3d:	48 89 c7             	mov    %rax,%rdi
  101f40:	e8 11 fe ff ff       	callq  101d56 <_ZN4GDTR5FlushEv>
  101f45:	90                   	nop
  101f46:	c9                   	leaveq 
  101f47:	c3                   	retq   

0000000000101f48 <_ZL23DefaultExceptionHandlerP9Registers>:
  101f48:	f3 0f 1e fa          	endbr64 
  101f4c:	55                   	push   %rbp
  101f4d:	48 89 e5             	mov    %rsp,%rbp
  101f50:	48 83 ec 10          	sub    $0x10,%rsp
  101f54:	48 89 7d f8          	mov    %rdi,-0x8(%rbp)
  101f58:	48 8b 45 f8          	mov    -0x8(%rbp),%rax
  101f5c:	48 8b 90 88 01 00 00 	mov    0x188(%rax),%rdx
  101f63:	48 8b 45 f8          	mov    -0x8(%rbp),%rax
  101f67:	48 8b 80 80 01 00 00 	mov    0x180(%rax),%rax
  101f6e:	48 89 c6             	mov    %rax,%rsi
  101f71:	48 8d 3d e0 e1 00 00 	lea    0xe1e0(%rip),%rdi        # 110158 <__rodata+0x158>
  101f78:	b8 00 00 00 00       	mov    $0x0,%eax
  101f7d:	e8 82 a8 00 00       	callq  10c804 <_Z7kprintfPKcz>
  101f82:	48 8b 45 f8          	mov    -0x8(%rbp),%rax
  101f86:	48 8b 90 a8 01 00 00 	mov    0x1a8(%rax),%rdx
  101f8d:	48 8b 45 f8          	mov    -0x8(%rbp),%rax
  101f91:	48 8b 80 90 01 00 00 	mov    0x190(%rax),%rax
  101f98:	48 89 c6             	mov    %rax,%rsi
  101f9b:	48 8d 3d f9 e1 00 00 	lea    0xe1f9(%rip),%rdi        # 11019b <__rodata+0x19b>
  101fa2:	b8 00 00 00 00       	mov    $0x0,%eax
  101fa7:	e8 58 a8 00 00       	callq  10c804 <_Z7kprintfPKcz>
  101fac:	fa                   	cli    
  101fad:	f4                   	hlt    
  101fae:	90                   	nop
  101faf:	c9                   	leaveq 
  101fb0:	c3                   	retq   
  101fb1:	90                   	nop

0000000000101fb2 <_ZN4IDTR7SetGateEhhm>:
  101fb2:	f3 0f 1e fa          	endbr64 
  101fb6:	55                   	push   %rbp
  101fb7:	48 89 e5             	mov    %rsp,%rbp
  101fba:	48 83 ec 18          	sub    $0x18,%rsp
  101fbe:	48 89 7d f8          	mov    %rdi,-0x8(%rbp)
  101fc2:	89 d0                	mov    %edx,%eax
  101fc4:	48 89 4d e8          	mov    %rcx,-0x18(%rbp)
  101fc8:	89 f2                	mov    %esi,%edx
  101fca:	88 55 f4             	mov    %dl,-0xc(%rbp)
  101fcd:	88 45 f0             	mov    %al,-0x10(%rbp)
  101fd0:	48 8b 45 f8          	mov    -0x8(%rbp),%rax
  101fd4:	48 8b 40 02          	mov    0x2(%rax),%rax
  101fd8:	0f b6 55 f4          	movzbl -0xc(%rbp),%edx
  101fdc:	48 c1 e2 04          	shl    $0x4,%rdx
  101fe0:	48 01 d0             	add    %rdx,%rax
  101fe3:	48 8b 55 e8          	mov    -0x18(%rbp),%rdx
  101fe7:	66 89 10             	mov    %dx,(%rax)
  101fea:	48 8b 45 e8          	mov    -0x18(%rbp),%rax
  101fee:	48 c1 e8 10          	shr    $0x10,%rax
  101ff2:	48 89 c1             	mov    %rax,%rcx
  101ff5:	48 8b 45 f8          	mov    -0x8(%rbp),%rax
  101ff9:	48 8b 40 02          	mov    0x2(%rax),%rax
  101ffd:	0f b6 55 f4          	movzbl -0xc(%rbp),%edx
  102001:	48 c1 e2 04          	shl    $0x4,%rdx
  102005:	48 01 d0             	add    %rdx,%rax
  102008:	89 ca                	mov    %ecx,%edx
  10200a:	66 89 50 06          	mov    %dx,0x6(%rax)
  10200e:	48 8b 45 e8          	mov    -0x18(%rbp),%rax
  102012:	48 c1 e8 20          	shr    $0x20,%rax
  102016:	48 89 c1             	mov    %rax,%rcx
  102019:	48 8b 45 f8          	mov    -0x8(%rbp),%rax
  10201d:	48 8b 40 02          	mov    0x2(%rax),%rax
  102021:	0f b6 55 f4          	movzbl -0xc(%rbp),%edx
  102025:	48 c1 e2 04          	shl    $0x4,%rdx
  102029:	48 01 d0             	add    %rdx,%rax
  10202c:	89 ca                	mov    %ecx,%edx
  10202e:	89 50 08             	mov    %edx,0x8(%rax)
  102031:	48 8b 45 f8          	mov    -0x8(%rbp),%rax
  102035:	48 8b 40 02          	mov    0x2(%rax),%rax
  102039:	0f b6 55 f4          	movzbl -0xc(%rbp),%edx
  10203d:	48 c1 e2 04          	shl    $0x4,%rdx
  102041:	48 01 d0             	add    %rdx,%rax
  102044:	66 c7 40 02 08 00    	movw   $0x8,0x2(%rax)
  10204a:	48 8b 45 f8          	mov    -0x8(%rbp),%rax
  10204e:	48 8b 40 02          	mov    0x2(%rax),%rax
  102052:	0f b6 55 f4          	movzbl -0xc(%rbp),%edx
  102056:	48 c1 e2 04          	shl    $0x4,%rdx
  10205a:	48 01 c2             	add    %rax,%rdx
  10205d:	0f b6 45 f0          	movzbl -0x10(%rbp),%eax
  102061:	88 42 05             	mov    %al,0x5(%rdx)
  102064:	90                   	nop
  102065:	c9                   	leaveq 
  102066:	c3                   	retq   
  102067:	90                   	nop

0000000000102068 <_ZN4IDTR5FlushEv>:
  102068:	f3 0f 1e fa          	endbr64 
  10206c:	55                   	push   %rbp
  10206d:	48 89 e5             	mov    %rsp,%rbp
  102070:	48 83 ec 10          	sub    $0x10,%rsp
  102074:	48 89 7d f8          	mov    %rdi,-0x8(%rbp)
  102078:	48 8b 45 f8          	mov    -0x8(%rbp),%rax
  10207c:	48 89 c7             	mov    %rax,%rdi
  10207f:	e8 3c b7 00 00       	callq  10d7c0 <__set_idt>
  102084:	90                   	nop
  102085:	c9                   	leaveq 
  102086:	c3                   	retq   

0000000000102087 <_Z13InitialiseIDTv>:
  102087:	f3 0f 1e fa          	endbr64 
  10208b:	55                   	push   %rbp
  10208c:	48 89 e5             	mov    %rsp,%rbp
  10208f:	48 83 ec 10          	sub    $0x10,%rsp
  102093:	66 c7 05 c4 30 01 00 	movw   $0xfff,0x130c4(%rip)        # 115160 <idtr>
  10209a:	ff 0f 
  10209c:	48 8d 05 dd 30 01 00 	lea    0x130dd(%rip),%rax        # 115180 <_ZL5gates>
  1020a3:	48 89 05 b8 30 01 00 	mov    %rax,0x130b8(%rip)        # 115162 <idtr+0x2>
  1020aa:	48 c7 c0 73 da 10 00 	mov    $0x10da73,%rax
  1020b1:	48 89 c1             	mov    %rax,%rcx
  1020b4:	ba 8e 00 00 00       	mov    $0x8e,%edx
  1020b9:	be 00 00 00 00       	mov    $0x0,%esi
  1020be:	48 8d 3d 9b 30 01 00 	lea    0x1309b(%rip),%rdi        # 115160 <idtr>
  1020c5:	e8 e8 fe ff ff       	callq  101fb2 <_ZN4IDTR7SetGateEhhm>
  1020ca:	48 c7 c0 7c da 10 00 	mov    $0x10da7c,%rax
  1020d1:	48 89 c1             	mov    %rax,%rcx
  1020d4:	ba 8e 00 00 00       	mov    $0x8e,%edx
  1020d9:	be 01 00 00 00       	mov    $0x1,%esi
  1020de:	48 8d 3d 7b 30 01 00 	lea    0x1307b(%rip),%rdi        # 115160 <idtr>
  1020e5:	e8 c8 fe ff ff       	callq  101fb2 <_ZN4IDTR7SetGateEhhm>
  1020ea:	48 c7 c0 85 da 10 00 	mov    $0x10da85,%rax
  1020f1:	48 89 c1             	mov    %rax,%rcx
  1020f4:	ba 8e 00 00 00       	mov    $0x8e,%edx
  1020f9:	be 02 00 00 00       	mov    $0x2,%esi
  1020fe:	48 8d 3d 5b 30 01 00 	lea    0x1305b(%rip),%rdi        # 115160 <idtr>
  102105:	e8 a8 fe ff ff       	callq  101fb2 <_ZN4IDTR7SetGateEhhm>
  10210a:	48 c7 c0 8e da 10 00 	mov    $0x10da8e,%rax
  102111:	48 89 c1             	mov    %rax,%rcx
  102114:	ba 8e 00 00 00       	mov    $0x8e,%edx
  102119:	be 03 00 00 00       	mov    $0x3,%esi
  10211e:	48 8d 3d 3b 30 01 00 	lea    0x1303b(%rip),%rdi        # 115160 <idtr>
  102125:	e8 88 fe ff ff       	callq  101fb2 <_ZN4IDTR7SetGateEhhm>
  10212a:	48 c7 c0 97 da 10 00 	mov    $0x10da97,%rax
  102131:	48 89 c1             	mov    %rax,%rcx
  102134:	ba 8e 00 00 00       	mov    $0x8e,%edx
  102139:	be 04 00 00 00       	mov    $0x4,%esi
  10213e:	48 8d 3d 1b 30 01 00 	lea    0x1301b(%rip),%rdi        # 115160 <idtr>
  102145:	e8 68 fe ff ff       	callq  101fb2 <_ZN4IDTR7SetGateEhhm>
  10214a:	48 c7 c0 a0 da 10 00 	mov    $0x10daa0,%rax
  102151:	48 89 c1             	mov    %rax,%rcx
  102154:	ba 8e 00 00 00       	mov    $0x8e,%edx
  102159:	be 05 00 00 00       	mov    $0x5,%esi
  10215e:	48 8d 3d fb 2f 01 00 	lea    0x12ffb(%rip),%rdi        # 115160 <idtr>
  102165:	e8 48 fe ff ff       	callq  101fb2 <_ZN4IDTR7SetGateEhhm>
  10216a:	48 c7 c0 a9 da 10 00 	mov    $0x10daa9,%rax
  102171:	48 89 c1             	mov    %rax,%rcx
  102174:	ba 8e 00 00 00       	mov    $0x8e,%edx
  102179:	be 06 00 00 00       	mov    $0x6,%esi
  10217e:	48 8d 3d db 2f 01 00 	lea    0x12fdb(%rip),%rdi        # 115160 <idtr>
  102185:	e8 28 fe ff ff       	callq  101fb2 <_ZN4IDTR7SetGateEhhm>
  10218a:	48 c7 c0 b2 da 10 00 	mov    $0x10dab2,%rax
  102191:	48 89 c1             	mov    %rax,%rcx
  102194:	ba 8e 00 00 00       	mov    $0x8e,%edx
  102199:	be 07 00 00 00       	mov    $0x7,%esi
  10219e:	48 8d 3d bb 2f 01 00 	lea    0x12fbb(%rip),%rdi        # 115160 <idtr>
  1021a5:	e8 08 fe ff ff       	callq  101fb2 <_ZN4IDTR7SetGateEhhm>
  1021aa:	48 c7 c0 bb da 10 00 	mov    $0x10dabb,%rax
  1021b1:	48 89 c1             	mov    %rax,%rcx
  1021b4:	ba 8e 00 00 00       	mov    $0x8e,%edx
  1021b9:	be 08 00 00 00       	mov    $0x8,%esi
  1021be:	48 8d 3d 9b 2f 01 00 	lea    0x12f9b(%rip),%rdi        # 115160 <idtr>
  1021c5:	e8 e8 fd ff ff       	callq  101fb2 <_ZN4IDTR7SetGateEhhm>
  1021ca:	48 c7 c0 c2 da 10 00 	mov    $0x10dac2,%rax
  1021d1:	48 89 c1             	mov    %rax,%rcx
  1021d4:	ba 8e 00 00 00       	mov    $0x8e,%edx
  1021d9:	be 09 00 00 00       	mov    $0x9,%esi
  1021de:	48 8d 3d 7b 2f 01 00 	lea    0x12f7b(%rip),%rdi        # 115160 <idtr>
  1021e5:	e8 c8 fd ff ff       	callq  101fb2 <_ZN4IDTR7SetGateEhhm>
  1021ea:	48 c7 c0 cb da 10 00 	mov    $0x10dacb,%rax
  1021f1:	48 89 c1             	mov    %rax,%rcx
  1021f4:	ba 8e 00 00 00       	mov    $0x8e,%edx
  1021f9:	be 0a 00 00 00       	mov    $0xa,%esi
  1021fe:	48 8d 3d 5b 2f 01 00 	lea    0x12f5b(%rip),%rdi        # 115160 <idtr>
  102205:	e8 a8 fd ff ff       	callq  101fb2 <_ZN4IDTR7SetGateEhhm>
  10220a:	48 c7 c0 d2 da 10 00 	mov    $0x10dad2,%rax
  102211:	48 89 c1             	mov    %rax,%rcx
  102214:	ba 8e 00 00 00       	mov    $0x8e,%edx
  102219:	be 0b 00 00 00       	mov    $0xb,%esi
  10221e:	48 8d 3d 3b 2f 01 00 	lea    0x12f3b(%rip),%rdi        # 115160 <idtr>
  102225:	e8 88 fd ff ff       	callq  101fb2 <_ZN4IDTR7SetGateEhhm>
  10222a:	48 c7 c0 d9 da 10 00 	mov    $0x10dad9,%rax
  102231:	48 89 c1             	mov    %rax,%rcx
  102234:	ba 8e 00 00 00       	mov    $0x8e,%edx
  102239:	be 0c 00 00 00       	mov    $0xc,%esi
  10223e:	48 8d 3d 1b 2f 01 00 	lea    0x12f1b(%rip),%rdi        # 115160 <idtr>
  102245:	e8 68 fd ff ff       	callq  101fb2 <_ZN4IDTR7SetGateEhhm>
  10224a:	48 c7 c0 e0 da 10 00 	mov    $0x10dae0,%rax
  102251:	48 89 c1             	mov    %rax,%rcx
  102254:	ba 8e 00 00 00       	mov    $0x8e,%edx
  102259:	be 0d 00 00 00       	mov    $0xd,%esi
  10225e:	48 8d 3d fb 2e 01 00 	lea    0x12efb(%rip),%rdi        # 115160 <idtr>
  102265:	e8 48 fd ff ff       	callq  101fb2 <_ZN4IDTR7SetGateEhhm>
  10226a:	48 c7 c0 e7 da 10 00 	mov    $0x10dae7,%rax
  102271:	48 89 c1             	mov    %rax,%rcx
  102274:	ba 8e 00 00 00       	mov    $0x8e,%edx
  102279:	be 0e 00 00 00       	mov    $0xe,%esi
  10227e:	48 8d 3d db 2e 01 00 	lea    0x12edb(%rip),%rdi        # 115160 <idtr>
  102285:	e8 28 fd ff ff       	callq  101fb2 <_ZN4IDTR7SetGateEhhm>
  10228a:	48 c7 c0 ee da 10 00 	mov    $0x10daee,%rax
  102291:	48 89 c1             	mov    %rax,%rcx
  102294:	ba 8e 00 00 00       	mov    $0x8e,%edx
  102299:	be 0f 00 00 00       	mov    $0xf,%esi
  10229e:	48 8d 3d bb 2e 01 00 	lea    0x12ebb(%rip),%rdi        # 115160 <idtr>
  1022a5:	e8 08 fd ff ff       	callq  101fb2 <_ZN4IDTR7SetGateEhhm>
  1022aa:	48 c7 c0 f5 da 10 00 	mov    $0x10daf5,%rax
  1022b1:	48 89 c1             	mov    %rax,%rcx
  1022b4:	ba 8e 00 00 00       	mov    $0x8e,%edx
  1022b9:	be 10 00 00 00       	mov    $0x10,%esi
  1022be:	48 8d 3d 9b 2e 01 00 	lea    0x12e9b(%rip),%rdi        # 115160 <idtr>
  1022c5:	e8 e8 fc ff ff       	callq  101fb2 <_ZN4IDTR7SetGateEhhm>
  1022ca:	48 c7 c0 fc da 10 00 	mov    $0x10dafc,%rax
  1022d1:	48 89 c1             	mov    %rax,%rcx
  1022d4:	ba 8e 00 00 00       	mov    $0x8e,%edx
  1022d9:	be 11 00 00 00       	mov    $0x11,%esi
  1022de:	48 8d 3d 7b 2e 01 00 	lea    0x12e7b(%rip),%rdi        # 115160 <idtr>
  1022e5:	e8 c8 fc ff ff       	callq  101fb2 <_ZN4IDTR7SetGateEhhm>
  1022ea:	48 c7 c0 03 db 10 00 	mov    $0x10db03,%rax
  1022f1:	48 89 c1             	mov    %rax,%rcx
  1022f4:	ba 8e 00 00 00       	mov    $0x8e,%edx
  1022f9:	be 12 00 00 00       	mov    $0x12,%esi
  1022fe:	48 8d 3d 5b 2e 01 00 	lea    0x12e5b(%rip),%rdi        # 115160 <idtr>
  102305:	e8 a8 fc ff ff       	callq  101fb2 <_ZN4IDTR7SetGateEhhm>
  10230a:	48 c7 c0 0a db 10 00 	mov    $0x10db0a,%rax
  102311:	48 89 c1             	mov    %rax,%rcx
  102314:	ba 8e 00 00 00       	mov    $0x8e,%edx
  102319:	be 13 00 00 00       	mov    $0x13,%esi
  10231e:	48 8d 3d 3b 2e 01 00 	lea    0x12e3b(%rip),%rdi        # 115160 <idtr>
  102325:	e8 88 fc ff ff       	callq  101fb2 <_ZN4IDTR7SetGateEhhm>
  10232a:	48 c7 c0 11 db 10 00 	mov    $0x10db11,%rax
  102331:	48 89 c1             	mov    %rax,%rcx
  102334:	ba 8e 00 00 00       	mov    $0x8e,%edx
  102339:	be 14 00 00 00       	mov    $0x14,%esi
  10233e:	48 8d 3d 1b 2e 01 00 	lea    0x12e1b(%rip),%rdi        # 115160 <idtr>
  102345:	e8 68 fc ff ff       	callq  101fb2 <_ZN4IDTR7SetGateEhhm>
  10234a:	48 c7 c0 18 db 10 00 	mov    $0x10db18,%rax
  102351:	48 89 c1             	mov    %rax,%rcx
  102354:	ba 8e 00 00 00       	mov    $0x8e,%edx
  102359:	be 15 00 00 00       	mov    $0x15,%esi
  10235e:	48 8d 3d fb 2d 01 00 	lea    0x12dfb(%rip),%rdi        # 115160 <idtr>
  102365:	e8 48 fc ff ff       	callq  101fb2 <_ZN4IDTR7SetGateEhhm>
  10236a:	48 c7 c0 1f db 10 00 	mov    $0x10db1f,%rax
  102371:	48 89 c1             	mov    %rax,%rcx
  102374:	ba 8e 00 00 00       	mov    $0x8e,%edx
  102379:	be 16 00 00 00       	mov    $0x16,%esi
  10237e:	48 8d 3d db 2d 01 00 	lea    0x12ddb(%rip),%rdi        # 115160 <idtr>
  102385:	e8 28 fc ff ff       	callq  101fb2 <_ZN4IDTR7SetGateEhhm>
  10238a:	48 c7 c0 26 db 10 00 	mov    $0x10db26,%rax
  102391:	48 89 c1             	mov    %rax,%rcx
  102394:	ba 8e 00 00 00       	mov    $0x8e,%edx
  102399:	be 17 00 00 00       	mov    $0x17,%esi
  10239e:	48 8d 3d bb 2d 01 00 	lea    0x12dbb(%rip),%rdi        # 115160 <idtr>
  1023a5:	e8 08 fc ff ff       	callq  101fb2 <_ZN4IDTR7SetGateEhhm>
  1023aa:	48 c7 c0 2d db 10 00 	mov    $0x10db2d,%rax
  1023b1:	48 89 c1             	mov    %rax,%rcx
  1023b4:	ba 8e 00 00 00       	mov    $0x8e,%edx
  1023b9:	be 18 00 00 00       	mov    $0x18,%esi
  1023be:	48 8d 3d 9b 2d 01 00 	lea    0x12d9b(%rip),%rdi        # 115160 <idtr>
  1023c5:	e8 e8 fb ff ff       	callq  101fb2 <_ZN4IDTR7SetGateEhhm>
  1023ca:	48 c7 c0 34 db 10 00 	mov    $0x10db34,%rax
  1023d1:	48 89 c1             	mov    %rax,%rcx
  1023d4:	ba 8e 00 00 00       	mov    $0x8e,%edx
  1023d9:	be 19 00 00 00       	mov    $0x19,%esi
  1023de:	48 8d 3d 7b 2d 01 00 	lea    0x12d7b(%rip),%rdi        # 115160 <idtr>
  1023e5:	e8 c8 fb ff ff       	callq  101fb2 <_ZN4IDTR7SetGateEhhm>
  1023ea:	48 c7 c0 3b db 10 00 	mov    $0x10db3b,%rax
  1023f1:	48 89 c1             	mov    %rax,%rcx
  1023f4:	ba 8e 00 00 00       	mov    $0x8e,%edx
  1023f9:	be 1a 00 00 00       	mov    $0x1a,%esi
  1023fe:	48 8d 3d 5b 2d 01 00 	lea    0x12d5b(%rip),%rdi        # 115160 <idtr>
  102405:	e8 a8 fb ff ff       	callq  101fb2 <_ZN4IDTR7SetGateEhhm>
  10240a:	48 c7 c0 42 db 10 00 	mov    $0x10db42,%rax
  102411:	48 89 c1             	mov    %rax,%rcx
  102414:	ba 8e 00 00 00       	mov    $0x8e,%edx
  102419:	be 1b 00 00 00       	mov    $0x1b,%esi
  10241e:	48 8d 3d 3b 2d 01 00 	lea    0x12d3b(%rip),%rdi        # 115160 <idtr>
  102425:	e8 88 fb ff ff       	callq  101fb2 <_ZN4IDTR7SetGateEhhm>
  10242a:	48 c7 c0 49 db 10 00 	mov    $0x10db49,%rax
  102431:	48 89 c1             	mov    %rax,%rcx
  102434:	ba 8e 00 00 00       	mov    $0x8e,%edx
  102439:	be 1c 00 00 00       	mov    $0x1c,%esi
  10243e:	48 8d 3d 1b 2d 01 00 	lea    0x12d1b(%rip),%rdi        # 115160 <idtr>
  102445:	e8 68 fb ff ff       	callq  101fb2 <_ZN4IDTR7SetGateEhhm>
  10244a:	48 c7 c0 50 db 10 00 	mov    $0x10db50,%rax
  102451:	48 89 c1             	mov    %rax,%rcx
  102454:	ba 8e 00 00 00       	mov    $0x8e,%edx
  102459:	be 1d 00 00 00       	mov    $0x1d,%esi
  10245e:	48 8d 3d fb 2c 01 00 	lea    0x12cfb(%rip),%rdi        # 115160 <idtr>
  102465:	e8 48 fb ff ff       	callq  101fb2 <_ZN4IDTR7SetGateEhhm>
  10246a:	48 c7 c0 57 db 10 00 	mov    $0x10db57,%rax
  102471:	48 89 c1             	mov    %rax,%rcx
  102474:	ba 8e 00 00 00       	mov    $0x8e,%edx
  102479:	be 1e 00 00 00       	mov    $0x1e,%esi
  10247e:	48 8d 3d db 2c 01 00 	lea    0x12cdb(%rip),%rdi        # 115160 <idtr>
  102485:	e8 28 fb ff ff       	callq  101fb2 <_ZN4IDTR7SetGateEhhm>
  10248a:	48 c7 c0 5e db 10 00 	mov    $0x10db5e,%rax
  102491:	48 89 c1             	mov    %rax,%rcx
  102494:	ba 8e 00 00 00       	mov    $0x8e,%edx
  102499:	be 1f 00 00 00       	mov    $0x1f,%esi
  10249e:	48 8d 3d bb 2c 01 00 	lea    0x12cbb(%rip),%rdi        # 115160 <idtr>
  1024a5:	e8 08 fb ff ff       	callq  101fb2 <_ZN4IDTR7SetGateEhhm>
  1024aa:	48 c7 c0 65 db 10 00 	mov    $0x10db65,%rax
  1024b1:	48 89 c1             	mov    %rax,%rcx
  1024b4:	ba 8e 00 00 00       	mov    $0x8e,%edx
  1024b9:	be 20 00 00 00       	mov    $0x20,%esi
  1024be:	48 8d 3d 9b 2c 01 00 	lea    0x12c9b(%rip),%rdi        # 115160 <idtr>
  1024c5:	e8 e8 fa ff ff       	callq  101fb2 <_ZN4IDTR7SetGateEhhm>
  1024ca:	48 c7 c0 6e db 10 00 	mov    $0x10db6e,%rax
  1024d1:	48 89 c1             	mov    %rax,%rcx
  1024d4:	ba 8e 00 00 00       	mov    $0x8e,%edx
  1024d9:	be 21 00 00 00       	mov    $0x21,%esi
  1024de:	48 8d 3d 7b 2c 01 00 	lea    0x12c7b(%rip),%rdi        # 115160 <idtr>
  1024e5:	e8 c8 fa ff ff       	callq  101fb2 <_ZN4IDTR7SetGateEhhm>
  1024ea:	48 c7 c0 77 db 10 00 	mov    $0x10db77,%rax
  1024f1:	48 89 c1             	mov    %rax,%rcx
  1024f4:	ba 8e 00 00 00       	mov    $0x8e,%edx
  1024f9:	be 22 00 00 00       	mov    $0x22,%esi
  1024fe:	48 8d 3d 5b 2c 01 00 	lea    0x12c5b(%rip),%rdi        # 115160 <idtr>
  102505:	e8 a8 fa ff ff       	callq  101fb2 <_ZN4IDTR7SetGateEhhm>
  10250a:	48 c7 c0 80 db 10 00 	mov    $0x10db80,%rax
  102511:	48 89 c1             	mov    %rax,%rcx
  102514:	ba 8e 00 00 00       	mov    $0x8e,%edx
  102519:	be 23 00 00 00       	mov    $0x23,%esi
  10251e:	48 8d 3d 3b 2c 01 00 	lea    0x12c3b(%rip),%rdi        # 115160 <idtr>
  102525:	e8 88 fa ff ff       	callq  101fb2 <_ZN4IDTR7SetGateEhhm>
  10252a:	48 c7 c0 89 db 10 00 	mov    $0x10db89,%rax
  102531:	48 89 c1             	mov    %rax,%rcx
  102534:	ba 8e 00 00 00       	mov    $0x8e,%edx
  102539:	be 24 00 00 00       	mov    $0x24,%esi
  10253e:	48 8d 3d 1b 2c 01 00 	lea    0x12c1b(%rip),%rdi        # 115160 <idtr>
  102545:	e8 68 fa ff ff       	callq  101fb2 <_ZN4IDTR7SetGateEhhm>
  10254a:	48 c7 c0 92 db 10 00 	mov    $0x10db92,%rax
  102551:	48 89 c1             	mov    %rax,%rcx
  102554:	ba 8e 00 00 00       	mov    $0x8e,%edx
  102559:	be 25 00 00 00       	mov    $0x25,%esi
  10255e:	48 8d 3d fb 2b 01 00 	lea    0x12bfb(%rip),%rdi        # 115160 <idtr>
  102565:	e8 48 fa ff ff       	callq  101fb2 <_ZN4IDTR7SetGateEhhm>
  10256a:	48 c7 c0 9b db 10 00 	mov    $0x10db9b,%rax
  102571:	48 89 c1             	mov    %rax,%rcx
  102574:	ba 8e 00 00 00       	mov    $0x8e,%edx
  102579:	be 26 00 00 00       	mov    $0x26,%esi
  10257e:	48 8d 3d db 2b 01 00 	lea    0x12bdb(%rip),%rdi        # 115160 <idtr>
  102585:	e8 28 fa ff ff       	callq  101fb2 <_ZN4IDTR7SetGateEhhm>
  10258a:	48 c7 c0 a4 db 10 00 	mov    $0x10dba4,%rax
  102591:	48 89 c1             	mov    %rax,%rcx
  102594:	ba 8e 00 00 00       	mov    $0x8e,%edx
  102599:	be 27 00 00 00       	mov    $0x27,%esi
  10259e:	48 8d 3d bb 2b 01 00 	lea    0x12bbb(%rip),%rdi        # 115160 <idtr>
  1025a5:	e8 08 fa ff ff       	callq  101fb2 <_ZN4IDTR7SetGateEhhm>
  1025aa:	48 c7 c0 ad db 10 00 	mov    $0x10dbad,%rax
  1025b1:	48 89 c1             	mov    %rax,%rcx
  1025b4:	ba 8e 00 00 00       	mov    $0x8e,%edx
  1025b9:	be 28 00 00 00       	mov    $0x28,%esi
  1025be:	48 8d 3d 9b 2b 01 00 	lea    0x12b9b(%rip),%rdi        # 115160 <idtr>
  1025c5:	e8 e8 f9 ff ff       	callq  101fb2 <_ZN4IDTR7SetGateEhhm>
  1025ca:	48 c7 c0 b6 db 10 00 	mov    $0x10dbb6,%rax
  1025d1:	48 89 c1             	mov    %rax,%rcx
  1025d4:	ba 8e 00 00 00       	mov    $0x8e,%edx
  1025d9:	be 29 00 00 00       	mov    $0x29,%esi
  1025de:	48 8d 3d 7b 2b 01 00 	lea    0x12b7b(%rip),%rdi        # 115160 <idtr>
  1025e5:	e8 c8 f9 ff ff       	callq  101fb2 <_ZN4IDTR7SetGateEhhm>
  1025ea:	48 c7 c0 bf db 10 00 	mov    $0x10dbbf,%rax
  1025f1:	48 89 c1             	mov    %rax,%rcx
  1025f4:	ba 8e 00 00 00       	mov    $0x8e,%edx
  1025f9:	be 2a 00 00 00       	mov    $0x2a,%esi
  1025fe:	48 8d 3d 5b 2b 01 00 	lea    0x12b5b(%rip),%rdi        # 115160 <idtr>
  102605:	e8 a8 f9 ff ff       	callq  101fb2 <_ZN4IDTR7SetGateEhhm>
  10260a:	48 c7 c0 c8 db 10 00 	mov    $0x10dbc8,%rax
  102611:	48 89 c1             	mov    %rax,%rcx
  102614:	ba 8e 00 00 00       	mov    $0x8e,%edx
  102619:	be 2b 00 00 00       	mov    $0x2b,%esi
  10261e:	48 8d 3d 3b 2b 01 00 	lea    0x12b3b(%rip),%rdi        # 115160 <idtr>
  102625:	e8 88 f9 ff ff       	callq  101fb2 <_ZN4IDTR7SetGateEhhm>
  10262a:	48 c7 c0 d1 db 10 00 	mov    $0x10dbd1,%rax
  102631:	48 89 c1             	mov    %rax,%rcx
  102634:	ba 8e 00 00 00       	mov    $0x8e,%edx
  102639:	be 2c 00 00 00       	mov    $0x2c,%esi
  10263e:	48 8d 3d 1b 2b 01 00 	lea    0x12b1b(%rip),%rdi        # 115160 <idtr>
  102645:	e8 68 f9 ff ff       	callq  101fb2 <_ZN4IDTR7SetGateEhhm>
  10264a:	48 c7 c0 da db 10 00 	mov    $0x10dbda,%rax
  102651:	48 89 c1             	mov    %rax,%rcx
  102654:	ba 8e 00 00 00       	mov    $0x8e,%edx
  102659:	be 2d 00 00 00       	mov    $0x2d,%esi
  10265e:	48 8d 3d fb 2a 01 00 	lea    0x12afb(%rip),%rdi        # 115160 <idtr>
  102665:	e8 48 f9 ff ff       	callq  101fb2 <_ZN4IDTR7SetGateEhhm>
  10266a:	48 c7 c0 e3 db 10 00 	mov    $0x10dbe3,%rax
  102671:	48 89 c1             	mov    %rax,%rcx
  102674:	ba 8e 00 00 00       	mov    $0x8e,%edx
  102679:	be 2e 00 00 00       	mov    $0x2e,%esi
  10267e:	48 8d 3d db 2a 01 00 	lea    0x12adb(%rip),%rdi        # 115160 <idtr>
  102685:	e8 28 f9 ff ff       	callq  101fb2 <_ZN4IDTR7SetGateEhhm>
  10268a:	48 c7 c0 ec db 10 00 	mov    $0x10dbec,%rax
  102691:	48 89 c1             	mov    %rax,%rcx
  102694:	ba 8e 00 00 00       	mov    $0x8e,%edx
  102699:	be 2f 00 00 00       	mov    $0x2f,%esi
  10269e:	48 8d 3d bb 2a 01 00 	lea    0x12abb(%rip),%rdi        # 115160 <idtr>
  1026a5:	e8 08 f9 ff ff       	callq  101fb2 <_ZN4IDTR7SetGateEhhm>
  1026aa:	c6 45 ff 00          	movb   $0x0,-0x1(%rbp)
  1026ae:	80 7d ff 1f          	cmpb   $0x1f,-0x1(%rbp)
  1026b2:	77 1e                	ja     1026d2 <_Z13InitialiseIDTv+0x64b>
  1026b4:	0f b6 45 ff          	movzbl -0x1(%rbp),%eax
  1026b8:	48 8d 35 89 f8 ff ff 	lea    -0x777(%rip),%rsi        # 101f48 <_ZL23DefaultExceptionHandlerP9Registers>
  1026bf:	89 c7                	mov    %eax,%edi
  1026c1:	e8 7c 02 00 00       	callq  102942 <_Z24RegisterInterruptHandlerhPFvP9RegistersE>
  1026c6:	0f b6 45 ff          	movzbl -0x1(%rbp),%eax
  1026ca:	83 c0 01             	add    $0x1,%eax
  1026cd:	88 45 ff             	mov    %al,-0x1(%rbp)
  1026d0:	eb dc                	jmp    1026ae <_Z13InitialiseIDTv+0x627>
  1026d2:	48 8d 3d 87 2a 01 00 	lea    0x12a87(%rip),%rdi        # 115160 <idtr>
  1026d9:	e8 8a f9 ff ff       	callq  102068 <_ZN4IDTR5FlushEv>
  1026de:	bf 21 00 00 00       	mov    $0x21,%edi
  1026e3:	e8 ca f0 ff ff       	callq  1017b2 <_Z5__inbt>
  1026e8:	88 45 fe             	mov    %al,-0x2(%rbp)
  1026eb:	e8 8b f1 ff ff       	callq  10187b <_Z7io_waitv>
  1026f0:	bf a1 00 00 00       	mov    $0xa1,%edi
  1026f5:	e8 b8 f0 ff ff       	callq  1017b2 <_Z5__inbt>
  1026fa:	88 45 fd             	mov    %al,-0x3(%rbp)
  1026fd:	e8 79 f1 ff ff       	callq  10187b <_Z7io_waitv>
  102702:	be 11 00 00 00       	mov    $0x11,%esi
  102707:	bf 20 00 00 00       	mov    $0x20,%edi
  10270c:	e8 04 f1 ff ff       	callq  101815 <_Z6__outbth>
  102711:	e8 65 f1 ff ff       	callq  10187b <_Z7io_waitv>
  102716:	be 11 00 00 00       	mov    $0x11,%esi
  10271b:	bf a0 00 00 00       	mov    $0xa0,%edi
  102720:	e8 f0 f0 ff ff       	callq  101815 <_Z6__outbth>
  102725:	e8 51 f1 ff ff       	callq  10187b <_Z7io_waitv>
  10272a:	be 20 00 00 00       	mov    $0x20,%esi
  10272f:	bf 21 00 00 00       	mov    $0x21,%edi
  102734:	e8 dc f0 ff ff       	callq  101815 <_Z6__outbth>
  102739:	e8 3d f1 ff ff       	callq  10187b <_Z7io_waitv>
  10273e:	be 28 00 00 00       	mov    $0x28,%esi
  102743:	bf a1 00 00 00       	mov    $0xa1,%edi
  102748:	e8 c8 f0 ff ff       	callq  101815 <_Z6__outbth>
  10274d:	e8 29 f1 ff ff       	callq  10187b <_Z7io_waitv>
  102752:	be 04 00 00 00       	mov    $0x4,%esi
  102757:	bf 21 00 00 00       	mov    $0x21,%edi
  10275c:	e8 b4 f0 ff ff       	callq  101815 <_Z6__outbth>
  102761:	e8 15 f1 ff ff       	callq  10187b <_Z7io_waitv>
  102766:	be 02 00 00 00       	mov    $0x2,%esi
  10276b:	bf a1 00 00 00       	mov    $0xa1,%edi
  102770:	e8 a0 f0 ff ff       	callq  101815 <_Z6__outbth>
  102775:	e8 01 f1 ff ff       	callq  10187b <_Z7io_waitv>
  10277a:	be 01 00 00 00       	mov    $0x1,%esi
  10277f:	bf 21 00 00 00       	mov    $0x21,%edi
  102784:	e8 8c f0 ff ff       	callq  101815 <_Z6__outbth>
  102789:	e8 ed f0 ff ff       	callq  10187b <_Z7io_waitv>
  10278e:	be 01 00 00 00       	mov    $0x1,%esi
  102793:	bf a1 00 00 00       	mov    $0xa1,%edi
  102798:	e8 78 f0 ff ff       	callq  101815 <_Z6__outbth>
  10279d:	e8 d9 f0 ff ff       	callq  10187b <_Z7io_waitv>
  1027a2:	0f b6 45 fe          	movzbl -0x2(%rbp),%eax
  1027a6:	89 c6                	mov    %eax,%esi
  1027a8:	bf 21 00 00 00       	mov    $0x21,%edi
  1027ad:	e8 63 f0 ff ff       	callq  101815 <_Z6__outbth>
  1027b2:	e8 c4 f0 ff ff       	callq  10187b <_Z7io_waitv>
  1027b7:	0f b6 45 fd          	movzbl -0x3(%rbp),%eax
  1027bb:	89 c6                	mov    %eax,%esi
  1027bd:	bf a1 00 00 00       	mov    $0xa1,%edi
  1027c2:	e8 4e f0 ff ff       	callq  101815 <_Z6__outbth>
  1027c7:	90                   	nop
  1027c8:	c9                   	leaveq 
  1027c9:	c3                   	retq   

00000000001027ca <_Z13InitialiseIRQv>:
  1027ca:	f3 0f 1e fa          	endbr64 
  1027ce:	55                   	push   %rbp
  1027cf:	48 89 e5             	mov    %rsp,%rbp
  1027d2:	53                   	push   %rbx
  1027d3:	48 83 ec 08          	sub    $0x8,%rsp
  1027d7:	bf e8 03 00 00       	mov    $0x3e8,%edi
  1027dc:	e8 29 f3 ff ff       	callq  101b0a <_Z9InitTimerj>
  1027e1:	e8 19 3b 00 00       	callq  1062ff <_Z12InitKeyboardv>
  1027e6:	e8 93 29 00 00       	callq  10517e <_ZN7Display13SharedDisplayEv>
  1027eb:	8b 58 2c             	mov    0x2c(%rax),%ebx
  1027ee:	e8 8b 29 00 00       	callq  10517e <_ZN7Display13SharedDisplayEv>
  1027f3:	8b 40 28             	mov    0x28(%rax),%eax
  1027f6:	89 de                	mov    %ebx,%esi
  1027f8:	89 c7                	mov    %eax,%edi
  1027fa:	e8 bf 36 00 00       	callq  105ebe <_Z15InitialiseMousejj>
  1027ff:	be f8 00 00 00       	mov    $0xf8,%esi
  102804:	bf 21 00 00 00       	mov    $0x21,%edi
  102809:	e8 07 f0 ff ff       	callq  101815 <_Z6__outbth>
  10280e:	be ff 00 00 00       	mov    $0xff,%esi
  102813:	bf a1 00 00 00       	mov    $0xa1,%edi
  102818:	e8 f8 ef ff ff       	callq  101815 <_Z6__outbth>
  10281d:	fb                   	sti    
  10281e:	90                   	nop
  10281f:	48 83 c4 08          	add    $0x8,%rsp
  102823:	5b                   	pop    %rbx
  102824:	5d                   	pop    %rbp
  102825:	c3                   	retq   

0000000000102826 <ISRHandler>:
  102826:	f3 0f 1e fa          	endbr64 
  10282a:	55                   	push   %rbp
  10282b:	48 89 e5             	mov    %rsp,%rbp
  10282e:	48 83 ec 20          	sub    $0x20,%rsp
  102832:	48 89 7d e8          	mov    %rdi,-0x18(%rbp)
  102836:	48 8b 45 e8          	mov    -0x18(%rbp),%rax
  10283a:	48 8b 80 80 01 00 00 	mov    0x180(%rax),%rax
  102841:	48 8d 14 c5 00 00 00 	lea    0x0(,%rax,8),%rdx
  102848:	00 
  102849:	48 8d 05 30 39 01 00 	lea    0x13930(%rip),%rax        # 116180 <_ZL18interrupt_handlers>
  102850:	48 8b 04 02          	mov    (%rdx,%rax,1),%rax
  102854:	48 85 c0             	test   %rax,%rax
  102857:	74 31                	je     10288a <ISRHandler+0x64>
  102859:	48 8b 45 e8          	mov    -0x18(%rbp),%rax
  10285d:	48 8b 80 80 01 00 00 	mov    0x180(%rax),%rax
  102864:	48 8d 14 c5 00 00 00 	lea    0x0(,%rax,8),%rdx
  10286b:	00 
  10286c:	48 8d 05 0d 39 01 00 	lea    0x1390d(%rip),%rax        # 116180 <_ZL18interrupt_handlers>
  102873:	48 8b 04 02          	mov    (%rdx,%rax,1),%rax
  102877:	48 89 45 f8          	mov    %rax,-0x8(%rbp)
  10287b:	48 8b 45 e8          	mov    -0x18(%rbp),%rax
  10287f:	48 8b 55 f8          	mov    -0x8(%rbp),%rdx
  102883:	48 89 c7             	mov    %rax,%rdi
  102886:	ff d2                	callq  *%rdx
  102888:	eb 22                	jmp    1028ac <ISRHandler+0x86>
  10288a:	48 8b 45 e8          	mov    -0x18(%rbp),%rax
  10288e:	48 8b 80 80 01 00 00 	mov    0x180(%rax),%rax
  102895:	48 89 c6             	mov    %rax,%rsi
  102898:	48 8d 3d 11 d9 00 00 	lea    0xd911(%rip),%rdi        # 1101b0 <__rodata+0x1b0>
  10289f:	b8 00 00 00 00       	mov    $0x0,%eax
  1028a4:	e8 5b 9f 00 00       	callq  10c804 <_Z7kprintfPKcz>
  1028a9:	f4                   	hlt    
  1028aa:	eb fd                	jmp    1028a9 <ISRHandler+0x83>
  1028ac:	c9                   	leaveq 
  1028ad:	c3                   	retq   

00000000001028ae <IRQHandler>:
  1028ae:	f3 0f 1e fa          	endbr64 
  1028b2:	55                   	push   %rbp
  1028b3:	48 89 e5             	mov    %rsp,%rbp
  1028b6:	48 83 ec 20          	sub    $0x20,%rsp
  1028ba:	48 89 7d e8          	mov    %rdi,-0x18(%rbp)
  1028be:	48 8b 45 e8          	mov    -0x18(%rbp),%rax
  1028c2:	48 8b 80 80 01 00 00 	mov    0x180(%rax),%rax
  1028c9:	48 8d 14 c5 00 00 00 	lea    0x0(,%rax,8),%rdx
  1028d0:	00 
  1028d1:	48 8d 05 a8 38 01 00 	lea    0x138a8(%rip),%rax        # 116180 <_ZL18interrupt_handlers>
  1028d8:	48 8b 04 02          	mov    (%rdx,%rax,1),%rax
  1028dc:	48 85 c0             	test   %rax,%rax
  1028df:	74 2f                	je     102910 <IRQHandler+0x62>
  1028e1:	48 8b 45 e8          	mov    -0x18(%rbp),%rax
  1028e5:	48 8b 80 80 01 00 00 	mov    0x180(%rax),%rax
  1028ec:	48 8d 14 c5 00 00 00 	lea    0x0(,%rax,8),%rdx
  1028f3:	00 
  1028f4:	48 8d 05 85 38 01 00 	lea    0x13885(%rip),%rax        # 116180 <_ZL18interrupt_handlers>
  1028fb:	48 8b 04 02          	mov    (%rdx,%rax,1),%rax
  1028ff:	48 89 45 f8          	mov    %rax,-0x8(%rbp)
  102903:	48 8b 45 e8          	mov    -0x18(%rbp),%rax
  102907:	48 8b 55 f8          	mov    -0x8(%rbp),%rdx
  10290b:	48 89 c7             	mov    %rax,%rdi
  10290e:	ff d2                	callq  *%rdx
  102910:	48 8b 45 e8          	mov    -0x18(%rbp),%rax
  102914:	48 8b 80 80 01 00 00 	mov    0x180(%rax),%rax
  10291b:	48 83 f8 27          	cmp    $0x27,%rax
  10291f:	76 0f                	jbe    102930 <IRQHandler+0x82>
  102921:	be 20 00 00 00       	mov    $0x20,%esi
  102926:	bf a0 00 00 00       	mov    $0xa0,%edi
  10292b:	e8 e5 ee ff ff       	callq  101815 <_Z6__outbth>
  102930:	be 20 00 00 00       	mov    $0x20,%esi
  102935:	bf 20 00 00 00       	mov    $0x20,%edi
  10293a:	e8 d6 ee ff ff       	callq  101815 <_Z6__outbth>
  10293f:	90                   	nop
  102940:	c9                   	leaveq 
  102941:	c3                   	retq   

0000000000102942 <_Z24RegisterInterruptHandlerhPFvP9RegistersE>:
  102942:	f3 0f 1e fa          	endbr64 
  102946:	55                   	push   %rbp
  102947:	48 89 e5             	mov    %rsp,%rbp
  10294a:	48 83 ec 10          	sub    $0x10,%rsp
  10294e:	89 f8                	mov    %edi,%eax
  102950:	48 89 75 f0          	mov    %rsi,-0x10(%rbp)
  102954:	88 45 fc             	mov    %al,-0x4(%rbp)
  102957:	0f b6 45 fc          	movzbl -0x4(%rbp),%eax
  10295b:	48 98                	cltq   
  10295d:	48 8d 0c c5 00 00 00 	lea    0x0(,%rax,8),%rcx
  102964:	00 
  102965:	48 8d 15 14 38 01 00 	lea    0x13814(%rip),%rdx        # 116180 <_ZL18interrupt_handlers>
  10296c:	48 8b 45 f0          	mov    -0x10(%rbp),%rax
  102970:	48 89 04 11          	mov    %rax,(%rcx,%rdx,1)
  102974:	90                   	nop
  102975:	c9                   	leaveq 
  102976:	c3                   	retq   

0000000000102977 <_Z17get_stack_pointerv>:
  102977:	f3 0f 1e fa          	endbr64 
  10297b:	55                   	push   %rbp
  10297c:	48 89 e5             	mov    %rsp,%rbp
  10297f:	48 89 e0             	mov    %rsp,%rax
  102982:	90                   	nop
  102983:	5d                   	pop    %rbp
  102984:	c3                   	retq   

0000000000102985 <_Z16get_base_pointerv>:
  102985:	f3 0f 1e fa          	endbr64 
  102989:	55                   	push   %rbp
  10298a:	48 89 e5             	mov    %rsp,%rbp
  10298d:	48 89 e8             	mov    %rbp,%rax
  102990:	90                   	nop
  102991:	5d                   	pop    %rbp
  102992:	c3                   	retq   

0000000000102993 <_Z15InitialiseShellv>:
  102993:	f3 0f 1e fa          	endbr64 
  102997:	55                   	push   %rbp
  102998:	48 89 e5             	mov    %rsp,%rbp
  10299b:	ba ff 00 00 00       	mov    $0xff,%edx
  1029a0:	be 00 00 00 00       	mov    $0x0,%esi
  1029a5:	48 8d 3d d4 3f 01 00 	lea    0x13fd4(%rip),%rdi        # 116980 <working_dir>
  1029ac:	e8 92 a2 00 00       	callq  10cc43 <_Z6memsetPvim>
  1029b1:	c6 05 c8 3f 01 00 7e 	movb   $0x7e,0x13fc8(%rip)        # 116980 <working_dir>
  1029b8:	90                   	nop
  1029b9:	5d                   	pop    %rbp
  1029ba:	c3                   	retq   

00000000001029bb <_Z13shell_commandPc>:
  1029bb:	f3 0f 1e fa          	endbr64 
  1029bf:	55                   	push   %rbp
  1029c0:	48 89 e5             	mov    %rsp,%rbp
  1029c3:	48 83 ec 10          	sub    $0x10,%rsp
  1029c7:	48 89 7d f8          	mov    %rdi,-0x8(%rbp)
  1029cb:	8b 05 af 40 01 00    	mov    0x140af(%rip),%eax        # 116a80 <_ZL5state>
  1029d1:	85 c0                	test   %eax,%eax
  1029d3:	74 07                	je     1029dc <_Z13shell_commandPc+0x21>
  1029d5:	83 f8 01             	cmp    $0x1,%eax
  1029d8:	74 10                	je     1029ea <_Z13shell_commandPc+0x2f>
  1029da:	eb 1b                	jmp    1029f7 <_Z13shell_commandPc+0x3c>
  1029dc:	48 8b 45 f8          	mov    -0x8(%rbp),%rax
  1029e0:	48 89 c7             	mov    %rax,%rdi
  1029e3:	e8 2a 00 00 00       	callq  102a12 <_Z12command_modePc>
  1029e8:	eb 0d                	jmp    1029f7 <_Z13shell_commandPc+0x3c>
  1029ea:	48 8b 45 f8          	mov    -0x8(%rbp),%rax
  1029ee:	48 89 c7             	mov    %rax,%rdi
  1029f1:	e8 17 07 00 00       	callq  10310d <_Z15calculator_modePc>
  1029f6:	90                   	nop
  1029f7:	48 8d 35 82 3f 01 00 	lea    0x13f82(%rip),%rsi        # 116980 <working_dir>
  1029fe:	48 8d 3d 13 d9 00 00 	lea    0xd913(%rip),%rdi        # 110318 <__rodata+0x318>
  102a05:	b8 00 00 00 00       	mov    $0x0,%eax
  102a0a:	e8 f5 9d 00 00       	callq  10c804 <_Z7kprintfPKcz>
  102a0f:	90                   	nop
  102a10:	c9                   	leaveq 
  102a11:	c3                   	retq   

0000000000102a12 <_Z12command_modePc>:
  102a12:	f3 0f 1e fa          	endbr64 
  102a16:	55                   	push   %rbp
  102a17:	48 89 e5             	mov    %rsp,%rbp
  102a1a:	48 81 ec c0 00 00 00 	sub    $0xc0,%rsp
  102a21:	48 89 bd 48 ff ff ff 	mov    %rdi,-0xb8(%rbp)
  102a28:	48 8b 85 48 ff ff ff 	mov    -0xb8(%rbp),%rax
  102a2f:	48 8d 35 f1 d8 00 00 	lea    0xd8f1(%rip),%rsi        # 110327 <__rodata+0x327>
  102a36:	48 89 c7             	mov    %rax,%rdi
  102a39:	e8 0b 08 00 00       	callq  103249 <_Z13check_commandPcPKc>
  102a3e:	85 c0                	test   %eax,%eax
  102a40:	0f 95 c0             	setne  %al
  102a43:	84 c0                	test   %al,%al
  102a45:	0f 84 9e 00 00 00    	je     102ae9 <_Z12command_modePc+0xd7>
  102a4b:	48 8d 3d de d8 00 00 	lea    0xd8de(%rip),%rdi        # 110330 <__rodata+0x330>
  102a52:	b8 00 00 00 00       	mov    $0x0,%eax
  102a57:	e8 a8 9d 00 00       	callq  10c804 <_Z7kprintfPKcz>
  102a5c:	48 8d 3d 0d d9 00 00 	lea    0xd90d(%rip),%rdi        # 110370 <__rodata+0x370>
  102a63:	b8 00 00 00 00       	mov    $0x0,%eax
  102a68:	e8 97 9d 00 00       	callq  10c804 <_Z7kprintfPKcz>
  102a6d:	48 8d 3d 1c d9 00 00 	lea    0xd91c(%rip),%rdi        # 110390 <__rodata+0x390>
  102a74:	b8 00 00 00 00       	mov    $0x0,%eax
  102a79:	e8 86 9d 00 00       	callq  10c804 <_Z7kprintfPKcz>
  102a7e:	48 8d 3d 53 d9 00 00 	lea    0xd953(%rip),%rdi        # 1103d8 <__rodata+0x3d8>
  102a85:	b8 00 00 00 00       	mov    $0x0,%eax
  102a8a:	e8 75 9d 00 00       	callq  10c804 <_Z7kprintfPKcz>
  102a8f:	48 8d 3d 8a d9 00 00 	lea    0xd98a(%rip),%rdi        # 110420 <__rodata+0x420>
  102a96:	b8 00 00 00 00       	mov    $0x0,%eax
  102a9b:	e8 64 9d 00 00       	callq  10c804 <_Z7kprintfPKcz>
  102aa0:	48 8d 3d a9 d9 00 00 	lea    0xd9a9(%rip),%rdi        # 110450 <__rodata+0x450>
  102aa7:	b8 00 00 00 00       	mov    $0x0,%eax
  102aac:	e8 53 9d 00 00       	callq  10c804 <_Z7kprintfPKcz>
  102ab1:	48 8d 3d e0 d9 00 00 	lea    0xd9e0(%rip),%rdi        # 110498 <__rodata+0x498>
  102ab8:	b8 00 00 00 00       	mov    $0x0,%eax
  102abd:	e8 42 9d 00 00       	callq  10c804 <_Z7kprintfPKcz>
  102ac2:	48 8d 3d 0f da 00 00 	lea    0xda0f(%rip),%rdi        # 1104d8 <__rodata+0x4d8>
  102ac9:	b8 00 00 00 00       	mov    $0x0,%eax
  102ace:	e8 31 9d 00 00       	callq  10c804 <_Z7kprintfPKcz>
  102ad3:	48 8d 3d 42 da 00 00 	lea    0xda42(%rip),%rdi        # 11051c <__rodata+0x51c>
  102ada:	b8 00 00 00 00       	mov    $0x0,%eax
  102adf:	e8 20 9d 00 00       	callq  10c804 <_Z7kprintfPKcz>
  102ae4:	e9 21 06 00 00       	jmpq   10310a <_Z12command_modePc+0x6f8>
  102ae9:	48 8b 85 48 ff ff ff 	mov    -0xb8(%rbp),%rax
  102af0:	48 8d 35 42 da 00 00 	lea    0xda42(%rip),%rsi        # 110539 <__rodata+0x539>
  102af7:	48 89 c7             	mov    %rax,%rdi
  102afa:	e8 4a 07 00 00       	callq  103249 <_Z13check_commandPcPKc>
  102aff:	85 c0                	test   %eax,%eax
  102b01:	0f 95 c0             	setne  %al
  102b04:	84 c0                	test   %al,%al
  102b06:	74 45                	je     102b4d <_Z12command_modePc+0x13b>
  102b08:	48 8d 45 88          	lea    -0x78(%rbp),%rax
  102b0c:	48 89 c2             	mov    %rax,%rdx
  102b0f:	be 01 00 00 00       	mov    $0x1,%esi
  102b14:	bf 00 10 00 00       	mov    $0x1000,%edi
  102b19:	e8 ab a1 00 00       	callq  10ccc9 <_Z11kmalloc_intmiPm>
  102b1e:	48 89 45 90          	mov    %rax,-0x70(%rbp)
  102b22:	48 8b 55 88          	mov    -0x78(%rbp),%rdx
  102b26:	48 8b 45 90          	mov    -0x70(%rbp),%rax
  102b2a:	48 89 c6             	mov    %rax,%rsi
  102b2d:	48 8d 3d 0c da 00 00 	lea    0xda0c(%rip),%rdi        # 110540 <__rodata+0x540>
  102b34:	b8 00 00 00 00       	mov    $0x0,%eax
  102b39:	e8 c6 9c 00 00       	callq  10c804 <_Z7kprintfPKcz>
  102b3e:	c7 05 38 3f 01 00 00 	movl   $0x0,0x13f38(%rip)        # 116a80 <_ZL5state>
  102b45:	00 00 00 
  102b48:	e9 bd 05 00 00       	jmpq   10310a <_Z12command_modePc+0x6f8>
  102b4d:	48 8b 85 48 ff ff ff 	mov    -0xb8(%rbp),%rax
  102b54:	48 8d 35 06 da 00 00 	lea    0xda06(%rip),%rsi        # 110561 <__rodata+0x561>
  102b5b:	48 89 c7             	mov    %rax,%rdi
  102b5e:	e8 e6 06 00 00       	callq  103249 <_Z13check_commandPcPKc>
  102b63:	85 c0                	test   %eax,%eax
  102b65:	0f 95 c0             	setne  %al
  102b68:	84 c0                	test   %al,%al
  102b6a:	74 25                	je     102b91 <_Z12command_modePc+0x17f>
  102b6c:	e8 44 27 00 00       	callq  1052b5 <_Z6clrscrv>
  102b71:	48 8d 3d f0 d9 00 00 	lea    0xd9f0(%rip),%rdi        # 110568 <__rodata+0x568>
  102b78:	b8 00 00 00 00       	mov    $0x0,%eax
  102b7d:	e8 82 9c 00 00       	callq  10c804 <_Z7kprintfPKcz>
  102b82:	c7 05 f4 3e 01 00 00 	movl   $0x0,0x13ef4(%rip)        # 116a80 <_ZL5state>
  102b89:	00 00 00 
  102b8c:	e9 79 05 00 00       	jmpq   10310a <_Z12command_modePc+0x6f8>
  102b91:	48 8b 85 48 ff ff ff 	mov    -0xb8(%rbp),%rax
  102b98:	48 8d 35 ea d9 00 00 	lea    0xd9ea(%rip),%rsi        # 110589 <__rodata+0x589>
  102b9f:	48 89 c7             	mov    %rax,%rdi
  102ba2:	e8 a2 06 00 00       	callq  103249 <_Z13check_commandPcPKc>
  102ba7:	85 c0                	test   %eax,%eax
  102ba9:	0f 95 c0             	setne  %al
  102bac:	84 c0                	test   %al,%al
  102bae:	74 20                	je     102bd0 <_Z12command_modePc+0x1be>
  102bb0:	48 8d 3d d9 d9 00 00 	lea    0xd9d9(%rip),%rdi        # 110590 <__rodata+0x590>
  102bb7:	b8 00 00 00 00       	mov    $0x0,%eax
  102bbc:	e8 43 9c 00 00       	callq  10c804 <_Z7kprintfPKcz>
  102bc1:	c7 05 b5 3e 01 00 01 	movl   $0x1,0x13eb5(%rip)        # 116a80 <_ZL5state>
  102bc8:	00 00 00 
  102bcb:	e9 3a 05 00 00       	jmpq   10310a <_Z12command_modePc+0x6f8>
  102bd0:	48 8b 85 48 ff ff ff 	mov    -0xb8(%rbp),%rax
  102bd7:	ba 03 00 00 00       	mov    $0x3,%edx
  102bdc:	48 8d 35 ef d9 00 00 	lea    0xd9ef(%rip),%rsi        # 1105d2 <__rodata+0x5d2>
  102be3:	48 89 c7             	mov    %rax,%rdi
  102be6:	e8 8f 06 00 00       	callq  10327a <_Z19check_short_commandPcPKci>
  102beb:	85 c0                	test   %eax,%eax
  102bed:	0f 95 c0             	setne  %al
  102bf0:	84 c0                	test   %al,%al
  102bf2:	0f 84 10 02 00 00    	je     102e08 <_Z12command_modePc+0x3f6>
  102bf8:	48 8b 85 48 ff ff ff 	mov    -0xb8(%rbp),%rax
  102bff:	48 89 c7             	mov    %rax,%rdi
  102c02:	e8 3d 98 00 00       	callq  10c444 <_Z6strlenPc>
  102c07:	48 83 f8 03          	cmp    $0x3,%rax
  102c0b:	0f 97 c0             	seta   %al
  102c0e:	84 c0                	test   %al,%al
  102c10:	0f 84 f4 04 00 00    	je     10310a <_Z12command_modePc+0x6f8>
  102c16:	48 8b 85 48 ff ff ff 	mov    -0xb8(%rbp),%rax
  102c1d:	48 83 c0 03          	add    $0x3,%rax
  102c21:	48 89 45 b8          	mov    %rax,-0x48(%rbp)
  102c25:	48 8d 3d 54 3d 01 00 	lea    0x13d54(%rip),%rdi        # 116980 <working_dir>
  102c2c:	e8 13 98 00 00       	callq  10c444 <_Z6strlenPc>
  102c31:	48 89 45 b0          	mov    %rax,-0x50(%rbp)
  102c35:	48 8b 45 b8          	mov    -0x48(%rbp),%rax
  102c39:	48 8d 35 96 d9 00 00 	lea    0xd996(%rip),%rsi        # 1105d6 <__rodata+0x5d6>
  102c40:	48 89 c7             	mov    %rax,%rdi
  102c43:	e8 1a 98 00 00       	callq  10c462 <_Z6strcmpPcS_>
  102c48:	85 c0                	test   %eax,%eax
  102c4a:	0f 94 c0             	sete   %al
  102c4d:	84 c0                	test   %al,%al
  102c4f:	0f 85 b5 04 00 00    	jne    10310a <_Z12command_modePc+0x6f8>
  102c55:	48 8b 45 b8          	mov    -0x48(%rbp),%rax
  102c59:	48 8d 35 78 d9 00 00 	lea    0xd978(%rip),%rsi        # 1105d8 <__rodata+0x5d8>
  102c60:	48 89 c7             	mov    %rax,%rdi
  102c63:	e8 fa 97 00 00       	callq  10c462 <_Z6strcmpPcS_>
  102c68:	85 c0                	test   %eax,%eax
  102c6a:	0f 94 c0             	sete   %al
  102c6d:	84 c0                	test   %al,%al
  102c6f:	74 74                	je     102ce5 <_Z12command_modePc+0x2d3>
  102c71:	48 8d 35 63 d9 00 00 	lea    0xd963(%rip),%rsi        # 1105db <__rodata+0x5db>
  102c78:	48 8d 3d 01 3d 01 00 	lea    0x13d01(%rip),%rdi        # 116980 <working_dir>
  102c7f:	e8 de 97 00 00       	callq  10c462 <_Z6strcmpPcS_>
  102c84:	85 c0                	test   %eax,%eax
  102c86:	0f 94 c0             	sete   %al
  102c89:	84 c0                	test   %al,%al
  102c8b:	0f 85 79 04 00 00    	jne    10310a <_Z12command_modePc+0x6f8>
  102c91:	48 c7 45 f8 00 00 00 	movq   $0x0,-0x8(%rbp)
  102c98:	00 
  102c99:	48 c7 45 f0 00 00 00 	movq   $0x0,-0x10(%rbp)
  102ca0:	00 
  102ca1:	48 8b 45 f0          	mov    -0x10(%rbp),%rax
  102ca5:	48 3b 45 b0          	cmp    -0x50(%rbp),%rax
  102ca9:	73 24                	jae    102ccf <_Z12command_modePc+0x2bd>
  102cab:	48 8d 15 ce 3c 01 00 	lea    0x13cce(%rip),%rdx        # 116980 <working_dir>
  102cb2:	48 8b 45 f0          	mov    -0x10(%rbp),%rax
  102cb6:	48 01 d0             	add    %rdx,%rax
  102cb9:	0f b6 00             	movzbl (%rax),%eax
  102cbc:	3c 2f                	cmp    $0x2f,%al
  102cbe:	75 08                	jne    102cc8 <_Z12command_modePc+0x2b6>
  102cc0:	48 8b 45 f0          	mov    -0x10(%rbp),%rax
  102cc4:	48 89 45 f8          	mov    %rax,-0x8(%rbp)
  102cc8:	48 83 45 f0 01       	addq   $0x1,-0x10(%rbp)
  102ccd:	eb d2                	jmp    102ca1 <_Z12command_modePc+0x28f>
  102ccf:	48 8d 15 aa 3c 01 00 	lea    0x13caa(%rip),%rdx        # 116980 <working_dir>
  102cd6:	48 8b 45 f8          	mov    -0x8(%rbp),%rax
  102cda:	48 01 d0             	add    %rdx,%rax
  102cdd:	c6 00 00             	movb   $0x0,(%rax)
  102ce0:	e9 25 04 00 00       	jmpq   10310a <_Z12command_modePc+0x6f8>
  102ce5:	48 8b 05 14 49 01 00 	mov    0x14914(%rip),%rax        # 117600 <filesystems>
  102cec:	48 89 45 a8          	mov    %rax,-0x58(%rbp)
  102cf0:	48 8b 45 a8          	mov    -0x58(%rbp),%rax
  102cf4:	48 8b 00             	mov    (%rax),%rax
  102cf7:	48 83 c0 28          	add    $0x28,%rax
  102cfb:	48 8b 10             	mov    (%rax),%rdx
  102cfe:	48 8b 45 a8          	mov    -0x58(%rbp),%rax
  102d02:	48 8d 35 77 3c 01 00 	lea    0x13c77(%rip),%rsi        # 116980 <working_dir>
  102d09:	48 89 c7             	mov    %rax,%rdi
  102d0c:	ff d2                	callq  *%rdx
  102d0e:	48 89 45 a0          	mov    %rax,-0x60(%rbp)
  102d12:	48 83 7d a0 00       	cmpq   $0x0,-0x60(%rbp)
  102d17:	0f 84 d5 00 00 00    	je     102df2 <_Z12command_modePc+0x3e0>
  102d1d:	48 c7 45 e8 00 00 00 	movq   $0x0,-0x18(%rbp)
  102d24:	00 
  102d25:	48 8b 45 e8          	mov    -0x18(%rbp),%rax
  102d29:	48 3b 45 a0          	cmp    -0x60(%rbp),%rax
  102d2d:	0f 83 d7 03 00 00    	jae    10310a <_Z12command_modePc+0x6f8>
  102d33:	48 8b 45 a8          	mov    -0x58(%rbp),%rax
  102d37:	48 8b 00             	mov    (%rax),%rax
  102d3a:	48 83 c0 30          	add    $0x30,%rax
  102d3e:	48 8b 08             	mov    (%rax),%rcx
  102d41:	48 8b 55 e8          	mov    -0x18(%rbp),%rdx
  102d45:	48 8b 45 a8          	mov    -0x58(%rbp),%rax
  102d49:	48 8d 35 30 3c 01 00 	lea    0x13c30(%rip),%rsi        # 116980 <working_dir>
  102d50:	48 89 c7             	mov    %rax,%rdi
  102d53:	ff d1                	callq  *%rcx
  102d55:	48 89 45 98          	mov    %rax,-0x68(%rbp)
  102d59:	48 8b 45 98          	mov    -0x68(%rbp),%rax
  102d5d:	48 8b 00             	mov    (%rax),%rax
  102d60:	48 83 c0 18          	add    $0x18,%rax
  102d64:	48 8b 10             	mov    (%rax),%rdx
  102d67:	48 8b 45 98          	mov    -0x68(%rbp),%rax
  102d6b:	48 89 c7             	mov    %rax,%rdi
  102d6e:	ff d2                	callq  *%rdx
  102d70:	83 e0 10             	and    $0x10,%eax
  102d73:	83 f8 10             	cmp    $0x10,%eax
  102d76:	0f 95 c0             	setne  %al
  102d79:	84 c0                	test   %al,%al
  102d7b:	74 13                	je     102d90 <_Z12command_modePc+0x37e>
  102d7d:	48 8d 3d 5c d8 00 00 	lea    0xd85c(%rip),%rdi        # 1105e0 <__rodata+0x5e0>
  102d84:	b8 00 00 00 00       	mov    $0x0,%eax
  102d89:	e8 76 9a 00 00       	callq  10c804 <_Z7kprintfPKcz>
  102d8e:	eb 58                	jmp    102de8 <_Z12command_modePc+0x3d6>
  102d90:	48 8b 45 98          	mov    -0x68(%rbp),%rax
  102d94:	48 8b 00             	mov    (%rax),%rax
  102d97:	48 83 c0 08          	add    $0x8,%rax
  102d9b:	48 8b 10             	mov    (%rax),%rdx
  102d9e:	48 8b 45 98          	mov    -0x68(%rbp),%rax
  102da2:	48 89 c7             	mov    %rax,%rdi
  102da5:	ff d2                	callq  *%rdx
  102da7:	48 89 c2             	mov    %rax,%rdx
  102daa:	48 8b 45 b8          	mov    -0x48(%rbp),%rax
  102dae:	48 89 c6             	mov    %rax,%rsi
  102db1:	48 89 d7             	mov    %rdx,%rdi
  102db4:	e8 a9 96 00 00       	callq  10c462 <_Z6strcmpPcS_>
  102db9:	85 c0                	test   %eax,%eax
  102dbb:	0f 94 c0             	sete   %al
  102dbe:	84 c0                	test   %al,%al
  102dc0:	74 26                	je     102de8 <_Z12command_modePc+0x3d6>
  102dc2:	48 8b 45 98          	mov    -0x68(%rbp),%rax
  102dc6:	48 8b 00             	mov    (%rax),%rax
  102dc9:	48 83 c0 10          	add    $0x10,%rax
  102dcd:	48 8b 10             	mov    (%rax),%rdx
  102dd0:	48 8b 45 98          	mov    -0x68(%rbp),%rax
  102dd4:	48 89 c7             	mov    %rax,%rdi
  102dd7:	ff d2                	callq  *%rdx
  102dd9:	48 89 c6             	mov    %rax,%rsi
  102ddc:	48 8d 3d 9d 3b 01 00 	lea    0x13b9d(%rip),%rdi        # 116980 <working_dir>
  102de3:	e8 14 97 00 00       	callq  10c4fc <_Z6strcpyPcPKc>
  102de8:	48 83 45 e8 01       	addq   $0x1,-0x18(%rbp)
  102ded:	e9 33 ff ff ff       	jmpq   102d25 <_Z12command_modePc+0x313>
  102df2:	48 8d 3d 08 d8 00 00 	lea    0xd808(%rip),%rdi        # 110601 <__rodata+0x601>
  102df9:	b8 00 00 00 00       	mov    $0x0,%eax
  102dfe:	e8 01 9a 00 00       	callq  10c804 <_Z7kprintfPKcz>
  102e03:	e9 02 03 00 00       	jmpq   10310a <_Z12command_modePc+0x6f8>
  102e08:	48 8b 85 48 ff ff ff 	mov    -0xb8(%rbp),%rax
  102e0f:	48 8d 35 07 d8 00 00 	lea    0xd807(%rip),%rsi        # 11061d <__rodata+0x61d>
  102e16:	48 89 c7             	mov    %rax,%rdi
  102e19:	e8 2b 04 00 00       	callq  103249 <_Z13check_commandPcPKc>
  102e1e:	85 c0                	test   %eax,%eax
  102e20:	0f 95 c0             	setne  %al
  102e23:	84 c0                	test   %al,%al
  102e25:	74 1d                	je     102e44 <_Z12command_modePc+0x432>
  102e27:	48 8d 35 52 3b 01 00 	lea    0x13b52(%rip),%rsi        # 116980 <working_dir>
  102e2e:	48 8d 3d eb d7 00 00 	lea    0xd7eb(%rip),%rdi        # 110620 <__rodata+0x620>
  102e35:	b8 00 00 00 00       	mov    $0x0,%eax
  102e3a:	e8 c5 99 00 00       	callq  10c804 <_Z7kprintfPKcz>
  102e3f:	e9 c6 02 00 00       	jmpq   10310a <_Z12command_modePc+0x6f8>
  102e44:	48 8b 85 48 ff ff ff 	mov    -0xb8(%rbp),%rax
  102e4b:	48 8d 35 ed d7 00 00 	lea    0xd7ed(%rip),%rsi        # 11063f <__rodata+0x63f>
  102e52:	48 89 c7             	mov    %rax,%rdi
  102e55:	e8 ef 03 00 00       	callq  103249 <_Z13check_commandPcPKc>
  102e5a:	85 c0                	test   %eax,%eax
  102e5c:	0f 95 c0             	setne  %al
  102e5f:	84 c0                	test   %al,%al
  102e61:	0f 84 0e 01 00 00    	je     102f75 <_Z12command_modePc+0x563>
  102e67:	48 8b 05 92 47 01 00 	mov    0x14792(%rip),%rax        # 117600 <filesystems>
  102e6e:	48 89 45 d0          	mov    %rax,-0x30(%rbp)
  102e72:	48 8b 45 d0          	mov    -0x30(%rbp),%rax
  102e76:	48 8b 00             	mov    (%rax),%rax
  102e79:	48 83 c0 28          	add    $0x28,%rax
  102e7d:	48 8b 10             	mov    (%rax),%rdx
  102e80:	48 8b 45 d0          	mov    -0x30(%rbp),%rax
  102e84:	48 8d 35 f5 3a 01 00 	lea    0x13af5(%rip),%rsi        # 116980 <working_dir>
  102e8b:	48 89 c7             	mov    %rax,%rdi
  102e8e:	ff d2                	callq  *%rdx
  102e90:	48 89 45 c8          	mov    %rax,-0x38(%rbp)
  102e94:	48 c7 45 e0 00 00 00 	movq   $0x0,-0x20(%rbp)
  102e9b:	00 
  102e9c:	48 8b 45 e0          	mov    -0x20(%rbp),%rax
  102ea0:	48 3b 45 c8          	cmp    -0x38(%rbp),%rax
  102ea4:	0f 83 ab 00 00 00    	jae    102f55 <_Z12command_modePc+0x543>
  102eaa:	48 8b 45 d0          	mov    -0x30(%rbp),%rax
  102eae:	48 8b 00             	mov    (%rax),%rax
  102eb1:	48 83 c0 30          	add    $0x30,%rax
  102eb5:	48 8b 08             	mov    (%rax),%rcx
  102eb8:	48 8b 55 e0          	mov    -0x20(%rbp),%rdx
  102ebc:	48 8b 45 d0          	mov    -0x30(%rbp),%rax
  102ec0:	48 8d 35 b9 3a 01 00 	lea    0x13ab9(%rip),%rsi        # 116980 <working_dir>
  102ec7:	48 89 c7             	mov    %rax,%rdi
  102eca:	ff d1                	callq  *%rcx
  102ecc:	48 89 45 c0          	mov    %rax,-0x40(%rbp)
  102ed0:	48 8b 45 c0          	mov    -0x40(%rbp),%rax
  102ed4:	48 8b 00             	mov    (%rax),%rax
  102ed7:	48 83 c0 18          	add    $0x18,%rax
  102edb:	48 8b 10             	mov    (%rax),%rdx
  102ede:	48 8b 45 c0          	mov    -0x40(%rbp),%rax
  102ee2:	48 89 c7             	mov    %rax,%rdi
  102ee5:	ff d2                	callq  *%rdx
  102ee7:	83 e0 10             	and    $0x10,%eax
  102eea:	85 c0                	test   %eax,%eax
  102eec:	0f 95 c0             	setne  %al
  102eef:	84 c0                	test   %al,%al
  102ef1:	74 2d                	je     102f20 <_Z12command_modePc+0x50e>
  102ef3:	48 8b 45 c0          	mov    -0x40(%rbp),%rax
  102ef7:	48 8b 00             	mov    (%rax),%rax
  102efa:	48 83 c0 08          	add    $0x8,%rax
  102efe:	48 8b 10             	mov    (%rax),%rdx
  102f01:	48 8b 45 c0          	mov    -0x40(%rbp),%rax
  102f05:	48 89 c7             	mov    %rax,%rdi
  102f08:	ff d2                	callq  *%rdx
  102f0a:	48 89 c6             	mov    %rax,%rsi
  102f0d:	48 8d 3d 2e d7 00 00 	lea    0xd72e(%rip),%rdi        # 110642 <__rodata+0x642>
  102f14:	b8 00 00 00 00       	mov    $0x0,%eax
  102f19:	e8 e6 98 00 00       	callq  10c804 <_Z7kprintfPKcz>
  102f1e:	eb 2b                	jmp    102f4b <_Z12command_modePc+0x539>
  102f20:	48 8b 45 c0          	mov    -0x40(%rbp),%rax
  102f24:	48 8b 00             	mov    (%rax),%rax
  102f27:	48 83 c0 08          	add    $0x8,%rax
  102f2b:	48 8b 10             	mov    (%rax),%rdx
  102f2e:	48 8b 45 c0          	mov    -0x40(%rbp),%rax
  102f32:	48 89 c7             	mov    %rax,%rdi
  102f35:	ff d2                	callq  *%rdx
  102f37:	48 89 c6             	mov    %rax,%rsi
  102f3a:	48 8d 3d 06 d7 00 00 	lea    0xd706(%rip),%rdi        # 110647 <__rodata+0x647>
  102f41:	b8 00 00 00 00       	mov    $0x0,%eax
  102f46:	e8 b9 98 00 00       	callq  10c804 <_Z7kprintfPKcz>
  102f4b:	48 83 45 e0 01       	addq   $0x1,-0x20(%rbp)
  102f50:	e9 47 ff ff ff       	jmpq   102e9c <_Z12command_modePc+0x48a>
  102f55:	48 8d 3d ef d6 00 00 	lea    0xd6ef(%rip),%rdi        # 11064b <__rodata+0x64b>
  102f5c:	b8 00 00 00 00       	mov    $0x0,%eax
  102f61:	e8 9e 98 00 00       	callq  10c804 <_Z7kprintfPKcz>
  102f66:	c7 05 10 3b 01 00 00 	movl   $0x0,0x13b10(%rip)        # 116a80 <_ZL5state>
  102f6d:	00 00 00 
  102f70:	e9 95 01 00 00       	jmpq   10310a <_Z12command_modePc+0x6f8>
  102f75:	48 8b 85 48 ff ff ff 	mov    -0xb8(%rbp),%rax
  102f7c:	ba 05 00 00 00       	mov    $0x5,%edx
  102f81:	48 8d 35 c5 d6 00 00 	lea    0xd6c5(%rip),%rsi        # 11064d <__rodata+0x64d>
  102f88:	48 89 c7             	mov    %rax,%rdi
  102f8b:	e8 ea 02 00 00       	callq  10327a <_Z19check_short_commandPcPKci>
  102f90:	85 c0                	test   %eax,%eax
  102f92:	0f 95 c0             	setne  %al
  102f95:	84 c0                	test   %al,%al
  102f97:	0f 84 48 01 00 00    	je     1030e5 <_Z12command_modePc+0x6d3>
  102f9d:	48 8b 85 48 ff ff ff 	mov    -0xb8(%rbp),%rax
  102fa4:	48 83 c0 06          	add    $0x6,%rax
  102fa8:	48 89 45 d8          	mov    %rax,-0x28(%rbp)
  102fac:	48 8b 45 d8          	mov    -0x28(%rbp),%rax
  102fb0:	ba 04 00 00 00       	mov    $0x4,%edx
  102fb5:	48 8d 35 97 d6 00 00 	lea    0xd697(%rip),%rsi        # 110653 <__rodata+0x653>
  102fbc:	48 89 c7             	mov    %rax,%rdi
  102fbf:	e8 b6 02 00 00       	callq  10327a <_Z19check_short_commandPcPKci>
  102fc4:	85 c0                	test   %eax,%eax
  102fc6:	0f 95 c0             	setne  %al
  102fc9:	84 c0                	test   %al,%al
  102fcb:	74 33                	je     103000 <_Z12command_modePc+0x5ee>
  102fcd:	48 8d 85 70 ff ff ff 	lea    -0x90(%rbp),%rax
  102fd4:	48 89 c7             	mov    %rax,%rdi
  102fd7:	e8 c5 e9 ff ff       	callq  1019a1 <_Z10GetTimeRTCP2tm>
  102fdc:	8b 4d 84             	mov    -0x7c(%rbp),%ecx
  102fdf:	8b 55 80             	mov    -0x80(%rbp),%edx
  102fe2:	8b 85 7c ff ff ff    	mov    -0x84(%rbp),%eax
  102fe8:	89 c6                	mov    %eax,%esi
  102fea:	48 8d 3d 67 d6 00 00 	lea    0xd667(%rip),%rdi        # 110658 <__rodata+0x658>
  102ff1:	b8 00 00 00 00       	mov    $0x0,%eax
  102ff6:	e8 09 98 00 00       	callq  10c804 <_Z7kprintfPKcz>
  102ffb:	e9 00 01 00 00       	jmpq   103100 <_Z12command_modePc+0x6ee>
  103000:	48 8b 45 d8          	mov    -0x28(%rbp),%rax
  103004:	ba 04 00 00 00       	mov    $0x4,%edx
  103009:	48 8d 35 58 d6 00 00 	lea    0xd658(%rip),%rsi        # 110668 <__rodata+0x668>
  103010:	48 89 c7             	mov    %rax,%rdi
  103013:	e8 62 02 00 00       	callq  10327a <_Z19check_short_commandPcPKci>
  103018:	85 c0                	test   %eax,%eax
  10301a:	0f 95 c0             	setne  %al
  10301d:	84 c0                	test   %al,%al
  10301f:	74 39                	je     10305a <_Z12command_modePc+0x648>
  103021:	48 8d 85 50 ff ff ff 	lea    -0xb0(%rbp),%rax
  103028:	48 89 c7             	mov    %rax,%rdi
  10302b:	e8 71 e9 ff ff       	callq  1019a1 <_Z10GetTimeRTCP2tm>
  103030:	8b 8d 58 ff ff ff    	mov    -0xa8(%rbp),%ecx
  103036:	8b 95 54 ff ff ff    	mov    -0xac(%rbp),%edx
  10303c:	8b 85 50 ff ff ff    	mov    -0xb0(%rbp),%eax
  103042:	89 c6                	mov    %eax,%esi
  103044:	48 8d 3d 22 d6 00 00 	lea    0xd622(%rip),%rdi        # 11066d <__rodata+0x66d>
  10304b:	b8 00 00 00 00       	mov    $0x0,%eax
  103050:	e8 af 97 00 00       	callq  10c804 <_Z7kprintfPKcz>
  103055:	e9 a6 00 00 00       	jmpq   103100 <_Z12command_modePc+0x6ee>
  10305a:	48 8b 45 d8          	mov    -0x28(%rbp),%rax
  10305e:	ba 04 00 00 00       	mov    $0x4,%edx
  103063:	48 8d 35 15 d6 00 00 	lea    0xd615(%rip),%rsi        # 11067f <__rodata+0x67f>
  10306a:	48 89 c7             	mov    %rax,%rdi
  10306d:	e8 08 02 00 00       	callq  10327a <_Z19check_short_commandPcPKci>
  103072:	85 c0                	test   %eax,%eax
  103074:	0f 95 c0             	setne  %al
  103077:	84 c0                	test   %al,%al
  103079:	74 1b                	je     103096 <_Z12command_modePc+0x684>
  10307b:	8b 05 d7 1f 01 00    	mov    0x11fd7(%rip),%eax        # 115058 <tick>
  103081:	89 c6                	mov    %eax,%esi
  103083:	48 8d 3d fe d5 00 00 	lea    0xd5fe(%rip),%rdi        # 110688 <__rodata+0x688>
  10308a:	b8 00 00 00 00       	mov    $0x0,%eax
  10308f:	e8 70 97 00 00       	callq  10c804 <_Z7kprintfPKcz>
  103094:	eb 6a                	jmp    103100 <_Z12command_modePc+0x6ee>
  103096:	48 8b 45 d8          	mov    -0x28(%rbp),%rax
  10309a:	ba 05 00 00 00       	mov    $0x5,%edx
  10309f:	48 8d 35 02 d6 00 00 	lea    0xd602(%rip),%rsi        # 1106a8 <__rodata+0x6a8>
  1030a6:	48 89 c7             	mov    %rax,%rdi
  1030a9:	e8 cc 01 00 00       	callq  10327a <_Z19check_short_commandPcPKci>
  1030ae:	85 c0                	test   %eax,%eax
  1030b0:	0f 95 c0             	setne  %al
  1030b3:	84 c0                	test   %al,%al
  1030b5:	74 1b                	je     1030d2 <_Z12command_modePc+0x6c0>
  1030b7:	e8 bb f8 ff ff       	callq  102977 <_Z17get_stack_pointerv>
  1030bc:	48 89 c6             	mov    %rax,%rsi
  1030bf:	48 8d 3d e8 d5 00 00 	lea    0xd5e8(%rip),%rdi        # 1106ae <__rodata+0x6ae>
  1030c6:	b8 00 00 00 00       	mov    $0x0,%eax
  1030cb:	e8 34 97 00 00       	callq  10c804 <_Z7kprintfPKcz>
  1030d0:	eb 2e                	jmp    103100 <_Z12command_modePc+0x6ee>
  1030d2:	48 8b 45 d8          	mov    -0x28(%rbp),%rax
  1030d6:	48 89 c7             	mov    %rax,%rdi
  1030d9:	b8 00 00 00 00       	mov    $0x0,%eax
  1030de:	e8 21 97 00 00       	callq  10c804 <_Z7kprintfPKcz>
  1030e3:	eb 1b                	jmp    103100 <_Z12command_modePc+0x6ee>
  1030e5:	48 8b 85 48 ff ff ff 	mov    -0xb8(%rbp),%rax
  1030ec:	48 89 c6             	mov    %rax,%rsi
  1030ef:	48 8d 3d ce d5 00 00 	lea    0xd5ce(%rip),%rdi        # 1106c4 <__rodata+0x6c4>
  1030f6:	b8 00 00 00 00       	mov    $0x0,%eax
  1030fb:	e8 04 97 00 00       	callq  10c804 <_Z7kprintfPKcz>
  103100:	c7 05 76 39 01 00 00 	movl   $0x0,0x13976(%rip)        # 116a80 <_ZL5state>
  103107:	00 00 00 
  10310a:	90                   	nop
  10310b:	c9                   	leaveq 
  10310c:	c3                   	retq   

000000000010310d <_Z15calculator_modePc>:
  10310d:	f3 0f 1e fa          	endbr64 
  103111:	55                   	push   %rbp
  103112:	48 89 e5             	mov    %rsp,%rbp
  103115:	48 83 ec 10          	sub    $0x10,%rsp
  103119:	48 89 7d f8          	mov    %rdi,-0x8(%rbp)
  10311d:	48 8b 45 f8          	mov    -0x8(%rbp),%rax
  103121:	48 8d 35 aa d5 00 00 	lea    0xd5aa(%rip),%rsi        # 1106d2 <__rodata+0x6d2>
  103128:	48 89 c7             	mov    %rax,%rdi
  10312b:	e8 19 01 00 00       	callq  103249 <_Z13check_commandPcPKc>
  103130:	85 c0                	test   %eax,%eax
  103132:	0f 95 c0             	setne  %al
  103135:	84 c0                	test   %al,%al
  103137:	74 20                	je     103159 <_Z15calculator_modePc+0x4c>
  103139:	48 8d 3d 97 d5 00 00 	lea    0xd597(%rip),%rdi        # 1106d7 <__rodata+0x6d7>
  103140:	b8 00 00 00 00       	mov    $0x0,%eax
  103145:	e8 ba 96 00 00       	callq  10c804 <_Z7kprintfPKcz>
  10314a:	c7 05 2c 39 01 00 00 	movl   $0x0,0x1392c(%rip)        # 116a80 <_ZL5state>
  103151:	00 00 00 
  103154:	e9 ee 00 00 00       	jmpq   103247 <_Z15calculator_modePc+0x13a>
  103159:	48 8b 45 f8          	mov    -0x8(%rbp),%rax
  10315d:	ba 03 00 00 00       	mov    $0x3,%edx
  103162:	48 8d 35 88 d5 00 00 	lea    0xd588(%rip),%rsi        # 1106f1 <__rodata+0x6f1>
  103169:	48 89 c7             	mov    %rax,%rdi
  10316c:	e8 09 01 00 00       	callq  10327a <_Z19check_short_commandPcPKci>
  103171:	85 c0                	test   %eax,%eax
  103173:	0f 95 c0             	setne  %al
  103176:	84 c0                	test   %al,%al
  103178:	74 16                	je     103190 <_Z15calculator_modePc+0x83>
  10317a:	48 8d 3d 77 d5 00 00 	lea    0xd577(%rip),%rdi        # 1106f8 <__rodata+0x6f8>
  103181:	b8 00 00 00 00       	mov    $0x0,%eax
  103186:	e8 79 96 00 00       	callq  10c804 <_Z7kprintfPKcz>
  10318b:	e9 ad 00 00 00       	jmpq   10323d <_Z15calculator_modePc+0x130>
  103190:	48 8b 45 f8          	mov    -0x8(%rbp),%rax
  103194:	ba 03 00 00 00       	mov    $0x3,%edx
  103199:	48 8d 35 89 d5 00 00 	lea    0xd589(%rip),%rsi        # 110729 <__rodata+0x729>
  1031a0:	48 89 c7             	mov    %rax,%rdi
  1031a3:	e8 d2 00 00 00       	callq  10327a <_Z19check_short_commandPcPKci>
  1031a8:	85 c0                	test   %eax,%eax
  1031aa:	0f 95 c0             	setne  %al
  1031ad:	84 c0                	test   %al,%al
  1031af:	74 13                	je     1031c4 <_Z15calculator_modePc+0xb7>
  1031b1:	48 8d 3d 78 d5 00 00 	lea    0xd578(%rip),%rdi        # 110730 <__rodata+0x730>
  1031b8:	b8 00 00 00 00       	mov    $0x0,%eax
  1031bd:	e8 42 96 00 00       	callq  10c804 <_Z7kprintfPKcz>
  1031c2:	eb 79                	jmp    10323d <_Z15calculator_modePc+0x130>
  1031c4:	48 8b 45 f8          	mov    -0x8(%rbp),%rax
  1031c8:	ba 03 00 00 00       	mov    $0x3,%edx
  1031cd:	48 8d 35 8d d5 00 00 	lea    0xd58d(%rip),%rsi        # 110761 <__rodata+0x761>
  1031d4:	48 89 c7             	mov    %rax,%rdi
  1031d7:	e8 9e 00 00 00       	callq  10327a <_Z19check_short_commandPcPKci>
  1031dc:	85 c0                	test   %eax,%eax
  1031de:	0f 95 c0             	setne  %al
  1031e1:	84 c0                	test   %al,%al
  1031e3:	74 13                	je     1031f8 <_Z15calculator_modePc+0xeb>
  1031e5:	48 8d 3d 7c d5 00 00 	lea    0xd57c(%rip),%rdi        # 110768 <__rodata+0x768>
  1031ec:	b8 00 00 00 00       	mov    $0x0,%eax
  1031f1:	e8 0e 96 00 00       	callq  10c804 <_Z7kprintfPKcz>
  1031f6:	eb 45                	jmp    10323d <_Z15calculator_modePc+0x130>
  1031f8:	48 8b 45 f8          	mov    -0x8(%rbp),%rax
  1031fc:	ba 05 00 00 00       	mov    $0x5,%edx
  103201:	48 8d 35 91 d5 00 00 	lea    0xd591(%rip),%rsi        # 110799 <__rodata+0x799>
  103208:	48 89 c7             	mov    %rax,%rdi
  10320b:	e8 6a 00 00 00       	callq  10327a <_Z19check_short_commandPcPKci>
  103210:	85 c0                	test   %eax,%eax
  103212:	0f 95 c0             	setne  %al
  103215:	84 c0                	test   %al,%al
  103217:	74 13                	je     10322c <_Z15calculator_modePc+0x11f>
  103219:	48 8d 3d 80 d5 00 00 	lea    0xd580(%rip),%rdi        # 1107a0 <__rodata+0x7a0>
  103220:	b8 00 00 00 00       	mov    $0x0,%eax
  103225:	e8 da 95 00 00       	callq  10c804 <_Z7kprintfPKcz>
  10322a:	eb 11                	jmp    10323d <_Z15calculator_modePc+0x130>
  10322c:	48 8d 3d a5 d5 00 00 	lea    0xd5a5(%rip),%rdi        # 1107d8 <__rodata+0x7d8>
  103233:	b8 00 00 00 00       	mov    $0x0,%eax
  103238:	e8 c7 95 00 00       	callq  10c804 <_Z7kprintfPKcz>
  10323d:	c7 05 39 38 01 00 01 	movl   $0x1,0x13839(%rip)        # 116a80 <_ZL5state>
  103244:	00 00 00 
  103247:	c9                   	leaveq 
  103248:	c3                   	retq   

0000000000103249 <_Z13check_commandPcPKc>:
  103249:	f3 0f 1e fa          	endbr64 
  10324d:	55                   	push   %rbp
  10324e:	48 89 e5             	mov    %rsp,%rbp
  103251:	48 83 ec 10          	sub    $0x10,%rsp
  103255:	48 89 7d f8          	mov    %rdi,-0x8(%rbp)
  103259:	48 89 75 f0          	mov    %rsi,-0x10(%rbp)
  10325d:	48 8b 55 f0          	mov    -0x10(%rbp),%rdx
  103261:	48 8b 45 f8          	mov    -0x8(%rbp),%rax
  103265:	48 89 d6             	mov    %rdx,%rsi
  103268:	48 89 c7             	mov    %rax,%rdi
  10326b:	e8 f2 91 00 00       	callq  10c462 <_Z6strcmpPcS_>
  103270:	85 c0                	test   %eax,%eax
  103272:	0f 94 c0             	sete   %al
  103275:	0f b6 c0             	movzbl %al,%eax
  103278:	c9                   	leaveq 
  103279:	c3                   	retq   

000000000010327a <_Z19check_short_commandPcPKci>:
  10327a:	f3 0f 1e fa          	endbr64 
  10327e:	55                   	push   %rbp
  10327f:	48 89 e5             	mov    %rsp,%rbp
  103282:	48 83 ec 28          	sub    $0x28,%rsp
  103286:	48 89 7d e8          	mov    %rdi,-0x18(%rbp)
  10328a:	48 89 75 e0          	mov    %rsi,-0x20(%rbp)
  10328e:	89 55 dc             	mov    %edx,-0x24(%rbp)
  103291:	c7 45 fc 00 00 00 00 	movl   $0x0,-0x4(%rbp)
  103298:	8b 45 fc             	mov    -0x4(%rbp),%eax
  10329b:	48 63 d0             	movslq %eax,%rdx
  10329e:	48 8b 45 e8          	mov    -0x18(%rbp),%rax
  1032a2:	48 01 d0             	add    %rdx,%rax
  1032a5:	0f b6 10             	movzbl (%rax),%edx
  1032a8:	8b 45 fc             	mov    -0x4(%rbp),%eax
  1032ab:	48 63 c8             	movslq %eax,%rcx
  1032ae:	48 8b 45 e0          	mov    -0x20(%rbp),%rax
  1032b2:	48 01 c8             	add    %rcx,%rax
  1032b5:	0f b6 00             	movzbl (%rax),%eax
  1032b8:	38 c2                	cmp    %al,%dl
  1032ba:	75 0e                	jne    1032ca <_Z19check_short_commandPcPKci+0x50>
  1032bc:	8b 45 fc             	mov    -0x4(%rbp),%eax
  1032bf:	3b 45 dc             	cmp    -0x24(%rbp),%eax
  1032c2:	7d 06                	jge    1032ca <_Z19check_short_commandPcPKci+0x50>
  1032c4:	83 45 fc 01          	addl   $0x1,-0x4(%rbp)
  1032c8:	eb ce                	jmp    103298 <_Z19check_short_commandPcPKci+0x1e>
  1032ca:	8b 45 fc             	mov    -0x4(%rbp),%eax
  1032cd:	3b 45 dc             	cmp    -0x24(%rbp),%eax
  1032d0:	75 07                	jne    1032d9 <_Z19check_short_commandPcPKci+0x5f>
  1032d2:	b8 01 00 00 00       	mov    $0x1,%eax
  1032d7:	eb 05                	jmp    1032de <_Z19check_short_commandPcPKci+0x64>
  1032d9:	b8 00 00 00 00       	mov    $0x0,%eax
  1032de:	c9                   	leaveq 
  1032df:	c3                   	retq   

00000000001032e0 <kernel_main>:
  1032e0:	f3 0f 1e fa          	endbr64 
  1032e4:	55                   	push   %rbp
  1032e5:	48 89 e5             	mov    %rsp,%rbp
  1032e8:	48 83 ec 10          	sub    $0x10,%rsp
  1032ec:	48 89 7d f8          	mov    %rdi,-0x8(%rbp)
  1032f0:	48 8b 45 f8          	mov    -0x8(%rbp),%rax
  1032f4:	48 89 05 95 37 01 00 	mov    %rax,0x13795(%rip)        # 116a90 <kInfo>
  1032fb:	48 c7 05 82 37 01 00 	movq   $0x0,0x13782(%rip)        # 116a88 <initial_rsp>
  103302:	00 00 00 00 
  103306:	48 8b 45 f8          	mov    -0x8(%rbp),%rax
  10330a:	48 89 c7             	mov    %rax,%rdi
  10330d:	e8 5c a2 00 00       	callq  10d56e <_Z17InitialiseDisplayP10KernelInfo>
  103312:	48 8b 45 f8          	mov    -0x8(%rbp),%rax
  103316:	48 89 c7             	mov    %rax,%rdi
  103319:	e8 90 a3 00 00       	callq  10d6ae <_Z16InitialiseKernelP10KernelInfo>
  10331e:	f4                   	hlt    
  10331f:	eb fd                	jmp    10331e <kernel_main+0x3e>

0000000000103321 <_Z9draw_taskv>:
  103321:	f3 0f 1e fa          	endbr64 
  103325:	55                   	push   %rbp
  103326:	48 89 e5             	mov    %rsp,%rbp
  103329:	48 83 ec 10          	sub    $0x10,%rsp
  10332d:	c7 45 fc 00 00 00 00 	movl   $0x0,-0x4(%rbp)
  103334:	f4                   	hlt    
  103335:	eb fd                	jmp    103334 <_Z9draw_taskv+0x13>

0000000000103337 <_Z11kernel_taskv>:
  103337:	f3 0f 1e fa          	endbr64 
  10333b:	55                   	push   %rbp
  10333c:	48 89 e5             	mov    %rsp,%rbp
  10333f:	53                   	push   %rbx
  103340:	48 83 ec 08          	sub    $0x8,%rsp
  103344:	48 8d 3d bd d4 00 00 	lea    0xd4bd(%rip),%rdi        # 110808 <__rodata+0x808>
  10334b:	b8 00 00 00 00       	mov    $0x0,%eax
  103350:	e8 af 94 00 00       	callq  10c804 <_Z7kprintfPKcz>
  103355:	48 8d 3d ca d4 00 00 	lea    0xd4ca(%rip),%rdi        # 110826 <__rodata+0x826>
  10335c:	b8 00 00 00 00       	mov    $0x0,%eax
  103361:	e8 9e 94 00 00       	callq  10c804 <_Z7kprintfPKcz>
  103366:	48 8d 3d d0 d4 00 00 	lea    0xd4d0(%rip),%rdi        # 11083d <__rodata+0x83d>
  10336d:	b8 00 00 00 00       	mov    $0x0,%eax
  103372:	e8 8d 94 00 00       	callq  10c804 <_Z7kprintfPKcz>
  103377:	bf 40 01 00 00       	mov    $0x140,%edi
  10337c:	e8 5c 06 00 00       	callq  1039dd <_Znwm>
  103381:	48 89 c3             	mov    %rax,%rbx
  103384:	48 8d 15 96 ff ff ff 	lea    -0x6a(%rip),%rdx        # 103321 <_Z9draw_taskv>
  10338b:	48 8d 35 ba d4 00 00 	lea    0xd4ba(%rip),%rsi        # 11084c <__rodata+0x84c>
  103392:	48 89 df             	mov    %rbx,%rdi
  103395:	e8 c4 82 00 00       	callq  10b65e <_ZN7ProcessC1EPKcPv>
  10339a:	48 89 df             	mov    %rbx,%rdi
  10339d:	e8 4d 86 00 00       	callq  10b9ef <_Z10AddProcessP7Process>
  1033a2:	f4                   	hlt    
  1033a3:	eb fd                	jmp    1033a2 <_Z11kernel_taskv+0x6b>

00000000001033a5 <_Z10user_inputPc>:
  1033a5:	f3 0f 1e fa          	endbr64 
  1033a9:	55                   	push   %rbp
  1033aa:	48 89 e5             	mov    %rsp,%rbp
  1033ad:	48 83 ec 30          	sub    $0x30,%rsp
  1033b1:	48 89 7d d8          	mov    %rdi,-0x28(%rbp)
  1033b5:	48 8b 45 d8          	mov    -0x28(%rbp),%rax
  1033b9:	48 8d 35 91 d4 00 00 	lea    0xd491(%rip),%rsi        # 110851 <__rodata+0x851>
  1033c0:	48 89 c7             	mov    %rax,%rdi
  1033c3:	e8 9a 90 00 00       	callq  10c462 <_Z6strcmpPcS_>
  1033c8:	85 c0                	test   %eax,%eax
  1033ca:	0f 94 c0             	sete   %al
  1033cd:	84 c0                	test   %al,%al
  1033cf:	74 48                	je     103419 <_Z10user_inputPc+0x74>
  1033d1:	48 8d 3d 82 d4 00 00 	lea    0xd482(%rip),%rdi        # 11085a <__rodata+0x85a>
  1033d8:	b8 00 00 00 00       	mov    $0x0,%eax
  1033dd:	e8 22 94 00 00       	callq  10c804 <_Z7kprintfPKcz>
  1033e2:	48 8b 05 a7 36 01 00 	mov    0x136a7(%rip),%rax        # 116a90 <kInfo>
  1033e9:	48 8b 40 30          	mov    0x30(%rax),%rax
  1033ed:	48 89 45 f0          	mov    %rax,-0x10(%rbp)
  1033f1:	48 8b 45 f0          	mov    -0x10(%rbp),%rax
  1033f5:	48 8d 35 76 d4 00 00 	lea    0xd476(%rip),%rsi        # 110872 <__rodata+0x872>
  1033fc:	48 89 c7             	mov    %rax,%rdi
  1033ff:	e8 2c 14 00 00       	callq  104830 <_ZN4ACPI4RSDP14GetSystemTableEPKc>
  103404:	48 89 45 e8          	mov    %rax,-0x18(%rbp)
  103408:	48 8b 45 e8          	mov    -0x18(%rbp),%rax
  10340c:	48 89 c7             	mov    %rax,%rdi
  10340f:	e8 7c 17 00 00       	callq  104b90 <_ZN4ACPI4FADT8ShutdownEv>
  103414:	e9 cf 00 00 00       	jmpq   1034e8 <_Z10user_inputPc+0x143>
  103419:	48 8b 45 d8          	mov    -0x28(%rbp),%rax
  10341d:	48 8d 35 53 d4 00 00 	lea    0xd453(%rip),%rsi        # 110877 <__rodata+0x877>
  103424:	48 89 c7             	mov    %rax,%rdi
  103427:	e8 36 90 00 00       	callq  10c462 <_Z6strcmpPcS_>
  10342c:	85 c0                	test   %eax,%eax
  10342e:	0f 94 c0             	sete   %al
  103431:	84 c0                	test   %al,%al
  103433:	0f 84 a3 00 00 00    	je     1034dc <_Z10user_inputPc+0x137>
  103439:	48 8d 3d 3f d4 00 00 	lea    0xd43f(%rip),%rdi        # 11087f <__rodata+0x87f>
  103440:	b8 00 00 00 00       	mov    $0x0,%eax
  103445:	e8 ba 93 00 00       	callq  10c804 <_Z7kprintfPKcz>
  10344a:	48 8b 45 d8          	mov    -0x28(%rbp),%rax
  10344e:	ba ff 00 00 00       	mov    $0xff,%edx
  103453:	be 00 00 00 00       	mov    $0x0,%esi
  103458:	48 89 c7             	mov    %rax,%rdi
  10345b:	e8 e3 97 00 00       	callq  10cc43 <_Z6memsetPvim>
  103460:	bf 64 00 00 00       	mov    $0x64,%edi
  103465:	e8 48 e3 ff ff       	callq  1017b2 <_Z5__inbt>
  10346a:	0f b6 c0             	movzbl %al,%eax
  10346d:	89 45 fc             	mov    %eax,-0x4(%rbp)
  103470:	8b 45 fc             	mov    -0x4(%rbp),%eax
  103473:	83 e0 01             	and    $0x1,%eax
  103476:	85 c0                	test   %eax,%eax
  103478:	74 0b                	je     103485 <_Z10user_inputPc+0xe0>
  10347a:	bf 60 00 00 00       	mov    $0x60,%edi
  10347f:	e8 2e e3 ff ff       	callq  1017b2 <_Z5__inbt>
  103484:	90                   	nop
  103485:	8b 45 fc             	mov    -0x4(%rbp),%eax
  103488:	83 e0 02             	and    $0x2,%eax
  10348b:	85 c0                	test   %eax,%eax
  10348d:	74 02                	je     103491 <_Z10user_inputPc+0xec>
  10348f:	eb cf                	jmp    103460 <_Z10user_inputPc+0xbb>
  103491:	be 8f 00 00 00       	mov    $0x8f,%esi
  103496:	bf 70 00 00 00       	mov    $0x70,%edi
  10349b:	e8 75 e3 ff ff       	callq  101815 <_Z6__outbth>
  1034a0:	be 00 00 00 00       	mov    $0x0,%esi
  1034a5:	bf 71 00 00 00       	mov    $0x71,%edi
  1034aa:	e8 66 e3 ff ff       	callq  101815 <_Z6__outbth>
  1034af:	be 00 00 00 00       	mov    $0x0,%esi
  1034b4:	bf 70 00 00 00       	mov    $0x70,%edi
  1034b9:	e8 57 e3 ff ff       	callq  101815 <_Z6__outbth>
  1034be:	bf 92 00 00 00       	mov    $0x92,%edi
  1034c3:	e8 ea e2 ff ff       	callq  1017b2 <_Z5__inbt>
  1034c8:	83 c8 01             	or     $0x1,%eax
  1034cb:	0f b6 c0             	movzbl %al,%eax
  1034ce:	89 c6                	mov    %eax,%esi
  1034d0:	bf 92 00 00 00       	mov    $0x92,%edi
  1034d5:	e8 3b e3 ff ff       	callq  101815 <_Z6__outbth>
  1034da:	eb 0c                	jmp    1034e8 <_Z10user_inputPc+0x143>
  1034dc:	48 8b 45 d8          	mov    -0x28(%rbp),%rax
  1034e0:	48 89 c7             	mov    %rax,%rdi
  1034e3:	e8 d3 f4 ff ff       	callq  1029bb <_Z13shell_commandPc>
  1034e8:	90                   	nop
  1034e9:	c9                   	leaveq 
  1034ea:	c3                   	retq   

00000000001034eb <__cxa_pure_virtual>:
  1034eb:	f3 0f 1e fa          	endbr64 
  1034ef:	55                   	push   %rbp
  1034f0:	48 89 e5             	mov    %rsp,%rbp
  1034f3:	48 8d 3d a6 d3 00 00 	lea    0xd3a6(%rip),%rdi        # 1108a0 <__rodata+0x8a0>
  1034fa:	b8 00 00 00 00       	mov    $0x0,%eax
  1034ff:	e8 00 93 00 00       	callq  10c804 <_Z7kprintfPKcz>
  103504:	90                   	nop
  103505:	5d                   	pop    %rbp
  103506:	c3                   	retq   

0000000000103507 <__stack_chk_fail>:
  103507:	f3 0f 1e fa          	endbr64 
  10350b:	55                   	push   %rbp
  10350c:	48 89 e5             	mov    %rsp,%rbp
  10350f:	48 8d 3d b2 d3 00 00 	lea    0xd3b2(%rip),%rdi        # 1108c8 <__rodata+0x8c8>
  103516:	b8 00 00 00 00       	mov    $0x0,%eax
  10351b:	e8 e4 92 00 00       	callq  10c804 <_Z7kprintfPKcz>
  103520:	90                   	nop
  103521:	5d                   	pop    %rbp
  103522:	c3                   	retq   
  103523:	90                   	nop

0000000000103524 <_Z14InitialiseHeapPvm>:
  103524:	f3 0f 1e fa          	endbr64 
  103528:	55                   	push   %rbp
  103529:	48 89 e5             	mov    %rsp,%rbp
  10352c:	48 83 ec 30          	sub    $0x30,%rsp
  103530:	48 89 7d d8          	mov    %rdi,-0x28(%rbp)
  103534:	48 89 75 d0          	mov    %rsi,-0x30(%rbp)
  103538:	48 8b 45 d8          	mov    -0x28(%rbp),%rax
  10353c:	48 89 45 f8          	mov    %rax,-0x8(%rbp)
  103540:	48 c7 45 f0 00 00 00 	movq   $0x0,-0x10(%rbp)
  103547:	00 
  103548:	48 8b 45 f0          	mov    -0x10(%rbp),%rax
  10354c:	48 3b 45 d0          	cmp    -0x30(%rbp),%rax
  103550:	73 3d                	jae    10358f <_Z14InitialiseHeapPvm+0x6b>
  103552:	e8 cb df ff ff       	callq  101522 <_ZN18PageFrameAllocator15SharedAllocatorEv>
  103557:	48 89 c7             	mov    %rax,%rdi
  10355a:	e8 17 dd ff ff       	callq  101276 <_ZN18PageFrameAllocator11RequestPageEv>
  10355f:	48 89 c2             	mov    %rax,%rdx
  103562:	48 8b 45 f8          	mov    -0x8(%rbp),%rax
  103566:	b9 03 00 00 00       	mov    $0x3,%ecx
  10356b:	48 89 c6             	mov    %rax,%rsi
  10356e:	48 8d 3d d3 1a 01 00 	lea    0x11ad3(%rip),%rdi        # 115048 <KernelDirectory>
  103575:	e8 5c cb ff ff       	callq  1000d6 <_ZN16PageTableManager9MapMemoryEmmm>
  10357a:	48 8b 45 f8          	mov    -0x8(%rbp),%rax
  10357e:	48 05 00 10 00 00    	add    $0x1000,%rax
  103584:	48 89 45 f8          	mov    %rax,-0x8(%rbp)
  103588:	48 83 45 f0 01       	addq   $0x1,-0x10(%rbp)
  10358d:	eb b9                	jmp    103548 <_Z14InitialiseHeapPvm+0x24>
  10358f:	48 8b 45 d0          	mov    -0x30(%rbp),%rax
  103593:	48 c1 e0 0c          	shl    $0xc,%rax
  103597:	48 89 45 e8          	mov    %rax,-0x18(%rbp)
  10359b:	48 8b 45 d8          	mov    -0x28(%rbp),%rax
  10359f:	48 89 05 fa 34 01 00 	mov    %rax,0x134fa(%rip)        # 116aa0 <heapStart>
  1035a6:	48 8b 55 d8          	mov    -0x28(%rbp),%rdx
  1035aa:	48 8b 45 e8          	mov    -0x18(%rbp),%rax
  1035ae:	48 01 d0             	add    %rdx,%rax
  1035b1:	48 89 05 f0 34 01 00 	mov    %rax,0x134f0(%rip)        # 116aa8 <heapEnd>
  1035b8:	48 8b 45 d8          	mov    -0x28(%rbp),%rax
  1035bc:	48 89 45 e0          	mov    %rax,-0x20(%rbp)
  1035c0:	48 8b 45 e8          	mov    -0x18(%rbp),%rax
  1035c4:	48 8d 50 e0          	lea    -0x20(%rax),%rdx
  1035c8:	48 8b 45 e0          	mov    -0x20(%rbp),%rax
  1035cc:	48 89 10             	mov    %rdx,(%rax)
  1035cf:	48 8b 45 e0          	mov    -0x20(%rbp),%rax
  1035d3:	48 c7 40 08 00 00 00 	movq   $0x0,0x8(%rax)
  1035da:	00 
  1035db:	48 8b 45 e0          	mov    -0x20(%rbp),%rax
  1035df:	48 c7 40 10 00 00 00 	movq   $0x0,0x10(%rax)
  1035e6:	00 
  1035e7:	48 8b 45 e0          	mov    -0x20(%rbp),%rax
  1035eb:	c6 40 18 01          	movb   $0x1,0x18(%rax)
  1035ef:	48 8b 45 e0          	mov    -0x20(%rbp),%rax
  1035f3:	48 89 05 b6 34 01 00 	mov    %rax,0x134b6(%rip)        # 116ab0 <LastHdr>
  1035fa:	c6 05 17 43 01 00 01 	movb   $0x1,0x14317(%rip)        # 117918 <heap_init>
  103601:	90                   	nop
  103602:	c9                   	leaveq 
  103603:	c3                   	retq   

0000000000103604 <_Z5allocm>:
  103604:	f3 0f 1e fa          	endbr64 
  103608:	55                   	push   %rbp
  103609:	48 89 e5             	mov    %rsp,%rbp
  10360c:	48 83 ec 20          	sub    $0x20,%rsp
  103610:	48 89 7d e8          	mov    %rdi,-0x18(%rbp)
  103614:	48 8b 45 e8          	mov    -0x18(%rbp),%rax
  103618:	83 e0 0f             	and    $0xf,%eax
  10361b:	48 85 c0             	test   %rax,%rax
  10361e:	74 0a                	je     10362a <_Z5allocm+0x26>
  103620:	48 83 65 e8 f0       	andq   $0xfffffffffffffff0,-0x18(%rbp)
  103625:	48 83 45 e8 10       	addq   $0x10,-0x18(%rbp)
  10362a:	48 83 7d e8 00       	cmpq   $0x0,-0x18(%rbp)
  10362f:	75 0a                	jne    10363b <_Z5allocm+0x37>
  103631:	b8 00 00 00 00       	mov    $0x0,%eax
  103636:	e9 9d 00 00 00       	jmpq   1036d8 <_Z5allocm+0xd4>
  10363b:	48 8b 05 5e 34 01 00 	mov    0x1345e(%rip),%rax        # 116aa0 <heapStart>
  103642:	48 89 45 f8          	mov    %rax,-0x8(%rbp)
  103646:	48 8b 45 f8          	mov    -0x8(%rbp),%rax
  10364a:	0f b6 40 18          	movzbl 0x18(%rax),%eax
  10364e:	84 c0                	test   %al,%al
  103650:	74 51                	je     1036a3 <_Z5allocm+0x9f>
  103652:	48 8b 45 f8          	mov    -0x8(%rbp),%rax
  103656:	48 8b 00             	mov    (%rax),%rax
  103659:	48 39 45 e8          	cmp    %rax,-0x18(%rbp)
  10365d:	73 25                	jae    103684 <_Z5allocm+0x80>
  10365f:	48 8b 55 e8          	mov    -0x18(%rbp),%rdx
  103663:	48 8b 45 f8          	mov    -0x8(%rbp),%rax
  103667:	48 89 d6             	mov    %rdx,%rsi
  10366a:	48 89 c7             	mov    %rax,%rdi
  10366d:	e8 94 02 00 00       	callq  103906 <_ZN17HeapSegmentHeader5SplitEm>
  103672:	48 8b 45 f8          	mov    -0x8(%rbp),%rax
  103676:	c6 40 18 00          	movb   $0x0,0x18(%rax)
  10367a:	48 8b 45 f8          	mov    -0x8(%rbp),%rax
  10367e:	48 83 c0 20          	add    $0x20,%rax
  103682:	eb 54                	jmp    1036d8 <_Z5allocm+0xd4>
  103684:	48 8b 45 f8          	mov    -0x8(%rbp),%rax
  103688:	48 8b 00             	mov    (%rax),%rax
  10368b:	48 39 45 e8          	cmp    %rax,-0x18(%rbp)
  10368f:	75 12                	jne    1036a3 <_Z5allocm+0x9f>
  103691:	48 8b 45 f8          	mov    -0x8(%rbp),%rax
  103695:	c6 40 18 00          	movb   $0x0,0x18(%rax)
  103699:	48 8b 45 f8          	mov    -0x8(%rbp),%rax
  10369d:	48 83 c0 20          	add    $0x20,%rax
  1036a1:	eb 35                	jmp    1036d8 <_Z5allocm+0xd4>
  1036a3:	48 8b 45 f8          	mov    -0x8(%rbp),%rax
  1036a7:	48 8b 40 08          	mov    0x8(%rax),%rax
  1036ab:	48 85 c0             	test   %rax,%rax
  1036ae:	74 0e                	je     1036be <_Z5allocm+0xba>
  1036b0:	48 8b 45 f8          	mov    -0x8(%rbp),%rax
  1036b4:	48 8b 40 08          	mov    0x8(%rax),%rax
  1036b8:	48 89 45 f8          	mov    %rax,-0x8(%rbp)
  1036bc:	eb 88                	jmp    103646 <_Z5allocm+0x42>
  1036be:	90                   	nop
  1036bf:	48 8b 45 e8          	mov    -0x18(%rbp),%rax
  1036c3:	48 89 c7             	mov    %rax,%rdi
  1036c6:	e8 4e 00 00 00       	callq  103719 <_Z10ExpandHeapm>
  1036cb:	48 8b 45 e8          	mov    -0x18(%rbp),%rax
  1036cf:	48 89 c7             	mov    %rax,%rdi
  1036d2:	e8 2d ff ff ff       	callq  103604 <_Z5allocm>
  1036d7:	90                   	nop
  1036d8:	c9                   	leaveq 
  1036d9:	c3                   	retq   

00000000001036da <_Z4freePv>:
  1036da:	f3 0f 1e fa          	endbr64 
  1036de:	55                   	push   %rbp
  1036df:	48 89 e5             	mov    %rsp,%rbp
  1036e2:	48 83 ec 20          	sub    $0x20,%rsp
  1036e6:	48 89 7d e8          	mov    %rdi,-0x18(%rbp)
  1036ea:	48 8b 45 e8          	mov    -0x18(%rbp),%rax
  1036ee:	48 83 e8 20          	sub    $0x20,%rax
  1036f2:	48 89 45 f8          	mov    %rax,-0x8(%rbp)
  1036f6:	48 8b 45 f8          	mov    -0x8(%rbp),%rax
  1036fa:	c6 40 18 01          	movb   $0x1,0x18(%rax)
  1036fe:	48 8b 45 f8          	mov    -0x8(%rbp),%rax
  103702:	48 89 c7             	mov    %rax,%rdi
  103705:	e8 08 01 00 00       	callq  103812 <_ZN17HeapSegmentHeader14CombineForwardEv>
  10370a:	48 8b 45 f8          	mov    -0x8(%rbp),%rax
  10370e:	48 89 c7             	mov    %rax,%rdi
  103711:	e8 b0 01 00 00       	callq  1038c6 <_ZN17HeapSegmentHeader15CombineBackwardEv>
  103716:	90                   	nop
  103717:	c9                   	leaveq 
  103718:	c3                   	retq   

0000000000103719 <_Z10ExpandHeapm>:
  103719:	f3 0f 1e fa          	endbr64 
  10371d:	55                   	push   %rbp
  10371e:	48 89 e5             	mov    %rsp,%rbp
  103721:	48 83 ec 30          	sub    $0x30,%rsp
  103725:	48 89 7d d8          	mov    %rdi,-0x28(%rbp)
  103729:	48 8b 45 d8          	mov    -0x28(%rbp),%rax
  10372d:	25 ff 0f 00 00       	and    $0xfff,%eax
  103732:	48 85 c0             	test   %rax,%rax
  103735:	74 10                	je     103747 <_Z10ExpandHeapm+0x2e>
  103737:	48 81 65 d8 00 f0 ff 	andq   $0xfffffffffffff000,-0x28(%rbp)
  10373e:	ff 
  10373f:	48 81 45 d8 00 10 00 	addq   $0x1000,-0x28(%rbp)
  103746:	00 
  103747:	48 8b 45 d8          	mov    -0x28(%rbp),%rax
  10374b:	48 c1 e8 0c          	shr    $0xc,%rax
  10374f:	48 89 45 f0          	mov    %rax,-0x10(%rbp)
  103753:	48 8b 05 4e 33 01 00 	mov    0x1334e(%rip),%rax        # 116aa8 <heapEnd>
  10375a:	48 89 45 e8          	mov    %rax,-0x18(%rbp)
  10375e:	48 c7 45 f8 00 00 00 	movq   $0x0,-0x8(%rbp)
  103765:	00 
  103766:	48 8b 45 f8          	mov    -0x8(%rbp),%rax
  10376a:	48 3b 45 f0          	cmp    -0x10(%rbp),%rax
  10376e:	73 46                	jae    1037b6 <_Z10ExpandHeapm+0x9d>
  103770:	e8 ad dd ff ff       	callq  101522 <_ZN18PageFrameAllocator15SharedAllocatorEv>
  103775:	48 89 c7             	mov    %rax,%rdi
  103778:	e8 f9 da ff ff       	callq  101276 <_ZN18PageFrameAllocator11RequestPageEv>
  10377d:	48 89 c2             	mov    %rax,%rdx
  103780:	48 8b 05 21 33 01 00 	mov    0x13321(%rip),%rax        # 116aa8 <heapEnd>
  103787:	b9 03 00 00 00       	mov    $0x3,%ecx
  10378c:	48 89 c6             	mov    %rax,%rsi
  10378f:	48 8d 3d b2 18 01 00 	lea    0x118b2(%rip),%rdi        # 115048 <KernelDirectory>
  103796:	e8 3b c9 ff ff       	callq  1000d6 <_ZN16PageTableManager9MapMemoryEmmm>
  10379b:	48 8b 05 06 33 01 00 	mov    0x13306(%rip),%rax        # 116aa8 <heapEnd>
  1037a2:	48 05 00 10 00 00    	add    $0x1000,%rax
  1037a8:	48 89 05 f9 32 01 00 	mov    %rax,0x132f9(%rip)        # 116aa8 <heapEnd>
  1037af:	48 83 45 f8 01       	addq   $0x1,-0x8(%rbp)
  1037b4:	eb b0                	jmp    103766 <_Z10ExpandHeapm+0x4d>
  1037b6:	48 8b 45 e8          	mov    -0x18(%rbp),%rax
  1037ba:	c6 40 18 01          	movb   $0x1,0x18(%rax)
  1037be:	48 8b 15 eb 32 01 00 	mov    0x132eb(%rip),%rdx        # 116ab0 <LastHdr>
  1037c5:	48 8b 45 e8          	mov    -0x18(%rbp),%rax
  1037c9:	48 89 50 10          	mov    %rdx,0x10(%rax)
  1037cd:	48 8b 05 dc 32 01 00 	mov    0x132dc(%rip),%rax        # 116ab0 <LastHdr>
  1037d4:	48 8b 55 e8          	mov    -0x18(%rbp),%rdx
  1037d8:	48 89 50 08          	mov    %rdx,0x8(%rax)
  1037dc:	48 8b 45 e8          	mov    -0x18(%rbp),%rax
  1037e0:	48 89 05 c9 32 01 00 	mov    %rax,0x132c9(%rip)        # 116ab0 <LastHdr>
  1037e7:	48 8b 45 e8          	mov    -0x18(%rbp),%rax
  1037eb:	48 c7 40 08 00 00 00 	movq   $0x0,0x8(%rax)
  1037f2:	00 
  1037f3:	48 8b 45 d8          	mov    -0x28(%rbp),%rax
  1037f7:	48 8d 50 e0          	lea    -0x20(%rax),%rdx
  1037fb:	48 8b 45 e8          	mov    -0x18(%rbp),%rax
  1037ff:	48 89 10             	mov    %rdx,(%rax)
  103802:	48 8b 45 e8          	mov    -0x18(%rbp),%rax
  103806:	48 89 c7             	mov    %rax,%rdi
  103809:	e8 b8 00 00 00       	callq  1038c6 <_ZN17HeapSegmentHeader15CombineBackwardEv>
  10380e:	90                   	nop
  10380f:	c9                   	leaveq 
  103810:	c3                   	retq   
  103811:	90                   	nop

0000000000103812 <_ZN17HeapSegmentHeader14CombineForwardEv>:
  103812:	f3 0f 1e fa          	endbr64 
  103816:	55                   	push   %rbp
  103817:	48 89 e5             	mov    %rsp,%rbp
  10381a:	48 83 ec 08          	sub    $0x8,%rsp
  10381e:	48 89 7d f8          	mov    %rdi,-0x8(%rbp)
  103822:	48 8b 45 f8          	mov    -0x8(%rbp),%rax
  103826:	48 8b 40 08          	mov    0x8(%rax),%rax
  10382a:	48 85 c0             	test   %rax,%rax
  10382d:	0f 84 8d 00 00 00    	je     1038c0 <_ZN17HeapSegmentHeader14CombineForwardEv+0xae>
  103833:	48 8b 45 f8          	mov    -0x8(%rbp),%rax
  103837:	48 8b 40 08          	mov    0x8(%rax),%rax
  10383b:	0f b6 40 18          	movzbl 0x18(%rax),%eax
  10383f:	83 f0 01             	xor    $0x1,%eax
  103842:	84 c0                	test   %al,%al
  103844:	75 7d                	jne    1038c3 <_ZN17HeapSegmentHeader14CombineForwardEv+0xb1>
  103846:	48 8b 45 f8          	mov    -0x8(%rbp),%rax
  10384a:	48 8b 50 08          	mov    0x8(%rax),%rdx
  10384e:	48 8b 05 5b 32 01 00 	mov    0x1325b(%rip),%rax        # 116ab0 <LastHdr>
  103855:	48 39 c2             	cmp    %rax,%rdx
  103858:	75 0b                	jne    103865 <_ZN17HeapSegmentHeader14CombineForwardEv+0x53>
  10385a:	48 8b 45 f8          	mov    -0x8(%rbp),%rax
  10385e:	48 89 05 4b 32 01 00 	mov    %rax,0x1324b(%rip)        # 116ab0 <LastHdr>
  103865:	48 8b 45 f8          	mov    -0x8(%rbp),%rax
  103869:	48 8b 40 08          	mov    0x8(%rax),%rax
  10386d:	48 8b 40 08          	mov    0x8(%rax),%rax
  103871:	48 85 c0             	test   %rax,%rax
  103874:	74 14                	je     10388a <_ZN17HeapSegmentHeader14CombineForwardEv+0x78>
  103876:	48 8b 45 f8          	mov    -0x8(%rbp),%rax
  10387a:	48 8b 40 08          	mov    0x8(%rax),%rax
  10387e:	48 8b 40 08          	mov    0x8(%rax),%rax
  103882:	48 8b 55 f8          	mov    -0x8(%rbp),%rdx
  103886:	48 89 50 10          	mov    %rdx,0x10(%rax)
  10388a:	48 8b 45 f8          	mov    -0x8(%rbp),%rax
  10388e:	48 8b 10             	mov    (%rax),%rdx
  103891:	48 8b 45 f8          	mov    -0x8(%rbp),%rax
  103895:	48 8b 40 08          	mov    0x8(%rax),%rax
  103899:	48 8b 00             	mov    (%rax),%rax
  10389c:	48 01 d0             	add    %rdx,%rax
  10389f:	48 8d 50 20          	lea    0x20(%rax),%rdx
  1038a3:	48 8b 45 f8          	mov    -0x8(%rbp),%rax
  1038a7:	48 89 10             	mov    %rdx,(%rax)
  1038aa:	48 8b 45 f8          	mov    -0x8(%rbp),%rax
  1038ae:	48 8b 40 08          	mov    0x8(%rax),%rax
  1038b2:	48 8b 50 08          	mov    0x8(%rax),%rdx
  1038b6:	48 8b 45 f8          	mov    -0x8(%rbp),%rax
  1038ba:	48 89 50 08          	mov    %rdx,0x8(%rax)
  1038be:	eb 04                	jmp    1038c4 <_ZN17HeapSegmentHeader14CombineForwardEv+0xb2>
  1038c0:	90                   	nop
  1038c1:	eb 01                	jmp    1038c4 <_ZN17HeapSegmentHeader14CombineForwardEv+0xb2>
  1038c3:	90                   	nop
  1038c4:	c9                   	leaveq 
  1038c5:	c3                   	retq   

00000000001038c6 <_ZN17HeapSegmentHeader15CombineBackwardEv>:
  1038c6:	f3 0f 1e fa          	endbr64 
  1038ca:	55                   	push   %rbp
  1038cb:	48 89 e5             	mov    %rsp,%rbp
  1038ce:	48 83 ec 08          	sub    $0x8,%rsp
  1038d2:	48 89 7d f8          	mov    %rdi,-0x8(%rbp)
  1038d6:	48 8b 45 f8          	mov    -0x8(%rbp),%rax
  1038da:	48 8b 40 10          	mov    0x10(%rax),%rax
  1038de:	48 85 c0             	test   %rax,%rax
  1038e1:	74 20                	je     103903 <_ZN17HeapSegmentHeader15CombineBackwardEv+0x3d>
  1038e3:	48 8b 45 f8          	mov    -0x8(%rbp),%rax
  1038e7:	48 8b 40 10          	mov    0x10(%rax),%rax
  1038eb:	0f b6 40 18          	movzbl 0x18(%rax),%eax
  1038ef:	84 c0                	test   %al,%al
  1038f1:	74 10                	je     103903 <_ZN17HeapSegmentHeader15CombineBackwardEv+0x3d>
  1038f3:	48 8b 45 f8          	mov    -0x8(%rbp),%rax
  1038f7:	48 8b 40 10          	mov    0x10(%rax),%rax
  1038fb:	48 89 c7             	mov    %rax,%rdi
  1038fe:	e8 0f ff ff ff       	callq  103812 <_ZN17HeapSegmentHeader14CombineForwardEv>
  103903:	90                   	nop
  103904:	c9                   	leaveq 
  103905:	c3                   	retq   

0000000000103906 <_ZN17HeapSegmentHeader5SplitEm>:
  103906:	f3 0f 1e fa          	endbr64 
  10390a:	55                   	push   %rbp
  10390b:	48 89 e5             	mov    %rsp,%rbp
  10390e:	48 83 ec 20          	sub    $0x20,%rsp
  103912:	48 89 7d e8          	mov    %rdi,-0x18(%rbp)
  103916:	48 89 75 e0          	mov    %rsi,-0x20(%rbp)
  10391a:	48 83 7d e0 0f       	cmpq   $0xf,-0x20(%rbp)
  10391f:	77 0a                	ja     10392b <_ZN17HeapSegmentHeader5SplitEm+0x25>
  103921:	b8 00 00 00 00       	mov    $0x0,%eax
  103926:	e9 b0 00 00 00       	jmpq   1039db <_ZN17HeapSegmentHeader5SplitEm+0xd5>
  10392b:	48 8b 45 e8          	mov    -0x18(%rbp),%rax
  10392f:	48 8b 00             	mov    (%rax),%rax
  103932:	48 2b 45 e0          	sub    -0x20(%rbp),%rax
  103936:	48 83 e8 20          	sub    $0x20,%rax
  10393a:	48 89 45 f8          	mov    %rax,-0x8(%rbp)
  10393e:	48 83 7d f8 0f       	cmpq   $0xf,-0x8(%rbp)
  103943:	7f 0a                	jg     10394f <_ZN17HeapSegmentHeader5SplitEm+0x49>
  103945:	b8 00 00 00 00       	mov    $0x0,%eax
  10394a:	e9 8c 00 00 00       	jmpq   1039db <_ZN17HeapSegmentHeader5SplitEm+0xd5>
  10394f:	48 8b 55 e8          	mov    -0x18(%rbp),%rdx
  103953:	48 8b 45 e0          	mov    -0x20(%rbp),%rax
  103957:	48 01 d0             	add    %rdx,%rax
  10395a:	48 83 c0 20          	add    $0x20,%rax
  10395e:	48 89 45 f0          	mov    %rax,-0x10(%rbp)
  103962:	48 8b 45 e8          	mov    -0x18(%rbp),%rax
  103966:	48 8b 40 08          	mov    0x8(%rax),%rax
  10396a:	48 8b 55 f0          	mov    -0x10(%rbp),%rdx
  10396e:	48 89 50 10          	mov    %rdx,0x10(%rax)
  103972:	48 8b 45 e8          	mov    -0x18(%rbp),%rax
  103976:	48 8b 50 08          	mov    0x8(%rax),%rdx
  10397a:	48 8b 45 f0          	mov    -0x10(%rbp),%rax
  10397e:	48 89 50 08          	mov    %rdx,0x8(%rax)
  103982:	48 8b 45 e8          	mov    -0x18(%rbp),%rax
  103986:	48 8b 55 f0          	mov    -0x10(%rbp),%rdx
  10398a:	48 89 50 08          	mov    %rdx,0x8(%rax)
  10398e:	48 8b 45 f0          	mov    -0x10(%rbp),%rax
  103992:	48 8b 55 e8          	mov    -0x18(%rbp),%rdx
  103996:	48 89 50 10          	mov    %rdx,0x10(%rax)
  10399a:	48 8b 55 f8          	mov    -0x8(%rbp),%rdx
  10399e:	48 8b 45 f0          	mov    -0x10(%rbp),%rax
  1039a2:	48 89 10             	mov    %rdx,(%rax)
  1039a5:	48 8b 45 e8          	mov    -0x18(%rbp),%rax
  1039a9:	0f b6 50 18          	movzbl 0x18(%rax),%edx
  1039ad:	48 8b 45 f0          	mov    -0x10(%rbp),%rax
  1039b1:	88 50 18             	mov    %dl,0x18(%rax)
  1039b4:	48 8b 45 e8          	mov    -0x18(%rbp),%rax
  1039b8:	48 8b 55 e0          	mov    -0x20(%rbp),%rdx
  1039bc:	48 89 10             	mov    %rdx,(%rax)
  1039bf:	48 8b 05 ea 30 01 00 	mov    0x130ea(%rip),%rax        # 116ab0 <LastHdr>
  1039c6:	48 39 45 e8          	cmp    %rax,-0x18(%rbp)
  1039ca:	75 0b                	jne    1039d7 <_ZN17HeapSegmentHeader5SplitEm+0xd1>
  1039cc:	48 8b 45 f0          	mov    -0x10(%rbp),%rax
  1039d0:	48 89 05 d9 30 01 00 	mov    %rax,0x130d9(%rip)        # 116ab0 <LastHdr>
  1039d7:	48 8b 45 f0          	mov    -0x10(%rbp),%rax
  1039db:	c9                   	leaveq 
  1039dc:	c3                   	retq   

00000000001039dd <_Znwm>:
  1039dd:	f3 0f 1e fa          	endbr64 
  1039e1:	55                   	push   %rbp
  1039e2:	48 89 e5             	mov    %rsp,%rbp
  1039e5:	48 83 ec 10          	sub    $0x10,%rsp
  1039e9:	48 89 7d f8          	mov    %rdi,-0x8(%rbp)
  1039ed:	48 8b 45 f8          	mov    -0x8(%rbp),%rax
  1039f1:	48 89 c7             	mov    %rax,%rdi
  1039f4:	e8 61 94 00 00       	callq  10ce5a <_Z7kmallocm>
  1039f9:	c9                   	leaveq 
  1039fa:	c3                   	retq   

00000000001039fb <_Znam>:
  1039fb:	f3 0f 1e fa          	endbr64 
  1039ff:	55                   	push   %rbp
  103a00:	48 89 e5             	mov    %rsp,%rbp
  103a03:	48 83 ec 10          	sub    $0x10,%rsp
  103a07:	48 89 7d f8          	mov    %rdi,-0x8(%rbp)
  103a0b:	48 8b 45 f8          	mov    -0x8(%rbp),%rax
  103a0f:	48 89 c7             	mov    %rax,%rdi
  103a12:	e8 43 94 00 00       	callq  10ce5a <_Z7kmallocm>
  103a17:	c9                   	leaveq 
  103a18:	c3                   	retq   

0000000000103a19 <_ZdlPv>:
  103a19:	f3 0f 1e fa          	endbr64 
  103a1d:	55                   	push   %rbp
  103a1e:	48 89 e5             	mov    %rsp,%rbp
  103a21:	48 83 ec 10          	sub    $0x10,%rsp
  103a25:	48 89 7d f8          	mov    %rdi,-0x8(%rbp)
  103a29:	48 8b 45 f8          	mov    -0x8(%rbp),%rax
  103a2d:	48 89 c7             	mov    %rax,%rdi
  103a30:	e8 7d 93 00 00       	callq  10cdb2 <_Z5kfreePv>
  103a35:	90                   	nop
  103a36:	c9                   	leaveq 
  103a37:	c3                   	retq   

0000000000103a38 <_ZdaPv>:
  103a38:	f3 0f 1e fa          	endbr64 
  103a3c:	55                   	push   %rbp
  103a3d:	48 89 e5             	mov    %rsp,%rbp
  103a40:	48 83 ec 10          	sub    $0x10,%rsp
  103a44:	48 89 7d f8          	mov    %rdi,-0x8(%rbp)
  103a48:	48 8b 45 f8          	mov    -0x8(%rbp),%rax
  103a4c:	48 89 c7             	mov    %rax,%rdi
  103a4f:	e8 5e 93 00 00       	callq  10cdb2 <_Z5kfreePv>
  103a54:	90                   	nop
  103a55:	c9                   	leaveq 
  103a56:	c3                   	retq   

0000000000103a57 <_ZdlPvm>:
  103a57:	f3 0f 1e fa          	endbr64 
  103a5b:	55                   	push   %rbp
  103a5c:	48 89 e5             	mov    %rsp,%rbp
  103a5f:	48 83 ec 10          	sub    $0x10,%rsp
  103a63:	48 89 7d f8          	mov    %rdi,-0x8(%rbp)
  103a67:	48 89 75 f0          	mov    %rsi,-0x10(%rbp)
  103a6b:	48 8b 45 f8          	mov    -0x8(%rbp),%rax
  103a6f:	48 89 c7             	mov    %rax,%rdi
  103a72:	e8 3b 93 00 00       	callq  10cdb2 <_Z5kfreePv>
  103a77:	90                   	nop
  103a78:	c9                   	leaveq 
  103a79:	c3                   	retq   

0000000000103a7a <_ZdaPvm>:
  103a7a:	f3 0f 1e fa          	endbr64 
  103a7e:	55                   	push   %rbp
  103a7f:	48 89 e5             	mov    %rsp,%rbp
  103a82:	48 83 ec 10          	sub    $0x10,%rsp
  103a86:	48 89 7d f8          	mov    %rdi,-0x8(%rbp)
  103a8a:	48 89 75 f0          	mov    %rsi,-0x10(%rbp)
  103a8e:	48 8b 45 f8          	mov    -0x8(%rbp),%rax
  103a92:	48 89 c7             	mov    %rax,%rdi
  103a95:	e8 18 93 00 00       	callq  10cdb2 <_Z5kfreePv>
  103a9a:	90                   	nop
  103a9b:	c9                   	leaveq 
  103a9c:	c3                   	retq   
  103a9d:	90                   	nop

0000000000103a9e <_ZN9MemoryMap15IsUsuableMemoryEm>:
  103a9e:	f3 0f 1e fa          	endbr64 
  103aa2:	55                   	push   %rbp
  103aa3:	48 89 e5             	mov    %rsp,%rbp
  103aa6:	48 83 ec 10          	sub    $0x10,%rsp
  103aaa:	48 89 7d f8          	mov    %rdi,-0x8(%rbp)
  103aae:	48 89 75 f0          	mov    %rsi,-0x10(%rbp)
  103ab2:	48 8b 45 f8          	mov    -0x8(%rbp),%rax
  103ab6:	48 8b 40 08          	mov    0x8(%rax),%rax
  103aba:	48 39 45 f0          	cmp    %rax,-0x10(%rbp)
  103abe:	72 07                	jb     103ac7 <_ZN9MemoryMap15IsUsuableMemoryEm+0x29>
  103ac0:	b8 00 00 00 00       	mov    $0x0,%eax
  103ac5:	eb 5f                	jmp    103b26 <_ZN9MemoryMap15IsUsuableMemoryEm+0x88>
  103ac7:	8b 05 93 30 01 00    	mov    0x13093(%rip),%eax        # 116b60 <_ZL17usuableMemoryType>
  103acd:	85 c0                	test   %eax,%eax
  103acf:	75 21                	jne    103af2 <_ZN9MemoryMap15IsUsuableMemoryEm+0x54>
  103ad1:	0f b6 05 48 3e 01 00 	movzbl 0x13e48(%rip),%eax        # 117920 <fromUEFI>
  103ad8:	84 c0                	test   %al,%al
  103ada:	74 0c                	je     103ae8 <_ZN9MemoryMap15IsUsuableMemoryEm+0x4a>
  103adc:	c7 05 7a 30 01 00 07 	movl   $0x7,0x1307a(%rip)        # 116b60 <_ZL17usuableMemoryType>
  103ae3:	00 00 00 
  103ae6:	eb 0a                	jmp    103af2 <_ZN9MemoryMap15IsUsuableMemoryEm+0x54>
  103ae8:	c7 05 6e 30 01 00 01 	movl   $0x1,0x1306e(%rip)        # 116b60 <_ZL17usuableMemoryType>
  103aef:	00 00 00 
  103af2:	48 8b 45 f8          	mov    -0x8(%rbp),%rax
  103af6:	48 8b 08             	mov    (%rax),%rcx
  103af9:	48 8b 55 f0          	mov    -0x10(%rbp),%rdx
  103afd:	48 89 d0             	mov    %rdx,%rax
  103b00:	48 01 c0             	add    %rax,%rax
  103b03:	48 01 d0             	add    %rdx,%rax
  103b06:	48 c1 e0 03          	shl    $0x3,%rax
  103b0a:	48 01 c8             	add    %rcx,%rax
  103b0d:	8b 50 10             	mov    0x10(%rax),%edx
  103b10:	8b 05 4a 30 01 00    	mov    0x1304a(%rip),%eax        # 116b60 <_ZL17usuableMemoryType>
  103b16:	39 c2                	cmp    %eax,%edx
  103b18:	75 07                	jne    103b21 <_ZN9MemoryMap15IsUsuableMemoryEm+0x83>
  103b1a:	b8 01 00 00 00       	mov    $0x1,%eax
  103b1f:	eb 05                	jmp    103b26 <_ZN9MemoryMap15IsUsuableMemoryEm+0x88>
  103b21:	b8 00 00 00 00       	mov    $0x0,%eax
  103b26:	c9                   	leaveq 
  103b27:	c3                   	retq   

0000000000103b28 <_ZN9MemoryMap16GetUsuableMemoryEv>:
  103b28:	f3 0f 1e fa          	endbr64 
  103b2c:	55                   	push   %rbp
  103b2d:	48 89 e5             	mov    %rsp,%rbp
  103b30:	48 83 ec 18          	sub    $0x18,%rsp
  103b34:	48 89 7d e8          	mov    %rdi,-0x18(%rbp)
  103b38:	0f b6 05 25 30 01 00 	movzbl 0x13025(%rip),%eax        # 116b64 <_ZL16usuableMemoryGot>
  103b3f:	84 c0                	test   %al,%al
  103b41:	74 0c                	je     103b4f <_ZN9MemoryMap16GetUsuableMemoryEv+0x27>
  103b43:	48 8d 05 76 2f 01 00 	lea    0x12f76(%rip),%rax        # 116ac0 <_ZL13usuableMemory>
  103b4a:	e9 87 00 00 00       	jmpq   103bd6 <_ZN9MemoryMap16GetUsuableMemoryEv+0xae>
  103b4f:	48 c7 45 f8 00 00 00 	movq   $0x0,-0x8(%rbp)
  103b56:	00 
  103b57:	48 c7 45 f0 00 00 00 	movq   $0x0,-0x10(%rbp)
  103b5e:	00 
  103b5f:	48 8b 45 e8          	mov    -0x18(%rbp),%rax
  103b63:	48 8b 40 08          	mov    0x8(%rax),%rax
  103b67:	48 39 45 f0          	cmp    %rax,-0x10(%rbp)
  103b6b:	73 5b                	jae    103bc8 <_ZN9MemoryMap16GetUsuableMemoryEv+0xa0>
  103b6d:	48 8b 55 f0          	mov    -0x10(%rbp),%rdx
  103b71:	48 8b 45 e8          	mov    -0x18(%rbp),%rax
  103b75:	48 89 d6             	mov    %rdx,%rsi
  103b78:	48 89 c7             	mov    %rax,%rdi
  103b7b:	e8 1e ff ff ff       	callq  103a9e <_ZN9MemoryMap15IsUsuableMemoryEm>
  103b80:	84 c0                	test   %al,%al
  103b82:	74 3d                	je     103bc1 <_ZN9MemoryMap16GetUsuableMemoryEv+0x99>
  103b84:	48 8b 45 e8          	mov    -0x18(%rbp),%rax
  103b88:	48 8b 08             	mov    (%rax),%rcx
  103b8b:	48 8b 55 f0          	mov    -0x10(%rbp),%rdx
  103b8f:	48 89 d0             	mov    %rdx,%rax
  103b92:	48 01 c0             	add    %rax,%rax
  103b95:	48 01 d0             	add    %rdx,%rax
  103b98:	48 c1 e0 03          	shl    $0x3,%rax
  103b9c:	48 89 c6             	mov    %rax,%rsi
  103b9f:	48 8b 45 f8          	mov    -0x8(%rbp),%rax
  103ba3:	48 8d 50 01          	lea    0x1(%rax),%rdx
  103ba7:	48 89 55 f8          	mov    %rdx,-0x8(%rbp)
  103bab:	48 01 f1             	add    %rsi,%rcx
  103bae:	48 8d 14 c5 00 00 00 	lea    0x0(,%rax,8),%rdx
  103bb5:	00 
  103bb6:	48 8d 05 03 2f 01 00 	lea    0x12f03(%rip),%rax        # 116ac0 <_ZL13usuableMemory>
  103bbd:	48 89 0c 02          	mov    %rcx,(%rdx,%rax,1)
  103bc1:	48 83 45 f0 01       	addq   $0x1,-0x10(%rbp)
  103bc6:	eb 97                	jmp    103b5f <_ZN9MemoryMap16GetUsuableMemoryEv+0x37>
  103bc8:	c6 05 95 2f 01 00 01 	movb   $0x1,0x12f95(%rip)        # 116b64 <_ZL16usuableMemoryGot>
  103bcf:	48 8d 05 ea 2e 01 00 	lea    0x12eea(%rip),%rax        # 116ac0 <_ZL13usuableMemory>
  103bd6:	c9                   	leaveq 
  103bd7:	c3                   	retq   

0000000000103bd8 <_ZN9MemoryMap20GetTotalSystemMemoryEv>:
  103bd8:	f3 0f 1e fa          	endbr64 
  103bdc:	55                   	push   %rbp
  103bdd:	48 89 e5             	mov    %rsp,%rbp
  103be0:	48 83 ec 28          	sub    $0x28,%rsp
  103be4:	48 89 7d d8          	mov    %rdi,-0x28(%rbp)
  103be8:	48 c7 45 f8 00 00 00 	movq   $0x0,-0x8(%rbp)
  103bef:	00 
  103bf0:	48 c7 45 f0 00 00 00 	movq   $0x0,-0x10(%rbp)
  103bf7:	00 
  103bf8:	48 8b 45 d8          	mov    -0x28(%rbp),%rax
  103bfc:	48 8b 40 08          	mov    0x8(%rax),%rax
  103c00:	48 39 45 f0          	cmp    %rax,-0x10(%rbp)
  103c04:	73 32                	jae    103c38 <_ZN9MemoryMap20GetTotalSystemMemoryEv+0x60>
  103c06:	48 8b 45 d8          	mov    -0x28(%rbp),%rax
  103c0a:	48 8b 08             	mov    (%rax),%rcx
  103c0d:	48 8b 55 f0          	mov    -0x10(%rbp),%rdx
  103c11:	48 89 d0             	mov    %rdx,%rax
  103c14:	48 01 c0             	add    %rax,%rax
  103c17:	48 01 d0             	add    %rdx,%rax
  103c1a:	48 c1 e0 03          	shl    $0x3,%rax
  103c1e:	48 01 c8             	add    %rcx,%rax
  103c21:	48 89 45 e8          	mov    %rax,-0x18(%rbp)
  103c25:	48 8b 45 e8          	mov    -0x18(%rbp),%rax
  103c29:	48 8b 40 08          	mov    0x8(%rax),%rax
  103c2d:	48 01 45 f8          	add    %rax,-0x8(%rbp)
  103c31:	48 83 45 f0 01       	addq   $0x1,-0x10(%rbp)
  103c36:	eb c0                	jmp    103bf8 <_ZN9MemoryMap20GetTotalSystemMemoryEv+0x20>
  103c38:	48 8b 45 f8          	mov    -0x8(%rbp),%rax
  103c3c:	c9                   	leaveq 
  103c3d:	c3                   	retq   

0000000000103c3e <_ZN9MemoryMap22GetUsuableSystemMemoryEv>:
  103c3e:	f3 0f 1e fa          	endbr64 
  103c42:	55                   	push   %rbp
  103c43:	48 89 e5             	mov    %rsp,%rbp
  103c46:	48 83 ec 28          	sub    $0x28,%rsp
  103c4a:	48 89 7d d8          	mov    %rdi,-0x28(%rbp)
  103c4e:	48 c7 45 f8 00 00 00 	movq   $0x0,-0x8(%rbp)
  103c55:	00 
  103c56:	48 c7 45 f0 00 00 00 	movq   $0x0,-0x10(%rbp)
  103c5d:	00 
  103c5e:	48 8b 45 d8          	mov    -0x28(%rbp),%rax
  103c62:	48 8b 40 08          	mov    0x8(%rax),%rax
  103c66:	48 39 45 f0          	cmp    %rax,-0x10(%rbp)
  103c6a:	73 49                	jae    103cb5 <_ZN9MemoryMap22GetUsuableSystemMemoryEv+0x77>
  103c6c:	48 8b 55 f0          	mov    -0x10(%rbp),%rdx
  103c70:	48 8b 45 d8          	mov    -0x28(%rbp),%rax
  103c74:	48 89 d6             	mov    %rdx,%rsi
  103c77:	48 89 c7             	mov    %rax,%rdi
  103c7a:	e8 1f fe ff ff       	callq  103a9e <_ZN9MemoryMap15IsUsuableMemoryEm>
  103c7f:	84 c0                	test   %al,%al
  103c81:	74 2b                	je     103cae <_ZN9MemoryMap22GetUsuableSystemMemoryEv+0x70>
  103c83:	48 8b 45 d8          	mov    -0x28(%rbp),%rax
  103c87:	48 8b 08             	mov    (%rax),%rcx
  103c8a:	48 8b 55 f0          	mov    -0x10(%rbp),%rdx
  103c8e:	48 89 d0             	mov    %rdx,%rax
  103c91:	48 01 c0             	add    %rax,%rax
  103c94:	48 01 d0             	add    %rdx,%rax
  103c97:	48 c1 e0 03          	shl    $0x3,%rax
  103c9b:	48 01 c8             	add    %rcx,%rax
  103c9e:	48 89 45 e8          	mov    %rax,-0x18(%rbp)
  103ca2:	48 8b 45 e8          	mov    -0x18(%rbp),%rax
  103ca6:	48 8b 40 08          	mov    0x8(%rax),%rax
  103caa:	48 01 45 f8          	add    %rax,-0x8(%rbp)
  103cae:	48 83 45 f0 01       	addq   $0x1,-0x10(%rbp)
  103cb3:	eb a9                	jmp    103c5e <_ZN9MemoryMap22GetUsuableSystemMemoryEv+0x20>
  103cb5:	48 8b 45 f8          	mov    -0x8(%rbp),%rax
  103cb9:	c9                   	leaveq 
  103cba:	c3                   	retq   

0000000000103cbb <_ZN3PCI17EnumerateFunctionEmm>:
  103cbb:	f3 0f 1e fa          	endbr64 
  103cbf:	55                   	push   %rbp
  103cc0:	48 89 e5             	mov    %rsp,%rbp
  103cc3:	41 56                	push   %r14
  103cc5:	41 55                	push   %r13
  103cc7:	41 54                	push   %r12
  103cc9:	53                   	push   %rbx
  103cca:	48 83 ec 50          	sub    $0x50,%rsp
  103cce:	48 89 7d 98          	mov    %rdi,-0x68(%rbp)
  103cd2:	48 89 75 90          	mov    %rsi,-0x70(%rbp)
  103cd6:	48 8b 45 90          	mov    -0x70(%rbp),%rax
  103cda:	48 c1 e0 0c          	shl    $0xc,%rax
  103cde:	48 89 45 d0          	mov    %rax,-0x30(%rbp)
  103ce2:	48 8b 55 98          	mov    -0x68(%rbp),%rdx
  103ce6:	48 8b 45 d0          	mov    -0x30(%rbp),%rax
  103cea:	48 01 d0             	add    %rdx,%rax
  103ced:	48 89 45 c8          	mov    %rax,-0x38(%rbp)
  103cf1:	48 8b 55 c8          	mov    -0x38(%rbp),%rdx
  103cf5:	48 8b 45 c8          	mov    -0x38(%rbp),%rax
  103cf9:	b9 03 00 00 00       	mov    $0x3,%ecx
  103cfe:	48 89 c6             	mov    %rax,%rsi
  103d01:	48 8d 3d 40 13 01 00 	lea    0x11340(%rip),%rdi        # 115048 <KernelDirectory>
  103d08:	e8 c9 c3 ff ff       	callq  1000d6 <_ZN16PageTableManager9MapMemoryEmmm>
  103d0d:	48 8b 45 c8          	mov    -0x38(%rbp),%rax
  103d11:	48 89 45 c0          	mov    %rax,-0x40(%rbp)
  103d15:	48 8b 45 c0          	mov    -0x40(%rbp),%rax
  103d19:	0f b7 40 02          	movzwl 0x2(%rax),%eax
  103d1d:	66 85 c0             	test   %ax,%ax
  103d20:	0f 84 93 01 00 00    	je     103eb9 <_ZN3PCI17EnumerateFunctionEmm+0x1fe>
  103d26:	48 8b 45 c0          	mov    -0x40(%rbp),%rax
  103d2a:	0f b7 40 02          	movzwl 0x2(%rax),%eax
  103d2e:	66 83 f8 ff          	cmp    $0xffff,%ax
  103d32:	0f 84 84 01 00 00    	je     103ebc <_ZN3PCI17EnumerateFunctionEmm+0x201>
  103d38:	48 8b 45 c0          	mov    -0x40(%rbp),%rax
  103d3c:	0f b6 40 09          	movzbl 0x9(%rax),%eax
  103d40:	0f b6 d0             	movzbl %al,%edx
  103d43:	48 8b 45 c0          	mov    -0x40(%rbp),%rax
  103d47:	0f b6 40 0a          	movzbl 0xa(%rax),%eax
  103d4b:	0f b6 c8             	movzbl %al,%ecx
  103d4e:	48 8b 45 c0          	mov    -0x40(%rbp),%rax
  103d52:	0f b6 40 0b          	movzbl 0xb(%rax),%eax
  103d56:	0f b6 c0             	movzbl %al,%eax
  103d59:	89 ce                	mov    %ecx,%esi
  103d5b:	89 c7                	mov    %eax,%edi
  103d5d:	e8 cf 07 00 00       	callq  104531 <_ZN3PCI13GetProgIFNameEhhh>
  103d62:	49 89 c6             	mov    %rax,%r14
  103d65:	48 8b 45 c0          	mov    -0x40(%rbp),%rax
  103d69:	0f b6 40 0a          	movzbl 0xa(%rax),%eax
  103d6d:	0f b6 d0             	movzbl %al,%edx
  103d70:	48 8b 45 c0          	mov    -0x40(%rbp),%rax
  103d74:	0f b6 40 0b          	movzbl 0xb(%rax),%eax
  103d78:	0f b6 c0             	movzbl %al,%eax
  103d7b:	89 d6                	mov    %edx,%esi
  103d7d:	89 c7                	mov    %eax,%edi
  103d7f:	e8 12 07 00 00       	callq  104496 <_ZN3PCI15GetSubclassNameEhh>
  103d84:	49 89 c5             	mov    %rax,%r13
  103d87:	48 8b 45 c0          	mov    -0x40(%rbp),%rax
  103d8b:	0f b6 40 0b          	movzbl 0xb(%rax),%eax
  103d8f:	0f b6 c0             	movzbl %al,%eax
  103d92:	48 98                	cltq   
  103d94:	48 8d 14 c5 00 00 00 	lea    0x0(,%rax,8),%rdx
  103d9b:	00 
  103d9c:	48 8d 05 9d b3 00 00 	lea    0xb39d(%rip),%rax        # 10f140 <_ZN3PCI13DeviceClassesE>
  103da3:	48 8b 1c 02          	mov    (%rdx,%rax,1),%rbx
  103da7:	48 8b 45 c0          	mov    -0x40(%rbp),%rax
  103dab:	0f b7 40 02          	movzwl 0x2(%rax),%eax
  103daf:	0f b7 d0             	movzwl %ax,%edx
  103db2:	48 8b 45 c0          	mov    -0x40(%rbp),%rax
  103db6:	0f b7 00             	movzwl (%rax),%eax
  103db9:	0f b7 c0             	movzwl %ax,%eax
  103dbc:	89 d6                	mov    %edx,%esi
  103dbe:	89 c7                	mov    %eax,%edi
  103dc0:	e8 4f 03 00 00       	callq  104114 <_ZN3PCI13GetDeviceNameEtt>
  103dc5:	49 89 c4             	mov    %rax,%r12
  103dc8:	48 8b 45 c0          	mov    -0x40(%rbp),%rax
  103dcc:	0f b7 00             	movzwl (%rax),%eax
  103dcf:	0f b7 c0             	movzwl %ax,%eax
  103dd2:	89 c7                	mov    %eax,%edi
  103dd4:	e8 c3 02 00 00       	callq  10409c <_ZN3PCI13GetVendorNameEt>
  103dd9:	4d 89 f1             	mov    %r14,%r9
  103ddc:	4d 89 e8             	mov    %r13,%r8
  103ddf:	48 89 d9             	mov    %rbx,%rcx
  103de2:	4c 89 e2             	mov    %r12,%rdx
  103de5:	48 89 c6             	mov    %rax,%rsi
  103de8:	48 8d 3d f1 ca 00 00 	lea    0xcaf1(%rip),%rdi        # 1108e0 <__rodata+0x8e0>
  103def:	b8 00 00 00 00       	mov    $0x0,%eax
  103df4:	e8 0b 8a 00 00       	callq  10c804 <_Z7kprintfPKcz>
  103df9:	48 8b 45 c0          	mov    -0x40(%rbp),%rax
  103dfd:	0f b6 40 0b          	movzbl 0xb(%rax),%eax
  103e01:	0f b6 c0             	movzbl %al,%eax
  103e04:	83 f8 01             	cmp    $0x1,%eax
  103e07:	0f 85 b0 00 00 00    	jne    103ebd <_ZN3PCI17EnumerateFunctionEmm+0x202>
  103e0d:	48 8b 45 c0          	mov    -0x40(%rbp),%rax
  103e11:	0f b6 40 0a          	movzbl 0xa(%rax),%eax
  103e15:	0f b6 c0             	movzbl %al,%eax
  103e18:	83 f8 06             	cmp    $0x6,%eax
  103e1b:	0f 85 9c 00 00 00    	jne    103ebd <_ZN3PCI17EnumerateFunctionEmm+0x202>
  103e21:	48 8b 45 c0          	mov    -0x40(%rbp),%rax
  103e25:	0f b6 40 09          	movzbl 0x9(%rax),%eax
  103e29:	0f b6 c0             	movzbl %al,%eax
  103e2c:	83 f8 01             	cmp    $0x1,%eax
  103e2f:	0f 85 88 00 00 00    	jne    103ebd <_ZN3PCI17EnumerateFunctionEmm+0x202>
  103e35:	bf 18 01 00 00       	mov    $0x118,%edi
  103e3a:	e8 9e fb ff ff       	callq  1039dd <_Znwm>
  103e3f:	48 89 c3             	mov    %rax,%rbx
  103e42:	48 8b 45 c0          	mov    -0x40(%rbp),%rax
  103e46:	48 89 c6             	mov    %rax,%rsi
  103e49:	48 89 df             	mov    %rbx,%rdi
  103e4c:	e8 cf 2d 00 00       	callq  106c20 <_ZN4AHCI10AHCIDriverC1EPN3PCI15PCIDeviceHeaderE>
  103e51:	48 89 5d b8          	mov    %rbx,-0x48(%rbp)
  103e55:	48 8d 45 a0          	lea    -0x60(%rbp),%rax
  103e59:	48 8b 55 b8          	mov    -0x48(%rbp),%rdx
  103e5d:	48 89 d6             	mov    %rdx,%rsi
  103e60:	48 89 c7             	mov    %rax,%rdi
  103e63:	e8 4e 25 00 00       	callq  1063b6 <_ZN4AHCI10AHCIDriver12PreparePortsEv>
  103e68:	c7 45 dc 00 00 00 00 	movl   $0x0,-0x24(%rbp)
  103e6f:	8b 5d dc             	mov    -0x24(%rbp),%ebx
  103e72:	48 8d 45 a0          	lea    -0x60(%rbp),%rax
  103e76:	48 89 c7             	mov    %rax,%rdi
  103e79:	e8 96 a1 00 00       	callq  10e014 <_ZNK6vectorIPN4AHCI10AHCIDeviceEE4sizeEv>
  103e7e:	48 39 c3             	cmp    %rax,%rbx
  103e81:	0f 92 c0             	setb   %al
  103e84:	84 c0                	test   %al,%al
  103e86:	74 23                	je     103eab <_ZN3PCI17EnumerateFunctionEmm+0x1f0>
  103e88:	8b 55 dc             	mov    -0x24(%rbp),%edx
  103e8b:	48 8d 45 a0          	lea    -0x60(%rbp),%rax
  103e8f:	48 89 d6             	mov    %rdx,%rsi
  103e92:	48 89 c7             	mov    %rax,%rdi
  103e95:	e8 94 a1 00 00       	callq  10e02e <_ZN6vectorIPN4AHCI10AHCIDeviceEEixEm>
  103e9a:	48 8b 00             	mov    (%rax),%rax
  103e9d:	48 89 c7             	mov    %rax,%rdi
  103ea0:	e8 c3 2e 00 00       	callq  106d68 <_Z14RegisterDeviceP6Device>
  103ea5:	83 45 dc 01          	addl   $0x1,-0x24(%rbp)
  103ea9:	eb c4                	jmp    103e6f <_ZN3PCI17EnumerateFunctionEmm+0x1b4>
  103eab:	48 8d 45 a0          	lea    -0x60(%rbp),%rax
  103eaf:	48 89 c7             	mov    %rax,%rdi
  103eb2:	e8 2d a1 00 00       	callq  10dfe4 <_ZN6vectorIPN4AHCI10AHCIDeviceEED1Ev>
  103eb7:	eb 04                	jmp    103ebd <_ZN3PCI17EnumerateFunctionEmm+0x202>
  103eb9:	90                   	nop
  103eba:	eb 01                	jmp    103ebd <_ZN3PCI17EnumerateFunctionEmm+0x202>
  103ebc:	90                   	nop
  103ebd:	48 83 c4 50          	add    $0x50,%rsp
  103ec1:	5b                   	pop    %rbx
  103ec2:	41 5c                	pop    %r12
  103ec4:	41 5d                	pop    %r13
  103ec6:	41 5e                	pop    %r14
  103ec8:	5d                   	pop    %rbp
  103ec9:	c3                   	retq   

0000000000103eca <_ZN3PCI15EnumerateDeviceEmm>:
  103eca:	f3 0f 1e fa          	endbr64 
  103ece:	55                   	push   %rbp
  103ecf:	48 89 e5             	mov    %rsp,%rbp
  103ed2:	48 83 ec 30          	sub    $0x30,%rsp
  103ed6:	48 89 7d d8          	mov    %rdi,-0x28(%rbp)
  103eda:	48 89 75 d0          	mov    %rsi,-0x30(%rbp)
  103ede:	48 8b 45 d0          	mov    -0x30(%rbp),%rax
  103ee2:	48 c1 e0 0f          	shl    $0xf,%rax
  103ee6:	48 89 45 f0          	mov    %rax,-0x10(%rbp)
  103eea:	48 8b 55 d8          	mov    -0x28(%rbp),%rdx
  103eee:	48 8b 45 f0          	mov    -0x10(%rbp),%rax
  103ef2:	48 01 d0             	add    %rdx,%rax
  103ef5:	48 89 45 e8          	mov    %rax,-0x18(%rbp)
  103ef9:	48 8b 55 e8          	mov    -0x18(%rbp),%rdx
  103efd:	48 8b 45 e8          	mov    -0x18(%rbp),%rax
  103f01:	b9 03 00 00 00       	mov    $0x3,%ecx
  103f06:	48 89 c6             	mov    %rax,%rsi
  103f09:	48 8d 3d 38 11 01 00 	lea    0x11138(%rip),%rdi        # 115048 <KernelDirectory>
  103f10:	e8 c1 c1 ff ff       	callq  1000d6 <_ZN16PageTableManager9MapMemoryEmmm>
  103f15:	48 8b 45 e8          	mov    -0x18(%rbp),%rax
  103f19:	48 89 45 e0          	mov    %rax,-0x20(%rbp)
  103f1d:	48 8b 45 e0          	mov    -0x20(%rbp),%rax
  103f21:	0f b7 40 02          	movzwl 0x2(%rax),%eax
  103f25:	66 85 c0             	test   %ax,%ax
  103f28:	74 37                	je     103f61 <_ZN3PCI15EnumerateDeviceEmm+0x97>
  103f2a:	48 8b 45 e0          	mov    -0x20(%rbp),%rax
  103f2e:	0f b7 40 02          	movzwl 0x2(%rax),%eax
  103f32:	66 83 f8 ff          	cmp    $0xffff,%ax
  103f36:	74 2c                	je     103f64 <_ZN3PCI15EnumerateDeviceEmm+0x9a>
  103f38:	48 c7 45 f8 00 00 00 	movq   $0x0,-0x8(%rbp)
  103f3f:	00 
  103f40:	48 83 7d f8 07       	cmpq   $0x7,-0x8(%rbp)
  103f45:	77 1e                	ja     103f65 <_ZN3PCI15EnumerateDeviceEmm+0x9b>
  103f47:	48 8b 55 f8          	mov    -0x8(%rbp),%rdx
  103f4b:	48 8b 45 e8          	mov    -0x18(%rbp),%rax
  103f4f:	48 89 d6             	mov    %rdx,%rsi
  103f52:	48 89 c7             	mov    %rax,%rdi
  103f55:	e8 61 fd ff ff       	callq  103cbb <_ZN3PCI17EnumerateFunctionEmm>
  103f5a:	48 83 45 f8 01       	addq   $0x1,-0x8(%rbp)
  103f5f:	eb df                	jmp    103f40 <_ZN3PCI15EnumerateDeviceEmm+0x76>
  103f61:	90                   	nop
  103f62:	eb 01                	jmp    103f65 <_ZN3PCI15EnumerateDeviceEmm+0x9b>
  103f64:	90                   	nop
  103f65:	c9                   	leaveq 
  103f66:	c3                   	retq   

0000000000103f67 <_ZN3PCI12EnumerateBusEmm>:
  103f67:	f3 0f 1e fa          	endbr64 
  103f6b:	55                   	push   %rbp
  103f6c:	48 89 e5             	mov    %rsp,%rbp
  103f6f:	48 83 ec 30          	sub    $0x30,%rsp
  103f73:	48 89 7d d8          	mov    %rdi,-0x28(%rbp)
  103f77:	48 89 75 d0          	mov    %rsi,-0x30(%rbp)
  103f7b:	48 8b 45 d0          	mov    -0x30(%rbp),%rax
  103f7f:	48 c1 e0 14          	shl    $0x14,%rax
  103f83:	48 89 45 f0          	mov    %rax,-0x10(%rbp)
  103f87:	48 8b 55 d8          	mov    -0x28(%rbp),%rdx
  103f8b:	48 8b 45 f0          	mov    -0x10(%rbp),%rax
  103f8f:	48 01 d0             	add    %rdx,%rax
  103f92:	48 89 45 e8          	mov    %rax,-0x18(%rbp)
  103f96:	48 8b 55 e8          	mov    -0x18(%rbp),%rdx
  103f9a:	48 8b 45 e8          	mov    -0x18(%rbp),%rax
  103f9e:	b9 03 00 00 00       	mov    $0x3,%ecx
  103fa3:	48 89 c6             	mov    %rax,%rsi
  103fa6:	48 8d 3d 9b 10 01 00 	lea    0x1109b(%rip),%rdi        # 115048 <KernelDirectory>
  103fad:	e8 24 c1 ff ff       	callq  1000d6 <_ZN16PageTableManager9MapMemoryEmmm>
  103fb2:	48 8b 45 e8          	mov    -0x18(%rbp),%rax
  103fb6:	48 89 45 e0          	mov    %rax,-0x20(%rbp)
  103fba:	48 8b 45 e0          	mov    -0x20(%rbp),%rax
  103fbe:	0f b7 40 02          	movzwl 0x2(%rax),%eax
  103fc2:	66 85 c0             	test   %ax,%ax
  103fc5:	74 37                	je     103ffe <_ZN3PCI12EnumerateBusEmm+0x97>
  103fc7:	48 8b 45 e0          	mov    -0x20(%rbp),%rax
  103fcb:	0f b7 40 02          	movzwl 0x2(%rax),%eax
  103fcf:	66 83 f8 ff          	cmp    $0xffff,%ax
  103fd3:	74 2c                	je     104001 <_ZN3PCI12EnumerateBusEmm+0x9a>
  103fd5:	48 c7 45 f8 00 00 00 	movq   $0x0,-0x8(%rbp)
  103fdc:	00 
  103fdd:	48 83 7d f8 1f       	cmpq   $0x1f,-0x8(%rbp)
  103fe2:	77 1e                	ja     104002 <_ZN3PCI12EnumerateBusEmm+0x9b>
  103fe4:	48 8b 55 f8          	mov    -0x8(%rbp),%rdx
  103fe8:	48 8b 45 e8          	mov    -0x18(%rbp),%rax
  103fec:	48 89 d6             	mov    %rdx,%rsi
  103fef:	48 89 c7             	mov    %rax,%rdi
  103ff2:	e8 d3 fe ff ff       	callq  103eca <_ZN3PCI15EnumerateDeviceEmm>
  103ff7:	48 83 45 f8 01       	addq   $0x1,-0x8(%rbp)
  103ffc:	eb df                	jmp    103fdd <_ZN3PCI12EnumerateBusEmm+0x76>
  103ffe:	90                   	nop
  103fff:	eb 01                	jmp    104002 <_ZN3PCI12EnumerateBusEmm+0x9b>
  104001:	90                   	nop
  104002:	c9                   	leaveq 
  104003:	c3                   	retq   

0000000000104004 <_ZN3PCI12EnumeratePCIEPN4ACPI10MCFGHeaderE>:
  104004:	f3 0f 1e fa          	endbr64 
  104008:	55                   	push   %rbp
  104009:	48 89 e5             	mov    %rsp,%rbp
  10400c:	48 83 ec 30          	sub    $0x30,%rsp
  104010:	48 89 7d d8          	mov    %rdi,-0x28(%rbp)
  104014:	48 8b 45 d8          	mov    -0x28(%rbp),%rax
  104018:	8b 40 04             	mov    0x4(%rax),%eax
  10401b:	89 c0                	mov    %eax,%eax
  10401d:	48 83 e8 2c          	sub    $0x2c,%rax
  104021:	48 c1 e8 04          	shr    $0x4,%rax
  104025:	48 89 45 e8          	mov    %rax,-0x18(%rbp)
  104029:	48 c7 45 f8 00 00 00 	movq   $0x0,-0x8(%rbp)
  104030:	00 
  104031:	48 8b 45 f8          	mov    -0x8(%rbp),%rax
  104035:	48 3b 45 e8          	cmp    -0x18(%rbp),%rax
  104039:	73 5e                	jae    104099 <_ZN3PCI12EnumeratePCIEPN4ACPI10MCFGHeaderE+0x95>
  10403b:	48 8b 45 f8          	mov    -0x8(%rbp),%rax
  10403f:	48 c1 e0 04          	shl    $0x4,%rax
  104043:	48 89 c2             	mov    %rax,%rdx
  104046:	48 8b 45 d8          	mov    -0x28(%rbp),%rax
  10404a:	48 01 d0             	add    %rdx,%rax
  10404d:	48 83 c0 2c          	add    $0x2c,%rax
  104051:	48 89 45 e0          	mov    %rax,-0x20(%rbp)
  104055:	48 8b 45 e0          	mov    -0x20(%rbp),%rax
  104059:	0f b6 40 0a          	movzbl 0xa(%rax),%eax
  10405d:	0f b6 c0             	movzbl %al,%eax
  104060:	48 89 45 f0          	mov    %rax,-0x10(%rbp)
  104064:	48 8b 45 e0          	mov    -0x20(%rbp),%rax
  104068:	0f b6 40 0b          	movzbl 0xb(%rax),%eax
  10406c:	0f b6 c0             	movzbl %al,%eax
  10406f:	48 39 45 f0          	cmp    %rax,-0x10(%rbp)
  104073:	73 1d                	jae    104092 <_ZN3PCI12EnumeratePCIEPN4ACPI10MCFGHeaderE+0x8e>
  104075:	48 8b 45 e0          	mov    -0x20(%rbp),%rax
  104079:	48 8b 00             	mov    (%rax),%rax
  10407c:	48 8b 55 f0          	mov    -0x10(%rbp),%rdx
  104080:	48 89 d6             	mov    %rdx,%rsi
  104083:	48 89 c7             	mov    %rax,%rdi
  104086:	e8 dc fe ff ff       	callq  103f67 <_ZN3PCI12EnumerateBusEmm>
  10408b:	48 83 45 f0 01       	addq   $0x1,-0x10(%rbp)
  104090:	eb d2                	jmp    104064 <_ZN3PCI12EnumeratePCIEPN4ACPI10MCFGHeaderE+0x60>
  104092:	48 83 45 f8 01       	addq   $0x1,-0x8(%rbp)
  104097:	eb 98                	jmp    104031 <_ZN3PCI12EnumeratePCIEPN4ACPI10MCFGHeaderE+0x2d>
  104099:	90                   	nop
  10409a:	c9                   	leaveq 
  10409b:	c3                   	retq   

000000000010409c <_ZN3PCI13GetVendorNameEt>:
  10409c:	f3 0f 1e fa          	endbr64 
  1040a0:	55                   	push   %rbp
  1040a1:	48 89 e5             	mov    %rsp,%rbp
  1040a4:	48 83 ec 20          	sub    $0x20,%rsp
  1040a8:	89 f8                	mov    %edi,%eax
  1040aa:	66 89 45 ec          	mov    %ax,-0x14(%rbp)
  1040ae:	0f b7 45 ec          	movzwl -0x14(%rbp),%eax
  1040b2:	3d 86 80 00 00       	cmp    $0x8086,%eax
  1040b7:	74 17                	je     1040d0 <_ZN3PCI13GetVendorNameEt+0x34>
  1040b9:	3d 86 80 00 00       	cmp    $0x8086,%eax
  1040be:	7f 2b                	jg     1040eb <_ZN3PCI13GetVendorNameEt+0x4f>
  1040c0:	3d 22 10 00 00       	cmp    $0x1022,%eax
  1040c5:	74 12                	je     1040d9 <_ZN3PCI13GetVendorNameEt+0x3d>
  1040c7:	3d de 10 00 00       	cmp    $0x10de,%eax
  1040cc:	74 14                	je     1040e2 <_ZN3PCI13GetVendorNameEt+0x46>
  1040ce:	eb 1b                	jmp    1040eb <_ZN3PCI13GetVendorNameEt+0x4f>
  1040d0:	48 8d 05 f4 c9 00 00 	lea    0xc9f4(%rip),%rax        # 110acb <__rodata+0xacb>
  1040d7:	eb 39                	jmp    104112 <_ZN3PCI13GetVendorNameEt+0x76>
  1040d9:	48 8d 05 f6 c9 00 00 	lea    0xc9f6(%rip),%rax        # 110ad6 <__rodata+0xad6>
  1040e0:	eb 30                	jmp    104112 <_ZN3PCI13GetVendorNameEt+0x76>
  1040e2:	48 8d 05 f1 c9 00 00 	lea    0xc9f1(%rip),%rax        # 110ada <__rodata+0xada>
  1040e9:	eb 27                	jmp    104112 <_ZN3PCI13GetVendorNameEt+0x76>
  1040eb:	bf 04 00 00 00       	mov    $0x4,%edi
  1040f0:	e8 06 f9 ff ff       	callq  1039fb <_Znam>
  1040f5:	48 89 45 f8          	mov    %rax,-0x8(%rbp)
  1040f9:	0f b7 55 ec          	movzwl -0x14(%rbp),%edx
  1040fd:	48 8b 45 f8          	mov    -0x8(%rbp),%rax
  104101:	be 78 00 00 00       	mov    $0x78,%esi
  104106:	48 89 c7             	mov    %rax,%rdi
  104109:	e8 4a 81 00 00       	callq  10c258 <_Z4itoaPhjm>
  10410e:	48 8b 45 f8          	mov    -0x8(%rbp),%rax
  104112:	c9                   	leaveq 
  104113:	c3                   	retq   

0000000000104114 <_ZN3PCI13GetDeviceNameEtt>:
  104114:	f3 0f 1e fa          	endbr64 
  104118:	55                   	push   %rbp
  104119:	48 89 e5             	mov    %rsp,%rbp
  10411c:	48 83 ec 20          	sub    $0x20,%rsp
  104120:	89 fa                	mov    %edi,%edx
  104122:	89 f0                	mov    %esi,%eax
  104124:	66 89 55 ec          	mov    %dx,-0x14(%rbp)
  104128:	66 89 45 e8          	mov    %ax,-0x18(%rbp)
  10412c:	0f b7 45 ec          	movzwl -0x14(%rbp),%eax
  104130:	3d de 10 00 00       	cmp    $0x10de,%eax
  104135:	74 5b                	je     104192 <_ZN3PCI13GetDeviceNameEtt+0x7e>
  104137:	3d 86 80 00 00       	cmp    $0x8086,%eax
  10413c:	75 7d                	jne    1041bb <_ZN3PCI13GetDeviceNameEtt+0xa7>
  10413e:	0f b7 45 e8          	movzwl -0x18(%rbp),%eax
  104142:	3d c0 29 00 00       	cmp    $0x29c0,%eax
  104147:	74 25                	je     10416e <_ZN3PCI13GetDeviceNameEtt+0x5a>
  104149:	3d c0 29 00 00       	cmp    $0x29c0,%eax
  10414e:	7f 42                	jg     104192 <_ZN3PCI13GetDeviceNameEtt+0x7e>
  104150:	3d 30 29 00 00       	cmp    $0x2930,%eax
  104155:	74 32                	je     104189 <_ZN3PCI13GetDeviceNameEtt+0x75>
  104157:	3d 30 29 00 00       	cmp    $0x2930,%eax
  10415c:	7f 34                	jg     104192 <_ZN3PCI13GetDeviceNameEtt+0x7e>
  10415e:	3d 18 29 00 00       	cmp    $0x2918,%eax
  104163:	74 12                	je     104177 <_ZN3PCI13GetDeviceNameEtt+0x63>
  104165:	3d 22 29 00 00       	cmp    $0x2922,%eax
  10416a:	74 14                	je     104180 <_ZN3PCI13GetDeviceNameEtt+0x6c>
  10416c:	eb 24                	jmp    104192 <_ZN3PCI13GetDeviceNameEtt+0x7e>
  10416e:	48 8d 05 78 c9 00 00 	lea    0xc978(%rip),%rax        # 110aed <__rodata+0xaed>
  104175:	eb 6b                	jmp    1041e2 <_ZN3PCI13GetDeviceNameEtt+0xce>
  104177:	48 8d 05 87 c9 00 00 	lea    0xc987(%rip),%rax        # 110b05 <__rodata+0xb05>
  10417e:	eb 62                	jmp    1041e2 <_ZN3PCI13GetDeviceNameEtt+0xce>
  104180:	48 8d 05 99 c9 00 00 	lea    0xc999(%rip),%rax        # 110b20 <__rodata+0xb20>
  104187:	eb 59                	jmp    1041e2 <_ZN3PCI13GetDeviceNameEtt+0xce>
  104189:	48 8d 05 b3 c9 00 00 	lea    0xc9b3(%rip),%rax        # 110b43 <__rodata+0xb43>
  104190:	eb 50                	jmp    1041e2 <_ZN3PCI13GetDeviceNameEtt+0xce>
  104192:	0f b7 45 e8          	movzwl -0x18(%rbp),%eax
  104196:	3d c7 1e 00 00       	cmp    $0x1ec7,%eax
  10419b:	74 15                	je     1041b2 <_ZN3PCI13GetDeviceNameEtt+0x9e>
  10419d:	3d c7 1e 00 00       	cmp    $0x1ec7,%eax
  1041a2:	7f 17                	jg     1041bb <_ZN3PCI13GetDeviceNameEtt+0xa7>
  1041a4:	3d 84 1e 00 00       	cmp    $0x1e84,%eax
  1041a9:	74 07                	je     1041b2 <_ZN3PCI13GetDeviceNameEtt+0x9e>
  1041ab:	3d c2 1e 00 00       	cmp    $0x1ec2,%eax
  1041b0:	75 09                	jne    1041bb <_ZN3PCI13GetDeviceNameEtt+0xa7>
  1041b2:	48 8d 05 9b c9 00 00 	lea    0xc99b(%rip),%rax        # 110b54 <__rodata+0xb54>
  1041b9:	eb 27                	jmp    1041e2 <_ZN3PCI13GetDeviceNameEtt+0xce>
  1041bb:	bf 04 00 00 00       	mov    $0x4,%edi
  1041c0:	e8 36 f8 ff ff       	callq  1039fb <_Znam>
  1041c5:	48 89 45 f8          	mov    %rax,-0x8(%rbp)
  1041c9:	0f b7 55 e8          	movzwl -0x18(%rbp),%edx
  1041cd:	48 8b 45 f8          	mov    -0x8(%rbp),%rax
  1041d1:	be 78 00 00 00       	mov    $0x78,%esi
  1041d6:	48 89 c7             	mov    %rax,%rdi
  1041d9:	e8 7a 80 00 00       	callq  10c258 <_Z4itoaPhjm>
  1041de:	48 8b 45 f8          	mov    -0x8(%rbp),%rax
  1041e2:	c9                   	leaveq 
  1041e3:	c3                   	retq   

00000000001041e4 <_ZN3PCI33MassStorageControllerSubclassNameEh>:
  1041e4:	f3 0f 1e fa          	endbr64 
  1041e8:	55                   	push   %rbp
  1041e9:	48 89 e5             	mov    %rsp,%rbp
  1041ec:	48 83 ec 20          	sub    $0x20,%rsp
  1041f0:	89 f8                	mov    %edi,%eax
  1041f2:	88 45 ec             	mov    %al,-0x14(%rbp)
  1041f5:	0f b6 45 ec          	movzbl -0x14(%rbp),%eax
  1041f9:	83 f8 08             	cmp    $0x8,%eax
  1041fc:	7f 34                	jg     104232 <_ZN3PCI33MassStorageControllerSubclassNameEh+0x4e>
  1041fe:	85 c0                	test   %eax,%eax
  104200:	0f 88 8f 00 00 00    	js     104295 <_ZN3PCI33MassStorageControllerSubclassNameEh+0xb1>
  104206:	83 f8 08             	cmp    $0x8,%eax
  104209:	0f 87 86 00 00 00    	ja     104295 <_ZN3PCI33MassStorageControllerSubclassNameEh+0xb1>
  10420f:	89 c0                	mov    %eax,%eax
  104211:	48 8d 14 85 00 00 00 	lea    0x0(,%rax,4),%rdx
  104218:	00 
  104219:	48 8d 05 00 ca 00 00 	lea    0xca00(%rip),%rax        # 110c20 <__rodata+0xc20>
  104220:	8b 04 02             	mov    (%rdx,%rax,1),%eax
  104223:	48 98                	cltq   
  104225:	48 8d 15 f4 c9 00 00 	lea    0xc9f4(%rip),%rdx        # 110c20 <__rodata+0xc20>
  10422c:	48 01 d0             	add    %rdx,%rax
  10422f:	3e ff e0             	notrack jmpq *%rax
  104232:	3d 80 00 00 00       	cmp    $0x80,%eax
  104237:	74 53                	je     10428c <_ZN3PCI33MassStorageControllerSubclassNameEh+0xa8>
  104239:	eb 5a                	jmp    104295 <_ZN3PCI33MassStorageControllerSubclassNameEh+0xb1>
  10423b:	48 8d 05 29 c9 00 00 	lea    0xc929(%rip),%rax        # 110b6b <__rodata+0xb6b>
  104242:	eb 78                	jmp    1042bc <_ZN3PCI33MassStorageControllerSubclassNameEh+0xd8>
  104244:	48 8d 05 34 c9 00 00 	lea    0xc934(%rip),%rax        # 110b7f <__rodata+0xb7f>
  10424b:	eb 6f                	jmp    1042bc <_ZN3PCI33MassStorageControllerSubclassNameEh+0xd8>
  10424d:	48 8d 05 3a c9 00 00 	lea    0xc93a(%rip),%rax        # 110b8e <__rodata+0xb8e>
  104254:	eb 66                	jmp    1042bc <_ZN3PCI33MassStorageControllerSubclassNameEh+0xd8>
  104256:	48 8d 05 48 c9 00 00 	lea    0xc948(%rip),%rax        # 110ba5 <__rodata+0xba5>
  10425d:	eb 5d                	jmp    1042bc <_ZN3PCI33MassStorageControllerSubclassNameEh+0xd8>
  10425f:	48 8d 05 52 c9 00 00 	lea    0xc952(%rip),%rax        # 110bb8 <__rodata+0xbb8>
  104266:	eb 54                	jmp    1042bc <_ZN3PCI33MassStorageControllerSubclassNameEh+0xd8>
  104268:	48 8d 05 59 c9 00 00 	lea    0xc959(%rip),%rax        # 110bc8 <__rodata+0xbc8>
  10426f:	eb 4b                	jmp    1042bc <_ZN3PCI33MassStorageControllerSubclassNameEh+0xd8>
  104271:	48 8d 05 5f c9 00 00 	lea    0xc95f(%rip),%rax        # 110bd7 <__rodata+0xbd7>
  104278:	eb 42                	jmp    1042bc <_ZN3PCI33MassStorageControllerSubclassNameEh+0xd8>
  10427a:	48 8d 05 61 c9 00 00 	lea    0xc961(%rip),%rax        # 110be2 <__rodata+0xbe2>
  104281:	eb 39                	jmp    1042bc <_ZN3PCI33MassStorageControllerSubclassNameEh+0xd8>
  104283:	48 8d 05 6e c9 00 00 	lea    0xc96e(%rip),%rax        # 110bf8 <__rodata+0xbf8>
  10428a:	eb 30                	jmp    1042bc <_ZN3PCI33MassStorageControllerSubclassNameEh+0xd8>
  10428c:	48 8d 05 84 c9 00 00 	lea    0xc984(%rip),%rax        # 110c17 <__rodata+0xc17>
  104293:	eb 27                	jmp    1042bc <_ZN3PCI33MassStorageControllerSubclassNameEh+0xd8>
  104295:	bf 04 00 00 00       	mov    $0x4,%edi
  10429a:	e8 5c f7 ff ff       	callq  1039fb <_Znam>
  10429f:	48 89 45 f8          	mov    %rax,-0x8(%rbp)
  1042a3:	0f b6 55 ec          	movzbl -0x14(%rbp),%edx
  1042a7:	48 8b 45 f8          	mov    -0x8(%rbp),%rax
  1042ab:	be 78 00 00 00       	mov    $0x78,%esi
  1042b0:	48 89 c7             	mov    %rax,%rdi
  1042b3:	e8 a0 7f 00 00       	callq  10c258 <_Z4itoaPhjm>
  1042b8:	48 8b 45 f8          	mov    -0x8(%rbp),%rax
  1042bc:	c9                   	leaveq 
  1042bd:	c3                   	retq   

00000000001042be <_ZN3PCI31SerialBusControllerSubclassNameEh>:
  1042be:	f3 0f 1e fa          	endbr64 
  1042c2:	55                   	push   %rbp
  1042c3:	48 89 e5             	mov    %rsp,%rbp
  1042c6:	48 83 ec 20          	sub    $0x20,%rsp
  1042ca:	89 f8                	mov    %edi,%eax
  1042cc:	88 45 ec             	mov    %al,-0x14(%rbp)
  1042cf:	0f b6 45 ec          	movzbl -0x14(%rbp),%eax
  1042d3:	83 f8 09             	cmp    $0x9,%eax
  1042d6:	7f 34                	jg     10430c <_ZN3PCI31SerialBusControllerSubclassNameEh+0x4e>
  1042d8:	85 c0                	test   %eax,%eax
  1042da:	0f 88 9b 00 00 00    	js     10437b <_ZN3PCI31SerialBusControllerSubclassNameEh+0xbd>
  1042e0:	83 f8 09             	cmp    $0x9,%eax
  1042e3:	0f 87 92 00 00 00    	ja     10437b <_ZN3PCI31SerialBusControllerSubclassNameEh+0xbd>
  1042e9:	89 c0                	mov    %eax,%eax
  1042eb:	48 8d 14 85 00 00 00 	lea    0x0(,%rax,4),%rdx
  1042f2:	00 
  1042f3:	48 8d 05 fa c9 00 00 	lea    0xc9fa(%rip),%rax        # 110cf4 <__rodata+0xcf4>
  1042fa:	8b 04 02             	mov    (%rdx,%rax,1),%eax
  1042fd:	48 98                	cltq   
  1042ff:	48 8d 15 ee c9 00 00 	lea    0xc9ee(%rip),%rdx        # 110cf4 <__rodata+0xcf4>
  104306:	48 01 d0             	add    %rdx,%rax
  104309:	3e ff e0             	notrack jmpq *%rax
  10430c:	3d 80 00 00 00       	cmp    $0x80,%eax
  104311:	74 5f                	je     104372 <_ZN3PCI31SerialBusControllerSubclassNameEh+0xb4>
  104313:	eb 66                	jmp    10437b <_ZN3PCI31SerialBusControllerSubclassNameEh+0xbd>
  104315:	48 8d 05 2c c9 00 00 	lea    0xc92c(%rip),%rax        # 110c48 <__rodata+0xc48>
  10431c:	e9 81 00 00 00       	jmpq   1043a2 <_ZN3PCI31SerialBusControllerSubclassNameEh+0xe4>
  104321:	48 8d 05 40 c9 00 00 	lea    0xc940(%rip),%rax        # 110c68 <__rodata+0xc68>
  104328:	eb 78                	jmp    1043a2 <_ZN3PCI31SerialBusControllerSubclassNameEh+0xe4>
  10432a:	48 8d 05 42 c9 00 00 	lea    0xc942(%rip),%rax        # 110c73 <__rodata+0xc73>
  104331:	eb 6f                	jmp    1043a2 <_ZN3PCI31SerialBusControllerSubclassNameEh+0xe4>
  104333:	48 8d 05 3d c9 00 00 	lea    0xc93d(%rip),%rax        # 110c77 <__rodata+0xc77>
  10433a:	eb 66                	jmp    1043a2 <_ZN3PCI31SerialBusControllerSubclassNameEh+0xe4>
  10433c:	48 8d 05 43 c9 00 00 	lea    0xc943(%rip),%rax        # 110c86 <__rodata+0xc86>
  104343:	eb 5d                	jmp    1043a2 <_ZN3PCI31SerialBusControllerSubclassNameEh+0xe4>
  104345:	48 8d 05 48 c9 00 00 	lea    0xc948(%rip),%rax        # 110c94 <__rodata+0xc94>
  10434c:	eb 54                	jmp    1043a2 <_ZN3PCI31SerialBusControllerSubclassNameEh+0xe4>
  10434e:	48 8d 05 45 c9 00 00 	lea    0xc945(%rip),%rax        # 110c9a <__rodata+0xc9a>
  104355:	eb 4b                	jmp    1043a2 <_ZN3PCI31SerialBusControllerSubclassNameEh+0xe4>
  104357:	48 8d 05 47 c9 00 00 	lea    0xc947(%rip),%rax        # 110ca5 <__rodata+0xca5>
  10435e:	eb 42                	jmp    1043a2 <_ZN3PCI31SerialBusControllerSubclassNameEh+0xe4>
  104360:	48 8d 05 4d c9 00 00 	lea    0xc94d(%rip),%rax        # 110cb4 <__rodata+0xcb4>
  104367:	eb 39                	jmp    1043a2 <_ZN3PCI31SerialBusControllerSubclassNameEh+0xe4>
  104369:	48 8d 05 61 c9 00 00 	lea    0xc961(%rip),%rax        # 110cd1 <__rodata+0xcd1>
  104370:	eb 30                	jmp    1043a2 <_ZN3PCI31SerialBusControllerSubclassNameEh+0xe4>
  104372:	48 8d 05 5f c9 00 00 	lea    0xc95f(%rip),%rax        # 110cd8 <__rodata+0xcd8>
  104379:	eb 27                	jmp    1043a2 <_ZN3PCI31SerialBusControllerSubclassNameEh+0xe4>
  10437b:	bf 04 00 00 00       	mov    $0x4,%edi
  104380:	e8 76 f6 ff ff       	callq  1039fb <_Znam>
  104385:	48 89 45 f8          	mov    %rax,-0x8(%rbp)
  104389:	0f b6 55 ec          	movzbl -0x14(%rbp),%edx
  10438d:	48 8b 45 f8          	mov    -0x8(%rbp),%rax
  104391:	be 78 00 00 00       	mov    $0x78,%esi
  104396:	48 89 c7             	mov    %rax,%rdi
  104399:	e8 ba 7e 00 00       	callq  10c258 <_Z4itoaPhjm>
  10439e:	48 8b 45 f8          	mov    -0x8(%rbp),%rax
  1043a2:	c9                   	leaveq 
  1043a3:	c3                   	retq   

00000000001043a4 <_ZN3PCI24BridgeDeviceSubclassNameEh>:
  1043a4:	f3 0f 1e fa          	endbr64 
  1043a8:	55                   	push   %rbp
  1043a9:	48 89 e5             	mov    %rsp,%rbp
  1043ac:	48 83 ec 20          	sub    $0x20,%rsp
  1043b0:	89 f8                	mov    %edi,%eax
  1043b2:	88 45 ec             	mov    %al,-0x14(%rbp)
  1043b5:	0f b6 45 ec          	movzbl -0x14(%rbp),%eax
  1043b9:	83 f8 0a             	cmp    $0xa,%eax
  1043bc:	7f 34                	jg     1043f2 <_ZN3PCI24BridgeDeviceSubclassNameEh+0x4e>
  1043be:	85 c0                	test   %eax,%eax
  1043c0:	0f 88 a7 00 00 00    	js     10446d <_ZN3PCI24BridgeDeviceSubclassNameEh+0xc9>
  1043c6:	83 f8 0a             	cmp    $0xa,%eax
  1043c9:	0f 87 9e 00 00 00    	ja     10446d <_ZN3PCI24BridgeDeviceSubclassNameEh+0xc9>
  1043cf:	89 c0                	mov    %eax,%eax
  1043d1:	48 8d 14 85 00 00 00 	lea    0x0(,%rax,4),%rdx
  1043d8:	00 
  1043d9:	48 8d 05 d4 c9 00 00 	lea    0xc9d4(%rip),%rax        # 110db4 <__rodata+0xdb4>
  1043e0:	8b 04 02             	mov    (%rdx,%rax,1),%eax
  1043e3:	48 98                	cltq   
  1043e5:	48 8d 15 c8 c9 00 00 	lea    0xc9c8(%rip),%rdx        # 110db4 <__rodata+0xdb4>
  1043ec:	48 01 d0             	add    %rdx,%rax
  1043ef:	3e ff e0             	notrack jmpq *%rax
  1043f2:	3d 80 00 00 00       	cmp    $0x80,%eax
  1043f7:	74 6b                	je     104464 <_ZN3PCI24BridgeDeviceSubclassNameEh+0xc0>
  1043f9:	eb 72                	jmp    10446d <_ZN3PCI24BridgeDeviceSubclassNameEh+0xc9>
  1043fb:	48 8d 05 1a c9 00 00 	lea    0xc91a(%rip),%rax        # 110d1c <__rodata+0xd1c>
  104402:	e9 8d 00 00 00       	jmpq   104494 <_ZN3PCI24BridgeDeviceSubclassNameEh+0xf0>
  104407:	48 8d 05 1a c9 00 00 	lea    0xc91a(%rip),%rax        # 110d28 <__rodata+0xd28>
  10440e:	e9 81 00 00 00       	jmpq   104494 <_ZN3PCI24BridgeDeviceSubclassNameEh+0xf0>
  104413:	48 8d 05 19 c9 00 00 	lea    0xc919(%rip),%rax        # 110d33 <__rodata+0xd33>
  10441a:	eb 78                	jmp    104494 <_ZN3PCI24BridgeDeviceSubclassNameEh+0xf0>
  10441c:	48 8d 05 1c c9 00 00 	lea    0xc91c(%rip),%rax        # 110d3f <__rodata+0xd3f>
  104423:	eb 6f                	jmp    104494 <_ZN3PCI24BridgeDeviceSubclassNameEh+0xf0>
  104425:	48 8d 05 1e c9 00 00 	lea    0xc91e(%rip),%rax        # 110d4a <__rodata+0xd4a>
  10442c:	eb 66                	jmp    104494 <_ZN3PCI24BridgeDeviceSubclassNameEh+0xf0>
  10442e:	48 8d 05 27 c9 00 00 	lea    0xc927(%rip),%rax        # 110d5c <__rodata+0xd5c>
  104435:	eb 5d                	jmp    104494 <_ZN3PCI24BridgeDeviceSubclassNameEh+0xf0>
  104437:	48 8d 05 2c c9 00 00 	lea    0xc92c(%rip),%rax        # 110d6a <__rodata+0xd6a>
  10443e:	eb 54                	jmp    104494 <_ZN3PCI24BridgeDeviceSubclassNameEh+0xf0>
  104440:	48 8d 05 30 c9 00 00 	lea    0xc930(%rip),%rax        # 110d77 <__rodata+0xd77>
  104447:	eb 4b                	jmp    104494 <_ZN3PCI24BridgeDeviceSubclassNameEh+0xf0>
  104449:	48 8d 05 36 c9 00 00 	lea    0xc936(%rip),%rax        # 110d86 <__rodata+0xd86>
  104450:	eb 42                	jmp    104494 <_ZN3PCI24BridgeDeviceSubclassNameEh+0xf0>
  104452:	48 8d 05 f1 c8 00 00 	lea    0xc8f1(%rip),%rax        # 110d4a <__rodata+0xd4a>
  104459:	eb 39                	jmp    104494 <_ZN3PCI24BridgeDeviceSubclassNameEh+0xf0>
  10445b:	48 8d 05 33 c9 00 00 	lea    0xc933(%rip),%rax        # 110d95 <__rodata+0xd95>
  104462:	eb 30                	jmp    104494 <_ZN3PCI24BridgeDeviceSubclassNameEh+0xf0>
  104464:	48 8d 05 ac c7 00 00 	lea    0xc7ac(%rip),%rax        # 110c17 <__rodata+0xc17>
  10446b:	eb 27                	jmp    104494 <_ZN3PCI24BridgeDeviceSubclassNameEh+0xf0>
  10446d:	bf 04 00 00 00       	mov    $0x4,%edi
  104472:	e8 84 f5 ff ff       	callq  1039fb <_Znam>
  104477:	48 89 45 f8          	mov    %rax,-0x8(%rbp)
  10447b:	0f b6 55 ec          	movzbl -0x14(%rbp),%edx
  10447f:	48 8b 45 f8          	mov    -0x8(%rbp),%rax
  104483:	be 78 00 00 00       	mov    $0x78,%esi
  104488:	48 89 c7             	mov    %rax,%rdi
  10448b:	e8 c8 7d 00 00       	callq  10c258 <_Z4itoaPhjm>
  104490:	48 8b 45 f8          	mov    -0x8(%rbp),%rax
  104494:	c9                   	leaveq 
  104495:	c3                   	retq   

0000000000104496 <_ZN3PCI15GetSubclassNameEhh>:
  104496:	f3 0f 1e fa          	endbr64 
  10449a:	55                   	push   %rbp
  10449b:	48 89 e5             	mov    %rsp,%rbp
  10449e:	48 83 ec 20          	sub    $0x20,%rsp
  1044a2:	89 fa                	mov    %edi,%edx
  1044a4:	89 f0                	mov    %esi,%eax
  1044a6:	88 55 ec             	mov    %dl,-0x14(%rbp)
  1044a9:	88 45 e8             	mov    %al,-0x18(%rbp)
  1044ac:	0f b6 45 ec          	movzbl -0x14(%rbp),%eax
  1044b0:	83 f8 0c             	cmp    $0xc,%eax
  1044b3:	74 46                	je     1044fb <_ZN3PCI15GetSubclassNameEhh+0x65>
  1044b5:	83 f8 0c             	cmp    $0xc,%eax
  1044b8:	7f 4e                	jg     104508 <_ZN3PCI15GetSubclassNameEhh+0x72>
  1044ba:	83 f8 06             	cmp    $0x6,%eax
  1044bd:	74 2f                	je     1044ee <_ZN3PCI15GetSubclassNameEhh+0x58>
  1044bf:	83 f8 06             	cmp    $0x6,%eax
  1044c2:	7f 44                	jg     104508 <_ZN3PCI15GetSubclassNameEhh+0x72>
  1044c4:	83 f8 01             	cmp    $0x1,%eax
  1044c7:	74 07                	je     1044d0 <_ZN3PCI15GetSubclassNameEhh+0x3a>
  1044c9:	83 f8 03             	cmp    $0x3,%eax
  1044cc:	74 0f                	je     1044dd <_ZN3PCI15GetSubclassNameEhh+0x47>
  1044ce:	eb 38                	jmp    104508 <_ZN3PCI15GetSubclassNameEhh+0x72>
  1044d0:	0f b6 45 e8          	movzbl -0x18(%rbp),%eax
  1044d4:	89 c7                	mov    %eax,%edi
  1044d6:	e8 09 fd ff ff       	callq  1041e4 <_ZN3PCI33MassStorageControllerSubclassNameEh>
  1044db:	eb 52                	jmp    10452f <_ZN3PCI15GetSubclassNameEhh+0x99>
  1044dd:	0f b6 45 e8          	movzbl -0x18(%rbp),%eax
  1044e1:	85 c0                	test   %eax,%eax
  1044e3:	75 09                	jne    1044ee <_ZN3PCI15GetSubclassNameEhh+0x58>
  1044e5:	48 8d 05 f4 c8 00 00 	lea    0xc8f4(%rip),%rax        # 110de0 <__rodata+0xde0>
  1044ec:	eb 41                	jmp    10452f <_ZN3PCI15GetSubclassNameEhh+0x99>
  1044ee:	0f b6 45 e8          	movzbl -0x18(%rbp),%eax
  1044f2:	89 c7                	mov    %eax,%edi
  1044f4:	e8 ab fe ff ff       	callq  1043a4 <_ZN3PCI24BridgeDeviceSubclassNameEh>
  1044f9:	eb 34                	jmp    10452f <_ZN3PCI15GetSubclassNameEhh+0x99>
  1044fb:	0f b6 45 e8          	movzbl -0x18(%rbp),%eax
  1044ff:	89 c7                	mov    %eax,%edi
  104501:	e8 b8 fd ff ff       	callq  1042be <_ZN3PCI31SerialBusControllerSubclassNameEh>
  104506:	eb 27                	jmp    10452f <_ZN3PCI15GetSubclassNameEhh+0x99>
  104508:	bf 04 00 00 00       	mov    $0x4,%edi
  10450d:	e8 e9 f4 ff ff       	callq  1039fb <_Znam>
  104512:	48 89 45 f8          	mov    %rax,-0x8(%rbp)
  104516:	0f b6 55 e8          	movzbl -0x18(%rbp),%edx
  10451a:	48 8b 45 f8          	mov    -0x8(%rbp),%rax
  10451e:	be 78 00 00 00       	mov    $0x78,%esi
  104523:	48 89 c7             	mov    %rax,%rdi
  104526:	e8 2d 7d 00 00       	callq  10c258 <_Z4itoaPhjm>
  10452b:	48 8b 45 f8          	mov    -0x8(%rbp),%rax
  10452f:	c9                   	leaveq 
  104530:	c3                   	retq   

0000000000104531 <_ZN3PCI13GetProgIFNameEhhh>:
  104531:	f3 0f 1e fa          	endbr64 
  104535:	55                   	push   %rbp
  104536:	48 89 e5             	mov    %rsp,%rbp
  104539:	48 83 ec 20          	sub    $0x20,%rsp
  10453d:	89 f1                	mov    %esi,%ecx
  10453f:	89 d0                	mov    %edx,%eax
  104541:	89 fa                	mov    %edi,%edx
  104543:	88 55 ec             	mov    %dl,-0x14(%rbp)
  104546:	89 ca                	mov    %ecx,%edx
  104548:	88 55 e8             	mov    %dl,-0x18(%rbp)
  10454b:	88 45 e4             	mov    %al,-0x1c(%rbp)
  10454e:	0f b6 45 ec          	movzbl -0x14(%rbp),%eax
  104552:	83 f8 0c             	cmp    $0xc,%eax
  104555:	0f 84 8d 00 00 00    	je     1045e8 <_ZN3PCI13GetProgIFNameEhhh+0xb7>
  10455b:	83 f8 0c             	cmp    $0xc,%eax
  10455e:	0f 8f 02 01 00 00    	jg     104666 <_ZN3PCI13GetProgIFNameEhhh+0x135>
  104564:	83 f8 01             	cmp    $0x1,%eax
  104567:	74 0a                	je     104573 <_ZN3PCI13GetProgIFNameEhhh+0x42>
  104569:	83 f8 03             	cmp    $0x3,%eax
  10456c:	74 4b                	je     1045b9 <_ZN3PCI13GetProgIFNameEhhh+0x88>
  10456e:	e9 f3 00 00 00       	jmpq   104666 <_ZN3PCI13GetProgIFNameEhhh+0x135>
  104573:	0f b6 45 e8          	movzbl -0x18(%rbp),%eax
  104577:	83 f8 06             	cmp    $0x6,%eax
  10457a:	75 3d                	jne    1045b9 <_ZN3PCI13GetProgIFNameEhhh+0x88>
  10457c:	0f b6 45 e4          	movzbl -0x1c(%rbp),%eax
  104580:	83 f8 02             	cmp    $0x2,%eax
  104583:	74 28                	je     1045ad <_ZN3PCI13GetProgIFNameEhhh+0x7c>
  104585:	83 f8 02             	cmp    $0x2,%eax
  104588:	7f 2f                	jg     1045b9 <_ZN3PCI13GetProgIFNameEhhh+0x88>
  10458a:	85 c0                	test   %eax,%eax
  10458c:	74 07                	je     104595 <_ZN3PCI13GetProgIFNameEhhh+0x64>
  10458e:	83 f8 01             	cmp    $0x1,%eax
  104591:	74 0e                	je     1045a1 <_ZN3PCI13GetProgIFNameEhhh+0x70>
  104593:	eb 24                	jmp    1045b9 <_ZN3PCI13GetProgIFNameEhhh+0x88>
  104595:	48 8d 05 5e c8 00 00 	lea    0xc85e(%rip),%rax        # 110dfa <__rodata+0xdfa>
  10459c:	e9 ec 00 00 00       	jmpq   10468d <_ZN3PCI13GetProgIFNameEhhh+0x15c>
  1045a1:	48 8d 05 6c c8 00 00 	lea    0xc86c(%rip),%rax        # 110e14 <__rodata+0xe14>
  1045a8:	e9 e0 00 00 00       	jmpq   10468d <_ZN3PCI13GetProgIFNameEhhh+0x15c>
  1045ad:	48 8d 05 69 c8 00 00 	lea    0xc869(%rip),%rax        # 110e1d <__rodata+0xe1d>
  1045b4:	e9 d4 00 00 00       	jmpq   10468d <_ZN3PCI13GetProgIFNameEhhh+0x15c>
  1045b9:	0f b6 45 e8          	movzbl -0x18(%rbp),%eax
  1045bd:	85 c0                	test   %eax,%eax
  1045bf:	75 27                	jne    1045e8 <_ZN3PCI13GetProgIFNameEhhh+0xb7>
  1045c1:	0f b6 45 e4          	movzbl -0x1c(%rbp),%eax
  1045c5:	85 c0                	test   %eax,%eax
  1045c7:	74 07                	je     1045d0 <_ZN3PCI13GetProgIFNameEhhh+0x9f>
  1045c9:	83 f8 01             	cmp    $0x1,%eax
  1045cc:	74 0e                	je     1045dc <_ZN3PCI13GetProgIFNameEhhh+0xab>
  1045ce:	eb 18                	jmp    1045e8 <_ZN3PCI13GetProgIFNameEhhh+0xb7>
  1045d0:	48 8d 05 59 c8 00 00 	lea    0xc859(%rip),%rax        # 110e30 <__rodata+0xe30>
  1045d7:	e9 b1 00 00 00       	jmpq   10468d <_ZN3PCI13GetProgIFNameEhhh+0x15c>
  1045dc:	48 8d 05 5c c8 00 00 	lea    0xc85c(%rip),%rax        # 110e3f <__rodata+0xe3f>
  1045e3:	e9 a5 00 00 00       	jmpq   10468d <_ZN3PCI13GetProgIFNameEhhh+0x15c>
  1045e8:	0f b6 45 e8          	movzbl -0x18(%rbp),%eax
  1045ec:	83 f8 03             	cmp    $0x3,%eax
  1045ef:	75 75                	jne    104666 <_ZN3PCI13GetProgIFNameEhhh+0x135>
  1045f1:	0f b6 45 e4          	movzbl -0x1c(%rbp),%eax
  1045f5:	3d fe 00 00 00       	cmp    $0xfe,%eax
  1045fa:	74 61                	je     10465d <_ZN3PCI13GetProgIFNameEhhh+0x12c>
  1045fc:	3d fe 00 00 00       	cmp    $0xfe,%eax
  104601:	7f 63                	jg     104666 <_ZN3PCI13GetProgIFNameEhhh+0x135>
  104603:	3d 80 00 00 00       	cmp    $0x80,%eax
  104608:	74 4a                	je     104654 <_ZN3PCI13GetProgIFNameEhhh+0x123>
  10460a:	3d 80 00 00 00       	cmp    $0x80,%eax
  10460f:	7f 55                	jg     104666 <_ZN3PCI13GetProgIFNameEhhh+0x135>
  104611:	83 f8 30             	cmp    $0x30,%eax
  104614:	74 35                	je     10464b <_ZN3PCI13GetProgIFNameEhhh+0x11a>
  104616:	83 f8 30             	cmp    $0x30,%eax
  104619:	7f 4b                	jg     104666 <_ZN3PCI13GetProgIFNameEhhh+0x135>
  10461b:	83 f8 20             	cmp    $0x20,%eax
  10461e:	74 22                	je     104642 <_ZN3PCI13GetProgIFNameEhhh+0x111>
  104620:	83 f8 20             	cmp    $0x20,%eax
  104623:	7f 41                	jg     104666 <_ZN3PCI13GetProgIFNameEhhh+0x135>
  104625:	85 c0                	test   %eax,%eax
  104627:	74 07                	je     104630 <_ZN3PCI13GetProgIFNameEhhh+0xff>
  104629:	83 f8 10             	cmp    $0x10,%eax
  10462c:	74 0b                	je     104639 <_ZN3PCI13GetProgIFNameEhhh+0x108>
  10462e:	eb 36                	jmp    104666 <_ZN3PCI13GetProgIFNameEhhh+0x135>
  104630:	48 8d 05 23 c8 00 00 	lea    0xc823(%rip),%rax        # 110e5a <__rodata+0xe5a>
  104637:	eb 54                	jmp    10468d <_ZN3PCI13GetProgIFNameEhhh+0x15c>
  104639:	48 8d 05 2a c8 00 00 	lea    0xc82a(%rip),%rax        # 110e6a <__rodata+0xe6a>
  104640:	eb 4b                	jmp    10468d <_ZN3PCI13GetProgIFNameEhhh+0x15c>
  104642:	48 8d 05 31 c8 00 00 	lea    0xc831(%rip),%rax        # 110e7a <__rodata+0xe7a>
  104649:	eb 42                	jmp    10468d <_ZN3PCI13GetProgIFNameEhhh+0x15c>
  10464b:	48 8d 05 3f c8 00 00 	lea    0xc83f(%rip),%rax        # 110e91 <__rodata+0xe91>
  104652:	eb 39                	jmp    10468d <_ZN3PCI13GetProgIFNameEhhh+0x15c>
  104654:	48 8d 05 4d c8 00 00 	lea    0xc84d(%rip),%rax        # 110ea8 <__rodata+0xea8>
  10465b:	eb 30                	jmp    10468d <_ZN3PCI13GetProgIFNameEhhh+0x15c>
  10465d:	48 8d 05 54 c8 00 00 	lea    0xc854(%rip),%rax        # 110eb8 <__rodata+0xeb8>
  104664:	eb 27                	jmp    10468d <_ZN3PCI13GetProgIFNameEhhh+0x15c>
  104666:	bf 04 00 00 00       	mov    $0x4,%edi
  10466b:	e8 8b f3 ff ff       	callq  1039fb <_Znam>
  104670:	48 89 45 f8          	mov    %rax,-0x8(%rbp)
  104674:	0f b6 55 e4          	movzbl -0x1c(%rbp),%edx
  104678:	48 8b 45 f8          	mov    -0x8(%rbp),%rax
  10467c:	be 78 00 00 00       	mov    $0x78,%esi
  104681:	48 89 c7             	mov    %rax,%rdi
  104684:	e8 cf 7b 00 00       	callq  10c258 <_Z4itoaPhjm>
  104689:	48 8b 45 f8          	mov    -0x8(%rbp),%rax
  10468d:	c9                   	leaveq 
  10468e:	c3                   	retq   
  10468f:	90                   	nop

0000000000104690 <_ZN4ACPI4RSDP18GetRootSystemTableEv>:
  104690:	f3 0f 1e fa          	endbr64 
  104694:	55                   	push   %rbp
  104695:	48 89 e5             	mov    %rsp,%rbp
  104698:	48 83 ec 18          	sub    $0x18,%rsp
  10469c:	48 89 7d e8          	mov    %rdi,-0x18(%rbp)
  1046a0:	48 8b 45 e8          	mov    -0x18(%rbp),%rax
  1046a4:	0f b6 40 0f          	movzbl 0xf(%rax),%eax
  1046a8:	84 c0                	test   %al,%al
  1046aa:	74 0e                	je     1046ba <_ZN4ACPI4RSDP18GetRootSystemTableEv+0x2a>
  1046ac:	48 8b 45 e8          	mov    -0x18(%rbp),%rax
  1046b0:	48 8b 40 18          	mov    0x18(%rax),%rax
  1046b4:	48 89 45 f8          	mov    %rax,-0x8(%rbp)
  1046b8:	eb 0d                	jmp    1046c7 <_ZN4ACPI4RSDP18GetRootSystemTableEv+0x37>
  1046ba:	48 8b 45 e8          	mov    -0x18(%rbp),%rax
  1046be:	8b 40 10             	mov    0x10(%rax),%eax
  1046c1:	89 c0                	mov    %eax,%eax
  1046c3:	48 89 45 f8          	mov    %rax,-0x8(%rbp)
  1046c7:	48 8b 45 f8          	mov    -0x8(%rbp),%rax
  1046cb:	c9                   	leaveq 
  1046cc:	c3                   	retq   
  1046cd:	90                   	nop

00000000001046ce <_ZN4ACPI4RSDP8is_validEv>:
  1046ce:	f3 0f 1e fa          	endbr64 
  1046d2:	55                   	push   %rbp
  1046d3:	48 89 e5             	mov    %rsp,%rbp
  1046d6:	48 83 ec 28          	sub    $0x28,%rsp
  1046da:	48 89 7d d8          	mov    %rdi,-0x28(%rbp)
  1046de:	48 8b 45 d8          	mov    -0x28(%rbp),%rax
  1046e2:	48 89 45 e0          	mov    %rax,-0x20(%rbp)
  1046e6:	48 8b 45 d8          	mov    -0x28(%rbp),%rax
  1046ea:	0f b6 40 0f          	movzbl 0xf(%rax),%eax
  1046ee:	84 c0                	test   %al,%al
  1046f0:	74 0a                	je     1046fc <_ZN4ACPI4RSDP8is_validEv+0x2e>
  1046f2:	48 c7 45 f8 24 00 00 	movq   $0x24,-0x8(%rbp)
  1046f9:	00 
  1046fa:	eb 08                	jmp    104704 <_ZN4ACPI4RSDP8is_validEv+0x36>
  1046fc:	48 c7 45 f8 14 00 00 	movq   $0x14,-0x8(%rbp)
  104703:	00 
  104704:	c6 45 f7 00          	movb   $0x0,-0x9(%rbp)
  104708:	48 c7 45 e8 00 00 00 	movq   $0x0,-0x18(%rbp)
  10470f:	00 
  104710:	48 8b 45 e8          	mov    -0x18(%rbp),%rax
  104714:	48 3b 45 f8          	cmp    -0x8(%rbp),%rax
  104718:	73 18                	jae    104732 <_ZN4ACPI4RSDP8is_validEv+0x64>
  10471a:	48 8b 55 e0          	mov    -0x20(%rbp),%rdx
  10471e:	48 8b 45 e8          	mov    -0x18(%rbp),%rax
  104722:	48 01 d0             	add    %rdx,%rax
  104725:	0f b6 00             	movzbl (%rax),%eax
  104728:	00 45 f7             	add    %al,-0x9(%rbp)
  10472b:	48 83 45 e8 01       	addq   $0x1,-0x18(%rbp)
  104730:	eb de                	jmp    104710 <_ZN4ACPI4RSDP8is_validEv+0x42>
  104732:	80 7d f7 00          	cmpb   $0x0,-0x9(%rbp)
  104736:	0f 94 c0             	sete   %al
  104739:	c9                   	leaveq 
  10473a:	c3                   	retq   
  10473b:	90                   	nop

000000000010473c <_ZN4ACPI4RSDP13GetTableCountEv>:
  10473c:	f3 0f 1e fa          	endbr64 
  104740:	55                   	push   %rbp
  104741:	48 89 e5             	mov    %rsp,%rbp
  104744:	48 83 ec 18          	sub    $0x18,%rsp
  104748:	48 89 7d e8          	mov    %rdi,-0x18(%rbp)
  10474c:	48 8b 45 e8          	mov    -0x18(%rbp),%rax
  104750:	48 89 c7             	mov    %rax,%rdi
  104753:	e8 38 ff ff ff       	callq  104690 <_ZN4ACPI4RSDP18GetRootSystemTableEv>
  104758:	48 89 45 f0          	mov    %rax,-0x10(%rbp)
  10475c:	48 c7 45 f8 04 00 00 	movq   $0x4,-0x8(%rbp)
  104763:	00 
  104764:	48 8b 45 e8          	mov    -0x18(%rbp),%rax
  104768:	0f b6 40 0f          	movzbl 0xf(%rax),%eax
  10476c:	84 c0                	test   %al,%al
  10476e:	74 08                	je     104778 <_ZN4ACPI4RSDP13GetTableCountEv+0x3c>
  104770:	48 c7 45 f8 08 00 00 	movq   $0x8,-0x8(%rbp)
  104777:	00 
  104778:	48 8b 45 f0          	mov    -0x10(%rbp),%rax
  10477c:	8b 40 04             	mov    0x4(%rax),%eax
  10477f:	89 c0                	mov    %eax,%eax
  104781:	48 83 e8 24          	sub    $0x24,%rax
  104785:	ba 00 00 00 00       	mov    $0x0,%edx
  10478a:	48 f7 75 f8          	divq   -0x8(%rbp)
  10478e:	c9                   	leaveq 
  10478f:	c3                   	retq   

0000000000104790 <_ZN4ACPI4RSDP3GetEm>:
  104790:	f3 0f 1e fa          	endbr64 
  104794:	55                   	push   %rbp
  104795:	48 89 e5             	mov    %rsp,%rbp
  104798:	48 83 ec 40          	sub    $0x40,%rsp
  10479c:	48 89 7d c8          	mov    %rdi,-0x38(%rbp)
  1047a0:	48 89 75 c0          	mov    %rsi,-0x40(%rbp)
  1047a4:	48 8b 45 c8          	mov    -0x38(%rbp),%rax
  1047a8:	48 89 c7             	mov    %rax,%rdi
  1047ab:	e8 8c ff ff ff       	callq  10473c <_ZN4ACPI4RSDP13GetTableCountEv>
  1047b0:	48 89 45 f8          	mov    %rax,-0x8(%rbp)
  1047b4:	48 8b 45 f8          	mov    -0x8(%rbp),%rax
  1047b8:	48 3b 45 c0          	cmp    -0x40(%rbp),%rax
  1047bc:	77 07                	ja     1047c5 <_ZN4ACPI4RSDP3GetEm+0x35>
  1047be:	b8 00 00 00 00       	mov    $0x0,%eax
  1047c3:	eb 68                	jmp    10482d <_ZN4ACPI4RSDP3GetEm+0x9d>
  1047c5:	48 8b 45 c8          	mov    -0x38(%rbp),%rax
  1047c9:	48 89 c7             	mov    %rax,%rdi
  1047cc:	e8 bf fe ff ff       	callq  104690 <_ZN4ACPI4RSDP18GetRootSystemTableEv>
  1047d1:	48 89 45 f0          	mov    %rax,-0x10(%rbp)
  1047d5:	48 8b 45 f0          	mov    -0x10(%rbp),%rax
  1047d9:	48 89 45 e8          	mov    %rax,-0x18(%rbp)
  1047dd:	48 83 45 e8 24       	addq   $0x24,-0x18(%rbp)
  1047e2:	48 8b 45 c8          	mov    -0x38(%rbp),%rax
  1047e6:	0f b6 40 0f          	movzbl 0xf(%rax),%eax
  1047ea:	84 c0                	test   %al,%al
  1047ec:	74 20                	je     10480e <_ZN4ACPI4RSDP3GetEm+0x7e>
  1047ee:	48 8b 45 e8          	mov    -0x18(%rbp),%rax
  1047f2:	48 89 45 d8          	mov    %rax,-0x28(%rbp)
  1047f6:	48 8b 45 c0          	mov    -0x40(%rbp),%rax
  1047fa:	48 8d 14 c5 00 00 00 	lea    0x0(,%rax,8),%rdx
  104801:	00 
  104802:	48 8b 45 d8          	mov    -0x28(%rbp),%rax
  104806:	48 01 d0             	add    %rdx,%rax
  104809:	48 8b 00             	mov    (%rax),%rax
  10480c:	eb 1f                	jmp    10482d <_ZN4ACPI4RSDP3GetEm+0x9d>
  10480e:	48 8b 45 e8          	mov    -0x18(%rbp),%rax
  104812:	48 89 45 e0          	mov    %rax,-0x20(%rbp)
  104816:	48 8b 45 c0          	mov    -0x40(%rbp),%rax
  10481a:	48 8d 14 85 00 00 00 	lea    0x0(,%rax,4),%rdx
  104821:	00 
  104822:	48 8b 45 e0          	mov    -0x20(%rbp),%rax
  104826:	48 01 d0             	add    %rdx,%rax
  104829:	8b 00                	mov    (%rax),%eax
  10482b:	89 c0                	mov    %eax,%eax
  10482d:	c9                   	leaveq 
  10482e:	c3                   	retq   
  10482f:	90                   	nop

0000000000104830 <_ZN4ACPI4RSDP14GetSystemTableEPKc>:
  104830:	f3 0f 1e fa          	endbr64 
  104834:	55                   	push   %rbp
  104835:	48 89 e5             	mov    %rsp,%rbp
  104838:	48 83 ec 50          	sub    $0x50,%rsp
  10483c:	48 89 7d b8          	mov    %rdi,-0x48(%rbp)
  104840:	48 89 75 b0          	mov    %rsi,-0x50(%rbp)
  104844:	48 8b 45 b8          	mov    -0x48(%rbp),%rax
  104848:	48 89 c7             	mov    %rax,%rdi
  10484b:	e8 40 fe ff ff       	callq  104690 <_ZN4ACPI4RSDP18GetRootSystemTableEv>
  104850:	48 89 45 e0          	mov    %rax,-0x20(%rbp)
  104854:	48 8b 45 b8          	mov    -0x48(%rbp),%rax
  104858:	48 89 c7             	mov    %rax,%rdi
  10485b:	e8 dc fe ff ff       	callq  10473c <_ZN4ACPI4RSDP13GetTableCountEv>
  104860:	48 89 45 d8          	mov    %rax,-0x28(%rbp)
  104864:	48 c7 45 f8 00 00 00 	movq   $0x0,-0x8(%rbp)
  10486b:	00 
  10486c:	48 8b 45 f8          	mov    -0x8(%rbp),%rax
  104870:	48 3b 45 d8          	cmp    -0x28(%rbp),%rax
  104874:	0f 83 b3 00 00 00    	jae    10492d <_ZN4ACPI4RSDP14GetSystemTableEPKc+0xfd>
  10487a:	48 8b 45 e0          	mov    -0x20(%rbp),%rax
  10487e:	48 89 45 d0          	mov    %rax,-0x30(%rbp)
  104882:	48 83 45 d0 24       	addq   $0x24,-0x30(%rbp)
  104887:	48 c7 45 f0 00 00 00 	movq   $0x0,-0x10(%rbp)
  10488e:	00 
  10488f:	48 8b 45 b8          	mov    -0x48(%rbp),%rax
  104893:	0f b6 40 0f          	movzbl 0xf(%rax),%eax
  104897:	84 c0                	test   %al,%al
  104899:	74 24                	je     1048bf <_ZN4ACPI4RSDP14GetSystemTableEPKc+0x8f>
  10489b:	48 8b 45 d0          	mov    -0x30(%rbp),%rax
  10489f:	48 89 45 c0          	mov    %rax,-0x40(%rbp)
  1048a3:	48 8b 45 f8          	mov    -0x8(%rbp),%rax
  1048a7:	48 8d 14 c5 00 00 00 	lea    0x0(,%rax,8),%rdx
  1048ae:	00 
  1048af:	48 8b 45 c0          	mov    -0x40(%rbp),%rax
  1048b3:	48 01 d0             	add    %rdx,%rax
  1048b6:	48 8b 00             	mov    (%rax),%rax
  1048b9:	48 89 45 f0          	mov    %rax,-0x10(%rbp)
  1048bd:	eb 23                	jmp    1048e2 <_ZN4ACPI4RSDP14GetSystemTableEPKc+0xb2>
  1048bf:	48 8b 45 d0          	mov    -0x30(%rbp),%rax
  1048c3:	48 89 45 c8          	mov    %rax,-0x38(%rbp)
  1048c7:	48 8b 45 f8          	mov    -0x8(%rbp),%rax
  1048cb:	48 8d 14 85 00 00 00 	lea    0x0(,%rax,4),%rdx
  1048d2:	00 
  1048d3:	48 8b 45 c8          	mov    -0x38(%rbp),%rax
  1048d7:	48 01 d0             	add    %rdx,%rax
  1048da:	8b 00                	mov    (%rax),%eax
  1048dc:	89 c0                	mov    %eax,%eax
  1048de:	48 89 45 f0          	mov    %rax,-0x10(%rbp)
  1048e2:	c7 45 ec 00 00 00 00 	movl   $0x0,-0x14(%rbp)
  1048e9:	83 7d ec 03          	cmpl   $0x3,-0x14(%rbp)
  1048ed:	7f 34                	jg     104923 <_ZN4ACPI4RSDP14GetSystemTableEPKc+0xf3>
  1048ef:	48 8b 55 f0          	mov    -0x10(%rbp),%rdx
  1048f3:	8b 45 ec             	mov    -0x14(%rbp),%eax
  1048f6:	48 98                	cltq   
  1048f8:	0f b6 14 02          	movzbl (%rdx,%rax,1),%edx
  1048fc:	8b 45 ec             	mov    -0x14(%rbp),%eax
  1048ff:	48 63 c8             	movslq %eax,%rcx
  104902:	48 8b 45 b0          	mov    -0x50(%rbp),%rax
  104906:	48 01 c8             	add    %rcx,%rax
  104909:	0f b6 00             	movzbl (%rax),%eax
  10490c:	38 c2                	cmp    %al,%dl
  10490e:	75 12                	jne    104922 <_ZN4ACPI4RSDP14GetSystemTableEPKc+0xf2>
  104910:	83 7d ec 03          	cmpl   $0x3,-0x14(%rbp)
  104914:	75 06                	jne    10491c <_ZN4ACPI4RSDP14GetSystemTableEPKc+0xec>
  104916:	48 8b 45 f0          	mov    -0x10(%rbp),%rax
  10491a:	eb 16                	jmp    104932 <_ZN4ACPI4RSDP14GetSystemTableEPKc+0x102>
  10491c:	83 45 ec 01          	addl   $0x1,-0x14(%rbp)
  104920:	eb c7                	jmp    1048e9 <_ZN4ACPI4RSDP14GetSystemTableEPKc+0xb9>
  104922:	90                   	nop
  104923:	48 83 45 f8 01       	addq   $0x1,-0x8(%rbp)
  104928:	e9 3f ff ff ff       	jmpq   10486c <_ZN4ACPI4RSDP14GetSystemTableEPKc+0x3c>
  10492d:	b8 00 00 00 00       	mov    $0x0,%eax
  104932:	c9                   	leaveq 
  104933:	c3                   	retq   

0000000000104934 <_ZN4ACPI4FADT8is_validEv>:
  104934:	f3 0f 1e fa          	endbr64 
  104938:	55                   	push   %rbp
  104939:	48 89 e5             	mov    %rsp,%rbp
  10493c:	48 83 ec 28          	sub    $0x28,%rsp
  104940:	48 89 7d d8          	mov    %rdi,-0x28(%rbp)
  104944:	48 8b 45 d8          	mov    -0x28(%rbp),%rax
  104948:	48 89 45 e8          	mov    %rax,-0x18(%rbp)
  10494c:	48 c7 45 e0 f4 00 00 	movq   $0xf4,-0x20(%rbp)
  104953:	00 
  104954:	c6 45 ff 00          	movb   $0x0,-0x1(%rbp)
  104958:	48 c7 45 f0 00 00 00 	movq   $0x0,-0x10(%rbp)
  10495f:	00 
  104960:	48 8b 45 f0          	mov    -0x10(%rbp),%rax
  104964:	48 3b 45 e0          	cmp    -0x20(%rbp),%rax
  104968:	73 18                	jae    104982 <_ZN4ACPI4FADT8is_validEv+0x4e>
  10496a:	48 8b 55 e8          	mov    -0x18(%rbp),%rdx
  10496e:	48 8b 45 f0          	mov    -0x10(%rbp),%rax
  104972:	48 01 d0             	add    %rdx,%rax
  104975:	0f b6 00             	movzbl (%rax),%eax
  104978:	00 45 ff             	add    %al,-0x1(%rbp)
  10497b:	48 83 45 f0 01       	addq   $0x1,-0x10(%rbp)
  104980:	eb de                	jmp    104960 <_ZN4ACPI4FADT8is_validEv+0x2c>
  104982:	80 7d ff 00          	cmpb   $0x0,-0x1(%rbp)
  104986:	0f 94 c0             	sete   %al
  104989:	c9                   	leaveq 
  10498a:	c3                   	retq   
  10498b:	90                   	nop

000000000010498c <_ZN4ACPI4FADT7GetDSDTEv>:
  10498c:	f3 0f 1e fa          	endbr64 
  104990:	55                   	push   %rbp
  104991:	48 89 e5             	mov    %rsp,%rbp
  104994:	48 83 ec 08          	sub    $0x8,%rsp
  104998:	48 89 7d f8          	mov    %rdi,-0x8(%rbp)
  10499c:	48 8b 45 f8          	mov    -0x8(%rbp),%rax
  1049a0:	8b 40 28             	mov    0x28(%rax),%eax
  1049a3:	85 c0                	test   %eax,%eax
  1049a5:	74 0b                	je     1049b2 <_ZN4ACPI4FADT7GetDSDTEv+0x26>
  1049a7:	48 8b 45 f8          	mov    -0x8(%rbp),%rax
  1049ab:	8b 40 28             	mov    0x28(%rax),%eax
  1049ae:	89 c0                	mov    %eax,%eax
  1049b0:	eb 0b                	jmp    1049bd <_ZN4ACPI4FADT7GetDSDTEv+0x31>
  1049b2:	48 8b 45 f8          	mov    -0x8(%rbp),%rax
  1049b6:	48 8b 80 8c 00 00 00 	mov    0x8c(%rax),%rax
  1049bd:	c9                   	leaveq 
  1049be:	c3                   	retq   
  1049bf:	90                   	nop

00000000001049c0 <_ZN4ACPI4FADT10ACPIEnableEv>:
  1049c0:	f3 0f 1e fa          	endbr64 
  1049c4:	55                   	push   %rbp
  1049c5:	48 89 e5             	mov    %rsp,%rbp
  1049c8:	48 83 ec 20          	sub    $0x20,%rsp
  1049cc:	48 89 7d e8          	mov    %rdi,-0x18(%rbp)
  1049d0:	48 8b 45 e8          	mov    -0x18(%rbp),%rax
  1049d4:	48 89 c7             	mov    %rax,%rdi
  1049d7:	e8 b0 ff ff ff       	callq  10498c <_ZN4ACPI4FADT7GetDSDTEv>
  1049dc:	48 89 45 f0          	mov    %rax,-0x10(%rbp)
  1049e0:	48 8b 45 f0          	mov    -0x10(%rbp),%rax
  1049e4:	48 89 c7             	mov    %rax,%rdi
  1049e7:	e8 30 02 00 00       	callq  104c1c <_ZN4ACPI4DSDT13Get_S5_ObjectEv>
  1049ec:	48 8b 45 e8          	mov    -0x18(%rbp),%rax
  1049f0:	8b 40 30             	mov    0x30(%rax),%eax
  1049f3:	89 c0                	mov    %eax,%eax
  1049f5:	48 89 05 6c 21 01 00 	mov    %rax,0x1216c(%rip)        # 116b68 <_ZN4ACPI7SMI_CMDE>
  1049fc:	48 8b 45 e8          	mov    -0x18(%rbp),%rax
  104a00:	0f b6 40 34          	movzbl 0x34(%rax),%eax
  104a04:	88 05 66 21 01 00    	mov    %al,0x12166(%rip)        # 116b70 <_ZN4ACPI11ACPI_ENABLEE>
  104a0a:	48 8b 45 e8          	mov    -0x18(%rbp),%rax
  104a0e:	0f b6 40 35          	movzbl 0x35(%rax),%eax
  104a12:	88 05 59 21 01 00    	mov    %al,0x12159(%rip)        # 116b71 <_ZN4ACPI12ACPI_DISABLEE>
  104a18:	48 8b 45 e8          	mov    -0x18(%rbp),%rax
  104a1c:	8b 40 40             	mov    0x40(%rax),%eax
  104a1f:	89 c0                	mov    %eax,%eax
  104a21:	48 89 05 50 21 01 00 	mov    %rax,0x12150(%rip)        # 116b78 <_ZN4ACPI8PM1a_CNTE>
  104a28:	48 8b 45 e8          	mov    -0x18(%rbp),%rax
  104a2c:	8b 40 44             	mov    0x44(%rax),%eax
  104a2f:	89 c0                	mov    %eax,%eax
  104a31:	48 89 05 48 21 01 00 	mov    %rax,0x12148(%rip)        # 116b80 <_ZN4ACPI8PM1b_CNTE>
  104a38:	48 8b 45 e8          	mov    -0x18(%rbp),%rax
  104a3c:	0f b6 40 59          	movzbl 0x59(%rax),%eax
  104a40:	88 05 42 21 01 00    	mov    %al,0x12142(%rip)        # 116b88 <_ZN4ACPI11PM1_CNT_LENE>
  104a46:	66 c7 05 3b 21 01 00 	movw   $0x2000,0x1213b(%rip)        # 116b8a <_ZN4ACPI6SLP_ENE>
  104a4d:	00 20 
  104a4f:	66 c7 05 34 21 01 00 	movw   $0x1,0x12134(%rip)        # 116b8c <_ZN4ACPI6SCI_ENE>
  104a56:	01 00 
  104a58:	48 8b 05 19 21 01 00 	mov    0x12119(%rip),%rax        # 116b78 <_ZN4ACPI8PM1a_CNTE>
  104a5f:	0f b7 c0             	movzwl %ax,%eax
  104a62:	89 c7                	mov    %eax,%edi
  104a64:	e8 6b cd ff ff       	callq  1017d4 <_Z5__inwt>
  104a69:	0f b7 15 1c 21 01 00 	movzwl 0x1211c(%rip),%edx        # 116b8c <_ZN4ACPI6SCI_ENE>
  104a70:	21 d0                	and    %edx,%eax
  104a72:	66 85 c0             	test   %ax,%ax
  104a75:	0f 94 c0             	sete   %al
  104a78:	84 c0                	test   %al,%al
  104a7a:	0f 84 0d 01 00 00    	je     104b8d <_ZN4ACPI4FADT10ACPIEnableEv+0x1cd>
  104a80:	48 8b 05 e1 20 01 00 	mov    0x120e1(%rip),%rax        # 116b68 <_ZN4ACPI7SMI_CMDE>
  104a87:	48 85 c0             	test   %rax,%rax
  104a8a:	0f 84 ec 00 00 00    	je     104b7c <_ZN4ACPI4FADT10ACPIEnableEv+0x1bc>
  104a90:	0f b6 05 d9 20 01 00 	movzbl 0x120d9(%rip),%eax        # 116b70 <_ZN4ACPI11ACPI_ENABLEE>
  104a97:	84 c0                	test   %al,%al
  104a99:	0f 84 dd 00 00 00    	je     104b7c <_ZN4ACPI4FADT10ACPIEnableEv+0x1bc>
  104a9f:	0f b6 05 ca 20 01 00 	movzbl 0x120ca(%rip),%eax        # 116b70 <_ZN4ACPI11ACPI_ENABLEE>
  104aa6:	0f b6 d0             	movzbl %al,%edx
  104aa9:	48 8b 05 b8 20 01 00 	mov    0x120b8(%rip),%rax        # 116b68 <_ZN4ACPI7SMI_CMDE>
  104ab0:	0f b6 c0             	movzbl %al,%eax
  104ab3:	89 d6                	mov    %edx,%esi
  104ab5:	89 c7                	mov    %eax,%edi
  104ab7:	e8 59 cd ff ff       	callq  101815 <_Z6__outbth>
  104abc:	c7 45 fc 00 00 00 00 	movl   $0x0,-0x4(%rbp)
  104ac3:	81 7d fc 2b 01 00 00 	cmpl   $0x12b,-0x4(%rbp)
  104aca:	7f 36                	jg     104b02 <_ZN4ACPI4FADT10ACPIEnableEv+0x142>
  104acc:	48 8b 05 a5 20 01 00 	mov    0x120a5(%rip),%rax        # 116b78 <_ZN4ACPI8PM1a_CNTE>
  104ad3:	0f b7 c0             	movzwl %ax,%eax
  104ad6:	89 c7                	mov    %eax,%edi
  104ad8:	e8 f7 cc ff ff       	callq  1017d4 <_Z5__inwt>
  104add:	0f b7 15 a8 20 01 00 	movzwl 0x120a8(%rip),%edx        # 116b8c <_ZN4ACPI6SCI_ENE>
  104ae4:	21 d0                	and    %edx,%eax
  104ae6:	66 83 f8 01          	cmp    $0x1,%ax
  104aea:	0f 94 c0             	sete   %al
  104aed:	84 c0                	test   %al,%al
  104aef:	75 10                	jne    104b01 <_ZN4ACPI4FADT10ACPIEnableEv+0x141>
  104af1:	bf 0a 00 00 00       	mov    $0xa,%edi
  104af6:	e8 b3 d0 ff ff       	callq  101bae <_Z8SleepForj>
  104afb:	83 45 fc 01          	addl   $0x1,-0x4(%rbp)
  104aff:	eb c2                	jmp    104ac3 <_ZN4ACPI4FADT10ACPIEnableEv+0x103>
  104b01:	90                   	nop
  104b02:	48 8b 05 77 20 01 00 	mov    0x12077(%rip),%rax        # 116b80 <_ZN4ACPI8PM1b_CNTE>
  104b09:	48 85 c0             	test   %rax,%rax
  104b0c:	74 3f                	je     104b4d <_ZN4ACPI4FADT10ACPIEnableEv+0x18d>
  104b0e:	81 7d fc 2b 01 00 00 	cmpl   $0x12b,-0x4(%rbp)
  104b15:	7f 36                	jg     104b4d <_ZN4ACPI4FADT10ACPIEnableEv+0x18d>
  104b17:	48 8b 05 62 20 01 00 	mov    0x12062(%rip),%rax        # 116b80 <_ZN4ACPI8PM1b_CNTE>
  104b1e:	0f b7 c0             	movzwl %ax,%eax
  104b21:	89 c7                	mov    %eax,%edi
  104b23:	e8 ac cc ff ff       	callq  1017d4 <_Z5__inwt>
  104b28:	0f b7 15 5d 20 01 00 	movzwl 0x1205d(%rip),%edx        # 116b8c <_ZN4ACPI6SCI_ENE>
  104b2f:	21 d0                	and    %edx,%eax
  104b31:	66 83 f8 01          	cmp    $0x1,%ax
  104b35:	0f 94 c0             	sete   %al
  104b38:	84 c0                	test   %al,%al
  104b3a:	75 10                	jne    104b4c <_ZN4ACPI4FADT10ACPIEnableEv+0x18c>
  104b3c:	bf 0a 00 00 00       	mov    $0xa,%edi
  104b41:	e8 68 d0 ff ff       	callq  101bae <_Z8SleepForj>
  104b46:	83 45 fc 01          	addl   $0x1,-0x4(%rbp)
  104b4a:	eb c2                	jmp    104b0e <_ZN4ACPI4FADT10ACPIEnableEv+0x14e>
  104b4c:	90                   	nop
  104b4d:	81 7d fc 2b 01 00 00 	cmpl   $0x12b,-0x4(%rbp)
  104b54:	7f 13                	jg     104b69 <_ZN4ACPI4FADT10ACPIEnableEv+0x1a9>
  104b56:	48 8d 3d 7e c3 00 00 	lea    0xc37e(%rip),%rdi        # 110edb <__rodata+0xedb>
  104b5d:	b8 00 00 00 00       	mov    $0x0,%eax
  104b62:	e8 9d 7c 00 00       	callq  10c804 <_Z7kprintfPKcz>
  104b67:	eb 24                	jmp    104b8d <_ZN4ACPI4FADT10ACPIEnableEv+0x1cd>
  104b69:	48 8d 3d 79 c3 00 00 	lea    0xc379(%rip),%rdi        # 110ee9 <__rodata+0xee9>
  104b70:	b8 00 00 00 00       	mov    $0x0,%eax
  104b75:	e8 8a 7c 00 00       	callq  10c804 <_Z7kprintfPKcz>
  104b7a:	eb 11                	jmp    104b8d <_ZN4ACPI4FADT10ACPIEnableEv+0x1cd>
  104b7c:	48 8d 3d 7c c3 00 00 	lea    0xc37c(%rip),%rdi        # 110eff <__rodata+0xeff>
  104b83:	b8 00 00 00 00       	mov    $0x0,%eax
  104b88:	e8 77 7c 00 00       	callq  10c804 <_Z7kprintfPKcz>
  104b8d:	c9                   	leaveq 
  104b8e:	c3                   	retq   
  104b8f:	90                   	nop

0000000000104b90 <_ZN4ACPI4FADT8ShutdownEv>:
  104b90:	f3 0f 1e fa          	endbr64 
  104b94:	55                   	push   %rbp
  104b95:	48 89 e5             	mov    %rsp,%rbp
  104b98:	48 83 ec 10          	sub    $0x10,%rsp
  104b9c:	48 89 7d f8          	mov    %rdi,-0x8(%rbp)
  104ba0:	0f b7 05 e5 1f 01 00 	movzwl 0x11fe5(%rip),%eax        # 116b8c <_ZN4ACPI6SCI_ENE>
  104ba7:	66 83 f8 01          	cmp    $0x1,%ax
  104bab:	75 6b                	jne    104c18 <_ZN4ACPI4FADT8ShutdownEv+0x88>
  104bad:	0f b7 15 da 1f 01 00 	movzwl 0x11fda(%rip),%edx        # 116b8e <_ZN4ACPI8SLP_TYPaE>
  104bb4:	0f b7 05 cf 1f 01 00 	movzwl 0x11fcf(%rip),%eax        # 116b8a <_ZN4ACPI6SLP_ENE>
  104bbb:	09 d0                	or     %edx,%eax
  104bbd:	0f b7 d0             	movzwl %ax,%edx
  104bc0:	48 8b 05 b1 1f 01 00 	mov    0x11fb1(%rip),%rax        # 116b78 <_ZN4ACPI8PM1a_CNTE>
  104bc7:	0f b7 c0             	movzwl %ax,%eax
  104bca:	89 d6                	mov    %edx,%esi
  104bcc:	89 c7                	mov    %eax,%edi
  104bce:	e8 67 cc ff ff       	callq  10183a <_Z6__outwtt>
  104bd3:	48 8b 05 a6 1f 01 00 	mov    0x11fa6(%rip),%rax        # 116b80 <_ZN4ACPI8PM1b_CNTE>
  104bda:	48 85 c0             	test   %rax,%rax
  104bdd:	74 26                	je     104c05 <_ZN4ACPI4FADT8ShutdownEv+0x75>
  104bdf:	0f b7 15 aa 1f 01 00 	movzwl 0x11faa(%rip),%edx        # 116b90 <_ZN4ACPI8SLP_TYPbE>
  104be6:	0f b7 05 9d 1f 01 00 	movzwl 0x11f9d(%rip),%eax        # 116b8a <_ZN4ACPI6SLP_ENE>
  104bed:	09 d0                	or     %edx,%eax
  104bef:	0f b7 d0             	movzwl %ax,%edx
  104bf2:	48 8b 05 87 1f 01 00 	mov    0x11f87(%rip),%rax        # 116b80 <_ZN4ACPI8PM1b_CNTE>
  104bf9:	0f b7 c0             	movzwl %ax,%eax
  104bfc:	89 d6                	mov    %edx,%esi
  104bfe:	89 c7                	mov    %eax,%edi
  104c00:	e8 35 cc ff ff       	callq  10183a <_Z6__outwtt>
  104c05:	48 8d 3d 10 c3 00 00 	lea    0xc310(%rip),%rdi        # 110f1c <__rodata+0xf1c>
  104c0c:	b8 00 00 00 00       	mov    $0x0,%eax
  104c11:	e8 ee 7b 00 00       	callq  10c804 <_Z7kprintfPKcz>
  104c16:	eb 01                	jmp    104c19 <_ZN4ACPI4FADT8ShutdownEv+0x89>
  104c18:	90                   	nop
  104c19:	c9                   	leaveq 
  104c1a:	c3                   	retq   
  104c1b:	90                   	nop

0000000000104c1c <_ZN4ACPI4DSDT13Get_S5_ObjectEv>:
  104c1c:	f3 0f 1e fa          	endbr64 
  104c20:	55                   	push   %rbp
  104c21:	48 89 e5             	mov    %rsp,%rbp
  104c24:	48 83 ec 20          	sub    $0x20,%rsp
  104c28:	48 89 7d e8          	mov    %rdi,-0x18(%rbp)
  104c2c:	0f b7 05 5b 1f 01 00 	movzwl 0x11f5b(%rip),%eax        # 116b8e <_ZN4ACPI8SLP_TYPaE>
  104c33:	66 85 c0             	test   %ax,%ax
  104c36:	74 10                	je     104c48 <_ZN4ACPI4DSDT13Get_S5_ObjectEv+0x2c>
  104c38:	0f b7 05 51 1f 01 00 	movzwl 0x11f51(%rip),%eax        # 116b90 <_ZN4ACPI8SLP_TYPbE>
  104c3f:	66 85 c0             	test   %ax,%ax
  104c42:	0f 85 0a 01 00 00    	jne    104d52 <_ZN4ACPI4DSDT13Get_S5_ObjectEv+0x136>
  104c48:	48 8b 45 e8          	mov    -0x18(%rbp),%rax
  104c4c:	8b 40 04             	mov    0x4(%rax),%eax
  104c4f:	83 e8 24             	sub    $0x24,%eax
  104c52:	89 45 fc             	mov    %eax,-0x4(%rbp)
  104c55:	48 8b 45 e8          	mov    -0x18(%rbp),%rax
  104c59:	48 83 c0 24          	add    $0x24,%rax
  104c5d:	48 89 45 f0          	mov    %rax,-0x10(%rbp)
  104c61:	8b 45 fc             	mov    -0x4(%rbp),%eax
  104c64:	8d 50 ff             	lea    -0x1(%rax),%edx
  104c67:	89 55 fc             	mov    %edx,-0x4(%rbp)
  104c6a:	85 c0                	test   %eax,%eax
  104c6c:	0f 95 c0             	setne  %al
  104c6f:	84 c0                	test   %al,%al
  104c71:	74 29                	je     104c9c <_ZN4ACPI4DSDT13Get_S5_ObjectEv+0x80>
  104c73:	48 8b 45 f0          	mov    -0x10(%rbp),%rax
  104c77:	ba 04 00 00 00       	mov    $0x4,%edx
  104c7c:	48 8d 35 b0 c2 00 00 	lea    0xc2b0(%rip),%rsi        # 110f33 <__rodata+0xf33>
  104c83:	48 89 c7             	mov    %rax,%rdi
  104c86:	e8 f7 7f 00 00       	callq  10cc82 <_Z6memcmpPvS_m>
  104c8b:	85 c0                	test   %eax,%eax
  104c8d:	0f 94 c0             	sete   %al
  104c90:	84 c0                	test   %al,%al
  104c92:	75 07                	jne    104c9b <_ZN4ACPI4DSDT13Get_S5_ObjectEv+0x7f>
  104c94:	48 83 45 f0 01       	addq   $0x1,-0x10(%rbp)
  104c99:	eb c6                	jmp    104c61 <_ZN4ACPI4DSDT13Get_S5_ObjectEv+0x45>
  104c9b:	90                   	nop
  104c9c:	83 7d fc 00          	cmpl   $0x0,-0x4(%rbp)
  104ca0:	0f 84 ad 00 00 00    	je     104d53 <_ZN4ACPI4DSDT13Get_S5_ObjectEv+0x137>
  104ca6:	48 8b 45 f0          	mov    -0x10(%rbp),%rax
  104caa:	48 83 e8 01          	sub    $0x1,%rax
  104cae:	0f b6 00             	movzbl (%rax),%eax
  104cb1:	3c 08                	cmp    $0x8,%al
  104cb3:	74 22                	je     104cd7 <_ZN4ACPI4DSDT13Get_S5_ObjectEv+0xbb>
  104cb5:	48 8b 45 f0          	mov    -0x10(%rbp),%rax
  104cb9:	48 83 e8 02          	sub    $0x2,%rax
  104cbd:	0f b6 00             	movzbl (%rax),%eax
  104cc0:	3c 08                	cmp    $0x8,%al
  104cc2:	0f 85 8b 00 00 00    	jne    104d53 <_ZN4ACPI4DSDT13Get_S5_ObjectEv+0x137>
  104cc8:	48 8b 45 f0          	mov    -0x10(%rbp),%rax
  104ccc:	48 83 e8 01          	sub    $0x1,%rax
  104cd0:	0f b6 00             	movzbl (%rax),%eax
  104cd3:	3c 5c                	cmp    $0x5c,%al
  104cd5:	75 7c                	jne    104d53 <_ZN4ACPI4DSDT13Get_S5_ObjectEv+0x137>
  104cd7:	48 8b 45 f0          	mov    -0x10(%rbp),%rax
  104cdb:	48 83 c0 04          	add    $0x4,%rax
  104cdf:	0f b6 00             	movzbl (%rax),%eax
  104ce2:	3c 12                	cmp    $0x12,%al
  104ce4:	75 6d                	jne    104d53 <_ZN4ACPI4DSDT13Get_S5_ObjectEv+0x137>
  104ce6:	48 83 45 f0 05       	addq   $0x5,-0x10(%rbp)
  104ceb:	48 8b 45 f0          	mov    -0x10(%rbp),%rax
  104cef:	0f b6 00             	movzbl (%rax),%eax
  104cf2:	0f be c0             	movsbl %al,%eax
  104cf5:	c1 f8 06             	sar    $0x6,%eax
  104cf8:	48 98                	cltq   
  104cfa:	83 e0 03             	and    $0x3,%eax
  104cfd:	48 83 c0 02          	add    $0x2,%rax
  104d01:	48 01 45 f0          	add    %rax,-0x10(%rbp)
  104d05:	48 8b 45 f0          	mov    -0x10(%rbp),%rax
  104d09:	0f b6 00             	movzbl (%rax),%eax
  104d0c:	3c 0a                	cmp    $0xa,%al
  104d0e:	75 05                	jne    104d15 <_ZN4ACPI4DSDT13Get_S5_ObjectEv+0xf9>
  104d10:	48 83 45 f0 01       	addq   $0x1,-0x10(%rbp)
  104d15:	48 8b 45 f0          	mov    -0x10(%rbp),%rax
  104d19:	0f b6 00             	movzbl (%rax),%eax
  104d1c:	66 98                	cbtw   
  104d1e:	c1 e0 0a             	shl    $0xa,%eax
  104d21:	66 89 05 66 1e 01 00 	mov    %ax,0x11e66(%rip)        # 116b8e <_ZN4ACPI8SLP_TYPaE>
  104d28:	48 83 45 f0 01       	addq   $0x1,-0x10(%rbp)
  104d2d:	48 8b 45 f0          	mov    -0x10(%rbp),%rax
  104d31:	0f b6 00             	movzbl (%rax),%eax
  104d34:	3c 0a                	cmp    $0xa,%al
  104d36:	75 05                	jne    104d3d <_ZN4ACPI4DSDT13Get_S5_ObjectEv+0x121>
  104d38:	48 83 45 f0 01       	addq   $0x1,-0x10(%rbp)
  104d3d:	48 8b 45 f0          	mov    -0x10(%rbp),%rax
  104d41:	0f b6 00             	movzbl (%rax),%eax
  104d44:	66 98                	cbtw   
  104d46:	c1 e0 0a             	shl    $0xa,%eax
  104d49:	66 89 05 40 1e 01 00 	mov    %ax,0x11e40(%rip)        # 116b90 <_ZN4ACPI8SLP_TYPbE>
  104d50:	eb 01                	jmp    104d53 <_ZN4ACPI4DSDT13Get_S5_ObjectEv+0x137>
  104d52:	90                   	nop
  104d53:	c9                   	leaveq 
  104d54:	c3                   	retq   
  104d55:	90                   	nop

0000000000104d56 <_ZN11Framebuffer8PutPixelEjjj>:
  104d56:	f3 0f 1e fa          	endbr64 
  104d5a:	55                   	push   %rbp
  104d5b:	48 89 e5             	mov    %rsp,%rbp
  104d5e:	48 83 ec 18          	sub    $0x18,%rsp
  104d62:	48 89 7d f8          	mov    %rdi,-0x8(%rbp)
  104d66:	89 75 f4             	mov    %esi,-0xc(%rbp)
  104d69:	89 55 f0             	mov    %edx,-0x10(%rbp)
  104d6c:	89 4d ec             	mov    %ecx,-0x14(%rbp)
  104d6f:	48 8b 45 f8          	mov    -0x8(%rbp),%rax
  104d73:	48 8b 10             	mov    (%rax),%rdx
  104d76:	48 8b 45 f8          	mov    -0x8(%rbp),%rax
  104d7a:	8b 40 08             	mov    0x8(%rax),%eax
  104d7d:	0f af 45 f0          	imul   -0x10(%rbp),%eax
  104d81:	89 c1                	mov    %eax,%ecx
  104d83:	8b 45 f4             	mov    -0xc(%rbp),%eax
  104d86:	01 c8                	add    %ecx,%eax
  104d88:	89 c0                	mov    %eax,%eax
  104d8a:	48 c1 e0 02          	shl    $0x2,%rax
  104d8e:	48 01 c2             	add    %rax,%rdx
  104d91:	8b 45 ec             	mov    -0x14(%rbp),%eax
  104d94:	89 02                	mov    %eax,(%rdx)
  104d96:	90                   	nop
  104d97:	c9                   	leaveq 
  104d98:	c3                   	retq   
  104d99:	90                   	nop

0000000000104d9a <_ZN11Framebuffer8GetPixelEjj>:
  104d9a:	f3 0f 1e fa          	endbr64 
  104d9e:	55                   	push   %rbp
  104d9f:	48 89 e5             	mov    %rsp,%rbp
  104da2:	48 83 ec 10          	sub    $0x10,%rsp
  104da6:	48 89 7d f8          	mov    %rdi,-0x8(%rbp)
  104daa:	89 75 f4             	mov    %esi,-0xc(%rbp)
  104dad:	89 55 f0             	mov    %edx,-0x10(%rbp)
  104db0:	48 8b 45 f8          	mov    -0x8(%rbp),%rax
  104db4:	48 8b 10             	mov    (%rax),%rdx
  104db7:	48 8b 45 f8          	mov    -0x8(%rbp),%rax
  104dbb:	8b 40 08             	mov    0x8(%rax),%eax
  104dbe:	0f af 45 f0          	imul   -0x10(%rbp),%eax
  104dc2:	89 c1                	mov    %eax,%ecx
  104dc4:	8b 45 f4             	mov    -0xc(%rbp),%eax
  104dc7:	01 c8                	add    %ecx,%eax
  104dc9:	89 c0                	mov    %eax,%eax
  104dcb:	48 c1 e0 02          	shl    $0x2,%rax
  104dcf:	48 01 d0             	add    %rdx,%rax
  104dd2:	8b 00                	mov    (%rax),%eax
  104dd4:	c9                   	leaveq 
  104dd5:	c3                   	retq   

0000000000104dd6 <_ZN11Framebuffer8DrawRectEjjjjj>:
  104dd6:	f3 0f 1e fa          	endbr64 
  104dda:	55                   	push   %rbp
  104ddb:	48 89 e5             	mov    %rsp,%rbp
  104dde:	48 83 ec 30          	sub    $0x30,%rsp
  104de2:	48 89 7d e8          	mov    %rdi,-0x18(%rbp)
  104de6:	89 75 e4             	mov    %esi,-0x1c(%rbp)
  104de9:	89 55 e0             	mov    %edx,-0x20(%rbp)
  104dec:	89 4d dc             	mov    %ecx,-0x24(%rbp)
  104def:	44 89 45 d8          	mov    %r8d,-0x28(%rbp)
  104df3:	44 89 4d d4          	mov    %r9d,-0x2c(%rbp)
  104df7:	8b 55 e4             	mov    -0x1c(%rbp),%edx
  104dfa:	8b 45 dc             	mov    -0x24(%rbp),%eax
  104dfd:	01 d0                	add    %edx,%eax
  104dff:	89 45 f4             	mov    %eax,-0xc(%rbp)
  104e02:	8b 55 e0             	mov    -0x20(%rbp),%edx
  104e05:	8b 45 d8             	mov    -0x28(%rbp),%eax
  104e08:	01 d0                	add    %edx,%eax
  104e0a:	89 45 f0             	mov    %eax,-0x10(%rbp)
  104e0d:	c7 45 fc 00 00 00 00 	movl   $0x0,-0x4(%rbp)
  104e14:	8b 45 fc             	mov    -0x4(%rbp),%eax
  104e17:	3b 45 f0             	cmp    -0x10(%rbp),%eax
  104e1a:	73 30                	jae    104e4c <_ZN11Framebuffer8DrawRectEjjjjj+0x76>
  104e1c:	c7 45 f8 00 00 00 00 	movl   $0x0,-0x8(%rbp)
  104e23:	8b 45 f8             	mov    -0x8(%rbp),%eax
  104e26:	3b 45 f4             	cmp    -0xc(%rbp),%eax
  104e29:	73 1b                	jae    104e46 <_ZN11Framebuffer8DrawRectEjjjjj+0x70>
  104e2b:	8b 4d d4             	mov    -0x2c(%rbp),%ecx
  104e2e:	8b 55 fc             	mov    -0x4(%rbp),%edx
  104e31:	8b 75 f8             	mov    -0x8(%rbp),%esi
  104e34:	48 8b 45 e8          	mov    -0x18(%rbp),%rax
  104e38:	48 89 c7             	mov    %rax,%rdi
  104e3b:	e8 16 ff ff ff       	callq  104d56 <_ZN11Framebuffer8PutPixelEjjj>
  104e40:	83 45 f8 01          	addl   $0x1,-0x8(%rbp)
  104e44:	eb dd                	jmp    104e23 <_ZN11Framebuffer8DrawRectEjjjjj+0x4d>
  104e46:	83 45 fc 01          	addl   $0x1,-0x4(%rbp)
  104e4a:	eb c8                	jmp    104e14 <_ZN11Framebuffer8DrawRectEjjjjj+0x3e>
  104e4c:	90                   	nop
  104e4d:	c9                   	leaveq 
  104e4e:	c3                   	retq   
  104e4f:	90                   	nop

0000000000104e50 <_ZN11Framebuffer15DrawMouseCursorEPhjjj>:
  104e50:	f3 0f 1e fa          	endbr64 
  104e54:	55                   	push   %rbp
  104e55:	48 89 e5             	mov    %rsp,%rbp
  104e58:	53                   	push   %rbx
  104e59:	48 83 ec 40          	sub    $0x40,%rsp
  104e5d:	48 89 7d d0          	mov    %rdi,-0x30(%rbp)
  104e61:	48 89 75 c8          	mov    %rsi,-0x38(%rbp)
  104e65:	89 55 c4             	mov    %edx,-0x3c(%rbp)
  104e68:	89 4d c0             	mov    %ecx,-0x40(%rbp)
  104e6b:	44 89 45 bc          	mov    %r8d,-0x44(%rbp)
  104e6f:	c7 45 f4 10 00 00 00 	movl   $0x10,-0xc(%rbp)
  104e76:	c7 45 f0 10 00 00 00 	movl   $0x10,-0x10(%rbp)
  104e7d:	48 8b 45 d0          	mov    -0x30(%rbp),%rax
  104e81:	8b 40 08             	mov    0x8(%rax),%eax
  104e84:	2b 45 c4             	sub    -0x3c(%rbp),%eax
  104e87:	89 45 e4             	mov    %eax,-0x1c(%rbp)
  104e8a:	48 8b 45 d0          	mov    -0x30(%rbp),%rax
  104e8e:	8b 40 0c             	mov    0xc(%rax),%eax
  104e91:	2b 45 c0             	sub    -0x40(%rbp),%eax
  104e94:	89 45 e0             	mov    %eax,-0x20(%rbp)
  104e97:	83 7d e4 0f          	cmpl   $0xf,-0x1c(%rbp)
  104e9b:	7f 06                	jg     104ea3 <_ZN11Framebuffer15DrawMouseCursorEPhjjj+0x53>
  104e9d:	8b 45 e4             	mov    -0x1c(%rbp),%eax
  104ea0:	89 45 f4             	mov    %eax,-0xc(%rbp)
  104ea3:	83 7d e0 0f          	cmpl   $0xf,-0x20(%rbp)
  104ea7:	7f 06                	jg     104eaf <_ZN11Framebuffer15DrawMouseCursorEPhjjj+0x5f>
  104ea9:	8b 45 e0             	mov    -0x20(%rbp),%eax
  104eac:	89 45 f0             	mov    %eax,-0x10(%rbp)
  104eaf:	c7 45 ec 00 00 00 00 	movl   $0x0,-0x14(%rbp)
  104eb6:	8b 45 ec             	mov    -0x14(%rbp),%eax
  104eb9:	3b 45 f0             	cmp    -0x10(%rbp),%eax
  104ebc:	0f 8d 23 01 00 00    	jge    104fe5 <_ZN11Framebuffer15DrawMouseCursorEPhjjj+0x195>
  104ec2:	c7 45 e8 00 00 00 00 	movl   $0x0,-0x18(%rbp)
  104ec9:	8b 45 e8             	mov    -0x18(%rbp),%eax
  104ecc:	3b 45 f4             	cmp    -0xc(%rbp),%eax
  104ecf:	0f 8d 07 01 00 00    	jge    104fdc <_ZN11Framebuffer15DrawMouseCursorEPhjjj+0x18c>
  104ed5:	8b 45 ec             	mov    -0x14(%rbp),%eax
  104ed8:	c1 e0 04             	shl    $0x4,%eax
  104edb:	89 c2                	mov    %eax,%edx
  104edd:	8b 45 e8             	mov    -0x18(%rbp),%eax
  104ee0:	01 d0                	add    %edx,%eax
  104ee2:	89 45 dc             	mov    %eax,-0x24(%rbp)
  104ee5:	8b 45 dc             	mov    -0x24(%rbp),%eax
  104ee8:	8d 50 07             	lea    0x7(%rax),%edx
  104eeb:	85 c0                	test   %eax,%eax
  104eed:	0f 48 c2             	cmovs  %edx,%eax
  104ef0:	c1 f8 03             	sar    $0x3,%eax
  104ef3:	89 45 d8             	mov    %eax,-0x28(%rbp)
  104ef6:	8b 45 d8             	mov    -0x28(%rbp),%eax
  104ef9:	48 63 d0             	movslq %eax,%rdx
  104efc:	48 8b 45 c8          	mov    -0x38(%rbp),%rax
  104f00:	48 01 d0             	add    %rdx,%rax
  104f03:	0f b6 00             	movzbl (%rax),%eax
  104f06:	0f b6 f0             	movzbl %al,%esi
  104f09:	8b 45 e8             	mov    -0x18(%rbp),%eax
  104f0c:	99                   	cltd   
  104f0d:	c1 ea 1d             	shr    $0x1d,%edx
  104f10:	01 d0                	add    %edx,%eax
  104f12:	83 e0 07             	and    $0x7,%eax
  104f15:	29 d0                	sub    %edx,%eax
  104f17:	ba 80 00 00 00       	mov    $0x80,%edx
  104f1c:	89 c1                	mov    %eax,%ecx
  104f1e:	d3 fa                	sar    %cl,%edx
  104f20:	89 d0                	mov    %edx,%eax
  104f22:	21 f0                	and    %esi,%eax
  104f24:	85 c0                	test   %eax,%eax
  104f26:	0f 84 a7 00 00 00    	je     104fd3 <_ZN11Framebuffer15DrawMouseCursorEPhjjj+0x183>
  104f2c:	8b 55 ec             	mov    -0x14(%rbp),%edx
  104f2f:	8b 45 c0             	mov    -0x40(%rbp),%eax
  104f32:	01 c2                	add    %eax,%edx
  104f34:	8b 4d e8             	mov    -0x18(%rbp),%ecx
  104f37:	8b 45 c4             	mov    -0x3c(%rbp),%eax
  104f3a:	01 c1                	add    %eax,%ecx
  104f3c:	8b 45 ec             	mov    -0x14(%rbp),%eax
  104f3f:	c1 e0 04             	shl    $0x4,%eax
  104f42:	89 c6                	mov    %eax,%esi
  104f44:	8b 45 e8             	mov    -0x18(%rbp),%eax
  104f47:	8d 1c 06             	lea    (%rsi,%rax,1),%ebx
  104f4a:	48 8b 45 d0          	mov    -0x30(%rbp),%rax
  104f4e:	89 ce                	mov    %ecx,%esi
  104f50:	48 89 c7             	mov    %rax,%rdi
  104f53:	e8 42 fe ff ff       	callq  104d9a <_ZN11Framebuffer8GetPixelEjj>
  104f58:	48 63 d3             	movslq %ebx,%rdx
  104f5b:	48 8d 0c 95 00 00 00 	lea    0x0(,%rdx,4),%rcx
  104f62:	00 
  104f63:	48 8d 15 56 1c 01 00 	lea    0x11c56(%rip),%rdx        # 116bc0 <MouseCursorBuffer>
  104f6a:	89 04 11             	mov    %eax,(%rcx,%rdx,1)
  104f6d:	8b 55 ec             	mov    -0x14(%rbp),%edx
  104f70:	8b 45 c0             	mov    -0x40(%rbp),%eax
  104f73:	8d 3c 02             	lea    (%rdx,%rax,1),%edi
  104f76:	8b 55 e8             	mov    -0x18(%rbp),%edx
  104f79:	8b 45 c4             	mov    -0x3c(%rbp),%eax
  104f7c:	8d 34 02             	lea    (%rdx,%rax,1),%esi
  104f7f:	8b 55 bc             	mov    -0x44(%rbp),%edx
  104f82:	48 8b 45 d0          	mov    -0x30(%rbp),%rax
  104f86:	89 d1                	mov    %edx,%ecx
  104f88:	89 fa                	mov    %edi,%edx
  104f8a:	48 89 c7             	mov    %rax,%rdi
  104f8d:	e8 c4 fd ff ff       	callq  104d56 <_ZN11Framebuffer8PutPixelEjjj>
  104f92:	8b 55 ec             	mov    -0x14(%rbp),%edx
  104f95:	8b 45 c0             	mov    -0x40(%rbp),%eax
  104f98:	01 c2                	add    %eax,%edx
  104f9a:	8b 4d e8             	mov    -0x18(%rbp),%ecx
  104f9d:	8b 45 c4             	mov    -0x3c(%rbp),%eax
  104fa0:	01 c1                	add    %eax,%ecx
  104fa2:	8b 45 ec             	mov    -0x14(%rbp),%eax
  104fa5:	c1 e0 04             	shl    $0x4,%eax
  104fa8:	89 c6                	mov    %eax,%esi
  104faa:	8b 45 e8             	mov    -0x18(%rbp),%eax
  104fad:	8d 1c 06             	lea    (%rsi,%rax,1),%ebx
  104fb0:	48 8b 45 d0          	mov    -0x30(%rbp),%rax
  104fb4:	89 ce                	mov    %ecx,%esi
  104fb6:	48 89 c7             	mov    %rax,%rdi
  104fb9:	e8 dc fd ff ff       	callq  104d9a <_ZN11Framebuffer8GetPixelEjj>
  104fbe:	48 63 d3             	movslq %ebx,%rdx
  104fc1:	48 8d 0c 95 00 00 00 	lea    0x0(,%rdx,4),%rcx
  104fc8:	00 
  104fc9:	48 8d 15 f0 1f 01 00 	lea    0x11ff0(%rip),%rdx        # 116fc0 <MouseCursorBufferAfter>
  104fd0:	89 04 11             	mov    %eax,(%rcx,%rdx,1)
  104fd3:	83 45 e8 01          	addl   $0x1,-0x18(%rbp)
  104fd7:	e9 ed fe ff ff       	jmpq   104ec9 <_ZN11Framebuffer15DrawMouseCursorEPhjjj+0x79>
  104fdc:	83 45 ec 01          	addl   $0x1,-0x14(%rbp)
  104fe0:	e9 d1 fe ff ff       	jmpq   104eb6 <_ZN11Framebuffer15DrawMouseCursorEPhjjj+0x66>
  104fe5:	c6 05 b4 1b 01 00 01 	movb   $0x1,0x11bb4(%rip)        # 116ba0 <MouseDrawn>
  104fec:	90                   	nop
  104fed:	48 83 c4 40          	add    $0x40,%rsp
  104ff1:	5b                   	pop    %rbx
  104ff2:	5d                   	pop    %rbp
  104ff3:	c3                   	retq   

0000000000104ff4 <_ZN11Framebuffer16ClearMouseCursorEPhjj>:
  104ff4:	f3 0f 1e fa          	endbr64 
  104ff8:	55                   	push   %rbp
  104ff9:	48 89 e5             	mov    %rsp,%rbp
  104ffc:	48 83 ec 38          	sub    $0x38,%rsp
  105000:	48 89 7d d8          	mov    %rdi,-0x28(%rbp)
  105004:	48 89 75 d0          	mov    %rsi,-0x30(%rbp)
  105008:	89 55 cc             	mov    %edx,-0x34(%rbp)
  10500b:	89 4d c8             	mov    %ecx,-0x38(%rbp)
  10500e:	0f b6 05 8b 1b 01 00 	movzbl 0x11b8b(%rip),%eax        # 116ba0 <MouseDrawn>
  105015:	83 f0 01             	xor    $0x1,%eax
  105018:	84 c0                	test   %al,%al
  10501a:	0f 85 5b 01 00 00    	jne    10517b <_ZN11Framebuffer16ClearMouseCursorEPhjj+0x187>
  105020:	c7 45 fc 10 00 00 00 	movl   $0x10,-0x4(%rbp)
  105027:	c7 45 f8 10 00 00 00 	movl   $0x10,-0x8(%rbp)
  10502e:	48 8b 45 d8          	mov    -0x28(%rbp),%rax
  105032:	8b 40 08             	mov    0x8(%rax),%eax
  105035:	2b 45 cc             	sub    -0x34(%rbp),%eax
  105038:	89 45 ec             	mov    %eax,-0x14(%rbp)
  10503b:	48 8b 45 d8          	mov    -0x28(%rbp),%rax
  10503f:	8b 40 0c             	mov    0xc(%rax),%eax
  105042:	2b 45 c8             	sub    -0x38(%rbp),%eax
  105045:	89 45 e8             	mov    %eax,-0x18(%rbp)
  105048:	83 7d ec 0f          	cmpl   $0xf,-0x14(%rbp)
  10504c:	7f 06                	jg     105054 <_ZN11Framebuffer16ClearMouseCursorEPhjj+0x60>
  10504e:	8b 45 ec             	mov    -0x14(%rbp),%eax
  105051:	89 45 fc             	mov    %eax,-0x4(%rbp)
  105054:	83 7d e8 0f          	cmpl   $0xf,-0x18(%rbp)
  105058:	7f 06                	jg     105060 <_ZN11Framebuffer16ClearMouseCursorEPhjj+0x6c>
  10505a:	8b 45 e8             	mov    -0x18(%rbp),%eax
  10505d:	89 45 f8             	mov    %eax,-0x8(%rbp)
  105060:	c7 45 f4 00 00 00 00 	movl   $0x0,-0xc(%rbp)
  105067:	8b 45 f4             	mov    -0xc(%rbp),%eax
  10506a:	3b 45 f8             	cmp    -0x8(%rbp),%eax
  10506d:	0f 8d 09 01 00 00    	jge    10517c <_ZN11Framebuffer16ClearMouseCursorEPhjj+0x188>
  105073:	c7 45 f0 00 00 00 00 	movl   $0x0,-0x10(%rbp)
  10507a:	8b 45 f0             	mov    -0x10(%rbp),%eax
  10507d:	3b 45 fc             	cmp    -0x4(%rbp),%eax
  105080:	0f 8d ec 00 00 00    	jge    105172 <_ZN11Framebuffer16ClearMouseCursorEPhjj+0x17e>
  105086:	8b 45 f4             	mov    -0xc(%rbp),%eax
  105089:	c1 e0 04             	shl    $0x4,%eax
  10508c:	89 c2                	mov    %eax,%edx
  10508e:	8b 45 f0             	mov    -0x10(%rbp),%eax
  105091:	01 d0                	add    %edx,%eax
  105093:	89 45 e4             	mov    %eax,-0x1c(%rbp)
  105096:	8b 45 e4             	mov    -0x1c(%rbp),%eax
  105099:	8d 50 07             	lea    0x7(%rax),%edx
  10509c:	85 c0                	test   %eax,%eax
  10509e:	0f 48 c2             	cmovs  %edx,%eax
  1050a1:	c1 f8 03             	sar    $0x3,%eax
  1050a4:	89 45 e0             	mov    %eax,-0x20(%rbp)
  1050a7:	8b 45 e0             	mov    -0x20(%rbp),%eax
  1050aa:	48 63 d0             	movslq %eax,%rdx
  1050ad:	48 8b 45 d0          	mov    -0x30(%rbp),%rax
  1050b1:	48 01 d0             	add    %rdx,%rax
  1050b4:	0f b6 00             	movzbl (%rax),%eax
  1050b7:	0f b6 f0             	movzbl %al,%esi
  1050ba:	8b 45 f0             	mov    -0x10(%rbp),%eax
  1050bd:	99                   	cltd   
  1050be:	c1 ea 1d             	shr    $0x1d,%edx
  1050c1:	01 d0                	add    %edx,%eax
  1050c3:	83 e0 07             	and    $0x7,%eax
  1050c6:	29 d0                	sub    %edx,%eax
  1050c8:	ba 80 00 00 00       	mov    $0x80,%edx
  1050cd:	89 c1                	mov    %eax,%ecx
  1050cf:	d3 fa                	sar    %cl,%edx
  1050d1:	89 d0                	mov    %edx,%eax
  1050d3:	21 f0                	and    %esi,%eax
  1050d5:	85 c0                	test   %eax,%eax
  1050d7:	0f 84 8c 00 00 00    	je     105169 <_ZN11Framebuffer16ClearMouseCursorEPhjj+0x175>
  1050dd:	8b 55 f4             	mov    -0xc(%rbp),%edx
  1050e0:	8b 45 c8             	mov    -0x38(%rbp),%eax
  1050e3:	01 c2                	add    %eax,%edx
  1050e5:	8b 4d f0             	mov    -0x10(%rbp),%ecx
  1050e8:	8b 45 cc             	mov    -0x34(%rbp),%eax
  1050eb:	01 c1                	add    %eax,%ecx
  1050ed:	48 8b 45 d8          	mov    -0x28(%rbp),%rax
  1050f1:	89 ce                	mov    %ecx,%esi
  1050f3:	48 89 c7             	mov    %rax,%rdi
  1050f6:	e8 9f fc ff ff       	callq  104d9a <_ZN11Framebuffer8GetPixelEjj>
  1050fb:	8b 55 f4             	mov    -0xc(%rbp),%edx
  1050fe:	89 d1                	mov    %edx,%ecx
  105100:	c1 e1 04             	shl    $0x4,%ecx
  105103:	8b 55 f0             	mov    -0x10(%rbp),%edx
  105106:	01 ca                	add    %ecx,%edx
  105108:	48 63 d2             	movslq %edx,%rdx
  10510b:	48 8d 0c 95 00 00 00 	lea    0x0(,%rdx,4),%rcx
  105112:	00 
  105113:	48 8d 15 a6 1e 01 00 	lea    0x11ea6(%rip),%rdx        # 116fc0 <MouseCursorBufferAfter>
  10511a:	8b 14 11             	mov    (%rcx,%rdx,1),%edx
  10511d:	39 d0                	cmp    %edx,%eax
  10511f:	0f 94 c0             	sete   %al
  105122:	84 c0                	test   %al,%al
  105124:	74 43                	je     105169 <_ZN11Framebuffer16ClearMouseCursorEPhjj+0x175>
  105126:	8b 45 f4             	mov    -0xc(%rbp),%eax
  105129:	c1 e0 04             	shl    $0x4,%eax
  10512c:	89 c2                	mov    %eax,%edx
  10512e:	8b 45 f0             	mov    -0x10(%rbp),%eax
  105131:	01 d0                	add    %edx,%eax
  105133:	48 98                	cltq   
  105135:	48 8d 14 85 00 00 00 	lea    0x0(,%rax,4),%rdx
  10513c:	00 
  10513d:	48 8d 05 7c 1a 01 00 	lea    0x11a7c(%rip),%rax        # 116bc0 <MouseCursorBuffer>
  105144:	8b 14 02             	mov    (%rdx,%rax,1),%edx
  105147:	8b 4d f4             	mov    -0xc(%rbp),%ecx
  10514a:	8b 45 c8             	mov    -0x38(%rbp),%eax
  10514d:	8d 3c 01             	lea    (%rcx,%rax,1),%edi
  105150:	8b 4d f0             	mov    -0x10(%rbp),%ecx
  105153:	8b 45 cc             	mov    -0x34(%rbp),%eax
  105156:	8d 34 01             	lea    (%rcx,%rax,1),%esi
  105159:	48 8b 45 d8          	mov    -0x28(%rbp),%rax
  10515d:	89 d1                	mov    %edx,%ecx
  10515f:	89 fa                	mov    %edi,%edx
  105161:	48 89 c7             	mov    %rax,%rdi
  105164:	e8 ed fb ff ff       	callq  104d56 <_ZN11Framebuffer8PutPixelEjjj>
  105169:	83 45 f0 01          	addl   $0x1,-0x10(%rbp)
  10516d:	e9 08 ff ff ff       	jmpq   10507a <_ZN11Framebuffer16ClearMouseCursorEPhjj+0x86>
  105172:	83 45 f4 01          	addl   $0x1,-0xc(%rbp)
  105176:	e9 ec fe ff ff       	jmpq   105067 <_ZN11Framebuffer16ClearMouseCursorEPhjj+0x73>
  10517b:	90                   	nop
  10517c:	c9                   	leaveq 
  10517d:	c3                   	retq   

000000000010517e <_ZN7Display13SharedDisplayEv>:
  10517e:	f3 0f 1e fa          	endbr64 
  105182:	55                   	push   %rbp
  105183:	48 89 e5             	mov    %rsp,%rbp
  105186:	48 8b 05 33 22 01 00 	mov    0x12233(%rip),%rax        # 1173c0 <_ZN7Display9s_DisplayE>
  10518d:	48 85 c0             	test   %rax,%rax
  105190:	75 0e                	jne    1051a0 <_ZN7Display13SharedDisplayEv+0x22>
  105192:	48 8d 05 47 22 01 00 	lea    0x12247(%rip),%rax        # 1173e0 <display>
  105199:	48 89 05 20 22 01 00 	mov    %rax,0x12220(%rip)        # 1173c0 <_ZN7Display9s_DisplayE>
  1051a0:	48 8b 05 19 22 01 00 	mov    0x12219(%rip),%rax        # 1173c0 <_ZN7Display9s_DisplayE>
  1051a7:	5d                   	pop    %rbp
  1051a8:	c3                   	retq   

00000000001051a9 <_Z17InitialiseDisplay11FramebufferP9psf1_font>:
  1051a9:	f3 0f 1e fa          	endbr64 
  1051ad:	55                   	push   %rbp
  1051ae:	48 89 e5             	mov    %rsp,%rbp
  1051b1:	48 83 ec 30          	sub    $0x30,%rsp
  1051b5:	48 89 7d d8          	mov    %rdi,-0x28(%rbp)
  1051b9:	48 8b 45 10          	mov    0x10(%rbp),%rax
  1051bd:	48 89 45 f0          	mov    %rax,-0x10(%rbp)
  1051c1:	8b 55 18             	mov    0x18(%rbp),%edx
  1051c4:	8b 45 1c             	mov    0x1c(%rbp),%eax
  1051c7:	0f af c2             	imul   %edx,%eax
  1051ca:	c1 e0 02             	shl    $0x2,%eax
  1051cd:	89 c0                	mov    %eax,%eax
  1051cf:	48 89 45 e8          	mov    %rax,-0x18(%rbp)
  1051d3:	48 8b 45 f0          	mov    -0x10(%rbp),%rax
  1051d7:	48 89 45 f8          	mov    %rax,-0x8(%rbp)
  1051db:	48 8b 55 f0          	mov    -0x10(%rbp),%rdx
  1051df:	48 8b 45 e8          	mov    -0x18(%rbp),%rax
  1051e3:	48 01 d0             	add    %rdx,%rax
  1051e6:	48 05 00 10 00 00    	add    $0x1000,%rax
  1051ec:	48 39 45 f8          	cmp    %rax,-0x8(%rbp)
  1051f0:	73 26                	jae    105218 <_Z17InitialiseDisplay11FramebufferP9psf1_font+0x6f>
  1051f2:	48 8b 55 f8          	mov    -0x8(%rbp),%rdx
  1051f6:	48 8b 45 f8          	mov    -0x8(%rbp),%rax
  1051fa:	b9 13 00 00 00       	mov    $0x13,%ecx
  1051ff:	48 89 c6             	mov    %rax,%rsi
  105202:	48 8d 3d 3f fe 00 00 	lea    0xfe3f(%rip),%rdi        # 115048 <KernelDirectory>
  105209:	e8 c8 ae ff ff       	callq  1000d6 <_ZN16PageTableManager9MapMemoryEmmm>
  10520e:	48 81 45 f8 00 10 00 	addq   $0x1000,-0x8(%rbp)
  105215:	00 
  105216:	eb c3                	jmp    1051db <_Z17InitialiseDisplay11FramebufferP9psf1_font+0x32>
  105218:	48 8b 45 10          	mov    0x10(%rbp),%rax
  10521c:	48 8b 55 18          	mov    0x18(%rbp),%rdx
  105220:	48 89 05 d9 21 01 00 	mov    %rax,0x121d9(%rip)        # 117400 <display+0x20>
  105227:	48 89 15 da 21 01 00 	mov    %rdx,0x121da(%rip)        # 117408 <display+0x28>
  10522e:	48 8b 45 20          	mov    0x20(%rbp),%rax
  105232:	48 89 05 d7 21 01 00 	mov    %rax,0x121d7(%rip)        # 117410 <display+0x30>
  105239:	c7 05 a1 21 01 00 ff 	movl   $0xff00ffff,0x121a1(%rip)        # 1173e4 <display+0x4>
  105240:	ff 00 ff 
  105243:	c7 05 93 21 01 00 50 	movl   $0xff505050,0x12193(%rip)        # 1173e0 <display>
  10524a:	50 50 ff 
  10524d:	c7 05 91 21 01 00 00 	movl   $0x0,0x12191(%rip)        # 1173e8 <display+0x8>
  105254:	00 00 00 
  105257:	c7 05 8b 21 01 00 00 	movl   $0x0,0x1218b(%rip)        # 1173ec <display+0xc>
  10525e:	00 00 00 
  105261:	c7 05 8d 21 01 00 08 	movl   $0x8,0x1218d(%rip)        # 1173f8 <display+0x18>
  105268:	00 00 00 
  10526b:	c7 05 87 21 01 00 10 	movl   $0x10,0x12187(%rip)        # 1173fc <display+0x1c>
  105272:	00 00 00 
  105275:	8b 05 8d 21 01 00    	mov    0x1218d(%rip),%eax        # 117408 <display+0x28>
  10527b:	8b 0d 77 21 01 00    	mov    0x12177(%rip),%ecx        # 1173f8 <display+0x18>
  105281:	ba 00 00 00 00       	mov    $0x0,%edx
  105286:	f7 f1                	div    %ecx
  105288:	89 05 62 21 01 00    	mov    %eax,0x12162(%rip)        # 1173f0 <display+0x10>
  10528e:	8b 05 78 21 01 00    	mov    0x12178(%rip),%eax        # 11740c <display+0x2c>
  105294:	8b 35 62 21 01 00    	mov    0x12162(%rip),%esi        # 1173fc <display+0x1c>
  10529a:	ba 00 00 00 00       	mov    $0x0,%edx
  10529f:	f7 f6                	div    %esi
  1052a1:	89 05 4d 21 01 00    	mov    %eax,0x1214d(%rip)        # 1173f4 <display+0x14>
  1052a7:	48 8b 45 d8          	mov    -0x28(%rbp),%rax
  1052ab:	48 89 05 7e 21 01 00 	mov    %rax,0x1217e(%rip)        # 117430 <display+0x50>
  1052b2:	90                   	nop
  1052b3:	c9                   	leaveq 
  1052b4:	c3                   	retq   

00000000001052b5 <_Z6clrscrv>:
  1052b5:	f3 0f 1e fa          	endbr64 
  1052b9:	55                   	push   %rbp
  1052ba:	48 89 e5             	mov    %rsp,%rbp
  1052bd:	48 8d 3d 1c 21 01 00 	lea    0x1211c(%rip),%rdi        # 1173e0 <display>
  1052c4:	e8 2f 00 00 00       	callq  1052f8 <_ZN7Display5clearEv>
  1052c9:	c7 05 15 21 01 00 00 	movl   $0x0,0x12115(%rip)        # 1173e8 <display+0x8>
  1052d0:	00 00 00 
  1052d3:	c7 05 0f 21 01 00 00 	movl   $0x0,0x1210f(%rip)        # 1173ec <display+0xc>
  1052da:	00 00 00 
  1052dd:	90                   	nop
  1052de:	5d                   	pop    %rbp
  1052df:	c3                   	retq   

00000000001052e0 <_Z16printf_backspacev>:
  1052e0:	f3 0f 1e fa          	endbr64 
  1052e4:	55                   	push   %rbp
  1052e5:	48 89 e5             	mov    %rsp,%rbp
  1052e8:	48 8d 3d f1 20 01 00 	lea    0x120f1(%rip),%rdi        # 1173e0 <display>
  1052ef:	e8 58 00 00 00       	callq  10534c <_ZN7Display13put_backspaceEv>
  1052f4:	90                   	nop
  1052f5:	5d                   	pop    %rbp
  1052f6:	c3                   	retq   
  1052f7:	90                   	nop

00000000001052f8 <_ZN7Display5clearEv>:
  1052f8:	f3 0f 1e fa          	endbr64 
  1052fc:	55                   	push   %rbp
  1052fd:	48 89 e5             	mov    %rsp,%rbp
  105300:	48 83 ec 20          	sub    $0x20,%rsp
  105304:	48 89 7d e8          	mov    %rdi,-0x18(%rbp)
  105308:	48 8b 45 e8          	mov    -0x18(%rbp),%rax
  10530c:	48 8b 40 20          	mov    0x20(%rax),%rax
  105310:	48 89 45 f8          	mov    %rax,-0x8(%rbp)
  105314:	48 8b 45 e8          	mov    -0x18(%rbp),%rax
  105318:	8b 50 28             	mov    0x28(%rax),%edx
  10531b:	48 8b 45 e8          	mov    -0x18(%rbp),%rax
  10531f:	8b 40 2c             	mov    0x2c(%rax),%eax
  105322:	0f af c2             	imul   %edx,%eax
  105325:	c1 e0 02             	shl    $0x2,%eax
  105328:	89 45 f4             	mov    %eax,-0xc(%rbp)
  10532b:	48 8b 45 e8          	mov    -0x18(%rbp),%rax
  10532f:	8b 00                	mov    (%rax),%eax
  105331:	89 45 f0             	mov    %eax,-0x10(%rbp)
  105334:	8b 55 f4             	mov    -0xc(%rbp),%edx
  105337:	8b 4d f0             	mov    -0x10(%rbp),%ecx
  10533a:	48 8b 45 f8          	mov    -0x8(%rbp),%rax
  10533e:	89 ce                	mov    %ecx,%esi
  105340:	48 89 c7             	mov    %rax,%rdi
  105343:	e8 fb 78 00 00       	callq  10cc43 <_Z6memsetPvim>
  105348:	90                   	nop
  105349:	c9                   	leaveq 
  10534a:	c3                   	retq   
  10534b:	90                   	nop

000000000010534c <_ZN7Display13put_backspaceEv>:
  10534c:	f3 0f 1e fa          	endbr64 
  105350:	55                   	push   %rbp
  105351:	48 89 e5             	mov    %rsp,%rbp
  105354:	48 83 ec 10          	sub    $0x10,%rsp
  105358:	48 89 7d f8          	mov    %rdi,-0x8(%rbp)
  10535c:	48 8b 45 f8          	mov    -0x8(%rbp),%rax
  105360:	be 08 00 00 00       	mov    $0x8,%esi
  105365:	48 89 c7             	mov    %rax,%rdi
  105368:	e8 ff 02 00 00       	callq  10566c <_ZN7Display4putcEc>
  10536d:	90                   	nop
  10536e:	c9                   	leaveq 
  10536f:	c3                   	retq   

0000000000105370 <_ZN7Display4putsEPKc>:
  105370:	f3 0f 1e fa          	endbr64 
  105374:	55                   	push   %rbp
  105375:	48 89 e5             	mov    %rsp,%rbp
  105378:	48 83 ec 20          	sub    $0x20,%rsp
  10537c:	48 89 7d e8          	mov    %rdi,-0x18(%rbp)
  105380:	48 89 75 e0          	mov    %rsi,-0x20(%rbp)
  105384:	c7 45 fc 00 00 00 00 	movl   $0x0,-0x4(%rbp)
  10538b:	8b 45 fc             	mov    -0x4(%rbp),%eax
  10538e:	8d 50 01             	lea    0x1(%rax),%edx
  105391:	89 55 fc             	mov    %edx,-0x4(%rbp)
  105394:	48 63 d0             	movslq %eax,%rdx
  105397:	48 8b 45 e0          	mov    -0x20(%rbp),%rax
  10539b:	48 01 d0             	add    %rdx,%rax
  10539e:	0f b6 00             	movzbl (%rax),%eax
  1053a1:	88 45 fb             	mov    %al,-0x5(%rbp)
  1053a4:	80 7d fb 00          	cmpb   $0x0,-0x5(%rbp)
  1053a8:	0f 95 c0             	setne  %al
  1053ab:	84 c0                	test   %al,%al
  1053ad:	74 14                	je     1053c3 <_ZN7Display4putsEPKc+0x53>
  1053af:	0f be 55 fb          	movsbl -0x5(%rbp),%edx
  1053b3:	48 8b 45 e8          	mov    -0x18(%rbp),%rax
  1053b7:	89 d6                	mov    %edx,%esi
  1053b9:	48 89 c7             	mov    %rax,%rdi
  1053bc:	e8 ab 02 00 00       	callq  10566c <_ZN7Display4putcEc>
  1053c1:	eb c8                	jmp    10538b <_ZN7Display4putsEPKc+0x1b>
  1053c3:	8b 45 fc             	mov    -0x4(%rbp),%eax
  1053c6:	c9                   	leaveq 
  1053c7:	c3                   	retq   

00000000001053c8 <_Z10putchar_atcjj>:
  1053c8:	f3 0f 1e fa          	endbr64 
  1053cc:	55                   	push   %rbp
  1053cd:	48 89 e5             	mov    %rsp,%rbp
  1053d0:	48 83 ec 40          	sub    $0x40,%rsp
  1053d4:	89 f8                	mov    %edi,%eax
  1053d6:	89 75 c8             	mov    %esi,-0x38(%rbp)
  1053d9:	89 55 c4             	mov    %edx,-0x3c(%rbp)
  1053dc:	88 45 cc             	mov    %al,-0x34(%rbp)
  1053df:	48 8b 05 1a 20 01 00 	mov    0x1201a(%rip),%rax        # 117400 <display+0x20>
  1053e6:	48 89 45 e8          	mov    %rax,-0x18(%rbp)
  1053ea:	8b 05 18 20 01 00    	mov    0x12018(%rip),%eax        # 117408 <display+0x28>
  1053f0:	89 45 e4             	mov    %eax,-0x1c(%rbp)
  1053f3:	8b 05 ff 1f 01 00    	mov    0x11fff(%rip),%eax        # 1173f8 <display+0x18>
  1053f9:	89 45 e0             	mov    %eax,-0x20(%rbp)
  1053fc:	8b 05 fa 1f 01 00    	mov    0x11ffa(%rip),%eax        # 1173fc <display+0x1c>
  105402:	89 45 dc             	mov    %eax,-0x24(%rbp)
  105405:	48 8b 05 24 20 01 00 	mov    0x12024(%rip),%rax        # 117430 <display+0x50>
  10540c:	48 89 45 d0          	mov    %rax,-0x30(%rbp)
  105410:	48 8b 45 d0          	mov    -0x30(%rbp),%rax
  105414:	48 8b 50 08          	mov    0x8(%rax),%rdx
  105418:	0f be 4d cc          	movsbl -0x34(%rbp),%ecx
  10541c:	48 8b 45 d0          	mov    -0x30(%rbp),%rax
  105420:	48 8b 00             	mov    (%rax),%rax
  105423:	0f b6 40 03          	movzbl 0x3(%rax),%eax
  105427:	0f b6 c0             	movzbl %al,%eax
  10542a:	0f af c1             	imul   %ecx,%eax
  10542d:	48 98                	cltq   
  10542f:	48 01 d0             	add    %rdx,%rax
  105432:	48 89 45 f8          	mov    %rax,-0x8(%rbp)
  105436:	8b 45 c4             	mov    -0x3c(%rbp),%eax
  105439:	0f af 45 dc          	imul   -0x24(%rbp),%eax
  10543d:	89 45 f4             	mov    %eax,-0xc(%rbp)
  105440:	8b 45 c4             	mov    -0x3c(%rbp),%eax
  105443:	83 c0 01             	add    $0x1,%eax
  105446:	0f af 45 dc          	imul   -0x24(%rbp),%eax
  10544a:	39 45 f4             	cmp    %eax,-0xc(%rbp)
  10544d:	73 7d                	jae    1054cc <_Z10putchar_atcjj+0x104>
  10544f:	8b 45 c8             	mov    -0x38(%rbp),%eax
  105452:	0f af 45 e0          	imul   -0x20(%rbp),%eax
  105456:	89 45 f0             	mov    %eax,-0x10(%rbp)
  105459:	8b 45 c8             	mov    -0x38(%rbp),%eax
  10545c:	83 c0 01             	add    $0x1,%eax
  10545f:	0f af 45 e0          	imul   -0x20(%rbp),%eax
  105463:	39 45 f0             	cmp    %eax,-0x10(%rbp)
  105466:	73 56                	jae    1054be <_Z10putchar_atcjj+0xf6>
  105468:	48 8b 45 f8          	mov    -0x8(%rbp),%rax
  10546c:	0f b6 00             	movzbl (%rax),%eax
  10546f:	0f be d0             	movsbl %al,%edx
  105472:	8b 45 c8             	mov    -0x38(%rbp),%eax
  105475:	0f af 45 e0          	imul   -0x20(%rbp),%eax
  105479:	8b 4d f0             	mov    -0x10(%rbp),%ecx
  10547c:	29 c1                	sub    %eax,%ecx
  10547e:	89 c8                	mov    %ecx,%eax
  105480:	be 80 00 00 00       	mov    $0x80,%esi
  105485:	89 c1                	mov    %eax,%ecx
  105487:	d3 fe                	sar    %cl,%esi
  105489:	89 f0                	mov    %esi,%eax
  10548b:	21 d0                	and    %edx,%eax
  10548d:	85 c0                	test   %eax,%eax
  10548f:	7e 27                	jle    1054b8 <_Z10putchar_atcjj+0xf0>
  105491:	8b 45 f4             	mov    -0xc(%rbp),%eax
  105494:	0f af 45 e4          	imul   -0x1c(%rbp),%eax
  105498:	89 c2                	mov    %eax,%edx
  10549a:	8b 45 f0             	mov    -0x10(%rbp),%eax
  10549d:	01 d0                	add    %edx,%eax
  10549f:	89 c0                	mov    %eax,%eax
  1054a1:	48 8d 14 85 00 00 00 	lea    0x0(,%rax,4),%rdx
  1054a8:	00 
  1054a9:	48 8b 45 e8          	mov    -0x18(%rbp),%rax
  1054ad:	48 01 c2             	add    %rax,%rdx
  1054b0:	8b 05 2e 1f 01 00    	mov    0x11f2e(%rip),%eax        # 1173e4 <display+0x4>
  1054b6:	89 02                	mov    %eax,(%rdx)
  1054b8:	83 45 f0 01          	addl   $0x1,-0x10(%rbp)
  1054bc:	eb 9b                	jmp    105459 <_Z10putchar_atcjj+0x91>
  1054be:	48 83 45 f8 01       	addq   $0x1,-0x8(%rbp)
  1054c3:	83 45 f4 01          	addl   $0x1,-0xc(%rbp)
  1054c7:	e9 74 ff ff ff       	jmpq   105440 <_Z10putchar_atcjj+0x78>
  1054cc:	90                   	nop
  1054cd:	c9                   	leaveq 
  1054ce:	c3                   	retq   

00000000001054cf <_Z13empty_char_atjj>:
  1054cf:	f3 0f 1e fa          	endbr64 
  1054d3:	55                   	push   %rbp
  1054d4:	48 89 e5             	mov    %rsp,%rbp
  1054d7:	48 83 ec 38          	sub    $0x38,%rsp
  1054db:	89 7d cc             	mov    %edi,-0x34(%rbp)
  1054de:	89 75 c8             	mov    %esi,-0x38(%rbp)
  1054e1:	48 8b 05 18 1f 01 00 	mov    0x11f18(%rip),%rax        # 117400 <display+0x20>
  1054e8:	48 89 45 f0          	mov    %rax,-0x10(%rbp)
  1054ec:	8b 05 16 1f 01 00    	mov    0x11f16(%rip),%eax        # 117408 <display+0x28>
  1054f2:	89 45 ec             	mov    %eax,-0x14(%rbp)
  1054f5:	8b 05 fd 1e 01 00    	mov    0x11efd(%rip),%eax        # 1173f8 <display+0x18>
  1054fb:	89 45 e8             	mov    %eax,-0x18(%rbp)
  1054fe:	8b 05 f8 1e 01 00    	mov    0x11ef8(%rip),%eax        # 1173fc <display+0x1c>
  105504:	89 45 e4             	mov    %eax,-0x1c(%rbp)
  105507:	48 8b 05 22 1f 01 00 	mov    0x11f22(%rip),%rax        # 117430 <display+0x50>
  10550e:	48 89 45 d8          	mov    %rax,-0x28(%rbp)
  105512:	8b 45 c8             	mov    -0x38(%rbp),%eax
  105515:	0f af 45 e4          	imul   -0x1c(%rbp),%eax
  105519:	89 45 fc             	mov    %eax,-0x4(%rbp)
  10551c:	8b 45 c8             	mov    -0x38(%rbp),%eax
  10551f:	83 c0 01             	add    $0x1,%eax
  105522:	0f af 45 e4          	imul   -0x1c(%rbp),%eax
  105526:	39 45 fc             	cmp    %eax,-0x4(%rbp)
  105529:	73 4c                	jae    105577 <_Z13empty_char_atjj+0xa8>
  10552b:	8b 45 cc             	mov    -0x34(%rbp),%eax
  10552e:	0f af 45 e8          	imul   -0x18(%rbp),%eax
  105532:	89 45 f8             	mov    %eax,-0x8(%rbp)
  105535:	8b 45 cc             	mov    -0x34(%rbp),%eax
  105538:	83 c0 01             	add    $0x1,%eax
  10553b:	0f af 45 e8          	imul   -0x18(%rbp),%eax
  10553f:	39 45 f8             	cmp    %eax,-0x8(%rbp)
  105542:	73 2d                	jae    105571 <_Z13empty_char_atjj+0xa2>
  105544:	8b 45 fc             	mov    -0x4(%rbp),%eax
  105547:	0f af 45 ec          	imul   -0x14(%rbp),%eax
  10554b:	89 c2                	mov    %eax,%edx
  10554d:	8b 45 f8             	mov    -0x8(%rbp),%eax
  105550:	01 d0                	add    %edx,%eax
  105552:	89 c0                	mov    %eax,%eax
  105554:	48 8d 14 85 00 00 00 	lea    0x0(,%rax,4),%rdx
  10555b:	00 
  10555c:	48 8b 45 f0          	mov    -0x10(%rbp),%rax
  105560:	48 01 c2             	add    %rax,%rdx
  105563:	8b 05 77 1e 01 00    	mov    0x11e77(%rip),%eax        # 1173e0 <display>
  105569:	89 02                	mov    %eax,(%rdx)
  10556b:	83 45 f8 01          	addl   $0x1,-0x8(%rbp)
  10556f:	eb c4                	jmp    105535 <_Z13empty_char_atjj+0x66>
  105571:	83 45 fc 01          	addl   $0x1,-0x4(%rbp)
  105575:	eb a5                	jmp    10551c <_Z13empty_char_atjj+0x4d>
  105577:	90                   	nop
  105578:	c9                   	leaveq 
  105579:	c3                   	retq   

000000000010557a <_Z9scroll_upv>:
  10557a:	f3 0f 1e fa          	endbr64 
  10557e:	55                   	push   %rbp
  10557f:	48 89 e5             	mov    %rsp,%rbp
  105582:	48 83 c4 80          	add    $0xffffffffffffff80,%rsp
  105586:	48 8b 05 53 1e 01 00 	mov    0x11e53(%rip),%rax        # 1173e0 <display>
  10558d:	48 8b 15 54 1e 01 00 	mov    0x11e54(%rip),%rdx        # 1173e8 <display+0x8>
  105594:	48 89 45 a0          	mov    %rax,-0x60(%rbp)
  105598:	48 89 55 a8          	mov    %rdx,-0x58(%rbp)
  10559c:	48 8b 05 4d 1e 01 00 	mov    0x11e4d(%rip),%rax        # 1173f0 <display+0x10>
  1055a3:	48 8b 15 4e 1e 01 00 	mov    0x11e4e(%rip),%rdx        # 1173f8 <display+0x18>
  1055aa:	48 89 45 b0          	mov    %rax,-0x50(%rbp)
  1055ae:	48 89 55 b8          	mov    %rdx,-0x48(%rbp)
  1055b2:	48 8b 05 47 1e 01 00 	mov    0x11e47(%rip),%rax        # 117400 <display+0x20>
  1055b9:	48 8b 15 48 1e 01 00 	mov    0x11e48(%rip),%rdx        # 117408 <display+0x28>
  1055c0:	48 89 45 80          	mov    %rax,-0x80(%rbp)
  1055c4:	48 89 55 88          	mov    %rdx,-0x78(%rbp)
  1055c8:	48 8b 05 41 1e 01 00 	mov    0x11e41(%rip),%rax        # 117410 <display+0x30>
  1055cf:	48 89 45 90          	mov    %rax,-0x70(%rbp)
  1055d3:	8b 45 88             	mov    -0x78(%rbp),%eax
  1055d6:	89 45 fc             	mov    %eax,-0x4(%rbp)
  1055d9:	8b 45 8c             	mov    -0x74(%rbp),%eax
  1055dc:	89 45 f8             	mov    %eax,-0x8(%rbp)
  1055df:	8b 45 b8             	mov    -0x48(%rbp),%eax
  1055e2:	89 45 f4             	mov    %eax,-0xc(%rbp)
  1055e5:	8b 45 bc             	mov    -0x44(%rbp),%eax
  1055e8:	89 45 f0             	mov    %eax,-0x10(%rbp)
  1055eb:	8b 45 b4             	mov    -0x4c(%rbp),%eax
  1055ee:	83 e8 01             	sub    $0x1,%eax
  1055f1:	89 45 ec             	mov    %eax,-0x14(%rbp)
  1055f4:	8b 45 f0             	mov    -0x10(%rbp),%eax
  1055f7:	0f af 45 fc          	imul   -0x4(%rbp),%eax
  1055fb:	c1 e0 02             	shl    $0x2,%eax
  1055fe:	89 c0                	mov    %eax,%eax
  105600:	48 89 45 e0          	mov    %rax,-0x20(%rbp)
  105604:	48 8b 45 80          	mov    -0x80(%rbp),%rax
  105608:	48 89 45 d8          	mov    %rax,-0x28(%rbp)
  10560c:	8b 45 ec             	mov    -0x14(%rbp),%eax
  10560f:	48 0f af 45 e0       	imul   -0x20(%rbp),%rax
  105614:	48 89 c2             	mov    %rax,%rdx
  105617:	48 8b 4d d8          	mov    -0x28(%rbp),%rcx
  10561b:	48 8b 45 e0          	mov    -0x20(%rbp),%rax
  10561f:	48 01 c8             	add    %rcx,%rax
  105622:	48 89 c1             	mov    %rax,%rcx
  105625:	48 8b 45 d8          	mov    -0x28(%rbp),%rax
  105629:	48 89 ce             	mov    %rcx,%rsi
  10562c:	48 89 c7             	mov    %rax,%rdi
  10562f:	e8 cd 75 00 00       	callq  10cc01 <_Z6memcpyPvPKvm>
  105634:	8b 45 ec             	mov    -0x14(%rbp),%eax
  105637:	48 8b 55 e0          	mov    -0x20(%rbp),%rdx
  10563b:	48 0f af c2          	imul   %rdx,%rax
  10563f:	48 89 45 d0          	mov    %rax,-0x30(%rbp)
  105643:	48 8b 55 d8          	mov    -0x28(%rbp),%rdx
  105647:	48 8b 45 d0          	mov    -0x30(%rbp),%rax
  10564b:	48 01 d0             	add    %rdx,%rax
  10564e:	48 89 45 c8          	mov    %rax,-0x38(%rbp)
  105652:	8b 45 a0             	mov    -0x60(%rbp),%eax
  105655:	89 c1                	mov    %eax,%ecx
  105657:	48 8b 55 e0          	mov    -0x20(%rbp),%rdx
  10565b:	48 8b 45 c8          	mov    -0x38(%rbp),%rax
  10565f:	89 ce                	mov    %ecx,%esi
  105661:	48 89 c7             	mov    %rax,%rdi
  105664:	e8 da 75 00 00       	callq  10cc43 <_Z6memsetPvim>
  105669:	90                   	nop
  10566a:	c9                   	leaveq 
  10566b:	c3                   	retq   

000000000010566c <_ZN7Display4putcEc>:
  10566c:	f3 0f 1e fa          	endbr64 
  105670:	55                   	push   %rbp
  105671:	48 89 e5             	mov    %rsp,%rbp
  105674:	48 83 ec 40          	sub    $0x40,%rsp
  105678:	48 89 7d c8          	mov    %rdi,-0x38(%rbp)
  10567c:	89 f0                	mov    %esi,%eax
  10567e:	88 45 c4             	mov    %al,-0x3c(%rbp)
  105681:	c7 45 fc 00 00 00 00 	movl   $0x0,-0x4(%rbp)
  105688:	c7 45 f8 00 00 00 00 	movl   $0x0,-0x8(%rbp)
  10568f:	c7 45 f4 ff ff ff ff 	movl   $0xffffffff,-0xc(%rbp)
  105696:	c7 45 e4 ff ff ff ff 	movl   $0xffffffff,-0x1c(%rbp)
  10569d:	c7 45 f0 00 00 00 00 	movl   $0x0,-0x10(%rbp)
  1056a4:	8b 05 3e 1d 01 00    	mov    0x11d3e(%rip),%eax        # 1173e8 <display+0x8>
  1056aa:	89 45 ec             	mov    %eax,-0x14(%rbp)
  1056ad:	8b 05 39 1d 01 00    	mov    0x11d39(%rip),%eax        # 1173ec <display+0xc>
  1056b3:	89 45 e8             	mov    %eax,-0x18(%rbp)
  1056b6:	8b 05 34 1d 01 00    	mov    0x11d34(%rip),%eax        # 1173f0 <display+0x10>
  1056bc:	89 45 e0             	mov    %eax,-0x20(%rbp)
  1056bf:	8b 05 2f 1d 01 00    	mov    0x11d2f(%rip),%eax        # 1173f4 <display+0x14>
  1056c5:	89 45 dc             	mov    %eax,-0x24(%rbp)
  1056c8:	80 7d c4 0a          	cmpb   $0xa,-0x3c(%rbp)
  1056cc:	75 10                	jne    1056de <_ZN7Display4putcEc+0x72>
  1056ce:	c7 45 f4 00 00 00 00 	movl   $0x0,-0xc(%rbp)
  1056d5:	c7 45 f8 01 00 00 00 	movl   $0x1,-0x8(%rbp)
  1056dc:	eb 42                	jmp    105720 <_ZN7Display4putcEc+0xb4>
  1056de:	80 7d c4 0d          	cmpb   $0xd,-0x3c(%rbp)
  1056e2:	75 09                	jne    1056ed <_ZN7Display4putcEc+0x81>
  1056e4:	c7 45 f4 00 00 00 00 	movl   $0x0,-0xc(%rbp)
  1056eb:	eb 33                	jmp    105720 <_ZN7Display4putcEc+0xb4>
  1056ed:	80 7d c4 09          	cmpb   $0x9,-0x3c(%rbp)
  1056f1:	75 09                	jne    1056fc <_ZN7Display4putcEc+0x90>
  1056f3:	c7 45 fc 04 00 00 00 	movl   $0x4,-0x4(%rbp)
  1056fa:	eb 24                	jmp    105720 <_ZN7Display4putcEc+0xb4>
  1056fc:	80 7d c4 08          	cmpb   $0x8,-0x3c(%rbp)
  105700:	75 10                	jne    105712 <_ZN7Display4putcEc+0xa6>
  105702:	c7 45 fc ff ff ff ff 	movl   $0xffffffff,-0x4(%rbp)
  105709:	c7 45 f0 02 00 00 00 	movl   $0x2,-0x10(%rbp)
  105710:	eb 0e                	jmp    105720 <_ZN7Display4putcEc+0xb4>
  105712:	c7 45 fc 01 00 00 00 	movl   $0x1,-0x4(%rbp)
  105719:	c7 45 f0 01 00 00 00 	movl   $0x1,-0x10(%rbp)
  105720:	83 7d f0 01          	cmpl   $0x1,-0x10(%rbp)
  105724:	75 13                	jne    105739 <_ZN7Display4putcEc+0xcd>
  105726:	0f be 45 c4          	movsbl -0x3c(%rbp),%eax
  10572a:	8b 55 e8             	mov    -0x18(%rbp),%edx
  10572d:	8b 4d ec             	mov    -0x14(%rbp),%ecx
  105730:	89 ce                	mov    %ecx,%esi
  105732:	89 c7                	mov    %eax,%edi
  105734:	e8 8f fc ff ff       	callq  1053c8 <_Z10putchar_atcjj>
  105739:	83 7d f0 02          	cmpl   $0x2,-0x10(%rbp)
  10573d:	75 12                	jne    105751 <_ZN7Display4putcEc+0xe5>
  10573f:	8b 45 ec             	mov    -0x14(%rbp),%eax
  105742:	8d 50 ff             	lea    -0x1(%rax),%edx
  105745:	8b 45 e8             	mov    -0x18(%rbp),%eax
  105748:	89 c6                	mov    %eax,%esi
  10574a:	89 d7                	mov    %edx,%edi
  10574c:	e8 7e fd ff ff       	callq  1054cf <_Z13empty_char_atjj>
  105751:	83 7d f4 ff          	cmpl   $0xffffffff,-0xc(%rbp)
  105755:	74 06                	je     10575d <_ZN7Display4putcEc+0xf1>
  105757:	8b 45 f4             	mov    -0xc(%rbp),%eax
  10575a:	89 45 ec             	mov    %eax,-0x14(%rbp)
  10575d:	83 7d e4 ff          	cmpl   $0xffffffff,-0x1c(%rbp)
  105761:	74 06                	je     105769 <_ZN7Display4putcEc+0xfd>
  105763:	8b 45 e4             	mov    -0x1c(%rbp),%eax
  105766:	89 45 e8             	mov    %eax,-0x18(%rbp)
  105769:	83 7d fc 00          	cmpl   $0x0,-0x4(%rbp)
  10576d:	74 1b                	je     10578a <_ZN7Display4putcEc+0x11e>
  10576f:	8b 45 fc             	mov    -0x4(%rbp),%eax
  105772:	01 45 ec             	add    %eax,-0x14(%rbp)
  105775:	8b 45 ec             	mov    -0x14(%rbp),%eax
  105778:	3b 45 e0             	cmp    -0x20(%rbp),%eax
  10577b:	72 0d                	jb     10578a <_ZN7Display4putcEc+0x11e>
  10577d:	8b 45 e0             	mov    -0x20(%rbp),%eax
  105780:	2b 45 ec             	sub    -0x14(%rbp),%eax
  105783:	89 45 ec             	mov    %eax,-0x14(%rbp)
  105786:	83 45 f8 01          	addl   $0x1,-0x8(%rbp)
  10578a:	83 7d f8 00          	cmpl   $0x0,-0x8(%rbp)
  10578e:	74 1c                	je     1057ac <_ZN7Display4putcEc+0x140>
  105790:	8b 45 f8             	mov    -0x8(%rbp),%eax
  105793:	01 45 e8             	add    %eax,-0x18(%rbp)
  105796:	8b 45 e8             	mov    -0x18(%rbp),%eax
  105799:	3b 45 dc             	cmp    -0x24(%rbp),%eax
  10579c:	72 0e                	jb     1057ac <_ZN7Display4putcEc+0x140>
  10579e:	e8 d7 fd ff ff       	callq  10557a <_Z9scroll_upv>
  1057a3:	8b 45 dc             	mov    -0x24(%rbp),%eax
  1057a6:	83 e8 01             	sub    $0x1,%eax
  1057a9:	89 45 e8             	mov    %eax,-0x18(%rbp)
  1057ac:	8b 45 ec             	mov    -0x14(%rbp),%eax
  1057af:	89 05 33 1c 01 00    	mov    %eax,0x11c33(%rip)        # 1173e8 <display+0x8>
  1057b5:	8b 45 e8             	mov    -0x18(%rbp),%eax
  1057b8:	89 05 2e 1c 01 00    	mov    %eax,0x11c2e(%rip)        # 1173ec <display+0xc>
  1057be:	b8 00 00 00 00       	mov    $0x0,%eax
  1057c3:	c9                   	leaveq 
  1057c4:	c3                   	retq   

00000000001057c5 <_Z14ReadSectorsATAmjh>:
  1057c5:	f3 0f 1e fa          	endbr64 
  1057c9:	55                   	push   %rbp
  1057ca:	48 89 e5             	mov    %rsp,%rbp
  1057cd:	53                   	push   %rbx
  1057ce:	48 83 ec 28          	sub    $0x28,%rsp
  1057d2:	48 89 7d d8          	mov    %rdi,-0x28(%rbp)
  1057d6:	89 75 d4             	mov    %esi,-0x2c(%rbp)
  1057d9:	89 d0                	mov    %edx,%eax
  1057db:	88 45 d0             	mov    %al,-0x30(%rbp)
  1057de:	e8 d0 01 00 00       	callq  1059b3 <_ZL7WaitBSYv>
  1057e3:	8b 45 d4             	mov    -0x2c(%rbp),%eax
  1057e6:	c1 e8 18             	shr    $0x18,%eax
  1057e9:	83 e0 0f             	and    $0xf,%eax
  1057ec:	83 c8 e0             	or     $0xffffffe0,%eax
  1057ef:	0f b6 c0             	movzbl %al,%eax
  1057f2:	89 c6                	mov    %eax,%esi
  1057f4:	bf f6 01 00 00       	mov    $0x1f6,%edi
  1057f9:	e8 17 c0 ff ff       	callq  101815 <_Z6__outbth>
  1057fe:	0f b6 45 d0          	movzbl -0x30(%rbp),%eax
  105802:	89 c6                	mov    %eax,%esi
  105804:	bf f2 01 00 00       	mov    $0x1f2,%edi
  105809:	e8 07 c0 ff ff       	callq  101815 <_Z6__outbth>
  10580e:	8b 45 d4             	mov    -0x2c(%rbp),%eax
  105811:	0f b6 c0             	movzbl %al,%eax
  105814:	89 c6                	mov    %eax,%esi
  105816:	bf f3 01 00 00       	mov    $0x1f3,%edi
  10581b:	e8 f5 bf ff ff       	callq  101815 <_Z6__outbth>
  105820:	8b 45 d4             	mov    -0x2c(%rbp),%eax
  105823:	c1 e8 08             	shr    $0x8,%eax
  105826:	0f b6 c0             	movzbl %al,%eax
  105829:	89 c6                	mov    %eax,%esi
  10582b:	bf f4 01 00 00       	mov    $0x1f4,%edi
  105830:	e8 e0 bf ff ff       	callq  101815 <_Z6__outbth>
  105835:	8b 45 d4             	mov    -0x2c(%rbp),%eax
  105838:	c1 e8 10             	shr    $0x10,%eax
  10583b:	0f b6 c0             	movzbl %al,%eax
  10583e:	89 c6                	mov    %eax,%esi
  105840:	bf f5 01 00 00       	mov    $0x1f5,%edi
  105845:	e8 cb bf ff ff       	callq  101815 <_Z6__outbth>
  10584a:	be 20 00 00 00       	mov    $0x20,%esi
  10584f:	bf f7 01 00 00       	mov    $0x1f7,%edi
  105854:	e8 bc bf ff ff       	callq  101815 <_Z6__outbth>
  105859:	48 8b 45 d8          	mov    -0x28(%rbp),%rax
  10585d:	48 89 45 e8          	mov    %rax,-0x18(%rbp)
  105861:	c7 45 e4 00 00 00 00 	movl   $0x0,-0x1c(%rbp)
  105868:	0f b6 45 d0          	movzbl -0x30(%rbp),%eax
  10586c:	39 45 e4             	cmp    %eax,-0x1c(%rbp)
  10586f:	7d 4c                	jge    1058bd <_Z14ReadSectorsATAmjh+0xf8>
  105871:	e8 3d 01 00 00       	callq  1059b3 <_ZL7WaitBSYv>
  105876:	e8 56 01 00 00       	callq  1059d1 <_ZL7WaitDRQv>
  10587b:	c7 45 e0 00 00 00 00 	movl   $0x0,-0x20(%rbp)
  105882:	81 7d e0 ff 00 00 00 	cmpl   $0xff,-0x20(%rbp)
  105889:	7f 24                	jg     1058af <_Z14ReadSectorsATAmjh+0xea>
  10588b:	8b 45 e0             	mov    -0x20(%rbp),%eax
  10588e:	48 98                	cltq   
  105890:	48 8d 14 00          	lea    (%rax,%rax,1),%rdx
  105894:	48 8b 45 e8          	mov    -0x18(%rbp),%rax
  105898:	48 8d 1c 02          	lea    (%rdx,%rax,1),%rbx
  10589c:	bf f0 01 00 00       	mov    $0x1f0,%edi
  1058a1:	e8 2e bf ff ff       	callq  1017d4 <_Z5__inwt>
  1058a6:	66 89 03             	mov    %ax,(%rbx)
  1058a9:	83 45 e0 01          	addl   $0x1,-0x20(%rbp)
  1058ad:	eb d3                	jmp    105882 <_Z14ReadSectorsATAmjh+0xbd>
  1058af:	48 81 45 e8 00 02 00 	addq   $0x200,-0x18(%rbp)
  1058b6:	00 
  1058b7:	83 45 e4 01          	addl   $0x1,-0x1c(%rbp)
  1058bb:	eb ab                	jmp    105868 <_Z14ReadSectorsATAmjh+0xa3>
  1058bd:	90                   	nop
  1058be:	48 83 c4 28          	add    $0x28,%rsp
  1058c2:	5b                   	pop    %rbx
  1058c3:	5d                   	pop    %rbp
  1058c4:	c3                   	retq   

00000000001058c5 <_Z15WriteSectorsATAjhPj>:
  1058c5:	f3 0f 1e fa          	endbr64 
  1058c9:	55                   	push   %rbp
  1058ca:	48 89 e5             	mov    %rsp,%rbp
  1058cd:	48 83 ec 20          	sub    $0x20,%rsp
  1058d1:	89 7d ec             	mov    %edi,-0x14(%rbp)
  1058d4:	89 f0                	mov    %esi,%eax
  1058d6:	48 89 55 e0          	mov    %rdx,-0x20(%rbp)
  1058da:	88 45 e8             	mov    %al,-0x18(%rbp)
  1058dd:	e8 d1 00 00 00       	callq  1059b3 <_ZL7WaitBSYv>
  1058e2:	8b 45 ec             	mov    -0x14(%rbp),%eax
  1058e5:	c1 e8 18             	shr    $0x18,%eax
  1058e8:	83 e0 0f             	and    $0xf,%eax
  1058eb:	83 c8 e0             	or     $0xffffffe0,%eax
  1058ee:	0f b6 c0             	movzbl %al,%eax
  1058f1:	89 c6                	mov    %eax,%esi
  1058f3:	bf f6 01 00 00       	mov    $0x1f6,%edi
  1058f8:	e8 18 bf ff ff       	callq  101815 <_Z6__outbth>
  1058fd:	0f b6 45 e8          	movzbl -0x18(%rbp),%eax
  105901:	89 c6                	mov    %eax,%esi
  105903:	bf f2 01 00 00       	mov    $0x1f2,%edi
  105908:	e8 08 bf ff ff       	callq  101815 <_Z6__outbth>
  10590d:	8b 45 ec             	mov    -0x14(%rbp),%eax
  105910:	0f b6 c0             	movzbl %al,%eax
  105913:	89 c6                	mov    %eax,%esi
  105915:	bf f3 01 00 00       	mov    $0x1f3,%edi
  10591a:	e8 f6 be ff ff       	callq  101815 <_Z6__outbth>
  10591f:	8b 45 ec             	mov    -0x14(%rbp),%eax
  105922:	c1 e8 08             	shr    $0x8,%eax
  105925:	0f b6 c0             	movzbl %al,%eax
  105928:	89 c6                	mov    %eax,%esi
  10592a:	bf f4 01 00 00       	mov    $0x1f4,%edi
  10592f:	e8 e1 be ff ff       	callq  101815 <_Z6__outbth>
  105934:	8b 45 ec             	mov    -0x14(%rbp),%eax
  105937:	c1 e8 10             	shr    $0x10,%eax
  10593a:	0f b6 c0             	movzbl %al,%eax
  10593d:	89 c6                	mov    %eax,%esi
  10593f:	bf f5 01 00 00       	mov    $0x1f5,%edi
  105944:	e8 cc be ff ff       	callq  101815 <_Z6__outbth>
  105949:	be 30 00 00 00       	mov    $0x30,%esi
  10594e:	bf f7 01 00 00       	mov    $0x1f7,%edi
  105953:	e8 bd be ff ff       	callq  101815 <_Z6__outbth>
  105958:	c7 45 fc 00 00 00 00 	movl   $0x0,-0x4(%rbp)
  10595f:	0f b6 45 e8          	movzbl -0x18(%rbp),%eax
  105963:	39 45 fc             	cmp    %eax,-0x4(%rbp)
  105966:	7d 48                	jge    1059b0 <_Z15WriteSectorsATAjhPj+0xeb>
  105968:	e8 46 00 00 00       	callq  1059b3 <_ZL7WaitBSYv>
  10596d:	e8 5f 00 00 00       	callq  1059d1 <_ZL7WaitDRQv>
  105972:	c7 45 f8 00 00 00 00 	movl   $0x0,-0x8(%rbp)
  105979:	81 7d f8 ff 00 00 00 	cmpl   $0xff,-0x8(%rbp)
  105980:	7f 28                	jg     1059aa <_Z15WriteSectorsATAjhPj+0xe5>
  105982:	8b 45 f8             	mov    -0x8(%rbp),%eax
  105985:	48 98                	cltq   
  105987:	48 8d 14 85 00 00 00 	lea    0x0(,%rax,4),%rdx
  10598e:	00 
  10598f:	48 8b 45 e0          	mov    -0x20(%rbp),%rax
  105993:	48 01 d0             	add    %rdx,%rax
  105996:	8b 00                	mov    (%rax),%eax
  105998:	89 c6                	mov    %eax,%esi
  10599a:	bf f0 01 00 00       	mov    $0x1f0,%edi
  10599f:	e8 bb be ff ff       	callq  10185f <_Z6__outljj>
  1059a4:	83 45 f8 01          	addl   $0x1,-0x8(%rbp)
  1059a8:	eb cf                	jmp    105979 <_Z15WriteSectorsATAjhPj+0xb4>
  1059aa:	83 45 fc 01          	addl   $0x1,-0x4(%rbp)
  1059ae:	eb af                	jmp    10595f <_Z15WriteSectorsATAjhPj+0x9a>
  1059b0:	90                   	nop
  1059b1:	c9                   	leaveq 
  1059b2:	c3                   	retq   

00000000001059b3 <_ZL7WaitBSYv>:
  1059b3:	f3 0f 1e fa          	endbr64 
  1059b7:	55                   	push   %rbp
  1059b8:	48 89 e5             	mov    %rsp,%rbp
  1059bb:	bf f7 01 00 00       	mov    $0x1f7,%edi
  1059c0:	e8 ed bd ff ff       	callq  1017b2 <_Z5__inbt>
  1059c5:	c0 e8 07             	shr    $0x7,%al
  1059c8:	84 c0                	test   %al,%al
  1059ca:	74 02                	je     1059ce <_ZL7WaitBSYv+0x1b>
  1059cc:	eb ed                	jmp    1059bb <_ZL7WaitBSYv+0x8>
  1059ce:	90                   	nop
  1059cf:	5d                   	pop    %rbp
  1059d0:	c3                   	retq   

00000000001059d1 <_ZL7WaitDRQv>:
  1059d1:	f3 0f 1e fa          	endbr64 
  1059d5:	55                   	push   %rbp
  1059d6:	48 89 e5             	mov    %rsp,%rbp
  1059d9:	bf f7 01 00 00       	mov    $0x1f7,%edi
  1059de:	e8 cf bd ff ff       	callq  1017b2 <_Z5__inbt>
  1059e3:	0f b6 c0             	movzbl %al,%eax
  1059e6:	83 e0 40             	and    $0x40,%eax
  1059e9:	85 c0                	test   %eax,%eax
  1059eb:	0f 94 c0             	sete   %al
  1059ee:	84 c0                	test   %al,%al
  1059f0:	74 02                	je     1059f4 <_ZL7WaitDRQv+0x23>
  1059f2:	eb e5                	jmp    1059d9 <_ZL7WaitDRQv+0x8>
  1059f4:	90                   	nop
  1059f5:	5d                   	pop    %rbp
  1059f6:	c3                   	retq   
  1059f7:	90                   	nop

00000000001059f8 <_ZN9ATADevice4ReadEmPvm>:
  1059f8:	f3 0f 1e fa          	endbr64 
  1059fc:	55                   	push   %rbp
  1059fd:	48 89 e5             	mov    %rsp,%rbp
  105a00:	48 83 ec 20          	sub    $0x20,%rsp
  105a04:	48 89 7d f8          	mov    %rdi,-0x8(%rbp)
  105a08:	48 89 75 f0          	mov    %rsi,-0x10(%rbp)
  105a0c:	48 89 55 e8          	mov    %rdx,-0x18(%rbp)
  105a10:	48 89 4d e0          	mov    %rcx,-0x20(%rbp)
  105a14:	48 8b 45 e0          	mov    -0x20(%rbp),%rax
  105a18:	0f b6 d0             	movzbl %al,%edx
  105a1b:	48 8b 45 f0          	mov    -0x10(%rbp),%rax
  105a1f:	89 c1                	mov    %eax,%ecx
  105a21:	48 8b 45 e8          	mov    -0x18(%rbp),%rax
  105a25:	89 ce                	mov    %ecx,%esi
  105a27:	48 89 c7             	mov    %rax,%rdi
  105a2a:	e8 96 fd ff ff       	callq  1057c5 <_Z14ReadSectorsATAmjh>
  105a2f:	90                   	nop
  105a30:	c9                   	leaveq 
  105a31:	c3                   	retq   

0000000000105a32 <_ZN9ATADevice5WriteEmPvm>:
  105a32:	f3 0f 1e fa          	endbr64 
  105a36:	55                   	push   %rbp
  105a37:	48 89 e5             	mov    %rsp,%rbp
  105a3a:	48 83 ec 20          	sub    $0x20,%rsp
  105a3e:	48 89 7d f8          	mov    %rdi,-0x8(%rbp)
  105a42:	48 89 75 f0          	mov    %rsi,-0x10(%rbp)
  105a46:	48 89 55 e8          	mov    %rdx,-0x18(%rbp)
  105a4a:	48 89 4d e0          	mov    %rcx,-0x20(%rbp)
  105a4e:	48 8b 45 e0          	mov    -0x20(%rbp),%rax
  105a52:	0f b6 c0             	movzbl %al,%eax
  105a55:	48 8b 55 f0          	mov    -0x10(%rbp),%rdx
  105a59:	89 d1                	mov    %edx,%ecx
  105a5b:	48 8b 55 e8          	mov    -0x18(%rbp),%rdx
  105a5f:	89 c6                	mov    %eax,%esi
  105a61:	89 cf                	mov    %ecx,%edi
  105a63:	e8 5d fe ff ff       	callq  1058c5 <_Z15WriteSectorsATAjhPj>
  105a68:	90                   	nop
  105a69:	c9                   	leaveq 
  105a6a:	c3                   	retq   

0000000000105a6b <_Z9MouseWaitv>:
  105a6b:	f3 0f 1e fa          	endbr64 
  105a6f:	55                   	push   %rbp
  105a70:	48 89 e5             	mov    %rsp,%rbp
  105a73:	48 83 ec 10          	sub    $0x10,%rsp
  105a77:	48 c7 45 f8 a0 86 01 	movq   $0x186a0,-0x8(%rbp)
  105a7e:	00 
  105a7f:	48 8b 45 f8          	mov    -0x8(%rbp),%rax
  105a83:	48 8d 50 ff          	lea    -0x1(%rax),%rdx
  105a87:	48 89 55 f8          	mov    %rdx,-0x8(%rbp)
  105a8b:	48 85 c0             	test   %rax,%rax
  105a8e:	0f 95 c0             	setne  %al
  105a91:	84 c0                	test   %al,%al
  105a93:	74 1c                	je     105ab1 <_Z9MouseWaitv+0x46>
  105a95:	bf 64 00 00 00       	mov    $0x64,%edi
  105a9a:	e8 13 bd ff ff       	callq  1017b2 <_Z5__inbt>
  105a9f:	0f b6 c0             	movzbl %al,%eax
  105aa2:	83 e0 02             	and    $0x2,%eax
  105aa5:	85 c0                	test   %eax,%eax
  105aa7:	0f 94 c0             	sete   %al
  105aaa:	84 c0                	test   %al,%al
  105aac:	75 02                	jne    105ab0 <_Z9MouseWaitv+0x45>
  105aae:	eb cf                	jmp    105a7f <_Z9MouseWaitv+0x14>
  105ab0:	90                   	nop
  105ab1:	c9                   	leaveq 
  105ab2:	c3                   	retq   

0000000000105ab3 <_Z14MouseWaitInputv>:
  105ab3:	f3 0f 1e fa          	endbr64 
  105ab7:	55                   	push   %rbp
  105ab8:	48 89 e5             	mov    %rsp,%rbp
  105abb:	48 83 ec 10          	sub    $0x10,%rsp
  105abf:	48 c7 45 f8 a0 86 01 	movq   $0x186a0,-0x8(%rbp)
  105ac6:	00 
  105ac7:	48 8b 45 f8          	mov    -0x8(%rbp),%rax
  105acb:	48 8d 50 ff          	lea    -0x1(%rax),%rdx
  105acf:	48 89 55 f8          	mov    %rdx,-0x8(%rbp)
  105ad3:	48 85 c0             	test   %rax,%rax
  105ad6:	0f 95 c0             	setne  %al
  105ad9:	84 c0                	test   %al,%al
  105adb:	74 1c                	je     105af9 <_Z14MouseWaitInputv+0x46>
  105add:	bf 64 00 00 00       	mov    $0x64,%edi
  105ae2:	e8 cb bc ff ff       	callq  1017b2 <_Z5__inbt>
  105ae7:	0f b6 c0             	movzbl %al,%eax
  105aea:	83 e0 01             	and    $0x1,%eax
  105aed:	85 c0                	test   %eax,%eax
  105aef:	0f 95 c0             	setne  %al
  105af2:	84 c0                	test   %al,%al
  105af4:	75 02                	jne    105af8 <_Z14MouseWaitInputv+0x45>
  105af6:	eb cf                	jmp    105ac7 <_Z14MouseWaitInputv+0x14>
  105af8:	90                   	nop
  105af9:	c9                   	leaveq 
  105afa:	c3                   	retq   

0000000000105afb <_Z10MouseWriteh>:
  105afb:	f3 0f 1e fa          	endbr64 
  105aff:	55                   	push   %rbp
  105b00:	48 89 e5             	mov    %rsp,%rbp
  105b03:	48 83 ec 10          	sub    $0x10,%rsp
  105b07:	89 f8                	mov    %edi,%eax
  105b09:	88 45 fc             	mov    %al,-0x4(%rbp)
  105b0c:	e8 5a ff ff ff       	callq  105a6b <_Z9MouseWaitv>
  105b11:	be d4 00 00 00       	mov    $0xd4,%esi
  105b16:	bf 64 00 00 00       	mov    $0x64,%edi
  105b1b:	e8 f5 bc ff ff       	callq  101815 <_Z6__outbth>
  105b20:	e8 46 ff ff ff       	callq  105a6b <_Z9MouseWaitv>
  105b25:	0f b6 45 fc          	movzbl -0x4(%rbp),%eax
  105b29:	89 c6                	mov    %eax,%esi
  105b2b:	bf 60 00 00 00       	mov    $0x60,%edi
  105b30:	e8 e0 bc ff ff       	callq  101815 <_Z6__outbth>
  105b35:	90                   	nop
  105b36:	c9                   	leaveq 
  105b37:	c3                   	retq   

0000000000105b38 <_Z9MouseReadv>:
  105b38:	f3 0f 1e fa          	endbr64 
  105b3c:	55                   	push   %rbp
  105b3d:	48 89 e5             	mov    %rsp,%rbp
  105b40:	e8 6e ff ff ff       	callq  105ab3 <_Z14MouseWaitInputv>
  105b45:	bf 60 00 00 00       	mov    $0x60,%edi
  105b4a:	e8 63 bc ff ff       	callq  1017b2 <_Z5__inbt>
  105b4f:	5d                   	pop    %rbp
  105b50:	c3                   	retq   

0000000000105b51 <_ZL18ProcessMousePacketv>:
  105b51:	f3 0f 1e fa          	endbr64 
  105b55:	55                   	push   %rbp
  105b56:	48 89 e5             	mov    %rsp,%rbp
  105b59:	48 83 ec 10          	sub    $0x10,%rsp
  105b5d:	0f b6 05 d9 18 01 00 	movzbl 0x118d9(%rip),%eax        # 11743d <_ZL16MousePacketReady>
  105b64:	84 c0                	test   %al,%al
  105b66:	0f 84 9a 02 00 00    	je     105e06 <_ZL18ProcessMousePacketv+0x2b5>
  105b6c:	0f b6 05 c6 18 01 00 	movzbl 0x118c6(%rip),%eax        # 117439 <_ZL11MousePacket>
  105b73:	83 e0 10             	and    $0x10,%eax
  105b76:	88 45 ff             	mov    %al,-0x1(%rbp)
  105b79:	0f b6 05 b9 18 01 00 	movzbl 0x118b9(%rip),%eax        # 117439 <_ZL11MousePacket>
  105b80:	83 e0 20             	and    $0x20,%eax
  105b83:	88 45 fe             	mov    %al,-0x2(%rbp)
  105b86:	0f b6 05 ac 18 01 00 	movzbl 0x118ac(%rip),%eax        # 117439 <_ZL11MousePacket>
  105b8d:	83 e0 40             	and    $0x40,%eax
  105b90:	88 45 fd             	mov    %al,-0x3(%rbp)
  105b93:	0f b6 05 9f 18 01 00 	movzbl 0x1189f(%rip),%eax        # 117439 <_ZL11MousePacket>
  105b9a:	83 e0 80             	and    $0xffffff80,%eax
  105b9d:	88 45 fc             	mov    %al,-0x4(%rbp)
  105ba0:	80 7d ff 00          	cmpb   $0x0,-0x1(%rbp)
  105ba4:	75 31                	jne    105bd7 <_ZL18ProcessMousePacketv+0x86>
  105ba6:	0f b6 05 8d 18 01 00 	movzbl 0x1188d(%rip),%eax        # 11743a <_ZL11MousePacket+0x1>
  105bad:	0f b6 d0             	movzbl %al,%edx
  105bb0:	8b 05 8a 18 01 00    	mov    0x1188a(%rip),%eax        # 117440 <_ZL14MousePositionX>
  105bb6:	01 d0                	add    %edx,%eax
  105bb8:	89 05 82 18 01 00    	mov    %eax,0x11882(%rip)        # 117440 <_ZL14MousePositionX>
  105bbe:	80 7d fd 00          	cmpb   $0x0,-0x3(%rbp)
  105bc2:	74 53                	je     105c17 <_ZL18ProcessMousePacketv+0xc6>
  105bc4:	8b 05 76 18 01 00    	mov    0x11876(%rip),%eax        # 117440 <_ZL14MousePositionX>
  105bca:	05 ff 00 00 00       	add    $0xff,%eax
  105bcf:	89 05 6b 18 01 00    	mov    %eax,0x1186b(%rip)        # 117440 <_ZL14MousePositionX>
  105bd5:	eb 40                	jmp    105c17 <_ZL18ProcessMousePacketv+0xc6>
  105bd7:	0f b6 05 5c 18 01 00 	movzbl 0x1185c(%rip),%eax        # 11743a <_ZL11MousePacket+0x1>
  105bde:	f7 d8                	neg    %eax
  105be0:	88 05 54 18 01 00    	mov    %al,0x11854(%rip)        # 11743a <_ZL11MousePacket+0x1>
  105be6:	8b 15 54 18 01 00    	mov    0x11854(%rip),%edx        # 117440 <_ZL14MousePositionX>
  105bec:	0f b6 05 47 18 01 00 	movzbl 0x11847(%rip),%eax        # 11743a <_ZL11MousePacket+0x1>
  105bf3:	0f b6 c0             	movzbl %al,%eax
  105bf6:	29 c2                	sub    %eax,%edx
  105bf8:	89 d0                	mov    %edx,%eax
  105bfa:	89 05 40 18 01 00    	mov    %eax,0x11840(%rip)        # 117440 <_ZL14MousePositionX>
  105c00:	80 7d fd 00          	cmpb   $0x0,-0x3(%rbp)
  105c04:	74 11                	je     105c17 <_ZL18ProcessMousePacketv+0xc6>
  105c06:	8b 05 34 18 01 00    	mov    0x11834(%rip),%eax        # 117440 <_ZL14MousePositionX>
  105c0c:	2d ff 00 00 00       	sub    $0xff,%eax
  105c11:	89 05 29 18 01 00    	mov    %eax,0x11829(%rip)        # 117440 <_ZL14MousePositionX>
  105c17:	80 7d fe 00          	cmpb   $0x0,-0x2(%rbp)
  105c1b:	75 33                	jne    105c50 <_ZL18ProcessMousePacketv+0xff>
  105c1d:	8b 15 21 18 01 00    	mov    0x11821(%rip),%edx        # 117444 <_ZL14MousePositionY>
  105c23:	0f b6 05 11 18 01 00 	movzbl 0x11811(%rip),%eax        # 11743b <_ZL11MousePacket+0x2>
  105c2a:	0f b6 c0             	movzbl %al,%eax
  105c2d:	29 c2                	sub    %eax,%edx
  105c2f:	89 d0                	mov    %edx,%eax
  105c31:	89 05 0d 18 01 00    	mov    %eax,0x1180d(%rip)        # 117444 <_ZL14MousePositionY>
  105c37:	80 7d fc 00          	cmpb   $0x0,-0x4(%rbp)
  105c3b:	74 51                	je     105c8e <_ZL18ProcessMousePacketv+0x13d>
  105c3d:	8b 05 01 18 01 00    	mov    0x11801(%rip),%eax        # 117444 <_ZL14MousePositionY>
  105c43:	2d ff 00 00 00       	sub    $0xff,%eax
  105c48:	89 05 f6 17 01 00    	mov    %eax,0x117f6(%rip)        # 117444 <_ZL14MousePositionY>
  105c4e:	eb 3e                	jmp    105c8e <_ZL18ProcessMousePacketv+0x13d>
  105c50:	0f b6 05 e4 17 01 00 	movzbl 0x117e4(%rip),%eax        # 11743b <_ZL11MousePacket+0x2>
  105c57:	f7 d8                	neg    %eax
  105c59:	88 05 dc 17 01 00    	mov    %al,0x117dc(%rip)        # 11743b <_ZL11MousePacket+0x2>
  105c5f:	0f b6 05 d5 17 01 00 	movzbl 0x117d5(%rip),%eax        # 11743b <_ZL11MousePacket+0x2>
  105c66:	0f b6 d0             	movzbl %al,%edx
  105c69:	8b 05 d5 17 01 00    	mov    0x117d5(%rip),%eax        # 117444 <_ZL14MousePositionY>
  105c6f:	01 d0                	add    %edx,%eax
  105c71:	89 05 cd 17 01 00    	mov    %eax,0x117cd(%rip)        # 117444 <_ZL14MousePositionY>
  105c77:	80 7d fc 00          	cmpb   $0x0,-0x4(%rbp)
  105c7b:	74 11                	je     105c8e <_ZL18ProcessMousePacketv+0x13d>
  105c7d:	8b 05 c1 17 01 00    	mov    0x117c1(%rip),%eax        # 117444 <_ZL14MousePositionY>
  105c83:	05 ff 00 00 00       	add    $0xff,%eax
  105c88:	89 05 b6 17 01 00    	mov    %eax,0x117b6(%rip)        # 117444 <_ZL14MousePositionY>
  105c8e:	8b 05 ac 17 01 00    	mov    0x117ac(%rip),%eax        # 117440 <_ZL14MousePositionX>
  105c94:	85 c0                	test   %eax,%eax
  105c96:	79 0a                	jns    105ca2 <_ZL18ProcessMousePacketv+0x151>
  105c98:	c7 05 9e 17 01 00 00 	movl   $0x0,0x1179e(%rip)        # 117440 <_ZL14MousePositionX>
  105c9f:	00 00 00 
  105ca2:	8b 05 a8 17 01 00    	mov    0x117a8(%rip),%eax        # 117450 <_ZL5Width>
  105ca8:	8d 50 ff             	lea    -0x1(%rax),%edx
  105cab:	8b 05 8f 17 01 00    	mov    0x1178f(%rip),%eax        # 117440 <_ZL14MousePositionX>
  105cb1:	39 c2                	cmp    %eax,%edx
  105cb3:	73 0f                	jae    105cc4 <_ZL18ProcessMousePacketv+0x173>
  105cb5:	8b 05 95 17 01 00    	mov    0x11795(%rip),%eax        # 117450 <_ZL5Width>
  105cbb:	83 e8 01             	sub    $0x1,%eax
  105cbe:	89 05 7c 17 01 00    	mov    %eax,0x1177c(%rip)        # 117440 <_ZL14MousePositionX>
  105cc4:	8b 05 7a 17 01 00    	mov    0x1177a(%rip),%eax        # 117444 <_ZL14MousePositionY>
  105cca:	85 c0                	test   %eax,%eax
  105ccc:	79 0a                	jns    105cd8 <_ZL18ProcessMousePacketv+0x187>
  105cce:	c7 05 6c 17 01 00 00 	movl   $0x0,0x1176c(%rip)        # 117444 <_ZL14MousePositionY>
  105cd5:	00 00 00 
  105cd8:	8b 05 76 17 01 00    	mov    0x11776(%rip),%eax        # 117454 <_ZL6Height>
  105cde:	8d 50 ff             	lea    -0x1(%rax),%edx
  105ce1:	8b 05 5d 17 01 00    	mov    0x1175d(%rip),%eax        # 117444 <_ZL14MousePositionY>
  105ce7:	39 c2                	cmp    %eax,%edx
  105ce9:	73 0f                	jae    105cfa <_ZL18ProcessMousePacketv+0x1a9>
  105ceb:	8b 05 63 17 01 00    	mov    0x11763(%rip),%eax        # 117454 <_ZL6Height>
  105cf1:	83 e8 01             	sub    $0x1,%eax
  105cf4:	89 05 4a 17 01 00    	mov    %eax,0x1174a(%rip)        # 117444 <_ZL14MousePositionY>
  105cfa:	e8 7f f4 ff ff       	callq  10517e <_ZN7Display13SharedDisplayEv>
  105cff:	48 83 c0 20          	add    $0x20,%rax
  105d03:	8b 15 43 17 01 00    	mov    0x11743(%rip),%edx        # 11744c <_ZL17MousePositionOldY>
  105d09:	89 d1                	mov    %edx,%ecx
  105d0b:	8b 15 37 17 01 00    	mov    0x11737(%rip),%edx        # 117448 <_ZL17MousePositionOldX>
  105d11:	48 8d 35 e8 92 00 00 	lea    0x92e8(%rip),%rsi        # 10f000 <MousePointer>
  105d18:	48 89 c7             	mov    %rax,%rdi
  105d1b:	e8 d4 f2 ff ff       	callq  104ff4 <_ZN11Framebuffer16ClearMouseCursorEPhjj>
  105d20:	e8 59 f4 ff ff       	callq  10517e <_ZN7Display13SharedDisplayEv>
  105d25:	48 83 c0 20          	add    $0x20,%rax
  105d29:	8b 15 15 17 01 00    	mov    0x11715(%rip),%edx        # 117444 <_ZL14MousePositionY>
  105d2f:	89 d1                	mov    %edx,%ecx
  105d31:	8b 15 09 17 01 00    	mov    0x11709(%rip),%edx        # 117440 <_ZL14MousePositionX>
  105d37:	41 b8 ff ff ff ff    	mov    $0xffffffff,%r8d
  105d3d:	48 8d 35 bc 92 00 00 	lea    0x92bc(%rip),%rsi        # 10f000 <MousePointer>
  105d44:	48 89 c7             	mov    %rax,%rdi
  105d47:	e8 04 f1 ff ff       	callq  104e50 <_ZN11Framebuffer15DrawMouseCursorEPhjjj>
  105d4c:	0f b6 05 e6 16 01 00 	movzbl 0x116e6(%rip),%eax        # 117439 <_ZL11MousePacket>
  105d53:	0f b6 c0             	movzbl %al,%eax
  105d56:	83 e0 01             	and    $0x1,%eax
  105d59:	85 c0                	test   %eax,%eax
  105d5b:	74 12                	je     105d6f <_ZL18ProcessMousePacketv+0x21e>
  105d5d:	0f b6 05 f4 16 01 00 	movzbl 0x116f4(%rip),%eax        # 117458 <_ZL7buttons>
  105d64:	83 c8 01             	or     $0x1,%eax
  105d67:	88 05 eb 16 01 00    	mov    %al,0x116eb(%rip)        # 117458 <_ZL7buttons>
  105d6d:	eb 10                	jmp    105d7f <_ZL18ProcessMousePacketv+0x22e>
  105d6f:	0f b6 05 e2 16 01 00 	movzbl 0x116e2(%rip),%eax        # 117458 <_ZL7buttons>
  105d76:	83 e0 fe             	and    $0xfffffffe,%eax
  105d79:	88 05 d9 16 01 00    	mov    %al,0x116d9(%rip)        # 117458 <_ZL7buttons>
  105d7f:	0f b6 05 b3 16 01 00 	movzbl 0x116b3(%rip),%eax        # 117439 <_ZL11MousePacket>
  105d86:	0f b6 c0             	movzbl %al,%eax
  105d89:	83 e0 04             	and    $0x4,%eax
  105d8c:	85 c0                	test   %eax,%eax
  105d8e:	74 12                	je     105da2 <_ZL18ProcessMousePacketv+0x251>
  105d90:	0f b6 05 c1 16 01 00 	movzbl 0x116c1(%rip),%eax        # 117458 <_ZL7buttons>
  105d97:	83 c8 02             	or     $0x2,%eax
  105d9a:	88 05 b8 16 01 00    	mov    %al,0x116b8(%rip)        # 117458 <_ZL7buttons>
  105da0:	eb 10                	jmp    105db2 <_ZL18ProcessMousePacketv+0x261>
  105da2:	0f b6 05 af 16 01 00 	movzbl 0x116af(%rip),%eax        # 117458 <_ZL7buttons>
  105da9:	83 e0 fd             	and    $0xfffffffd,%eax
  105dac:	88 05 a6 16 01 00    	mov    %al,0x116a6(%rip)        # 117458 <_ZL7buttons>
  105db2:	0f b6 05 80 16 01 00 	movzbl 0x11680(%rip),%eax        # 117439 <_ZL11MousePacket>
  105db9:	0f b6 c0             	movzbl %al,%eax
  105dbc:	83 e0 02             	and    $0x2,%eax
  105dbf:	85 c0                	test   %eax,%eax
  105dc1:	74 12                	je     105dd5 <_ZL18ProcessMousePacketv+0x284>
  105dc3:	0f b6 05 8e 16 01 00 	movzbl 0x1168e(%rip),%eax        # 117458 <_ZL7buttons>
  105dca:	83 c8 04             	or     $0x4,%eax
  105dcd:	88 05 85 16 01 00    	mov    %al,0x11685(%rip)        # 117458 <_ZL7buttons>
  105dd3:	eb 10                	jmp    105de5 <_ZL18ProcessMousePacketv+0x294>
  105dd5:	0f b6 05 7c 16 01 00 	movzbl 0x1167c(%rip),%eax        # 117458 <_ZL7buttons>
  105ddc:	83 e0 fb             	and    $0xfffffffb,%eax
  105ddf:	88 05 73 16 01 00    	mov    %al,0x11673(%rip)        # 117458 <_ZL7buttons>
  105de5:	c6 05 51 16 01 00 00 	movb   $0x0,0x11651(%rip)        # 11743d <_ZL16MousePacketReady>
  105dec:	8b 05 4e 16 01 00    	mov    0x1164e(%rip),%eax        # 117440 <_ZL14MousePositionX>
  105df2:	89 05 50 16 01 00    	mov    %eax,0x11650(%rip)        # 117448 <_ZL17MousePositionOldX>
  105df8:	8b 05 46 16 01 00    	mov    0x11646(%rip),%eax        # 117444 <_ZL14MousePositionY>
  105dfe:	89 05 48 16 01 00    	mov    %eax,0x11648(%rip)        # 11744c <_ZL17MousePositionOldY>
  105e04:	eb 01                	jmp    105e07 <_ZL18ProcessMousePacketv+0x2b6>
  105e06:	90                   	nop
  105e07:	c9                   	leaveq 
  105e08:	c3                   	retq   

0000000000105e09 <_ZL14mouse_callbackP9Registers>:
  105e09:	f3 0f 1e fa          	endbr64 
  105e0d:	55                   	push   %rbp
  105e0e:	48 89 e5             	mov    %rsp,%rbp
  105e11:	48 83 ec 20          	sub    $0x20,%rsp
  105e15:	48 89 7d e8          	mov    %rdi,-0x18(%rbp)
  105e19:	bf 64 00 00 00       	mov    $0x64,%edi
  105e1e:	e8 8f b9 ff ff       	callq  1017b2 <_Z5__inbt>
  105e23:	88 45 ff             	mov    %al,-0x1(%rbp)
  105e26:	e8 26 fd ff ff       	callq  105b51 <_ZL18ProcessMousePacketv>
  105e2b:	0f b6 05 ee 91 00 00 	movzbl 0x91ee(%rip),%eax        # 10f020 <_ZZL14mouse_callbackP9RegistersE4skip>
  105e32:	84 c0                	test   %al,%al
  105e34:	74 09                	je     105e3f <_ZL14mouse_callbackP9Registers+0x36>
  105e36:	c6 05 e3 91 00 00 00 	movb   $0x0,0x91e3(%rip)        # 10f020 <_ZZL14mouse_callbackP9RegistersE4skip>
  105e3d:	eb 7d                	jmp    105ebc <_ZL14mouse_callbackP9Registers+0xb3>
  105e3f:	0f b6 05 f2 15 01 00 	movzbl 0x115f2(%rip),%eax        # 117438 <_ZL10MouseCycle>
  105e46:	0f b6 c0             	movzbl %al,%eax
  105e49:	83 f8 02             	cmp    $0x2,%eax
  105e4c:	74 53                	je     105ea1 <_ZL14mouse_callbackP9Registers+0x98>
  105e4e:	83 f8 02             	cmp    $0x2,%eax
  105e51:	7f 69                	jg     105ebc <_ZL14mouse_callbackP9Registers+0xb3>
  105e53:	85 c0                	test   %eax,%eax
  105e55:	74 07                	je     105e5e <_ZL14mouse_callbackP9Registers+0x55>
  105e57:	83 f8 01             	cmp    $0x1,%eax
  105e5a:	74 29                	je     105e85 <_ZL14mouse_callbackP9Registers+0x7c>
  105e5c:	eb 5e                	jmp    105ebc <_ZL14mouse_callbackP9Registers+0xb3>
  105e5e:	0f b6 45 ff          	movzbl -0x1(%rbp),%eax
  105e62:	83 e0 08             	and    $0x8,%eax
  105e65:	85 c0                	test   %eax,%eax
  105e67:	74 52                	je     105ebb <_ZL14mouse_callbackP9Registers+0xb2>
  105e69:	0f b6 45 ff          	movzbl -0x1(%rbp),%eax
  105e6d:	88 05 c6 15 01 00    	mov    %al,0x115c6(%rip)        # 117439 <_ZL11MousePacket>
  105e73:	0f b6 05 be 15 01 00 	movzbl 0x115be(%rip),%eax        # 117438 <_ZL10MouseCycle>
  105e7a:	83 c0 01             	add    $0x1,%eax
  105e7d:	88 05 b5 15 01 00    	mov    %al,0x115b5(%rip)        # 117438 <_ZL10MouseCycle>
  105e83:	eb 37                	jmp    105ebc <_ZL14mouse_callbackP9Registers+0xb3>
  105e85:	0f b6 45 ff          	movzbl -0x1(%rbp),%eax
  105e89:	88 05 ab 15 01 00    	mov    %al,0x115ab(%rip)        # 11743a <_ZL11MousePacket+0x1>
  105e8f:	0f b6 05 a2 15 01 00 	movzbl 0x115a2(%rip),%eax        # 117438 <_ZL10MouseCycle>
  105e96:	83 c0 01             	add    $0x1,%eax
  105e99:	88 05 99 15 01 00    	mov    %al,0x11599(%rip)        # 117438 <_ZL10MouseCycle>
  105e9f:	eb 1b                	jmp    105ebc <_ZL14mouse_callbackP9Registers+0xb3>
  105ea1:	0f b6 45 ff          	movzbl -0x1(%rbp),%eax
  105ea5:	88 05 90 15 01 00    	mov    %al,0x11590(%rip)        # 11743b <_ZL11MousePacket+0x2>
  105eab:	c6 05 8b 15 01 00 01 	movb   $0x1,0x1158b(%rip)        # 11743d <_ZL16MousePacketReady>
  105eb2:	c6 05 7f 15 01 00 00 	movb   $0x0,0x1157f(%rip)        # 117438 <_ZL10MouseCycle>
  105eb9:	eb 01                	jmp    105ebc <_ZL14mouse_callbackP9Registers+0xb3>
  105ebb:	90                   	nop
  105ebc:	c9                   	leaveq 
  105ebd:	c3                   	retq   

0000000000105ebe <_Z15InitialiseMousejj>:
  105ebe:	f3 0f 1e fa          	endbr64 
  105ec2:	55                   	push   %rbp
  105ec3:	48 89 e5             	mov    %rsp,%rbp
  105ec6:	48 83 ec 20          	sub    $0x20,%rsp
  105eca:	89 7d ec             	mov    %edi,-0x14(%rbp)
  105ecd:	89 75 e8             	mov    %esi,-0x18(%rbp)
  105ed0:	8b 45 ec             	mov    -0x14(%rbp),%eax
  105ed3:	89 05 77 15 01 00    	mov    %eax,0x11577(%rip)        # 117450 <_ZL5Width>
  105ed9:	8b 45 e8             	mov    -0x18(%rbp),%eax
  105edc:	89 05 72 15 01 00    	mov    %eax,0x11572(%rip)        # 117454 <_ZL6Height>
  105ee2:	c6 05 6f 15 01 00 00 	movb   $0x0,0x1156f(%rip)        # 117458 <_ZL7buttons>
  105ee9:	be a8 00 00 00       	mov    $0xa8,%esi
  105eee:	bf 64 00 00 00       	mov    $0x64,%edi
  105ef3:	e8 1d b9 ff ff       	callq  101815 <_Z6__outbth>
  105ef8:	e8 6e fb ff ff       	callq  105a6b <_Z9MouseWaitv>
  105efd:	be 20 00 00 00       	mov    $0x20,%esi
  105f02:	bf 64 00 00 00       	mov    $0x64,%edi
  105f07:	e8 09 b9 ff ff       	callq  101815 <_Z6__outbth>
  105f0c:	e8 a2 fb ff ff       	callq  105ab3 <_Z14MouseWaitInputv>
  105f11:	bf 60 00 00 00       	mov    $0x60,%edi
  105f16:	e8 97 b8 ff ff       	callq  1017b2 <_Z5__inbt>
  105f1b:	88 45 ff             	mov    %al,-0x1(%rbp)
  105f1e:	80 4d ff 02          	orb    $0x2,-0x1(%rbp)
  105f22:	e8 44 fb ff ff       	callq  105a6b <_Z9MouseWaitv>
  105f27:	be 60 00 00 00       	mov    $0x60,%esi
  105f2c:	bf 64 00 00 00       	mov    $0x64,%edi
  105f31:	e8 df b8 ff ff       	callq  101815 <_Z6__outbth>
  105f36:	e8 30 fb ff ff       	callq  105a6b <_Z9MouseWaitv>
  105f3b:	0f b6 45 ff          	movzbl -0x1(%rbp),%eax
  105f3f:	89 c6                	mov    %eax,%esi
  105f41:	bf 60 00 00 00       	mov    $0x60,%edi
  105f46:	e8 ca b8 ff ff       	callq  101815 <_Z6__outbth>
  105f4b:	bf f6 00 00 00       	mov    $0xf6,%edi
  105f50:	e8 a6 fb ff ff       	callq  105afb <_Z10MouseWriteh>
  105f55:	e8 de fb ff ff       	callq  105b38 <_Z9MouseReadv>
  105f5a:	bf f4 00 00 00       	mov    $0xf4,%edi
  105f5f:	e8 97 fb ff ff       	callq  105afb <_Z10MouseWriteh>
  105f64:	e8 cf fb ff ff       	callq  105b38 <_Z9MouseReadv>
  105f69:	48 8d 35 99 fe ff ff 	lea    -0x167(%rip),%rsi        # 105e09 <_ZL14mouse_callbackP9Registers>
  105f70:	bf 2c 00 00 00       	mov    $0x2c,%edi
  105f75:	e8 c8 c9 ff ff       	callq  102942 <_Z24RegisterInterruptHandlerhPFvP9RegistersE>
  105f7a:	90                   	nop
  105f7b:	c9                   	leaveq 
  105f7c:	c3                   	retq   

0000000000105f7d <_Z9GetMouseXv>:
  105f7d:	f3 0f 1e fa          	endbr64 
  105f81:	55                   	push   %rbp
  105f82:	48 89 e5             	mov    %rsp,%rbp
  105f85:	8b 05 b5 14 01 00    	mov    0x114b5(%rip),%eax        # 117440 <_ZL14MousePositionX>
  105f8b:	f2 0f 2a c8          	cvtsi2sd %eax,%xmm1
  105f8f:	8b 05 bb 14 01 00    	mov    0x114bb(%rip),%eax        # 117450 <_ZL5Width>
  105f95:	89 c0                	mov    %eax,%eax
  105f97:	48 85 c0             	test   %rax,%rax
  105f9a:	78 07                	js     105fa3 <_Z9GetMouseXv+0x26>
  105f9c:	f2 48 0f 2a c0       	cvtsi2sd %rax,%xmm0
  105fa1:	eb 15                	jmp    105fb8 <_Z9GetMouseXv+0x3b>
  105fa3:	48 89 c2             	mov    %rax,%rdx
  105fa6:	48 d1 ea             	shr    %rdx
  105fa9:	83 e0 01             	and    $0x1,%eax
  105fac:	48 09 c2             	or     %rax,%rdx
  105faf:	f2 48 0f 2a c2       	cvtsi2sd %rdx,%xmm0
  105fb4:	f2 0f 58 c0          	addsd  %xmm0,%xmm0
  105fb8:	f2 0f 5e c8          	divsd  %xmm0,%xmm1
  105fbc:	66 0f 28 c1          	movapd %xmm1,%xmm0
  105fc0:	f2 0f 58 c0          	addsd  %xmm0,%xmm0
  105fc4:	f2 0f 10 0d 6c af 00 	movsd  0xaf6c(%rip),%xmm1        # 110f38 <__rodata+0xf38>
  105fcb:	00 
  105fcc:	f2 0f 5c c1          	subsd  %xmm1,%xmm0
  105fd0:	5d                   	pop    %rbp
  105fd1:	c3                   	retq   

0000000000105fd2 <_Z9GetMouseYv>:
  105fd2:	f3 0f 1e fa          	endbr64 
  105fd6:	55                   	push   %rbp
  105fd7:	48 89 e5             	mov    %rsp,%rbp
  105fda:	8b 05 64 14 01 00    	mov    0x11464(%rip),%eax        # 117444 <_ZL14MousePositionY>
  105fe0:	f2 0f 2a c8          	cvtsi2sd %eax,%xmm1
  105fe4:	8b 05 6a 14 01 00    	mov    0x1146a(%rip),%eax        # 117454 <_ZL6Height>
  105fea:	89 c0                	mov    %eax,%eax
  105fec:	48 85 c0             	test   %rax,%rax
  105fef:	78 07                	js     105ff8 <_Z9GetMouseYv+0x26>
  105ff1:	f2 48 0f 2a c0       	cvtsi2sd %rax,%xmm0
  105ff6:	eb 15                	jmp    10600d <_Z9GetMouseYv+0x3b>
  105ff8:	48 89 c2             	mov    %rax,%rdx
  105ffb:	48 d1 ea             	shr    %rdx
  105ffe:	83 e0 01             	and    $0x1,%eax
  106001:	48 09 c2             	or     %rax,%rdx
  106004:	f2 48 0f 2a c2       	cvtsi2sd %rdx,%xmm0
  106009:	f2 0f 58 c0          	addsd  %xmm0,%xmm0
  10600d:	f2 0f 5e c8          	divsd  %xmm0,%xmm1
  106011:	66 0f 28 c1          	movapd %xmm1,%xmm0
  106015:	f2 0f 58 c0          	addsd  %xmm0,%xmm0
  106019:	f2 0f 10 0d 17 af 00 	movsd  0xaf17(%rip),%xmm1        # 110f38 <__rodata+0xf38>
  106020:	00 
  106021:	f2 0f 5c c1          	subsd  %xmm1,%xmm0
  106025:	5d                   	pop    %rbp
  106026:	c3                   	retq   

0000000000106027 <_Z14GetMouseButtonh>:
  106027:	f3 0f 1e fa          	endbr64 
  10602b:	55                   	push   %rbp
  10602c:	48 89 e5             	mov    %rsp,%rbp
  10602f:	48 83 ec 08          	sub    $0x8,%rsp
  106033:	89 f8                	mov    %edi,%eax
  106035:	88 45 fc             	mov    %al,-0x4(%rbp)
  106038:	80 7d fc 02          	cmpb   $0x2,-0x4(%rbp)
  10603c:	76 07                	jbe    106045 <_Z14GetMouseButtonh+0x1e>
  10603e:	b8 00 00 00 00       	mov    $0x0,%eax
  106043:	eb 1a                	jmp    10605f <_Z14GetMouseButtonh+0x38>
  106045:	0f b6 45 fc          	movzbl -0x4(%rbp),%eax
  106049:	ba 01 00 00 00       	mov    $0x1,%edx
  10604e:	89 c1                	mov    %eax,%ecx
  106050:	d3 e2                	shl    %cl,%edx
  106052:	89 d0                	mov    %edx,%eax
  106054:	89 c2                	mov    %eax,%edx
  106056:	0f b6 05 fb 13 01 00 	movzbl 0x113fb(%rip),%eax        # 117458 <_ZL7buttons>
  10605d:	21 d0                	and    %edx,%eax
  10605f:	c9                   	leaveq 
  106060:	c3                   	retq   

0000000000106061 <_ZL17keyboard_callbackP9Registers>:
  106061:	f3 0f 1e fa          	endbr64 
  106065:	55                   	push   %rbp
  106066:	48 89 e5             	mov    %rsp,%rbp
  106069:	48 83 ec 20          	sub    $0x20,%rsp
  10606d:	48 89 7d e8          	mov    %rdi,-0x18(%rbp)
  106071:	bf 60 00 00 00       	mov    $0x60,%edi
  106076:	e8 37 b7 ff ff       	callq  1017b2 <_Z5__inbt>
  10607b:	88 45 fe             	mov    %al,-0x2(%rbp)
  10607e:	80 7d fe 0e          	cmpb   $0xe,-0x2(%rbp)
  106082:	75 30                	jne    1060b4 <_ZL17keyboard_callbackP9Registers+0x53>
  106084:	48 8d 3d f5 13 01 00 	lea    0x113f5(%rip),%rdi        # 117480 <_ZL10key_buffer>
  10608b:	e8 b4 63 00 00       	callq  10c444 <_Z6strlenPc>
  106090:	48 85 c0             	test   %rax,%rax
  106093:	0f 94 c0             	sete   %al
  106096:	84 c0                	test   %al,%al
  106098:	0f 85 9d 01 00 00    	jne    10623b <_ZL17keyboard_callbackP9Registers+0x1da>
  10609e:	48 8d 3d db 13 01 00 	lea    0x113db(%rip),%rdi        # 117480 <_ZL10key_buffer>
  1060a5:	e8 65 63 00 00       	callq  10c40f <_Z9backspacePc>
  1060aa:	e8 2e 6b 00 00       	callq  10cbdd <_Z17kprintf_backspacev>
  1060af:	e9 8b 01 00 00       	jmpq   10623f <_ZL17keyboard_callbackP9Registers+0x1de>
  1060b4:	80 7d fe 1c          	cmpb   $0x1c,-0x2(%rbp)
  1060b8:	75 38                	jne    1060f2 <_ZL17keyboard_callbackP9Registers+0x91>
  1060ba:	48 8d 3d f2 af 00 00 	lea    0xaff2(%rip),%rdi        # 1110b3 <_ZL8sc_ascii+0x53>
  1060c1:	b8 00 00 00 00       	mov    $0x0,%eax
  1060c6:	e8 39 67 00 00       	callq  10c804 <_Z7kprintfPKcz>
  1060cb:	48 8d 3d ae 13 01 00 	lea    0x113ae(%rip),%rdi        # 117480 <_ZL10key_buffer>
  1060d2:	e8 ce d2 ff ff       	callq  1033a5 <_Z10user_inputPc>
  1060d7:	ba 00 01 00 00       	mov    $0x100,%edx
  1060dc:	be 00 00 00 00       	mov    $0x0,%esi
  1060e1:	48 8d 3d 98 13 01 00 	lea    0x11398(%rip),%rdi        # 117480 <_ZL10key_buffer>
  1060e8:	e8 56 6b 00 00       	callq  10cc43 <_Z6memsetPvim>
  1060ed:	e9 4d 01 00 00       	jmpq   10623f <_ZL17keyboard_callbackP9Registers+0x1de>
  1060f2:	48 8d 3d 87 13 01 00 	lea    0x11387(%rip),%rdi        # 117480 <_ZL10key_buffer>
  1060f9:	e8 46 63 00 00       	callq  10c444 <_Z6strlenPc>
  1060fe:	48 3d ff 00 00 00    	cmp    $0xff,%rax
  106104:	0f 94 c0             	sete   %al
  106107:	84 c0                	test   %al,%al
  106109:	74 24                	je     10612f <_ZL17keyboard_callbackP9Registers+0xce>
  10610b:	48 8d 3d a1 af 00 00 	lea    0xafa1(%rip),%rdi        # 1110b3 <_ZL8sc_ascii+0x53>
  106112:	b8 00 00 00 00       	mov    $0x0,%eax
  106117:	e8 e8 66 00 00       	callq  10c804 <_Z7kprintfPKcz>
  10611c:	48 8d 3d 5d 13 01 00 	lea    0x1135d(%rip),%rdi        # 117480 <_ZL10key_buffer>
  106123:	e8 7d d2 ff ff       	callq  1033a5 <_Z10user_inputPc>
  106128:	c6 05 51 13 01 00 00 	movb   $0x0,0x11351(%rip)        # 117480 <_ZL10key_buffer>
  10612f:	0f b6 45 fe          	movzbl -0x2(%rbp),%eax
  106133:	48 98                	cltq   
  106135:	48 8d 15 24 af 00 00 	lea    0xaf24(%rip),%rdx        # 111060 <_ZL8sc_ascii>
  10613c:	0f b6 04 10          	movzbl (%rax,%rdx,1),%eax
  106140:	88 45 ff             	mov    %al,-0x1(%rbp)
  106143:	0f b6 45 fe          	movzbl -0x2(%rbp),%eax
  106147:	84 c0                	test   %al,%al
  106149:	79 09                	jns    106154 <_ZL17keyboard_callbackP9Registers+0xf3>
  10614b:	0f b6 45 fe          	movzbl -0x2(%rbp),%eax
  10614f:	83 c0 80             	add    $0xffffff80,%eax
  106152:	eb 04                	jmp    106158 <_ZL17keyboard_callbackP9Registers+0xf7>
  106154:	0f b6 45 fe          	movzbl -0x2(%rbp),%eax
  106158:	89 45 f8             	mov    %eax,-0x8(%rbp)
  10615b:	8b 45 f8             	mov    -0x8(%rbp),%eax
  10615e:	48 98                	cltq   
  106160:	48 8d 15 f9 ae 00 00 	lea    0xaef9(%rip),%rdx        # 111060 <_ZL8sc_ascii>
  106167:	0f b6 04 10          	movzbl (%rax,%rdx,1),%eax
  10616b:	3c 3f                	cmp    $0x3f,%al
  10616d:	75 60                	jne    1061cf <_ZL17keyboard_callbackP9Registers+0x16e>
  10616f:	8b 45 f8             	mov    -0x8(%rbp),%eax
  106172:	89 c7                	mov    %eax,%edi
  106174:	e8 c8 00 00 00       	callq  106241 <_Z24get_index_of_control_keyi>
  106179:	89 45 f4             	mov    %eax,-0xc(%rbp)
  10617c:	83 7d f4 00          	cmpl   $0x0,-0xc(%rbp)
  106180:	0f 88 b8 00 00 00    	js     10623e <_ZL17keyboard_callbackP9Registers+0x1dd>
  106186:	0f b6 45 fe          	movzbl -0x2(%rbp),%eax
  10618a:	84 c0                	test   %al,%al
  10618c:	79 25                	jns    1061b3 <_ZL17keyboard_callbackP9Registers+0x152>
  10618e:	8b 45 f4             	mov    -0xc(%rbp),%eax
  106191:	ba 01 00 00 00       	mov    $0x1,%edx
  106196:	89 c1                	mov    %eax,%ecx
  106198:	d3 e2                	shl    %cl,%edx
  10619a:	89 d0                	mov    %edx,%eax
  10619c:	f7 d0                	not    %eax
  10619e:	89 c2                	mov    %eax,%edx
  1061a0:	8b 05 ba 12 01 00    	mov    0x112ba(%rip),%eax        # 117460 <control_keys>
  1061a6:	21 d0                	and    %edx,%eax
  1061a8:	89 05 b2 12 01 00    	mov    %eax,0x112b2(%rip)        # 117460 <control_keys>
  1061ae:	e9 8c 00 00 00       	jmpq   10623f <_ZL17keyboard_callbackP9Registers+0x1de>
  1061b3:	8b 45 f4             	mov    -0xc(%rbp),%eax
  1061b6:	ba 01 00 00 00       	mov    $0x1,%edx
  1061bb:	89 c1                	mov    %eax,%ecx
  1061bd:	d3 e2                	shl    %cl,%edx
  1061bf:	8b 05 9b 12 01 00    	mov    0x1129b(%rip),%eax        # 117460 <control_keys>
  1061c5:	09 d0                	or     %edx,%eax
  1061c7:	89 05 93 12 01 00    	mov    %eax,0x11293(%rip)        # 117460 <control_keys>
  1061cd:	eb 70                	jmp    10623f <_ZL17keyboard_callbackP9Registers+0x1de>
  1061cf:	80 7d fe 39          	cmpb   $0x39,-0x2(%rbp)
  1061d3:	77 6a                	ja     10623f <_ZL17keyboard_callbackP9Registers+0x1de>
  1061d5:	8b 05 85 12 01 00    	mov    0x11285(%rip),%eax        # 117460 <control_keys>
  1061db:	83 e0 01             	and    $0x1,%eax
  1061de:	85 c0                	test   %eax,%eax
  1061e0:	75 16                	jne    1061f8 <_ZL17keyboard_callbackP9Registers+0x197>
  1061e2:	80 7d ff 40          	cmpb   $0x40,-0x1(%rbp)
  1061e6:	7e 10                	jle    1061f8 <_ZL17keyboard_callbackP9Registers+0x197>
  1061e8:	80 7d ff 5a          	cmpb   $0x5a,-0x1(%rbp)
  1061ec:	7f 0a                	jg     1061f8 <_ZL17keyboard_callbackP9Registers+0x197>
  1061ee:	0f b6 45 ff          	movzbl -0x1(%rbp),%eax
  1061f2:	83 c0 20             	add    $0x20,%eax
  1061f5:	88 45 ff             	mov    %al,-0x1(%rbp)
  1061f8:	8b 05 62 12 01 00    	mov    0x11262(%rip),%eax        # 117460 <control_keys>
  1061fe:	83 e0 08             	and    $0x8,%eax
  106201:	85 c0                	test   %eax,%eax
  106203:	74 04                	je     106209 <_ZL17keyboard_callbackP9Registers+0x1a8>
  106205:	c6 45 ff 7e          	movb   $0x7e,-0x1(%rbp)
  106209:	66 c7 45 f2 00 00    	movw   $0x0,-0xe(%rbp)
  10620f:	0f b6 45 ff          	movzbl -0x1(%rbp),%eax
  106213:	88 45 f2             	mov    %al,-0xe(%rbp)
  106216:	0f be 45 ff          	movsbl -0x1(%rbp),%eax
  10621a:	89 c6                	mov    %eax,%esi
  10621c:	48 8d 3d 5d 12 01 00 	lea    0x1125d(%rip),%rdi        # 117480 <_ZL10key_buffer>
  106223:	e8 9c 61 00 00       	callq  10c3c4 <_Z6appendPcc>
  106228:	48 8d 45 f2          	lea    -0xe(%rbp),%rax
  10622c:	48 89 c7             	mov    %rax,%rdi
  10622f:	b8 00 00 00 00       	mov    $0x0,%eax
  106234:	e8 cb 65 00 00       	callq  10c804 <_Z7kprintfPKcz>
  106239:	eb 04                	jmp    10623f <_ZL17keyboard_callbackP9Registers+0x1de>
  10623b:	90                   	nop
  10623c:	eb 01                	jmp    10623f <_ZL17keyboard_callbackP9Registers+0x1de>
  10623e:	90                   	nop
  10623f:	c9                   	leaveq 
  106240:	c3                   	retq   

0000000000106241 <_Z24get_index_of_control_keyi>:
  106241:	f3 0f 1e fa          	endbr64 
  106245:	55                   	push   %rbp
  106246:	48 89 e5             	mov    %rsp,%rbp
  106249:	48 83 ec 20          	sub    $0x20,%rsp
  10624d:	89 7d ec             	mov    %edi,-0x14(%rbp)
  106250:	8b 45 ec             	mov    -0x14(%rbp),%eax
  106253:	48 98                	cltq   
  106255:	48 8d 14 c5 00 00 00 	lea    0x0(,%rax,8),%rdx
  10625c:	00 
  10625d:	48 8d 05 7c 8f 00 00 	lea    0x8f7c(%rip),%rax        # 10f1e0 <sc_name>
  106264:	48 8b 04 02          	mov    (%rdx,%rax,1),%rax
  106268:	48 89 45 f8          	mov    %rax,-0x8(%rbp)
  10626c:	48 8b 45 f8          	mov    -0x8(%rbp),%rax
  106270:	48 8d 35 17 ad 00 00 	lea    0xad17(%rip),%rsi        # 110f8e <__rodata+0xf8e>
  106277:	48 89 c7             	mov    %rax,%rdi
  10627a:	e8 e3 61 00 00       	callq  10c462 <_Z6strcmpPcS_>
  10627f:	85 c0                	test   %eax,%eax
  106281:	0f 94 c0             	sete   %al
  106284:	84 c0                	test   %al,%al
  106286:	74 07                	je     10628f <_Z24get_index_of_control_keyi+0x4e>
  106288:	b8 01 00 00 00       	mov    $0x1,%eax
  10628d:	eb 6e                	jmp    1062fd <_Z24get_index_of_control_keyi+0xbc>
  10628f:	48 8b 45 f8          	mov    -0x8(%rbp),%rax
  106293:	48 8d 35 12 ad 00 00 	lea    0xad12(%rip),%rsi        # 110fac <__rodata+0xfac>
  10629a:	48 89 c7             	mov    %rax,%rdi
  10629d:	e8 c0 61 00 00       	callq  10c462 <_Z6strcmpPcS_>
  1062a2:	85 c0                	test   %eax,%eax
  1062a4:	0f 94 c0             	sete   %al
  1062a7:	84 c0                	test   %al,%al
  1062a9:	74 07                	je     1062b2 <_Z24get_index_of_control_keyi+0x71>
  1062ab:	b8 00 00 00 00       	mov    $0x0,%eax
  1062b0:	eb 4b                	jmp    1062fd <_Z24get_index_of_control_keyi+0xbc>
  1062b2:	48 8b 45 f8          	mov    -0x8(%rbp),%rax
  1062b6:	48 8d 35 0c ad 00 00 	lea    0xad0c(%rip),%rsi        # 110fc9 <__rodata+0xfc9>
  1062bd:	48 89 c7             	mov    %rax,%rdi
  1062c0:	e8 9d 61 00 00       	callq  10c462 <_Z6strcmpPcS_>
  1062c5:	85 c0                	test   %eax,%eax
  1062c7:	0f 94 c0             	sete   %al
  1062ca:	84 c0                	test   %al,%al
  1062cc:	74 07                	je     1062d5 <_Z24get_index_of_control_keyi+0x94>
  1062ce:	b8 00 00 00 00       	mov    $0x0,%eax
  1062d3:	eb 28                	jmp    1062fd <_Z24get_index_of_control_keyi+0xbc>
  1062d5:	48 8b 45 f8          	mov    -0x8(%rbp),%rax
  1062d9:	48 8d 35 f9 ac 00 00 	lea    0xacf9(%rip),%rsi        # 110fd9 <__rodata+0xfd9>
  1062e0:	48 89 c7             	mov    %rax,%rdi
  1062e3:	e8 7a 61 00 00       	callq  10c462 <_Z6strcmpPcS_>
  1062e8:	85 c0                	test   %eax,%eax
  1062ea:	0f 94 c0             	sete   %al
  1062ed:	84 c0                	test   %al,%al
  1062ef:	74 07                	je     1062f8 <_Z24get_index_of_control_keyi+0xb7>
  1062f1:	b8 03 00 00 00       	mov    $0x3,%eax
  1062f6:	eb 05                	jmp    1062fd <_Z24get_index_of_control_keyi+0xbc>
  1062f8:	b8 ff ff ff ff       	mov    $0xffffffff,%eax
  1062fd:	c9                   	leaveq 
  1062fe:	c3                   	retq   

00000000001062ff <_Z12InitKeyboardv>:
  1062ff:	f3 0f 1e fa          	endbr64 
  106303:	55                   	push   %rbp
  106304:	48 89 e5             	mov    %rsp,%rbp
  106307:	48 8d 35 53 fd ff ff 	lea    -0x2ad(%rip),%rsi        # 106061 <_ZL17keyboard_callbackP9Registers>
  10630e:	bf 21 00 00 00       	mov    $0x21,%edi
  106313:	e8 2a c6 ff ff       	callq  102942 <_Z24RegisterInterruptHandlerhPFvP9RegistersE>
  106318:	90                   	nop
  106319:	5d                   	pop    %rbp
  10631a:	c3                   	retq   
  10631b:	90                   	nop

000000000010631c <_ZN4AHCI13CheckPortTypeEPNS_7HBAPortE>:
  10631c:	f3 0f 1e fa          	endbr64 
  106320:	55                   	push   %rbp
  106321:	48 89 e5             	mov    %rsp,%rbp
  106324:	48 83 ec 18          	sub    $0x18,%rsp
  106328:	48 89 7d e8          	mov    %rdi,-0x18(%rbp)
  10632c:	48 8b 45 e8          	mov    -0x18(%rbp),%rax
  106330:	8b 40 28             	mov    0x28(%rax),%eax
  106333:	89 45 fc             	mov    %eax,-0x4(%rbp)
  106336:	8b 45 fc             	mov    -0x4(%rbp),%eax
  106339:	c1 e8 08             	shr    $0x8,%eax
  10633c:	83 e0 07             	and    $0x7,%eax
  10633f:	88 45 fb             	mov    %al,-0x5(%rbp)
  106342:	8b 45 fc             	mov    -0x4(%rbp),%eax
  106345:	83 e0 07             	and    $0x7,%eax
  106348:	88 45 fa             	mov    %al,-0x6(%rbp)
  10634b:	80 7d fa 03          	cmpb   $0x3,-0x6(%rbp)
  10634f:	74 07                	je     106358 <_ZN4AHCI13CheckPortTypeEPNS_7HBAPortE+0x3c>
  106351:	b8 00 00 00 00       	mov    $0x0,%eax
  106356:	eb 5c                	jmp    1063b4 <_ZN4AHCI13CheckPortTypeEPNS_7HBAPortE+0x98>
  106358:	80 7d fb 01          	cmpb   $0x1,-0x5(%rbp)
  10635c:	74 07                	je     106365 <_ZN4AHCI13CheckPortTypeEPNS_7HBAPortE+0x49>
  10635e:	b8 00 00 00 00       	mov    $0x0,%eax
  106363:	eb 4f                	jmp    1063b4 <_ZN4AHCI13CheckPortTypeEPNS_7HBAPortE+0x98>
  106365:	48 8b 45 e8          	mov    -0x18(%rbp),%rax
  106369:	8b 40 24             	mov    0x24(%rax),%eax
  10636c:	3d 01 01 14 eb       	cmp    $0xeb140101,%eax
  106371:	74 25                	je     106398 <_ZN4AHCI13CheckPortTypeEPNS_7HBAPortE+0x7c>
  106373:	3d 01 01 14 eb       	cmp    $0xeb140101,%eax
  106378:	77 3a                	ja     1063b4 <_ZN4AHCI13CheckPortTypeEPNS_7HBAPortE+0x98>
  10637a:	3d 01 01 3c c3       	cmp    $0xc33c0101,%eax
  10637f:	74 2c                	je     1063ad <_ZN4AHCI13CheckPortTypeEPNS_7HBAPortE+0x91>
  106381:	3d 01 01 3c c3       	cmp    $0xc33c0101,%eax
  106386:	77 2c                	ja     1063b4 <_ZN4AHCI13CheckPortTypeEPNS_7HBAPortE+0x98>
  106388:	3d 01 01 00 00       	cmp    $0x101,%eax
  10638d:	74 10                	je     10639f <_ZN4AHCI13CheckPortTypeEPNS_7HBAPortE+0x83>
  10638f:	3d 01 01 69 96       	cmp    $0x96690101,%eax
  106394:	74 10                	je     1063a6 <_ZN4AHCI13CheckPortTypeEPNS_7HBAPortE+0x8a>
  106396:	eb 1c                	jmp    1063b4 <_ZN4AHCI13CheckPortTypeEPNS_7HBAPortE+0x98>
  106398:	b8 04 00 00 00       	mov    $0x4,%eax
  10639d:	eb 15                	jmp    1063b4 <_ZN4AHCI13CheckPortTypeEPNS_7HBAPortE+0x98>
  10639f:	b8 01 00 00 00       	mov    $0x1,%eax
  1063a4:	eb 0e                	jmp    1063b4 <_ZN4AHCI13CheckPortTypeEPNS_7HBAPortE+0x98>
  1063a6:	b8 03 00 00 00       	mov    $0x3,%eax
  1063ab:	eb 07                	jmp    1063b4 <_ZN4AHCI13CheckPortTypeEPNS_7HBAPortE+0x98>
  1063ad:	b8 02 00 00 00       	mov    $0x2,%eax
  1063b2:	eb 00                	jmp    1063b4 <_ZN4AHCI13CheckPortTypeEPNS_7HBAPortE+0x98>
  1063b4:	c9                   	leaveq 
  1063b5:	c3                   	retq   

00000000001063b6 <_ZN4AHCI10AHCIDriver12PreparePortsEv>:
  1063b6:	f3 0f 1e fa          	endbr64 
  1063ba:	55                   	push   %rbp
  1063bb:	48 89 e5             	mov    %rsp,%rbp
  1063be:	53                   	push   %rbx
  1063bf:	48 83 ec 38          	sub    $0x38,%rsp
  1063c3:	48 89 7d c8          	mov    %rdi,-0x38(%rbp)
  1063c7:	48 89 75 c0          	mov    %rsi,-0x40(%rbp)
  1063cb:	48 8b 45 c8          	mov    -0x38(%rbp),%rax
  1063cf:	48 89 c7             	mov    %rax,%rdi
  1063d2:	e8 93 7d 00 00       	callq  10e16a <_ZN6vectorIPN4AHCI10AHCIDeviceEEC1Ev>
  1063d7:	48 8b 45 c0          	mov    -0x40(%rbp),%rax
  1063db:	48 8b 40 08          	mov    0x8(%rax),%rax
  1063df:	8b 40 0c             	mov    0xc(%rax),%eax
  1063e2:	89 45 e8             	mov    %eax,-0x18(%rbp)
  1063e5:	c7 45 ec 00 00 00 00 	movl   $0x0,-0x14(%rbp)
  1063ec:	83 7d ec 1f          	cmpl   $0x1f,-0x14(%rbp)
  1063f0:	0f 8f 7a 01 00 00    	jg     106570 <_ZN4AHCI10AHCIDriver12PreparePortsEv+0x1ba>
  1063f6:	8b 45 ec             	mov    -0x14(%rbp),%eax
  1063f9:	ba 01 00 00 00       	mov    $0x1,%edx
  1063fe:	89 c1                	mov    %eax,%ecx
  106400:	d3 e2                	shl    %cl,%edx
  106402:	89 d0                	mov    %edx,%eax
  106404:	23 45 e8             	and    -0x18(%rbp),%eax
  106407:	85 c0                	test   %eax,%eax
  106409:	0f 84 58 01 00 00    	je     106567 <_ZN4AHCI10AHCIDriver12PreparePortsEv+0x1b1>
  10640f:	48 8b 45 c0          	mov    -0x40(%rbp),%rax
  106413:	48 8b 40 08          	mov    0x8(%rax),%rax
  106417:	8b 55 ec             	mov    -0x14(%rbp),%edx
  10641a:	48 63 d2             	movslq %edx,%rdx
  10641d:	48 83 c2 02          	add    $0x2,%rdx
  106421:	48 c1 e2 07          	shl    $0x7,%rdx
  106425:	48 01 d0             	add    %rdx,%rax
  106428:	48 89 c7             	mov    %rax,%rdi
  10642b:	e8 ec fe ff ff       	callq  10631c <_ZN4AHCI13CheckPortTypeEPNS_7HBAPortE>
  106430:	89 45 e4             	mov    %eax,-0x1c(%rbp)
  106433:	83 7d e4 01          	cmpl   $0x1,-0x1c(%rbp)
  106437:	74 0a                	je     106443 <_ZN4AHCI10AHCIDriver12PreparePortsEv+0x8d>
  106439:	83 7d e4 04          	cmpl   $0x4,-0x1c(%rbp)
  10643d:	0f 85 24 01 00 00    	jne    106567 <_ZN4AHCI10AHCIDriver12PreparePortsEv+0x1b1>
  106443:	bf 10 00 00 00       	mov    $0x10,%edi
  106448:	e8 90 d5 ff ff       	callq  1039dd <_Znwm>
  10644d:	48 c7 00 00 00 00 00 	movq   $0x0,(%rax)
  106454:	c7 40 08 00 00 00 00 	movl   $0x0,0x8(%rax)
  10645b:	c6 40 0c 00          	movb   $0x0,0xc(%rax)
  10645f:	48 8b 55 c0          	mov    -0x40(%rbp),%rdx
  106463:	0f b6 92 10 01 00 00 	movzbl 0x110(%rdx),%edx
  10646a:	0f b6 ca             	movzbl %dl,%ecx
  10646d:	48 8b 55 c0          	mov    -0x40(%rbp),%rdx
  106471:	48 63 c9             	movslq %ecx,%rcx
  106474:	48 83 c1 02          	add    $0x2,%rcx
  106478:	48 89 04 ca          	mov    %rax,(%rdx,%rcx,8)
  10647c:	48 8b 45 c0          	mov    -0x40(%rbp),%rax
  106480:	0f b6 80 10 01 00 00 	movzbl 0x110(%rax),%eax
  106487:	0f b6 d0             	movzbl %al,%edx
  10648a:	48 8b 45 c0          	mov    -0x40(%rbp),%rax
  10648e:	48 63 d2             	movslq %edx,%rdx
  106491:	48 83 c2 02          	add    $0x2,%rdx
  106495:	48 8b 04 d0          	mov    (%rax,%rdx,8),%rax
  106499:	8b 55 e4             	mov    -0x1c(%rbp),%edx
  10649c:	89 50 08             	mov    %edx,0x8(%rax)
  10649f:	48 8b 45 c0          	mov    -0x40(%rbp),%rax
  1064a3:	48 8b 50 08          	mov    0x8(%rax),%rdx
  1064a7:	48 8b 45 c0          	mov    -0x40(%rbp),%rax
  1064ab:	0f b6 80 10 01 00 00 	movzbl 0x110(%rax),%eax
  1064b2:	0f b6 c8             	movzbl %al,%ecx
  1064b5:	48 8b 45 c0          	mov    -0x40(%rbp),%rax
  1064b9:	48 63 c9             	movslq %ecx,%rcx
  1064bc:	48 83 c1 02          	add    $0x2,%rcx
  1064c0:	48 8b 04 c8          	mov    (%rax,%rcx,8),%rax
  1064c4:	8b 4d ec             	mov    -0x14(%rbp),%ecx
  1064c7:	48 63 c9             	movslq %ecx,%rcx
  1064ca:	48 83 c1 02          	add    $0x2,%rcx
  1064ce:	48 c1 e1 07          	shl    $0x7,%rcx
  1064d2:	48 01 ca             	add    %rcx,%rdx
  1064d5:	48 89 10             	mov    %rdx,(%rax)
  1064d8:	48 8b 45 c0          	mov    -0x40(%rbp),%rax
  1064dc:	0f b6 80 10 01 00 00 	movzbl 0x110(%rax),%eax
  1064e3:	0f b6 d0             	movzbl %al,%edx
  1064e6:	48 8b 45 c0          	mov    -0x40(%rbp),%rax
  1064ea:	48 63 d2             	movslq %edx,%rdx
  1064ed:	48 83 c2 02          	add    $0x2,%rdx
  1064f1:	48 8b 04 d0          	mov    (%rax,%rdx,8),%rax
  1064f5:	48 8b 55 c0          	mov    -0x40(%rbp),%rdx
  1064f9:	0f b6 92 10 01 00 00 	movzbl 0x110(%rdx),%edx
  106500:	88 50 0c             	mov    %dl,0xc(%rax)
  106503:	48 8b 45 c0          	mov    -0x40(%rbp),%rax
  106507:	0f b6 80 10 01 00 00 	movzbl 0x110(%rax),%eax
  10650e:	8d 50 01             	lea    0x1(%rax),%edx
  106511:	48 8b 45 c0          	mov    -0x40(%rbp),%rax
  106515:	88 90 10 01 00 00    	mov    %dl,0x110(%rax)
  10651b:	bf 10 00 00 00       	mov    $0x10,%edi
  106520:	e8 b8 d4 ff ff       	callq  1039dd <_Znwm>
  106525:	48 89 c3             	mov    %rax,%rbx
  106528:	48 8b 45 c0          	mov    -0x40(%rbp),%rax
  10652c:	0f b6 80 10 01 00 00 	movzbl 0x110(%rax),%eax
  106533:	0f b6 d0             	movzbl %al,%edx
  106536:	48 8b 45 c0          	mov    -0x40(%rbp),%rax
  10653a:	48 63 d2             	movslq %edx,%rdx
  10653d:	48 83 c2 02          	add    $0x2,%rdx
  106541:	48 8b 04 d0          	mov    (%rax,%rdx,8),%rax
  106545:	48 89 c6             	mov    %rax,%rsi
  106548:	48 89 df             	mov    %rbx,%rdi
  10654b:	e8 3e 07 00 00       	callq  106c8e <_ZN4AHCI10AHCIDeviceC1EPNS_4PortE>
  106550:	48 89 5d d8          	mov    %rbx,-0x28(%rbp)
  106554:	48 8d 55 d8          	lea    -0x28(%rbp),%rdx
  106558:	48 8b 45 c8          	mov    -0x38(%rbp),%rax
  10655c:	48 89 d6             	mov    %rdx,%rsi
  10655f:	48 89 c7             	mov    %rax,%rdi
  106562:	e8 43 7c 00 00       	callq  10e1aa <_ZN6vectorIPN4AHCI10AHCIDeviceEE9push_backERKS2_>
  106567:	83 45 ec 01          	addl   $0x1,-0x14(%rbp)
  10656b:	e9 7c fe ff ff       	jmpq   1063ec <_ZN4AHCI10AHCIDriver12PreparePortsEv+0x36>
  106570:	90                   	nop
  106571:	48 8b 45 c8          	mov    -0x38(%rbp),%rax
  106575:	48 83 c4 38          	add    $0x38,%rsp
  106579:	5b                   	pop    %rbx
  10657a:	5d                   	pop    %rbp
  10657b:	c3                   	retq   

000000000010657c <_ZN4AHCI4Port9ConfigureEv>:
  10657c:	f3 0f 1e fa          	endbr64 
  106580:	55                   	push   %rbp
  106581:	48 89 e5             	mov    %rsp,%rbp
  106584:	48 83 ec 40          	sub    $0x40,%rsp
  106588:	48 89 7d c8          	mov    %rdi,-0x38(%rbp)
  10658c:	48 8b 45 c8          	mov    -0x38(%rbp),%rax
  106590:	48 89 c7             	mov    %rax,%rdi
  106593:	e8 74 01 00 00       	callq  10670c <_ZN4AHCI4Port7StopCMDEv>
  106598:	e8 85 af ff ff       	callq  101522 <_ZN18PageFrameAllocator15SharedAllocatorEv>
  10659d:	48 89 c7             	mov    %rax,%rdi
  1065a0:	e8 d1 ac ff ff       	callq  101276 <_ZN18PageFrameAllocator11RequestPageEv>
  1065a5:	48 89 45 f0          	mov    %rax,-0x10(%rbp)
  1065a9:	48 8b 55 f0          	mov    -0x10(%rbp),%rdx
  1065ad:	48 8b 45 c8          	mov    -0x38(%rbp),%rax
  1065b1:	48 8b 00             	mov    (%rax),%rax
  1065b4:	89 10                	mov    %edx,(%rax)
  1065b6:	48 8b 45 f0          	mov    -0x10(%rbp),%rax
  1065ba:	48 c1 e8 20          	shr    $0x20,%rax
  1065be:	48 89 c2             	mov    %rax,%rdx
  1065c1:	48 8b 45 c8          	mov    -0x38(%rbp),%rax
  1065c5:	48 8b 00             	mov    (%rax),%rax
  1065c8:	89 50 04             	mov    %edx,0x4(%rax)
  1065cb:	48 8b 45 c8          	mov    -0x38(%rbp),%rax
  1065cf:	48 8b 00             	mov    (%rax),%rax
  1065d2:	8b 00                	mov    (%rax),%eax
  1065d4:	89 c0                	mov    %eax,%eax
  1065d6:	ba 00 04 00 00       	mov    $0x400,%edx
  1065db:	be 00 00 00 00       	mov    $0x0,%esi
  1065e0:	48 89 c7             	mov    %rax,%rdi
  1065e3:	e8 5b 66 00 00       	callq  10cc43 <_Z6memsetPvim>
  1065e8:	e8 35 af ff ff       	callq  101522 <_ZN18PageFrameAllocator15SharedAllocatorEv>
  1065ed:	48 89 c7             	mov    %rax,%rdi
  1065f0:	e8 81 ac ff ff       	callq  101276 <_ZN18PageFrameAllocator11RequestPageEv>
  1065f5:	48 89 45 e8          	mov    %rax,-0x18(%rbp)
  1065f9:	48 8b 55 e8          	mov    -0x18(%rbp),%rdx
  1065fd:	48 8b 45 c8          	mov    -0x38(%rbp),%rax
  106601:	48 8b 00             	mov    (%rax),%rax
  106604:	89 50 08             	mov    %edx,0x8(%rax)
  106607:	48 8b 45 e8          	mov    -0x18(%rbp),%rax
  10660b:	48 c1 e8 20          	shr    $0x20,%rax
  10660f:	48 89 c2             	mov    %rax,%rdx
  106612:	48 8b 45 c8          	mov    -0x38(%rbp),%rax
  106616:	48 8b 00             	mov    (%rax),%rax
  106619:	89 50 0c             	mov    %edx,0xc(%rax)
  10661c:	48 8b 45 e8          	mov    -0x18(%rbp),%rax
  106620:	ba 00 01 00 00       	mov    $0x100,%edx
  106625:	be 00 00 00 00       	mov    $0x0,%esi
  10662a:	48 89 c7             	mov    %rax,%rdi
  10662d:	e8 11 66 00 00       	callq  10cc43 <_Z6memsetPvim>
  106632:	48 8b 45 c8          	mov    -0x38(%rbp),%rax
  106636:	48 8b 00             	mov    (%rax),%rax
  106639:	8b 00                	mov    (%rax),%eax
  10663b:	89 c2                	mov    %eax,%edx
  10663d:	48 8b 45 c8          	mov    -0x38(%rbp),%rax
  106641:	48 8b 00             	mov    (%rax),%rax
  106644:	8b 40 04             	mov    0x4(%rax),%eax
  106647:	89 c0                	mov    %eax,%eax
  106649:	48 c1 e0 20          	shl    $0x20,%rax
  10664d:	48 01 d0             	add    %rdx,%rax
  106650:	48 89 45 e0          	mov    %rax,-0x20(%rbp)
  106654:	c7 45 fc 00 00 00 00 	movl   $0x0,-0x4(%rbp)
  10665b:	83 7d fc 1f          	cmpl   $0x1f,-0x4(%rbp)
  10665f:	0f 8f 98 00 00 00    	jg     1066fd <_ZN4AHCI4Port9ConfigureEv+0x181>
  106665:	8b 45 fc             	mov    -0x4(%rbp),%eax
  106668:	48 98                	cltq   
  10666a:	48 c1 e0 05          	shl    $0x5,%rax
  10666e:	48 89 c2             	mov    %rax,%rdx
  106671:	48 8b 45 e0          	mov    -0x20(%rbp),%rax
  106675:	48 01 d0             	add    %rdx,%rax
  106678:	66 c7 40 02 08 00    	movw   $0x8,0x2(%rax)
  10667e:	e8 9f ae ff ff       	callq  101522 <_ZN18PageFrameAllocator15SharedAllocatorEv>
  106683:	48 89 c7             	mov    %rax,%rdi
  106686:	e8 eb ab ff ff       	callq  101276 <_ZN18PageFrameAllocator11RequestPageEv>
  10668b:	48 89 45 d8          	mov    %rax,-0x28(%rbp)
  10668f:	8b 45 fc             	mov    -0x4(%rbp),%eax
  106692:	c1 e0 08             	shl    $0x8,%eax
  106695:	48 63 d0             	movslq %eax,%rdx
  106698:	48 8b 45 d8          	mov    -0x28(%rbp),%rax
  10669c:	48 01 d0             	add    %rdx,%rax
  10669f:	48 89 45 d0          	mov    %rax,-0x30(%rbp)
  1066a3:	8b 45 fc             	mov    -0x4(%rbp),%eax
  1066a6:	48 98                	cltq   
  1066a8:	48 c1 e0 05          	shl    $0x5,%rax
  1066ac:	48 89 c2             	mov    %rax,%rdx
  1066af:	48 8b 45 e0          	mov    -0x20(%rbp),%rax
  1066b3:	48 01 d0             	add    %rdx,%rax
  1066b6:	48 8b 55 d0          	mov    -0x30(%rbp),%rdx
  1066ba:	89 50 08             	mov    %edx,0x8(%rax)
  1066bd:	48 8b 45 d0          	mov    -0x30(%rbp),%rax
  1066c1:	48 c1 e8 20          	shr    $0x20,%rax
  1066c5:	48 89 c2             	mov    %rax,%rdx
  1066c8:	8b 45 fc             	mov    -0x4(%rbp),%eax
  1066cb:	48 98                	cltq   
  1066cd:	48 c1 e0 05          	shl    $0x5,%rax
  1066d1:	48 89 c1             	mov    %rax,%rcx
  1066d4:	48 8b 45 e0          	mov    -0x20(%rbp),%rax
  1066d8:	48 01 c8             	add    %rcx,%rax
  1066db:	89 50 0c             	mov    %edx,0xc(%rax)
  1066de:	48 8b 45 d8          	mov    -0x28(%rbp),%rax
  1066e2:	ba 00 01 00 00       	mov    $0x100,%edx
  1066e7:	be 00 00 00 00       	mov    $0x0,%esi
  1066ec:	48 89 c7             	mov    %rax,%rdi
  1066ef:	e8 4f 65 00 00       	callq  10cc43 <_Z6memsetPvim>
  1066f4:	83 45 fc 01          	addl   $0x1,-0x4(%rbp)
  1066f8:	e9 5e ff ff ff       	jmpq   10665b <_ZN4AHCI4Port9ConfigureEv+0xdf>
  1066fd:	48 8b 45 c8          	mov    -0x38(%rbp),%rax
  106701:	48 89 c7             	mov    %rax,%rdi
  106704:	e8 71 00 00 00       	callq  10677a <_ZN4AHCI4Port8StartCMDEv>
  106709:	90                   	nop
  10670a:	c9                   	leaveq 
  10670b:	c3                   	retq   

000000000010670c <_ZN4AHCI4Port7StopCMDEv>:
  10670c:	f3 0f 1e fa          	endbr64 
  106710:	55                   	push   %rbp
  106711:	48 89 e5             	mov    %rsp,%rbp
  106714:	48 83 ec 08          	sub    $0x8,%rsp
  106718:	48 89 7d f8          	mov    %rdi,-0x8(%rbp)
  10671c:	48 8b 45 f8          	mov    -0x8(%rbp),%rax
  106720:	48 8b 00             	mov    (%rax),%rax
  106723:	8b 50 18             	mov    0x18(%rax),%edx
  106726:	48 8b 45 f8          	mov    -0x8(%rbp),%rax
  10672a:	48 8b 00             	mov    (%rax),%rax
  10672d:	83 e2 fe             	and    $0xfffffffe,%edx
  106730:	89 50 18             	mov    %edx,0x18(%rax)
  106733:	48 8b 45 f8          	mov    -0x8(%rbp),%rax
  106737:	48 8b 00             	mov    (%rax),%rax
  10673a:	8b 50 18             	mov    0x18(%rax),%edx
  10673d:	48 8b 45 f8          	mov    -0x8(%rbp),%rax
  106741:	48 8b 00             	mov    (%rax),%rax
  106744:	83 e2 ef             	and    $0xffffffef,%edx
  106747:	89 50 18             	mov    %edx,0x18(%rax)
  10674a:	48 8b 45 f8          	mov    -0x8(%rbp),%rax
  10674e:	48 8b 00             	mov    (%rax),%rax
  106751:	8b 40 18             	mov    0x18(%rax),%eax
  106754:	25 00 40 00 00       	and    $0x4000,%eax
  106759:	85 c0                	test   %eax,%eax
  10675b:	75 15                	jne    106772 <_ZN4AHCI4Port7StopCMDEv+0x66>
  10675d:	48 8b 45 f8          	mov    -0x8(%rbp),%rax
  106761:	48 8b 00             	mov    (%rax),%rax
  106764:	8b 40 18             	mov    0x18(%rax),%eax
  106767:	25 00 80 00 00       	and    $0x8000,%eax
  10676c:	85 c0                	test   %eax,%eax
  10676e:	74 05                	je     106775 <_ZN4AHCI4Port7StopCMDEv+0x69>
  106770:	eb 01                	jmp    106773 <_ZN4AHCI4Port7StopCMDEv+0x67>
  106772:	90                   	nop
  106773:	eb d5                	jmp    10674a <_ZN4AHCI4Port7StopCMDEv+0x3e>
  106775:	90                   	nop
  106776:	90                   	nop
  106777:	c9                   	leaveq 
  106778:	c3                   	retq   
  106779:	90                   	nop

000000000010677a <_ZN4AHCI4Port8StartCMDEv>:
  10677a:	f3 0f 1e fa          	endbr64 
  10677e:	55                   	push   %rbp
  10677f:	48 89 e5             	mov    %rsp,%rbp
  106782:	48 83 ec 08          	sub    $0x8,%rsp
  106786:	48 89 7d f8          	mov    %rdi,-0x8(%rbp)
  10678a:	48 8b 45 f8          	mov    -0x8(%rbp),%rax
  10678e:	48 8b 00             	mov    (%rax),%rax
  106791:	8b 40 18             	mov    0x18(%rax),%eax
  106794:	25 00 80 00 00       	and    $0x8000,%eax
  106799:	85 c0                	test   %eax,%eax
  10679b:	74 02                	je     10679f <_ZN4AHCI4Port8StartCMDEv+0x25>
  10679d:	eb eb                	jmp    10678a <_ZN4AHCI4Port8StartCMDEv+0x10>
  10679f:	48 8b 45 f8          	mov    -0x8(%rbp),%rax
  1067a3:	48 8b 00             	mov    (%rax),%rax
  1067a6:	8b 50 18             	mov    0x18(%rax),%edx
  1067a9:	48 8b 45 f8          	mov    -0x8(%rbp),%rax
  1067ad:	48 8b 00             	mov    (%rax),%rax
  1067b0:	83 ca 10             	or     $0x10,%edx
  1067b3:	89 50 18             	mov    %edx,0x18(%rax)
  1067b6:	48 8b 45 f8          	mov    -0x8(%rbp),%rax
  1067ba:	48 8b 00             	mov    (%rax),%rax
  1067bd:	8b 50 18             	mov    0x18(%rax),%edx
  1067c0:	48 8b 45 f8          	mov    -0x8(%rbp),%rax
  1067c4:	48 8b 00             	mov    (%rax),%rax
  1067c7:	83 ca 01             	or     $0x1,%edx
  1067ca:	89 50 18             	mov    %edx,0x18(%rax)
  1067cd:	90                   	nop
  1067ce:	c9                   	leaveq 
  1067cf:	c3                   	retq   

00000000001067d0 <_ZN4AHCI4Port4ReadEmPvj>:
  1067d0:	f3 0f 1e fa          	endbr64 
  1067d4:	55                   	push   %rbp
  1067d5:	48 89 e5             	mov    %rsp,%rbp
  1067d8:	48 83 ec 50          	sub    $0x50,%rsp
  1067dc:	48 89 7d c8          	mov    %rdi,-0x38(%rbp)
  1067e0:	48 89 75 c0          	mov    %rsi,-0x40(%rbp)
  1067e4:	48 89 55 b8          	mov    %rdx,-0x48(%rbp)
  1067e8:	89 4d b4             	mov    %ecx,-0x4c(%rbp)
  1067eb:	48 8b 45 c0          	mov    -0x40(%rbp),%rax
  1067ef:	89 45 f4             	mov    %eax,-0xc(%rbp)
  1067f2:	48 8b 45 c0          	mov    -0x40(%rbp),%rax
  1067f6:	48 c1 e8 20          	shr    $0x20,%rax
  1067fa:	89 45 f0             	mov    %eax,-0x10(%rbp)
  1067fd:	48 8b 45 c8          	mov    -0x38(%rbp),%rax
  106801:	48 8b 00             	mov    (%rax),%rax
  106804:	c7 40 10 ff ff ff ff 	movl   $0xffffffff,0x10(%rax)
  10680b:	48 8b 45 c8          	mov    -0x38(%rbp),%rax
  10680f:	48 8b 00             	mov    (%rax),%rax
  106812:	8b 00                	mov    (%rax),%eax
  106814:	89 c0                	mov    %eax,%eax
  106816:	48 89 45 e8          	mov    %rax,-0x18(%rbp)
  10681a:	48 8b 45 e8          	mov    -0x18(%rbp),%rax
  10681e:	0f b6 10             	movzbl (%rax),%edx
  106821:	83 e2 e0             	and    $0xffffffe0,%edx
  106824:	83 ca 05             	or     $0x5,%edx
  106827:	88 10                	mov    %dl,(%rax)
  106829:	48 8b 45 e8          	mov    -0x18(%rbp),%rax
  10682d:	0f b6 10             	movzbl (%rax),%edx
  106830:	83 e2 bf             	and    $0xffffffbf,%edx
  106833:	88 10                	mov    %dl,(%rax)
  106835:	48 8b 45 e8          	mov    -0x18(%rbp),%rax
  106839:	66 c7 40 02 01 00    	movw   $0x1,0x2(%rax)
  10683f:	48 8b 45 e8          	mov    -0x18(%rbp),%rax
  106843:	8b 40 08             	mov    0x8(%rax),%eax
  106846:	89 c0                	mov    %eax,%eax
  106848:	48 89 45 e0          	mov    %rax,-0x20(%rbp)
  10684c:	48 8b 45 e8          	mov    -0x18(%rbp),%rax
  106850:	0f b7 40 02          	movzwl 0x2(%rax),%eax
  106854:	0f b7 c0             	movzwl %ax,%eax
  106857:	83 e8 01             	sub    $0x1,%eax
  10685a:	48 98                	cltq   
  10685c:	48 83 c0 08          	add    $0x8,%rax
  106860:	48 c1 e0 04          	shl    $0x4,%rax
  106864:	48 89 c2             	mov    %rax,%rdx
  106867:	48 8b 45 e0          	mov    -0x20(%rbp),%rax
  10686b:	be 00 00 00 00       	mov    $0x0,%esi
  106870:	48 89 c7             	mov    %rax,%rdi
  106873:	e8 cb 63 00 00       	callq  10cc43 <_Z6memsetPvim>
  106878:	48 8b 45 b8          	mov    -0x48(%rbp),%rax
  10687c:	89 c2                	mov    %eax,%edx
  10687e:	48 8b 45 e0          	mov    -0x20(%rbp),%rax
  106882:	89 90 80 00 00 00    	mov    %edx,0x80(%rax)
  106888:	48 8b 45 b8          	mov    -0x48(%rbp),%rax
  10688c:	48 c1 e8 20          	shr    $0x20,%rax
  106890:	89 c2                	mov    %eax,%edx
  106892:	48 8b 45 e0          	mov    -0x20(%rbp),%rax
  106896:	89 90 84 00 00 00    	mov    %edx,0x84(%rax)
  10689c:	8b 45 b4             	mov    -0x4c(%rbp),%eax
  10689f:	c1 e0 09             	shl    $0x9,%eax
  1068a2:	83 e8 01             	sub    $0x1,%eax
  1068a5:	25 ff ff 3f 00       	and    $0x3fffff,%eax
  1068aa:	89 c2                	mov    %eax,%edx
  1068ac:	48 8b 45 e0          	mov    -0x20(%rbp),%rax
  1068b0:	89 d1                	mov    %edx,%ecx
  1068b2:	81 e1 ff ff 3f 00    	and    $0x3fffff,%ecx
  1068b8:	8b 90 8c 00 00 00    	mov    0x8c(%rax),%edx
  1068be:	81 e2 00 00 c0 ff    	and    $0xffc00000,%edx
  1068c4:	09 ca                	or     %ecx,%edx
  1068c6:	89 90 8c 00 00 00    	mov    %edx,0x8c(%rax)
  1068cc:	48 8b 45 e0          	mov    -0x20(%rbp),%rax
  1068d0:	0f b6 90 8f 00 00 00 	movzbl 0x8f(%rax),%edx
  1068d7:	83 ca 80             	or     $0xffffff80,%edx
  1068da:	88 90 8f 00 00 00    	mov    %dl,0x8f(%rax)
  1068e0:	48 8b 45 e0          	mov    -0x20(%rbp),%rax
  1068e4:	48 89 45 d8          	mov    %rax,-0x28(%rbp)
  1068e8:	48 8b 45 d8          	mov    -0x28(%rbp),%rax
  1068ec:	c6 00 27             	movb   $0x27,(%rax)
  1068ef:	48 8b 45 d8          	mov    -0x28(%rbp),%rax
  1068f3:	0f b6 50 01          	movzbl 0x1(%rax),%edx
  1068f7:	83 ca 80             	or     $0xffffff80,%edx
  1068fa:	88 50 01             	mov    %dl,0x1(%rax)
  1068fd:	48 8b 45 d8          	mov    -0x28(%rbp),%rax
  106901:	c6 40 02 25          	movb   $0x25,0x2(%rax)
  106905:	8b 45 f4             	mov    -0xc(%rbp),%eax
  106908:	89 c2                	mov    %eax,%edx
  10690a:	48 8b 45 d8          	mov    -0x28(%rbp),%rax
  10690e:	88 50 04             	mov    %dl,0x4(%rax)
  106911:	8b 45 f4             	mov    -0xc(%rbp),%eax
  106914:	c1 e8 08             	shr    $0x8,%eax
  106917:	89 c2                	mov    %eax,%edx
  106919:	48 8b 45 d8          	mov    -0x28(%rbp),%rax
  10691d:	88 50 05             	mov    %dl,0x5(%rax)
  106920:	8b 45 f4             	mov    -0xc(%rbp),%eax
  106923:	c1 e8 10             	shr    $0x10,%eax
  106926:	89 c2                	mov    %eax,%edx
  106928:	48 8b 45 d8          	mov    -0x28(%rbp),%rax
  10692c:	88 50 06             	mov    %dl,0x6(%rax)
  10692f:	8b 45 f0             	mov    -0x10(%rbp),%eax
  106932:	89 c2                	mov    %eax,%edx
  106934:	48 8b 45 d8          	mov    -0x28(%rbp),%rax
  106938:	88 50 08             	mov    %dl,0x8(%rax)
  10693b:	8b 45 f0             	mov    -0x10(%rbp),%eax
  10693e:	c1 e8 08             	shr    $0x8,%eax
  106941:	89 c2                	mov    %eax,%edx
  106943:	48 8b 45 d8          	mov    -0x28(%rbp),%rax
  106947:	88 50 09             	mov    %dl,0x9(%rax)
  10694a:	8b 45 f0             	mov    -0x10(%rbp),%eax
  10694d:	c1 e8 10             	shr    $0x10,%eax
  106950:	89 c2                	mov    %eax,%edx
  106952:	48 8b 45 d8          	mov    -0x28(%rbp),%rax
  106956:	88 50 09             	mov    %dl,0x9(%rax)
  106959:	48 8b 45 d8          	mov    -0x28(%rbp),%rax
  10695d:	c6 40 07 40          	movb   $0x40,0x7(%rax)
  106961:	8b 45 b4             	mov    -0x4c(%rbp),%eax
  106964:	89 c2                	mov    %eax,%edx
  106966:	48 8b 45 d8          	mov    -0x28(%rbp),%rax
  10696a:	88 50 0c             	mov    %dl,0xc(%rax)
  10696d:	8b 45 b4             	mov    -0x4c(%rbp),%eax
  106970:	c1 e8 08             	shr    $0x8,%eax
  106973:	89 c2                	mov    %eax,%edx
  106975:	48 8b 45 d8          	mov    -0x28(%rbp),%rax
  106979:	88 50 0d             	mov    %dl,0xd(%rax)
  10697c:	48 c7 45 f8 00 00 00 	movq   $0x0,-0x8(%rbp)
  106983:	00 
  106984:	48 8b 45 c8          	mov    -0x38(%rbp),%rax
  106988:	48 8b 00             	mov    (%rax),%rax
  10698b:	8b 40 20             	mov    0x20(%rax),%eax
  10698e:	25 88 00 00 00       	and    $0x88,%eax
  106993:	85 c0                	test   %eax,%eax
  106995:	74 11                	je     1069a8 <_ZN4AHCI4Port4ReadEmPvj+0x1d8>
  106997:	48 81 7d f8 3f 42 0f 	cmpq   $0xf423f,-0x8(%rbp)
  10699e:	00 
  10699f:	77 07                	ja     1069a8 <_ZN4AHCI4Port4ReadEmPvj+0x1d8>
  1069a1:	48 83 45 f8 01       	addq   $0x1,-0x8(%rbp)
  1069a6:	eb dc                	jmp    106984 <_ZN4AHCI4Port4ReadEmPvj+0x1b4>
  1069a8:	48 81 7d f8 40 42 0f 	cmpq   $0xf4240,-0x8(%rbp)
  1069af:	00 
  1069b0:	75 07                	jne    1069b9 <_ZN4AHCI4Port4ReadEmPvj+0x1e9>
  1069b2:	b8 00 00 00 00       	mov    $0x0,%eax
  1069b7:	eb 3c                	jmp    1069f5 <_ZN4AHCI4Port4ReadEmPvj+0x225>
  1069b9:	48 8b 45 c8          	mov    -0x38(%rbp),%rax
  1069bd:	48 8b 00             	mov    (%rax),%rax
  1069c0:	c7 40 38 01 00 00 00 	movl   $0x1,0x38(%rax)
  1069c7:	48 8b 45 c8          	mov    -0x38(%rbp),%rax
  1069cb:	48 8b 00             	mov    (%rax),%rax
  1069ce:	8b 40 38             	mov    0x38(%rax),%eax
  1069d1:	85 c0                	test   %eax,%eax
  1069d3:	74 1a                	je     1069ef <_ZN4AHCI4Port4ReadEmPvj+0x21f>
  1069d5:	48 8b 45 c8          	mov    -0x38(%rbp),%rax
  1069d9:	48 8b 00             	mov    (%rax),%rax
  1069dc:	8b 40 10             	mov    0x10(%rax),%eax
  1069df:	25 00 00 00 40       	and    $0x40000000,%eax
  1069e4:	85 c0                	test   %eax,%eax
  1069e6:	74 df                	je     1069c7 <_ZN4AHCI4Port4ReadEmPvj+0x1f7>
  1069e8:	b8 00 00 00 00       	mov    $0x0,%eax
  1069ed:	eb 06                	jmp    1069f5 <_ZN4AHCI4Port4ReadEmPvj+0x225>
  1069ef:	90                   	nop
  1069f0:	b8 01 00 00 00       	mov    $0x1,%eax
  1069f5:	c9                   	leaveq 
  1069f6:	c3                   	retq   
  1069f7:	90                   	nop

00000000001069f8 <_ZN4AHCI4Port5WriteEmPvj>:
  1069f8:	f3 0f 1e fa          	endbr64 
  1069fc:	55                   	push   %rbp
  1069fd:	48 89 e5             	mov    %rsp,%rbp
  106a00:	48 83 ec 50          	sub    $0x50,%rsp
  106a04:	48 89 7d c8          	mov    %rdi,-0x38(%rbp)
  106a08:	48 89 75 c0          	mov    %rsi,-0x40(%rbp)
  106a0c:	48 89 55 b8          	mov    %rdx,-0x48(%rbp)
  106a10:	89 4d b4             	mov    %ecx,-0x4c(%rbp)
  106a13:	48 8b 45 c0          	mov    -0x40(%rbp),%rax
  106a17:	89 45 f4             	mov    %eax,-0xc(%rbp)
  106a1a:	48 8b 45 c0          	mov    -0x40(%rbp),%rax
  106a1e:	48 c1 e8 20          	shr    $0x20,%rax
  106a22:	89 45 f0             	mov    %eax,-0x10(%rbp)
  106a25:	48 8b 45 c8          	mov    -0x38(%rbp),%rax
  106a29:	48 8b 00             	mov    (%rax),%rax
  106a2c:	c7 40 10 ff ff ff ff 	movl   $0xffffffff,0x10(%rax)
  106a33:	48 8b 45 c8          	mov    -0x38(%rbp),%rax
  106a37:	48 8b 00             	mov    (%rax),%rax
  106a3a:	8b 00                	mov    (%rax),%eax
  106a3c:	89 c0                	mov    %eax,%eax
  106a3e:	48 89 45 e8          	mov    %rax,-0x18(%rbp)
  106a42:	48 8b 45 e8          	mov    -0x18(%rbp),%rax
  106a46:	0f b6 10             	movzbl (%rax),%edx
  106a49:	83 e2 e0             	and    $0xffffffe0,%edx
  106a4c:	83 ca 05             	or     $0x5,%edx
  106a4f:	88 10                	mov    %dl,(%rax)
  106a51:	48 8b 45 e8          	mov    -0x18(%rbp),%rax
  106a55:	0f b6 10             	movzbl (%rax),%edx
  106a58:	83 ca 40             	or     $0x40,%edx
  106a5b:	88 10                	mov    %dl,(%rax)
  106a5d:	48 8b 45 e8          	mov    -0x18(%rbp),%rax
  106a61:	66 c7 40 02 01 00    	movw   $0x1,0x2(%rax)
  106a67:	48 8b 45 e8          	mov    -0x18(%rbp),%rax
  106a6b:	8b 40 08             	mov    0x8(%rax),%eax
  106a6e:	89 c0                	mov    %eax,%eax
  106a70:	48 89 45 e0          	mov    %rax,-0x20(%rbp)
  106a74:	48 8b 45 e8          	mov    -0x18(%rbp),%rax
  106a78:	0f b7 40 02          	movzwl 0x2(%rax),%eax
  106a7c:	0f b7 c0             	movzwl %ax,%eax
  106a7f:	83 e8 01             	sub    $0x1,%eax
  106a82:	48 98                	cltq   
  106a84:	48 83 c0 08          	add    $0x8,%rax
  106a88:	48 c1 e0 04          	shl    $0x4,%rax
  106a8c:	48 89 c2             	mov    %rax,%rdx
  106a8f:	48 8b 45 e0          	mov    -0x20(%rbp),%rax
  106a93:	be 00 00 00 00       	mov    $0x0,%esi
  106a98:	48 89 c7             	mov    %rax,%rdi
  106a9b:	e8 a3 61 00 00       	callq  10cc43 <_Z6memsetPvim>
  106aa0:	48 8b 45 b8          	mov    -0x48(%rbp),%rax
  106aa4:	89 c2                	mov    %eax,%edx
  106aa6:	48 8b 45 e0          	mov    -0x20(%rbp),%rax
  106aaa:	89 90 80 00 00 00    	mov    %edx,0x80(%rax)
  106ab0:	48 8b 45 b8          	mov    -0x48(%rbp),%rax
  106ab4:	48 c1 e8 20          	shr    $0x20,%rax
  106ab8:	89 c2                	mov    %eax,%edx
  106aba:	48 8b 45 e0          	mov    -0x20(%rbp),%rax
  106abe:	89 90 84 00 00 00    	mov    %edx,0x84(%rax)
  106ac4:	8b 45 b4             	mov    -0x4c(%rbp),%eax
  106ac7:	c1 e0 09             	shl    $0x9,%eax
  106aca:	83 e8 01             	sub    $0x1,%eax
  106acd:	25 ff ff 3f 00       	and    $0x3fffff,%eax
  106ad2:	89 c2                	mov    %eax,%edx
  106ad4:	48 8b 45 e0          	mov    -0x20(%rbp),%rax
  106ad8:	89 d1                	mov    %edx,%ecx
  106ada:	81 e1 ff ff 3f 00    	and    $0x3fffff,%ecx
  106ae0:	8b 90 8c 00 00 00    	mov    0x8c(%rax),%edx
  106ae6:	81 e2 00 00 c0 ff    	and    $0xffc00000,%edx
  106aec:	09 ca                	or     %ecx,%edx
  106aee:	89 90 8c 00 00 00    	mov    %edx,0x8c(%rax)
  106af4:	48 8b 45 e0          	mov    -0x20(%rbp),%rax
  106af8:	0f b6 90 8f 00 00 00 	movzbl 0x8f(%rax),%edx
  106aff:	83 ca 80             	or     $0xffffff80,%edx
  106b02:	88 90 8f 00 00 00    	mov    %dl,0x8f(%rax)
  106b08:	48 8b 45 e0          	mov    -0x20(%rbp),%rax
  106b0c:	48 89 45 d8          	mov    %rax,-0x28(%rbp)
  106b10:	48 8b 45 d8          	mov    -0x28(%rbp),%rax
  106b14:	c6 00 27             	movb   $0x27,(%rax)
  106b17:	48 8b 45 d8          	mov    -0x28(%rbp),%rax
  106b1b:	0f b6 50 01          	movzbl 0x1(%rax),%edx
  106b1f:	83 ca 80             	or     $0xffffff80,%edx
  106b22:	88 50 01             	mov    %dl,0x1(%rax)
  106b25:	48 8b 45 d8          	mov    -0x28(%rbp),%rax
  106b29:	c6 40 02 25          	movb   $0x25,0x2(%rax)
  106b2d:	8b 45 f4             	mov    -0xc(%rbp),%eax
  106b30:	89 c2                	mov    %eax,%edx
  106b32:	48 8b 45 d8          	mov    -0x28(%rbp),%rax
  106b36:	88 50 04             	mov    %dl,0x4(%rax)
  106b39:	8b 45 f4             	mov    -0xc(%rbp),%eax
  106b3c:	c1 e8 08             	shr    $0x8,%eax
  106b3f:	89 c2                	mov    %eax,%edx
  106b41:	48 8b 45 d8          	mov    -0x28(%rbp),%rax
  106b45:	88 50 05             	mov    %dl,0x5(%rax)
  106b48:	8b 45 f4             	mov    -0xc(%rbp),%eax
  106b4b:	c1 e8 10             	shr    $0x10,%eax
  106b4e:	89 c2                	mov    %eax,%edx
  106b50:	48 8b 45 d8          	mov    -0x28(%rbp),%rax
  106b54:	88 50 06             	mov    %dl,0x6(%rax)
  106b57:	8b 45 f0             	mov    -0x10(%rbp),%eax
  106b5a:	89 c2                	mov    %eax,%edx
  106b5c:	48 8b 45 d8          	mov    -0x28(%rbp),%rax
  106b60:	88 50 08             	mov    %dl,0x8(%rax)
  106b63:	8b 45 f0             	mov    -0x10(%rbp),%eax
  106b66:	c1 e8 08             	shr    $0x8,%eax
  106b69:	89 c2                	mov    %eax,%edx
  106b6b:	48 8b 45 d8          	mov    -0x28(%rbp),%rax
  106b6f:	88 50 09             	mov    %dl,0x9(%rax)
  106b72:	8b 45 f0             	mov    -0x10(%rbp),%eax
  106b75:	c1 e8 10             	shr    $0x10,%eax
  106b78:	89 c2                	mov    %eax,%edx
  106b7a:	48 8b 45 d8          	mov    -0x28(%rbp),%rax
  106b7e:	88 50 09             	mov    %dl,0x9(%rax)
  106b81:	48 8b 45 d8          	mov    -0x28(%rbp),%rax
  106b85:	c6 40 07 40          	movb   $0x40,0x7(%rax)
  106b89:	8b 45 b4             	mov    -0x4c(%rbp),%eax
  106b8c:	89 c2                	mov    %eax,%edx
  106b8e:	48 8b 45 d8          	mov    -0x28(%rbp),%rax
  106b92:	88 50 0c             	mov    %dl,0xc(%rax)
  106b95:	8b 45 b4             	mov    -0x4c(%rbp),%eax
  106b98:	c1 e8 08             	shr    $0x8,%eax
  106b9b:	89 c2                	mov    %eax,%edx
  106b9d:	48 8b 45 d8          	mov    -0x28(%rbp),%rax
  106ba1:	88 50 0d             	mov    %dl,0xd(%rax)
  106ba4:	48 c7 45 f8 00 00 00 	movq   $0x0,-0x8(%rbp)
  106bab:	00 
  106bac:	48 8b 45 c8          	mov    -0x38(%rbp),%rax
  106bb0:	48 8b 00             	mov    (%rax),%rax
  106bb3:	8b 40 20             	mov    0x20(%rax),%eax
  106bb6:	25 88 00 00 00       	and    $0x88,%eax
  106bbb:	85 c0                	test   %eax,%eax
  106bbd:	74 11                	je     106bd0 <_ZN4AHCI4Port5WriteEmPvj+0x1d8>
  106bbf:	48 81 7d f8 3f 42 0f 	cmpq   $0xf423f,-0x8(%rbp)
  106bc6:	00 
  106bc7:	77 07                	ja     106bd0 <_ZN4AHCI4Port5WriteEmPvj+0x1d8>
  106bc9:	48 83 45 f8 01       	addq   $0x1,-0x8(%rbp)
  106bce:	eb dc                	jmp    106bac <_ZN4AHCI4Port5WriteEmPvj+0x1b4>
  106bd0:	48 81 7d f8 40 42 0f 	cmpq   $0xf4240,-0x8(%rbp)
  106bd7:	00 
  106bd8:	75 07                	jne    106be1 <_ZN4AHCI4Port5WriteEmPvj+0x1e9>
  106bda:	b8 00 00 00 00       	mov    $0x0,%eax
  106bdf:	eb 3c                	jmp    106c1d <_ZN4AHCI4Port5WriteEmPvj+0x225>
  106be1:	48 8b 45 c8          	mov    -0x38(%rbp),%rax
  106be5:	48 8b 00             	mov    (%rax),%rax
  106be8:	c7 40 38 01 00 00 00 	movl   $0x1,0x38(%rax)
  106bef:	48 8b 45 c8          	mov    -0x38(%rbp),%rax
  106bf3:	48 8b 00             	mov    (%rax),%rax
  106bf6:	8b 40 38             	mov    0x38(%rax),%eax
  106bf9:	85 c0                	test   %eax,%eax
  106bfb:	74 1a                	je     106c17 <_ZN4AHCI4Port5WriteEmPvj+0x21f>
  106bfd:	48 8b 45 c8          	mov    -0x38(%rbp),%rax
  106c01:	48 8b 00             	mov    (%rax),%rax
  106c04:	8b 40 10             	mov    0x10(%rax),%eax
  106c07:	25 00 00 00 40       	and    $0x40000000,%eax
  106c0c:	85 c0                	test   %eax,%eax
  106c0e:	74 df                	je     106bef <_ZN4AHCI4Port5WriteEmPvj+0x1f7>
  106c10:	b8 00 00 00 00       	mov    $0x0,%eax
  106c15:	eb 06                	jmp    106c1d <_ZN4AHCI4Port5WriteEmPvj+0x225>
  106c17:	90                   	nop
  106c18:	b8 01 00 00 00       	mov    $0x1,%eax
  106c1d:	c9                   	leaveq 
  106c1e:	c3                   	retq   
  106c1f:	90                   	nop

0000000000106c20 <_ZN4AHCI10AHCIDriverC1EPN3PCI15PCIDeviceHeaderE>:
  106c20:	f3 0f 1e fa          	endbr64 
  106c24:	55                   	push   %rbp
  106c25:	48 89 e5             	mov    %rsp,%rbp
  106c28:	48 83 ec 10          	sub    $0x10,%rsp
  106c2c:	48 89 7d f8          	mov    %rdi,-0x8(%rbp)
  106c30:	48 89 75 f0          	mov    %rsi,-0x10(%rbp)
  106c34:	48 8b 45 f8          	mov    -0x8(%rbp),%rax
  106c38:	48 8b 55 f0          	mov    -0x10(%rbp),%rdx
  106c3c:	48 89 10             	mov    %rdx,(%rax)
  106c3f:	48 8d 3d 72 a4 00 00 	lea    0xa472(%rip),%rdi        # 1110b8 <_ZL8sc_ascii+0x58>
  106c46:	b8 00 00 00 00       	mov    $0x0,%eax
  106c4b:	e8 b4 5b 00 00       	callq  10c804 <_Z7kprintfPKcz>
  106c50:	48 8b 45 f0          	mov    -0x10(%rbp),%rax
  106c54:	8b 40 24             	mov    0x24(%rax),%eax
  106c57:	89 c0                	mov    %eax,%eax
  106c59:	48 89 c2             	mov    %rax,%rdx
  106c5c:	48 8b 45 f8          	mov    -0x8(%rbp),%rax
  106c60:	48 89 50 08          	mov    %rdx,0x8(%rax)
  106c64:	48 8b 45 f8          	mov    -0x8(%rbp),%rax
  106c68:	48 8b 40 08          	mov    0x8(%rax),%rax
  106c6c:	48 89 c2             	mov    %rax,%rdx
  106c6f:	48 8b 45 f8          	mov    -0x8(%rbp),%rax
  106c73:	48 8b 40 08          	mov    0x8(%rax),%rax
  106c77:	b9 03 00 00 00       	mov    $0x3,%ecx
  106c7c:	48 89 c6             	mov    %rax,%rsi
  106c7f:	48 8d 3d c2 e3 00 00 	lea    0xe3c2(%rip),%rdi        # 115048 <KernelDirectory>
  106c86:	e8 4b 94 ff ff       	callq  1000d6 <_ZN16PageTableManager9MapMemoryEmmm>
  106c8b:	90                   	nop
  106c8c:	c9                   	leaveq 
  106c8d:	c3                   	retq   

0000000000106c8e <_ZN4AHCI10AHCIDeviceC1EPNS_4PortE>:
  106c8e:	f3 0f 1e fa          	endbr64 
  106c92:	55                   	push   %rbp
  106c93:	48 89 e5             	mov    %rsp,%rbp
  106c96:	48 83 ec 10          	sub    $0x10,%rsp
  106c9a:	48 89 7d f8          	mov    %rdi,-0x8(%rbp)
  106c9e:	48 89 75 f0          	mov    %rsi,-0x10(%rbp)
  106ca2:	48 8b 45 f8          	mov    -0x8(%rbp),%rax
  106ca6:	48 89 c7             	mov    %rax,%rdi
  106ca9:	e8 82 74 00 00       	callq  10e130 <_ZN6DeviceC1Ev>
  106cae:	48 8d 15 63 88 00 00 	lea    0x8863(%rip),%rdx        # 10f518 <_ZTVN4AHCI10AHCIDeviceE+0x10>
  106cb5:	48 8b 45 f8          	mov    -0x8(%rbp),%rax
  106cb9:	48 89 10             	mov    %rdx,(%rax)
  106cbc:	48 8b 45 f8          	mov    -0x8(%rbp),%rax
  106cc0:	48 8b 55 f0          	mov    -0x10(%rbp),%rdx
  106cc4:	48 89 50 08          	mov    %rdx,0x8(%rax)
  106cc8:	90                   	nop
  106cc9:	c9                   	leaveq 
  106cca:	c3                   	retq   
  106ccb:	90                   	nop

0000000000106ccc <_ZN4AHCI10AHCIDevice4ReadEmPvm>:
  106ccc:	f3 0f 1e fa          	endbr64 
  106cd0:	55                   	push   %rbp
  106cd1:	48 89 e5             	mov    %rsp,%rbp
  106cd4:	48 83 ec 20          	sub    $0x20,%rsp
  106cd8:	48 89 7d f8          	mov    %rdi,-0x8(%rbp)
  106cdc:	48 89 75 f0          	mov    %rsi,-0x10(%rbp)
  106ce0:	48 89 55 e8          	mov    %rdx,-0x18(%rbp)
  106ce4:	48 89 4d e0          	mov    %rcx,-0x20(%rbp)
  106ce8:	48 8b 45 f8          	mov    -0x8(%rbp),%rax
  106cec:	48 8b 40 08          	mov    0x8(%rax),%rax
  106cf0:	48 8b 55 e0          	mov    -0x20(%rbp),%rdx
  106cf4:	89 d1                	mov    %edx,%ecx
  106cf6:	48 8b 55 e8          	mov    -0x18(%rbp),%rdx
  106cfa:	48 8b 75 f0          	mov    -0x10(%rbp),%rsi
  106cfe:	48 89 c7             	mov    %rax,%rdi
  106d01:	e8 ca fa ff ff       	callq  1067d0 <_ZN4AHCI4Port4ReadEmPvj>
  106d06:	90                   	nop
  106d07:	c9                   	leaveq 
  106d08:	c3                   	retq   
  106d09:	90                   	nop

0000000000106d0a <_ZN4AHCI10AHCIDevice5WriteEmPvm>:
  106d0a:	f3 0f 1e fa          	endbr64 
  106d0e:	55                   	push   %rbp
  106d0f:	48 89 e5             	mov    %rsp,%rbp
  106d12:	48 83 ec 20          	sub    $0x20,%rsp
  106d16:	48 89 7d f8          	mov    %rdi,-0x8(%rbp)
  106d1a:	48 89 75 f0          	mov    %rsi,-0x10(%rbp)
  106d1e:	48 89 55 e8          	mov    %rdx,-0x18(%rbp)
  106d22:	48 89 4d e0          	mov    %rcx,-0x20(%rbp)
  106d26:	48 8b 45 f8          	mov    -0x8(%rbp),%rax
  106d2a:	48 8b 40 08          	mov    0x8(%rax),%rax
  106d2e:	48 8b 55 e0          	mov    -0x20(%rbp),%rdx
  106d32:	89 d1                	mov    %edx,%ecx
  106d34:	48 8b 55 e8          	mov    -0x18(%rbp),%rdx
  106d38:	48 8b 75 f0          	mov    -0x10(%rbp),%rsi
  106d3c:	48 89 c7             	mov    %rax,%rdi
  106d3f:	e8 b4 fc ff ff       	callq  1069f8 <_ZN4AHCI4Port5WriteEmPvj>
  106d44:	90                   	nop
  106d45:	c9                   	leaveq 
  106d46:	c3                   	retq   

0000000000106d47 <_Z17InitialiseDevicesv>:
  106d47:	f3 0f 1e fa          	endbr64 
  106d4b:	55                   	push   %rbp
  106d4c:	48 89 e5             	mov    %rsp,%rbp
  106d4f:	ba 80 00 00 00       	mov    $0x80,%edx
  106d54:	be 00 00 00 00       	mov    $0x0,%esi
  106d59:	48 8d 3d 20 08 01 00 	lea    0x10820(%rip),%rdi        # 117580 <devices>
  106d60:	e8 de 5e 00 00       	callq  10cc43 <_Z6memsetPvim>
  106d65:	90                   	nop
  106d66:	5d                   	pop    %rbp
  106d67:	c3                   	retq   

0000000000106d68 <_Z14RegisterDeviceP6Device>:
  106d68:	f3 0f 1e fa          	endbr64 
  106d6c:	55                   	push   %rbp
  106d6d:	48 89 e5             	mov    %rsp,%rbp
  106d70:	48 83 ec 20          	sub    $0x20,%rsp
  106d74:	48 89 7d e8          	mov    %rdi,-0x18(%rbp)
  106d78:	c7 45 fc 00 00 00 00 	movl   $0x0,-0x4(%rbp)
  106d7f:	83 7d fc 0f          	cmpl   $0xf,-0x4(%rbp)
  106d83:	77 3d                	ja     106dc2 <_Z14RegisterDeviceP6Device+0x5a>
  106d85:	8b 45 fc             	mov    -0x4(%rbp),%eax
  106d88:	48 8d 14 c5 00 00 00 	lea    0x0(,%rax,8),%rdx
  106d8f:	00 
  106d90:	48 8d 05 e9 07 01 00 	lea    0x107e9(%rip),%rax        # 117580 <devices>
  106d97:	48 8b 04 02          	mov    (%rdx,%rax,1),%rax
  106d9b:	48 85 c0             	test   %rax,%rax
  106d9e:	75 1c                	jne    106dbc <_Z14RegisterDeviceP6Device+0x54>
  106da0:	8b 45 fc             	mov    -0x4(%rbp),%eax
  106da3:	48 8d 0c c5 00 00 00 	lea    0x0(,%rax,8),%rcx
  106daa:	00 
  106dab:	48 8d 15 ce 07 01 00 	lea    0x107ce(%rip),%rdx        # 117580 <devices>
  106db2:	48 8b 45 e8          	mov    -0x18(%rbp),%rax
  106db6:	48 89 04 11          	mov    %rax,(%rcx,%rdx,1)
  106dba:	eb 18                	jmp    106dd4 <_Z14RegisterDeviceP6Device+0x6c>
  106dbc:	83 45 fc 01          	addl   $0x1,-0x4(%rbp)
  106dc0:	eb bd                	jmp    106d7f <_Z14RegisterDeviceP6Device+0x17>
  106dc2:	48 8d 3d 17 a3 00 00 	lea    0xa317(%rip),%rdi        # 1110e0 <_ZL8sc_ascii+0x80>
  106dc9:	b8 00 00 00 00       	mov    $0x0,%eax
  106dce:	e8 31 5a 00 00       	callq  10c804 <_Z7kprintfPKcz>
  106dd3:	f4                   	hlt    
  106dd4:	c9                   	leaveq 
  106dd5:	c3                   	retq   

0000000000106dd6 <_Z16UnregisterDeviceP6Device>:
  106dd6:	f3 0f 1e fa          	endbr64 
  106dda:	55                   	push   %rbp
  106ddb:	48 89 e5             	mov    %rsp,%rbp
  106dde:	48 83 ec 20          	sub    $0x20,%rsp
  106de2:	48 89 7d e8          	mov    %rdi,-0x18(%rbp)
  106de6:	c7 45 fc 00 00 00 00 	movl   $0x0,-0x4(%rbp)
  106ded:	83 7d fc 0f          	cmpl   $0xf,-0x4(%rbp)
  106df1:	77 3e                	ja     106e31 <_Z16UnregisterDeviceP6Device+0x5b>
  106df3:	8b 45 fc             	mov    -0x4(%rbp),%eax
  106df6:	48 8d 14 c5 00 00 00 	lea    0x0(,%rax,8),%rdx
  106dfd:	00 
  106dfe:	48 8d 05 7b 07 01 00 	lea    0x1077b(%rip),%rax        # 117580 <devices>
  106e05:	48 8b 04 02          	mov    (%rdx,%rax,1),%rax
  106e09:	48 39 45 e8          	cmp    %rax,-0x18(%rbp)
  106e0d:	75 1c                	jne    106e2b <_Z16UnregisterDeviceP6Device+0x55>
  106e0f:	8b 45 fc             	mov    -0x4(%rbp),%eax
  106e12:	48 8d 14 c5 00 00 00 	lea    0x0(,%rax,8),%rdx
  106e19:	00 
  106e1a:	48 8d 05 5f 07 01 00 	lea    0x1075f(%rip),%rax        # 117580 <devices>
  106e21:	48 c7 04 02 00 00 00 	movq   $0x0,(%rdx,%rax,1)
  106e28:	00 
  106e29:	eb 18                	jmp    106e43 <_Z16UnregisterDeviceP6Device+0x6d>
  106e2b:	83 45 fc 01          	addl   $0x1,-0x4(%rbp)
  106e2f:	eb bc                	jmp    106ded <_Z16UnregisterDeviceP6Device+0x17>
  106e31:	48 8d 3d d0 a2 00 00 	lea    0xa2d0(%rip),%rdi        # 111108 <_ZL8sc_ascii+0xa8>
  106e38:	b8 00 00 00 00       	mov    $0x0,%eax
  106e3d:	e8 c2 59 00 00       	callq  10c804 <_Z7kprintfPKcz>
  106e42:	f4                   	hlt    
  106e43:	c9                   	leaveq 
  106e44:	c3                   	retq   
  106e45:	90                   	nop

0000000000106e46 <_Z22LocateFilesystemsFAT32P6Device>:
  106e46:	f3 0f 1e fa          	endbr64 
  106e4a:	55                   	push   %rbp
  106e4b:	48 89 e5             	mov    %rsp,%rbp
  106e4e:	53                   	push   %rbx
  106e4f:	48 83 ec 38          	sub    $0x38,%rsp
  106e53:	48 89 7d c8          	mov    %rdi,-0x38(%rbp)
  106e57:	48 c7 45 d8 00 06 00 	movq   $0x600,-0x28(%rbp)
  106e5e:	00 
  106e5f:	0f b6 05 ba 0a 01 00 	movzbl 0x10aba(%rip),%eax        # 117920 <fromUEFI>
  106e66:	84 c0                	test   %al,%al
  106e68:	75 66                	jne    106ed0 <_Z22LocateFilesystemsFAT32P6Device+0x8a>
  106e6a:	48 c7 45 d0 be 01 00 	movq   $0x1be,-0x30(%rbp)
  106e71:	00 
  106e72:	48 8b 55 d8          	mov    -0x28(%rbp),%rdx
  106e76:	48 8b 45 d0          	mov    -0x30(%rbp),%rax
  106e7a:	48 01 d0             	add    %rdx,%rax
  106e7d:	48 89 45 e8          	mov    %rax,-0x18(%rbp)
  106e81:	c7 45 e4 00 00 00 00 	movl   $0x0,-0x1c(%rbp)
  106e88:	83 7d e4 03          	cmpl   $0x3,-0x1c(%rbp)
  106e8c:	77 42                	ja     106ed0 <_Z22LocateFilesystemsFAT32P6Device+0x8a>
  106e8e:	48 8b 45 e8          	mov    -0x18(%rbp),%rax
  106e92:	0f b6 40 04          	movzbl 0x4(%rax),%eax
  106e96:	3c 0b                	cmp    $0xb,%al
  106e98:	75 2b                	jne    106ec5 <_Z22LocateFilesystemsFAT32P6Device+0x7f>
  106e9a:	bf 20 00 00 00       	mov    $0x20,%edi
  106e9f:	e8 39 cb ff ff       	callq  1039dd <_Znwm>
  106ea4:	48 89 c3             	mov    %rax,%rbx
  106ea7:	48 8b 45 e8          	mov    -0x18(%rbp),%rax
  106eab:	8b 50 08             	mov    0x8(%rax),%edx
  106eae:	48 8b 45 c8          	mov    -0x38(%rbp),%rax
  106eb2:	48 89 c6             	mov    %rax,%rsi
  106eb5:	48 89 df             	mov    %rbx,%rdi
  106eb8:	e8 91 00 00 00       	callq  106f4e <_ZN5FAT32C1EP6Devicej>
  106ebd:	48 89 df             	mov    %rbx,%rdi
  106ec0:	e8 a0 43 00 00       	callq  10b265 <_Z18RegisterFilesystemP10Filesystem>
  106ec5:	48 83 45 e8 10       	addq   $0x10,-0x18(%rbp)
  106eca:	83 45 e4 01          	addl   $0x1,-0x1c(%rbp)
  106ece:	eb b8                	jmp    106e88 <_Z22LocateFilesystemsFAT32P6Device+0x42>
  106ed0:	90                   	nop
  106ed1:	48 83 c4 38          	add    $0x38,%rsp
  106ed5:	5b                   	pop    %rbx
  106ed6:	5d                   	pop    %rbp
  106ed7:	c3                   	retq   

0000000000106ed8 <_ZNK16FAT32_ActiveFile7GetSizeEv>:
  106ed8:	f3 0f 1e fa          	endbr64 
  106edc:	55                   	push   %rbp
  106edd:	48 89 e5             	mov    %rsp,%rbp
  106ee0:	48 83 ec 08          	sub    $0x8,%rsp
  106ee4:	48 89 7d f8          	mov    %rdi,-0x8(%rbp)
  106ee8:	48 8b 45 f8          	mov    -0x8(%rbp),%rax
  106eec:	8b 80 94 00 00 00    	mov    0x94(%rax),%eax
  106ef2:	89 c0                	mov    %eax,%eax
  106ef4:	c9                   	leaveq 
  106ef5:	c3                   	retq   

0000000000106ef6 <_ZNK16FAT32_ActiveFile7GetNameEv>:
  106ef6:	f3 0f 1e fa          	endbr64 
  106efa:	55                   	push   %rbp
  106efb:	48 89 e5             	mov    %rsp,%rbp
  106efe:	48 83 ec 08          	sub    $0x8,%rsp
  106f02:	48 89 7d f8          	mov    %rdi,-0x8(%rbp)
  106f06:	48 8b 45 f8          	mov    -0x8(%rbp),%rax
  106f0a:	48 83 c0 10          	add    $0x10,%rax
  106f0e:	c9                   	leaveq 
  106f0f:	c3                   	retq   

0000000000106f10 <_ZNK16FAT32_ActiveFile7GetPathEv>:
  106f10:	f3 0f 1e fa          	endbr64 
  106f14:	55                   	push   %rbp
  106f15:	48 89 e5             	mov    %rsp,%rbp
  106f18:	48 83 ec 08          	sub    $0x8,%rsp
  106f1c:	48 89 7d f8          	mov    %rdi,-0x8(%rbp)
  106f20:	48 8b 45 f8          	mov    -0x8(%rbp),%rax
  106f24:	48 8b 80 a8 00 00 00 	mov    0xa8(%rax),%rax
  106f2b:	c9                   	leaveq 
  106f2c:	c3                   	retq   
  106f2d:	90                   	nop

0000000000106f2e <_ZNK16FAT32_ActiveFile13GetAttributesEv>:
  106f2e:	f3 0f 1e fa          	endbr64 
  106f32:	55                   	push   %rbp
  106f33:	48 89 e5             	mov    %rsp,%rbp
  106f36:	48 83 ec 08          	sub    $0x8,%rsp
  106f3a:	48 89 7d f8          	mov    %rdi,-0x8(%rbp)
  106f3e:	48 8b 45 f8          	mov    -0x8(%rbp),%rax
  106f42:	0f b6 80 98 00 00 00 	movzbl 0x98(%rax),%eax
  106f49:	0f b6 c0             	movzbl %al,%eax
  106f4c:	c9                   	leaveq 
  106f4d:	c3                   	retq   

0000000000106f4e <_ZN5FAT32C1EP6Devicej>:
  106f4e:	f3 0f 1e fa          	endbr64 
  106f52:	55                   	push   %rbp
  106f53:	48 89 e5             	mov    %rsp,%rbp
  106f56:	53                   	push   %rbx
  106f57:	48 83 ec 28          	sub    $0x28,%rsp
  106f5b:	48 89 7d e8          	mov    %rdi,-0x18(%rbp)
  106f5f:	48 89 75 e0          	mov    %rsi,-0x20(%rbp)
  106f63:	89 55 dc             	mov    %edx,-0x24(%rbp)
  106f66:	48 8b 45 e8          	mov    -0x18(%rbp),%rax
  106f6a:	8b 55 dc             	mov    -0x24(%rbp),%edx
  106f6d:	48 8b 4d e0          	mov    -0x20(%rbp),%rcx
  106f71:	48 89 ce             	mov    %rcx,%rsi
  106f74:	48 89 c7             	mov    %rax,%rdi
  106f77:	e8 f2 73 00 00       	callq  10e36e <_ZN10FilesystemC1EP6Devicej>
  106f7c:	48 8d 15 cd 85 00 00 	lea    0x85cd(%rip),%rdx        # 10f550 <_ZTV5FAT32+0x10>
  106f83:	48 8b 45 e8          	mov    -0x18(%rbp),%rax
  106f87:	48 89 10             	mov    %rdx,(%rax)
  106f8a:	bf 48 00 00 00       	mov    $0x48,%edi
  106f8f:	e8 49 ca ff ff       	callq  1039dd <_Znwm>
  106f94:	48 89 c3             	mov    %rax,%rbx
  106f97:	8b 55 dc             	mov    -0x24(%rbp),%edx
  106f9a:	48 8b 45 e0          	mov    -0x20(%rbp),%rax
  106f9e:	48 89 c6             	mov    %rax,%rsi
  106fa1:	48 89 df             	mov    %rbx,%rdi
  106fa4:	e8 1d 0d 00 00       	callq  107cc6 <_ZN11FAT32DriverC1EP6Devicej>
  106fa9:	48 8b 45 e8          	mov    -0x18(%rbp),%rax
  106fad:	48 89 58 18          	mov    %rbx,0x18(%rax)
  106fb1:	90                   	nop
  106fb2:	48 83 c4 28          	add    $0x28,%rsp
  106fb6:	5b                   	pop    %rbx
  106fb7:	5d                   	pop    %rbp
  106fb8:	c3                   	retq   
  106fb9:	90                   	nop

0000000000106fba <_ZN5FAT32D1Ev>:
  106fba:	f3 0f 1e fa          	endbr64 
  106fbe:	55                   	push   %rbp
  106fbf:	48 89 e5             	mov    %rsp,%rbp
  106fc2:	53                   	push   %rbx
  106fc3:	48 83 ec 18          	sub    $0x18,%rsp
  106fc7:	48 89 7d e8          	mov    %rdi,-0x18(%rbp)
  106fcb:	48 8d 15 7e 85 00 00 	lea    0x857e(%rip),%rdx        # 10f550 <_ZTV5FAT32+0x10>
  106fd2:	48 8b 45 e8          	mov    -0x18(%rbp),%rax
  106fd6:	48 89 10             	mov    %rdx,(%rax)
  106fd9:	48 8b 45 e8          	mov    -0x18(%rbp),%rax
  106fdd:	48 8b 58 18          	mov    0x18(%rax),%rbx
  106fe1:	48 85 db             	test   %rbx,%rbx
  106fe4:	74 15                	je     106ffb <_ZN5FAT32D1Ev+0x41>
  106fe6:	48 89 df             	mov    %rbx,%rdi
  106fe9:	e8 bc 0f 00 00       	callq  107faa <_ZN11FAT32DriverD1Ev>
  106fee:	be 48 00 00 00       	mov    $0x48,%esi
  106ff3:	48 89 df             	mov    %rbx,%rdi
  106ff6:	e8 5c ca ff ff       	callq  103a57 <_ZdlPvm>
  106ffb:	48 8b 45 e8          	mov    -0x18(%rbp),%rax
  106fff:	48 89 c7             	mov    %rax,%rdi
  107002:	e8 a5 73 00 00       	callq  10e3ac <_ZN10FilesystemD1Ev>
  107007:	90                   	nop
  107008:	48 83 c4 18          	add    $0x18,%rsp
  10700c:	5b                   	pop    %rbx
  10700d:	5d                   	pop    %rbp
  10700e:	c3                   	retq   
  10700f:	90                   	nop

0000000000107010 <_ZN5FAT328OpenFileEPKc>:
  107010:	f3 0f 1e fa          	endbr64 
  107014:	55                   	push   %rbp
  107015:	48 89 e5             	mov    %rsp,%rbp
  107018:	53                   	push   %rbx
  107019:	48 81 ec c8 00 00 00 	sub    $0xc8,%rsp
  107020:	48 89 bd 38 ff ff ff 	mov    %rdi,-0xc8(%rbp)
  107027:	48 89 b5 30 ff ff ff 	mov    %rsi,-0xd0(%rbp)
  10702e:	48 8b 85 38 ff ff ff 	mov    -0xc8(%rbp),%rax
  107035:	48 8b 40 18          	mov    0x18(%rax),%rax
  107039:	48 8d 95 40 ff ff ff 	lea    -0xc0(%rbp),%rdx
  107040:	48 8b 8d 30 ff ff ff 	mov    -0xd0(%rbp),%rcx
  107047:	48 89 ce             	mov    %rcx,%rsi
  10704a:	48 89 c7             	mov    %rax,%rdi
  10704d:	e8 ac 28 00 00       	callq  1098fe <_ZN11FAT32Driver8OpenFileEPKcP8DirEntry>
  107052:	89 45 ec             	mov    %eax,-0x14(%rbp)
  107055:	83 7d ec 00          	cmpl   $0x0,-0x14(%rbp)
  107059:	74 0a                	je     107065 <_ZN5FAT328OpenFileEPKc+0x55>
  10705b:	b8 00 00 00 00       	mov    $0x0,%eax
  107060:	e9 38 01 00 00       	jmpq   10719d <_ZN5FAT328OpenFileEPKc+0x18d>
  107065:	48 8b 85 30 ff ff ff 	mov    -0xd0(%rbp),%rax
  10706c:	48 89 c7             	mov    %rax,%rdi
  10706f:	e8 d0 53 00 00       	callq  10c444 <_Z6strlenPc>
  107074:	48 83 c0 01          	add    $0x1,%rax
  107078:	48 89 c7             	mov    %rax,%rdi
  10707b:	e8 7b c9 ff ff       	callq  1039fb <_Znam>
  107080:	48 89 45 e0          	mov    %rax,-0x20(%rbp)
  107084:	48 8b 95 30 ff ff ff 	mov    -0xd0(%rbp),%rdx
  10708b:	48 8b 45 e0          	mov    -0x20(%rbp),%rax
  10708f:	48 89 d6             	mov    %rdx,%rsi
  107092:	48 89 c7             	mov    %rax,%rdi
  107095:	e8 62 54 00 00       	callq  10c4fc <_Z6strcpyPcPKc>
  10709a:	bf b0 00 00 00       	mov    $0xb0,%edi
  10709f:	e8 39 c9 ff ff       	callq  1039dd <_Znwm>
  1070a4:	48 89 c3             	mov    %rax,%rbx
  1070a7:	48 89 de             	mov    %rbx,%rsi
  1070aa:	b8 00 00 00 00       	mov    $0x0,%eax
  1070af:	ba 16 00 00 00       	mov    $0x16,%edx
  1070b4:	48 89 f7             	mov    %rsi,%rdi
  1070b7:	48 89 d1             	mov    %rdx,%rcx
  1070ba:	f3 48 ab             	rep stos %rax,%es:(%rdi)
  1070bd:	48 89 df             	mov    %rbx,%rdi
  1070c0:	e8 09 73 00 00       	callq  10e3ce <_ZN16FAT32_ActiveFileC1Ev>
  1070c5:	48 89 5d d8          	mov    %rbx,-0x28(%rbp)
  1070c9:	48 8b 45 d8          	mov    -0x28(%rbp),%rax
  1070cd:	48 8b 55 e0          	mov    -0x20(%rbp),%rdx
  1070d1:	48 89 90 a8 00 00 00 	mov    %rdx,0xa8(%rax)
  1070d8:	48 8b 45 d8          	mov    -0x28(%rbp),%rax
  1070dc:	48 8b 8d 40 ff ff ff 	mov    -0xc0(%rbp),%rcx
  1070e3:	48 8b 9d 48 ff ff ff 	mov    -0xb8(%rbp),%rbx
  1070ea:	48 89 48 10          	mov    %rcx,0x10(%rax)
  1070ee:	48 89 58 18          	mov    %rbx,0x18(%rax)
  1070f2:	48 8b 8d 50 ff ff ff 	mov    -0xb0(%rbp),%rcx
  1070f9:	48 8b 9d 58 ff ff ff 	mov    -0xa8(%rbp),%rbx
  107100:	48 89 48 20          	mov    %rcx,0x20(%rax)
  107104:	48 89 58 28          	mov    %rbx,0x28(%rax)
  107108:	48 8b 8d 60 ff ff ff 	mov    -0xa0(%rbp),%rcx
  10710f:	48 8b 9d 68 ff ff ff 	mov    -0x98(%rbp),%rbx
  107116:	48 89 48 30          	mov    %rcx,0x30(%rax)
  10711a:	48 89 58 38          	mov    %rbx,0x38(%rax)
  10711e:	48 8b 8d 70 ff ff ff 	mov    -0x90(%rbp),%rcx
  107125:	48 8b 9d 78 ff ff ff 	mov    -0x88(%rbp),%rbx
  10712c:	48 89 48 40          	mov    %rcx,0x40(%rax)
  107130:	48 89 58 48          	mov    %rbx,0x48(%rax)
  107134:	48 8b 4d 80          	mov    -0x80(%rbp),%rcx
  107138:	48 8b 5d 88          	mov    -0x78(%rbp),%rbx
  10713c:	48 89 48 50          	mov    %rcx,0x50(%rax)
  107140:	48 89 58 58          	mov    %rbx,0x58(%rax)
  107144:	48 8b 4d 90          	mov    -0x70(%rbp),%rcx
  107148:	48 8b 5d 98          	mov    -0x68(%rbp),%rbx
  10714c:	48 89 48 60          	mov    %rcx,0x60(%rax)
  107150:	48 89 58 68          	mov    %rbx,0x68(%rax)
  107154:	48 8b 4d a0          	mov    -0x60(%rbp),%rcx
  107158:	48 8b 5d a8          	mov    -0x58(%rbp),%rbx
  10715c:	48 89 48 70          	mov    %rcx,0x70(%rax)
  107160:	48 89 58 78          	mov    %rbx,0x78(%rax)
  107164:	48 8b 4d b0          	mov    -0x50(%rbp),%rcx
  107168:	48 8b 5d b8          	mov    -0x48(%rbp),%rbx
  10716c:	48 89 88 80 00 00 00 	mov    %rcx,0x80(%rax)
  107173:	48 89 98 88 00 00 00 	mov    %rbx,0x88(%rax)
  10717a:	48 8b 4d c0          	mov    -0x40(%rbp),%rcx
  10717e:	48 8b 5d c8          	mov    -0x38(%rbp),%rbx
  107182:	48 89 88 90 00 00 00 	mov    %rcx,0x90(%rax)
  107189:	48 89 98 98 00 00 00 	mov    %rbx,0x98(%rax)
  107190:	8b 55 d0             	mov    -0x30(%rbp),%edx
  107193:	89 90 a0 00 00 00    	mov    %edx,0xa0(%rax)
  107199:	48 8b 45 d8          	mov    -0x28(%rbp),%rax
  10719d:	48 81 c4 c8 00 00 00 	add    $0xc8,%rsp
  1071a4:	5b                   	pop    %rbx
  1071a5:	5d                   	pop    %rbp
  1071a6:	c3                   	retq   
  1071a7:	90                   	nop

00000000001071a8 <_ZN5FAT329CloseFileEP10ActiveFile>:
  1071a8:	f3 0f 1e fa          	endbr64 
  1071ac:	55                   	push   %rbp
  1071ad:	48 89 e5             	mov    %rsp,%rbp
  1071b0:	53                   	push   %rbx
  1071b1:	48 83 ec 18          	sub    $0x18,%rsp
  1071b5:	48 89 7d e8          	mov    %rdi,-0x18(%rbp)
  1071b9:	48 89 75 e0          	mov    %rsi,-0x20(%rbp)
  1071bd:	48 8b 45 e0          	mov    -0x20(%rbp),%rax
  1071c1:	48 8b 80 a8 00 00 00 	mov    0xa8(%rax),%rax
  1071c8:	48 85 c0             	test   %rax,%rax
  1071cb:	74 13                	je     1071e0 <_ZN5FAT329CloseFileEP10ActiveFile+0x38>
  1071cd:	48 8b 45 e0          	mov    -0x20(%rbp),%rax
  1071d1:	48 8b 80 a8 00 00 00 	mov    0xa8(%rax),%rax
  1071d8:	48 89 c7             	mov    %rax,%rdi
  1071db:	e8 58 c8 ff ff       	callq  103a38 <_ZdaPv>
  1071e0:	48 8b 5d e0          	mov    -0x20(%rbp),%rbx
  1071e4:	48 85 db             	test   %rbx,%rbx
  1071e7:	74 15                	je     1071fe <_ZN5FAT329CloseFileEP10ActiveFile+0x56>
  1071e9:	48 89 df             	mov    %rbx,%rdi
  1071ec:	e8 5b 71 00 00       	callq  10e34c <_ZN10ActiveFileD1Ev>
  1071f1:	be 10 00 00 00       	mov    $0x10,%esi
  1071f6:	48 89 df             	mov    %rbx,%rdi
  1071f9:	e8 59 c8 ff ff       	callq  103a57 <_ZdlPvm>
  1071fe:	90                   	nop
  1071ff:	48 83 c4 18          	add    $0x18,%rsp
  107203:	5b                   	pop    %rbx
  107204:	5d                   	pop    %rbp
  107205:	c3                   	retq   

0000000000107206 <_ZN5FAT3210CreateFileEPKcS1_j>:
  107206:	f3 0f 1e fa          	endbr64 
  10720a:	55                   	push   %rbp
  10720b:	48 89 e5             	mov    %rsp,%rbp
  10720e:	53                   	push   %rbx
  10720f:	48 81 ec f8 00 00 00 	sub    $0xf8,%rsp
  107216:	48 89 bd 18 ff ff ff 	mov    %rdi,-0xe8(%rbp)
  10721d:	48 89 b5 10 ff ff ff 	mov    %rsi,-0xf0(%rbp)
  107224:	48 89 95 08 ff ff ff 	mov    %rdx,-0xf8(%rbp)
  10722b:	89 8d 04 ff ff ff    	mov    %ecx,-0xfc(%rbp)
  107231:	c7 45 ec 00 02 00 00 	movl   $0x200,-0x14(%rbp)
  107238:	c6 45 eb 00          	movb   $0x0,-0x15(%rbp)
  10723c:	8b 85 04 ff ff ff    	mov    -0xfc(%rbp),%eax
  107242:	83 e0 01             	and    $0x1,%eax
  107245:	85 c0                	test   %eax,%eax
  107247:	0f 95 c0             	setne  %al
  10724a:	89 c2                	mov    %eax,%edx
  10724c:	0f b6 45 eb          	movzbl -0x15(%rbp),%eax
  107250:	09 d0                	or     %edx,%eax
  107252:	88 45 eb             	mov    %al,-0x15(%rbp)
  107255:	8b 85 04 ff ff ff    	mov    -0xfc(%rbp),%eax
  10725b:	83 e0 02             	and    $0x2,%eax
  10725e:	89 c2                	mov    %eax,%edx
  107260:	0f b6 45 eb          	movzbl -0x15(%rbp),%eax
  107264:	09 d0                	or     %edx,%eax
  107266:	88 45 eb             	mov    %al,-0x15(%rbp)
  107269:	8b 85 04 ff ff ff    	mov    -0xfc(%rbp),%eax
  10726f:	83 e0 04             	and    $0x4,%eax
  107272:	89 c2                	mov    %eax,%edx
  107274:	0f b6 45 eb          	movzbl -0x15(%rbp),%eax
  107278:	09 d0                	or     %edx,%eax
  10727a:	88 45 eb             	mov    %al,-0x15(%rbp)
  10727d:	8b 85 04 ff ff ff    	mov    -0xfc(%rbp),%eax
  107283:	83 e0 08             	and    $0x8,%eax
  107286:	89 c2                	mov    %eax,%edx
  107288:	0f b6 45 eb          	movzbl -0x15(%rbp),%eax
  10728c:	09 d0                	or     %edx,%eax
  10728e:	88 45 eb             	mov    %al,-0x15(%rbp)
  107291:	8b 85 04 ff ff ff    	mov    -0xfc(%rbp),%eax
  107297:	83 e0 10             	and    $0x10,%eax
  10729a:	89 c2                	mov    %eax,%edx
  10729c:	0f b6 45 eb          	movzbl -0x15(%rbp),%eax
  1072a0:	09 d0                	or     %edx,%eax
  1072a2:	88 45 eb             	mov    %al,-0x15(%rbp)
  1072a5:	8b 85 04 ff ff ff    	mov    -0xfc(%rbp),%eax
  1072ab:	83 e0 20             	and    $0x20,%eax
  1072ae:	89 c2                	mov    %eax,%edx
  1072b0:	0f b6 45 eb          	movzbl -0x15(%rbp),%eax
  1072b4:	09 d0                	or     %edx,%eax
  1072b6:	88 45 eb             	mov    %al,-0x15(%rbp)
  1072b9:	48 8b 95 08 ff ff ff 	mov    -0xf8(%rbp),%rdx
  1072c0:	48 8d 85 20 ff ff ff 	lea    -0xe0(%rbp),%rax
  1072c7:	48 89 d6             	mov    %rdx,%rsi
  1072ca:	48 89 c7             	mov    %rax,%rdi
  1072cd:	e8 2a 52 00 00       	callq  10c4fc <_Z6strcpyPcPKc>
  1072d2:	c7 45 a0 00 00 00 00 	movl   $0x0,-0x60(%rbp)
  1072d9:	0f b6 45 eb          	movzbl -0x15(%rbp),%eax
  1072dd:	88 45 a8             	mov    %al,-0x58(%rbp)
  1072e0:	8b 45 ec             	mov    -0x14(%rbp),%eax
  1072e3:	89 45 a4             	mov    %eax,-0x5c(%rbp)
  1072e6:	48 8b 85 18 ff ff ff 	mov    -0xe8(%rbp),%rax
  1072ed:	48 8b 40 18          	mov    0x18(%rax),%rax
  1072f1:	48 8d 95 20 ff ff ff 	lea    -0xe0(%rbp),%rdx
  1072f8:	48 8b 8d 10 ff ff ff 	mov    -0xf0(%rbp),%rcx
  1072ff:	48 89 ce             	mov    %rcx,%rsi
  107302:	48 89 c7             	mov    %rax,%rdi
  107305:	e8 38 26 00 00       	callq  109942 <_ZN11FAT32Driver10CreateFileEPKcP8DirEntry>
  10730a:	48 8b 85 10 ff ff ff 	mov    -0xf0(%rbp),%rax
  107311:	48 89 c7             	mov    %rax,%rdi
  107314:	e8 2b 51 00 00       	callq  10c444 <_Z6strlenPc>
  107319:	48 89 45 e0          	mov    %rax,-0x20(%rbp)
  10731d:	48 8b 85 08 ff ff ff 	mov    -0xf8(%rbp),%rax
  107324:	48 89 c7             	mov    %rax,%rdi
  107327:	e8 18 51 00 00       	callq  10c444 <_Z6strlenPc>
  10732c:	48 89 45 d8          	mov    %rax,-0x28(%rbp)
  107330:	48 8b 55 e0          	mov    -0x20(%rbp),%rdx
  107334:	48 8b 45 d8          	mov    -0x28(%rbp),%rax
  107338:	48 01 d0             	add    %rdx,%rax
  10733b:	48 83 c0 02          	add    $0x2,%rax
  10733f:	48 89 45 d0          	mov    %rax,-0x30(%rbp)
  107343:	48 8b 45 d0          	mov    -0x30(%rbp),%rax
  107347:	48 89 c7             	mov    %rax,%rdi
  10734a:	e8 ac c6 ff ff       	callq  1039fb <_Znam>
  10734f:	48 89 45 c8          	mov    %rax,-0x38(%rbp)
  107353:	48 8b 55 e0          	mov    -0x20(%rbp),%rdx
  107357:	48 8b 8d 10 ff ff ff 	mov    -0xf0(%rbp),%rcx
  10735e:	48 8b 45 c8          	mov    -0x38(%rbp),%rax
  107362:	48 89 ce             	mov    %rcx,%rsi
  107365:	48 89 c7             	mov    %rax,%rdi
  107368:	e8 94 58 00 00       	callq  10cc01 <_Z6memcpyPvPKvm>
  10736d:	48 8b 55 c8          	mov    -0x38(%rbp),%rdx
  107371:	48 8b 45 e0          	mov    -0x20(%rbp),%rax
  107375:	48 01 d0             	add    %rdx,%rax
  107378:	c6 00 2f             	movb   $0x2f,(%rax)
  10737b:	48 8b 45 e0          	mov    -0x20(%rbp),%rax
  10737f:	48 8d 50 01          	lea    0x1(%rax),%rdx
  107383:	48 8b 45 c8          	mov    -0x38(%rbp),%rax
  107387:	48 8d 0c 02          	lea    (%rdx,%rax,1),%rcx
  10738b:	48 8b 55 d8          	mov    -0x28(%rbp),%rdx
  10738f:	48 8b 85 08 ff ff ff 	mov    -0xf8(%rbp),%rax
  107396:	48 89 c6             	mov    %rax,%rsi
  107399:	48 89 cf             	mov    %rcx,%rdi
  10739c:	e8 60 58 00 00       	callq  10cc01 <_Z6memcpyPvPKvm>
  1073a1:	48 8b 55 e0          	mov    -0x20(%rbp),%rdx
  1073a5:	48 8b 45 d8          	mov    -0x28(%rbp),%rax
  1073a9:	48 01 d0             	add    %rdx,%rax
  1073ac:	48 8d 50 01          	lea    0x1(%rax),%rdx
  1073b0:	48 8b 45 c8          	mov    -0x38(%rbp),%rax
  1073b4:	48 01 d0             	add    %rdx,%rax
  1073b7:	c6 00 00             	movb   $0x0,(%rax)
  1073ba:	bf b0 00 00 00       	mov    $0xb0,%edi
  1073bf:	e8 19 c6 ff ff       	callq  1039dd <_Znwm>
  1073c4:	48 89 c3             	mov    %rax,%rbx
  1073c7:	48 89 de             	mov    %rbx,%rsi
  1073ca:	b8 00 00 00 00       	mov    $0x0,%eax
  1073cf:	ba 16 00 00 00       	mov    $0x16,%edx
  1073d4:	48 89 f7             	mov    %rsi,%rdi
  1073d7:	48 89 d1             	mov    %rdx,%rcx
  1073da:	f3 48 ab             	rep stos %rax,%es:(%rdi)
  1073dd:	48 89 df             	mov    %rbx,%rdi
  1073e0:	e8 e9 6f 00 00       	callq  10e3ce <_ZN16FAT32_ActiveFileC1Ev>
  1073e5:	48 89 5d c0          	mov    %rbx,-0x40(%rbp)
  1073e9:	48 8b 45 c0          	mov    -0x40(%rbp),%rax
  1073ed:	48 8b 55 c8          	mov    -0x38(%rbp),%rdx
  1073f1:	48 89 90 a8 00 00 00 	mov    %rdx,0xa8(%rax)
  1073f8:	48 8b 45 c0          	mov    -0x40(%rbp),%rax
  1073fc:	48 8b 8d 20 ff ff ff 	mov    -0xe0(%rbp),%rcx
  107403:	48 8b 9d 28 ff ff ff 	mov    -0xd8(%rbp),%rbx
  10740a:	48 89 48 10          	mov    %rcx,0x10(%rax)
  10740e:	48 89 58 18          	mov    %rbx,0x18(%rax)
  107412:	48 8b 8d 30 ff ff ff 	mov    -0xd0(%rbp),%rcx
  107419:	48 8b 9d 38 ff ff ff 	mov    -0xc8(%rbp),%rbx
  107420:	48 89 48 20          	mov    %rcx,0x20(%rax)
  107424:	48 89 58 28          	mov    %rbx,0x28(%rax)
  107428:	48 8b 8d 40 ff ff ff 	mov    -0xc0(%rbp),%rcx
  10742f:	48 8b 9d 48 ff ff ff 	mov    -0xb8(%rbp),%rbx
  107436:	48 89 48 30          	mov    %rcx,0x30(%rax)
  10743a:	48 89 58 38          	mov    %rbx,0x38(%rax)
  10743e:	48 8b 8d 50 ff ff ff 	mov    -0xb0(%rbp),%rcx
  107445:	48 8b 9d 58 ff ff ff 	mov    -0xa8(%rbp),%rbx
  10744c:	48 89 48 40          	mov    %rcx,0x40(%rax)
  107450:	48 89 58 48          	mov    %rbx,0x48(%rax)
  107454:	48 8b 8d 60 ff ff ff 	mov    -0xa0(%rbp),%rcx
  10745b:	48 8b 9d 68 ff ff ff 	mov    -0x98(%rbp),%rbx
  107462:	48 89 48 50          	mov    %rcx,0x50(%rax)
  107466:	48 89 58 58          	mov    %rbx,0x58(%rax)
  10746a:	48 8b 8d 70 ff ff ff 	mov    -0x90(%rbp),%rcx
  107471:	48 8b 9d 78 ff ff ff 	mov    -0x88(%rbp),%rbx
  107478:	48 89 48 60          	mov    %rcx,0x60(%rax)
  10747c:	48 89 58 68          	mov    %rbx,0x68(%rax)
  107480:	48 8b 4d 80          	mov    -0x80(%rbp),%rcx
  107484:	48 8b 5d 88          	mov    -0x78(%rbp),%rbx
  107488:	48 89 48 70          	mov    %rcx,0x70(%rax)
  10748c:	48 89 58 78          	mov    %rbx,0x78(%rax)
  107490:	48 8b 4d 90          	mov    -0x70(%rbp),%rcx
  107494:	48 8b 5d 98          	mov    -0x68(%rbp),%rbx
  107498:	48 89 88 80 00 00 00 	mov    %rcx,0x80(%rax)
  10749f:	48 89 98 88 00 00 00 	mov    %rbx,0x88(%rax)
  1074a6:	48 8b 4d a0          	mov    -0x60(%rbp),%rcx
  1074aa:	48 8b 5d a8          	mov    -0x58(%rbp),%rbx
  1074ae:	48 89 88 90 00 00 00 	mov    %rcx,0x90(%rax)
  1074b5:	48 89 98 98 00 00 00 	mov    %rbx,0x98(%rax)
  1074bc:	8b 55 b0             	mov    -0x50(%rbp),%edx
  1074bf:	89 90 a0 00 00 00    	mov    %edx,0xa0(%rax)
  1074c5:	48 8b 45 c0          	mov    -0x40(%rbp),%rax
  1074c9:	48 81 c4 f8 00 00 00 	add    $0xf8,%rsp
  1074d0:	5b                   	pop    %rbx
  1074d1:	5d                   	pop    %rbp
  1074d2:	c3                   	retq   
  1074d3:	90                   	nop

00000000001074d4 <_ZN5FAT3210ResizeFileEP10ActiveFilem>:
  1074d4:	f3 0f 1e fa          	endbr64 
  1074d8:	55                   	push   %rbp
  1074d9:	48 89 e5             	mov    %rsp,%rbp
  1074dc:	53                   	push   %rbx
  1074dd:	48 83 ec 28          	sub    $0x28,%rsp
  1074e1:	48 89 7d e8          	mov    %rdi,-0x18(%rbp)
  1074e5:	48 89 75 e0          	mov    %rsi,-0x20(%rbp)
  1074e9:	48 89 55 d8          	mov    %rdx,-0x28(%rbp)
  1074ed:	48 8b 45 e8          	mov    -0x18(%rbp),%rax
  1074f1:	48 8b 78 18          	mov    0x18(%rax),%rdi
  1074f5:	48 8b 45 d8          	mov    -0x28(%rbp),%rax
  1074f9:	89 c6                	mov    %eax,%esi
  1074fb:	48 83 ec 08          	sub    $0x8,%rsp
  1074ff:	48 8b 45 e0          	mov    -0x20(%rbp),%rax
  107503:	48 81 ec 98 00 00 00 	sub    $0x98,%rsp
  10750a:	48 89 e2             	mov    %rsp,%rdx
  10750d:	48 8b 48 10          	mov    0x10(%rax),%rcx
  107511:	48 8b 58 18          	mov    0x18(%rax),%rbx
  107515:	48 89 0a             	mov    %rcx,(%rdx)
  107518:	48 89 5a 08          	mov    %rbx,0x8(%rdx)
  10751c:	48 8b 48 20          	mov    0x20(%rax),%rcx
  107520:	48 8b 58 28          	mov    0x28(%rax),%rbx
  107524:	48 89 4a 10          	mov    %rcx,0x10(%rdx)
  107528:	48 89 5a 18          	mov    %rbx,0x18(%rdx)
  10752c:	48 8b 48 30          	mov    0x30(%rax),%rcx
  107530:	48 8b 58 38          	mov    0x38(%rax),%rbx
  107534:	48 89 4a 20          	mov    %rcx,0x20(%rdx)
  107538:	48 89 5a 28          	mov    %rbx,0x28(%rdx)
  10753c:	48 8b 48 40          	mov    0x40(%rax),%rcx
  107540:	48 8b 58 48          	mov    0x48(%rax),%rbx
  107544:	48 89 4a 30          	mov    %rcx,0x30(%rdx)
  107548:	48 89 5a 38          	mov    %rbx,0x38(%rdx)
  10754c:	48 8b 48 50          	mov    0x50(%rax),%rcx
  107550:	48 8b 58 58          	mov    0x58(%rax),%rbx
  107554:	48 89 4a 40          	mov    %rcx,0x40(%rdx)
  107558:	48 89 5a 48          	mov    %rbx,0x48(%rdx)
  10755c:	48 8b 48 60          	mov    0x60(%rax),%rcx
  107560:	48 8b 58 68          	mov    0x68(%rax),%rbx
  107564:	48 89 4a 50          	mov    %rcx,0x50(%rdx)
  107568:	48 89 5a 58          	mov    %rbx,0x58(%rdx)
  10756c:	48 8b 48 70          	mov    0x70(%rax),%rcx
  107570:	48 8b 58 78          	mov    0x78(%rax),%rbx
  107574:	48 89 4a 60          	mov    %rcx,0x60(%rdx)
  107578:	48 89 5a 68          	mov    %rbx,0x68(%rdx)
  10757c:	48 8b 88 80 00 00 00 	mov    0x80(%rax),%rcx
  107583:	48 8b 98 88 00 00 00 	mov    0x88(%rax),%rbx
  10758a:	48 89 4a 70          	mov    %rcx,0x70(%rdx)
  10758e:	48 89 5a 78          	mov    %rbx,0x78(%rdx)
  107592:	48 8b 88 90 00 00 00 	mov    0x90(%rax),%rcx
  107599:	48 8b 98 98 00 00 00 	mov    0x98(%rax),%rbx
  1075a0:	48 89 8a 80 00 00 00 	mov    %rcx,0x80(%rdx)
  1075a7:	48 89 9a 88 00 00 00 	mov    %rbx,0x88(%rdx)
  1075ae:	8b 80 a0 00 00 00    	mov    0xa0(%rax),%eax
  1075b4:	89 82 90 00 00 00    	mov    %eax,0x90(%rdx)
  1075ba:	e8 1f 2c 00 00       	callq  10a1de <_ZN11FAT32Driver10ResizeFileE8DirEntryj>
  1075bf:	48 81 c4 a0 00 00 00 	add    $0xa0,%rsp
  1075c6:	48 8b 45 d8          	mov    -0x28(%rbp),%rax
  1075ca:	89 c2                	mov    %eax,%edx
  1075cc:	48 8b 45 e0          	mov    -0x20(%rbp),%rax
  1075d0:	89 90 94 00 00 00    	mov    %edx,0x94(%rax)
  1075d6:	48 8b 45 e0          	mov    -0x20(%rbp),%rax
  1075da:	48 c7 40 08 00 00 00 	movq   $0x0,0x8(%rax)
  1075e1:	00 
  1075e2:	90                   	nop
  1075e3:	48 8b 5d f8          	mov    -0x8(%rbp),%rbx
  1075e7:	c9                   	leaveq 
  1075e8:	c3                   	retq   
  1075e9:	90                   	nop

00000000001075ea <_ZN5FAT3210DeleteFileEP10ActiveFile>:
  1075ea:	f3 0f 1e fa          	endbr64 
  1075ee:	55                   	push   %rbp
  1075ef:	48 89 e5             	mov    %rsp,%rbp
  1075f2:	53                   	push   %rbx
  1075f3:	48 83 ec 18          	sub    $0x18,%rsp
  1075f7:	48 89 7d e8          	mov    %rdi,-0x18(%rbp)
  1075fb:	48 89 75 e0          	mov    %rsi,-0x20(%rbp)
  1075ff:	48 8b 45 e8          	mov    -0x18(%rbp),%rax
  107603:	48 8b 70 18          	mov    0x18(%rax),%rsi
  107607:	48 83 ec 08          	sub    $0x8,%rsp
  10760b:	48 8b 45 e0          	mov    -0x20(%rbp),%rax
  10760f:	48 81 ec 98 00 00 00 	sub    $0x98,%rsp
  107616:	48 89 e2             	mov    %rsp,%rdx
  107619:	48 8b 48 10          	mov    0x10(%rax),%rcx
  10761d:	48 8b 58 18          	mov    0x18(%rax),%rbx
  107621:	48 89 0a             	mov    %rcx,(%rdx)
  107624:	48 89 5a 08          	mov    %rbx,0x8(%rdx)
  107628:	48 8b 48 20          	mov    0x20(%rax),%rcx
  10762c:	48 8b 58 28          	mov    0x28(%rax),%rbx
  107630:	48 89 4a 10          	mov    %rcx,0x10(%rdx)
  107634:	48 89 5a 18          	mov    %rbx,0x18(%rdx)
  107638:	48 8b 48 30          	mov    0x30(%rax),%rcx
  10763c:	48 8b 58 38          	mov    0x38(%rax),%rbx
  107640:	48 89 4a 20          	mov    %rcx,0x20(%rdx)
  107644:	48 89 5a 28          	mov    %rbx,0x28(%rdx)
  107648:	48 8b 48 40          	mov    0x40(%rax),%rcx
  10764c:	48 8b 58 48          	mov    0x48(%rax),%rbx
  107650:	48 89 4a 30          	mov    %rcx,0x30(%rdx)
  107654:	48 89 5a 38          	mov    %rbx,0x38(%rdx)
  107658:	48 8b 48 50          	mov    0x50(%rax),%rcx
  10765c:	48 8b 58 58          	mov    0x58(%rax),%rbx
  107660:	48 89 4a 40          	mov    %rcx,0x40(%rdx)
  107664:	48 89 5a 48          	mov    %rbx,0x48(%rdx)
  107668:	48 8b 48 60          	mov    0x60(%rax),%rcx
  10766c:	48 8b 58 68          	mov    0x68(%rax),%rbx
  107670:	48 89 4a 50          	mov    %rcx,0x50(%rdx)
  107674:	48 89 5a 58          	mov    %rbx,0x58(%rdx)
  107678:	48 8b 48 70          	mov    0x70(%rax),%rcx
  10767c:	48 8b 58 78          	mov    0x78(%rax),%rbx
  107680:	48 89 4a 60          	mov    %rcx,0x60(%rdx)
  107684:	48 89 5a 68          	mov    %rbx,0x68(%rdx)
  107688:	48 8b 88 80 00 00 00 	mov    0x80(%rax),%rcx
  10768f:	48 8b 98 88 00 00 00 	mov    0x88(%rax),%rbx
  107696:	48 89 4a 70          	mov    %rcx,0x70(%rdx)
  10769a:	48 89 5a 78          	mov    %rbx,0x78(%rdx)
  10769e:	48 8b 88 90 00 00 00 	mov    0x90(%rax),%rcx
  1076a5:	48 8b 98 98 00 00 00 	mov    0x98(%rax),%rbx
  1076ac:	48 89 8a 80 00 00 00 	mov    %rcx,0x80(%rdx)
  1076b3:	48 89 9a 88 00 00 00 	mov    %rbx,0x88(%rdx)
  1076ba:	8b 80 a0 00 00 00    	mov    0xa0(%rax),%eax
  1076c0:	89 82 90 00 00 00    	mov    %eax,0x90(%rdx)
  1076c6:	48 89 f7             	mov    %rsi,%rdi
  1076c9:	e8 1c 24 00 00       	callq  109aea <_ZN11FAT32Driver10DeleteFileE8DirEntry>
  1076ce:	48 81 c4 a0 00 00 00 	add    $0xa0,%rsp
  1076d5:	48 8b 45 e8          	mov    -0x18(%rbp),%rax
  1076d9:	48 8b 00             	mov    (%rax),%rax
  1076dc:	48 83 c0 08          	add    $0x8,%rax
  1076e0:	48 8b 08             	mov    (%rax),%rcx
  1076e3:	48 8b 55 e0          	mov    -0x20(%rbp),%rdx
  1076e7:	48 8b 45 e8          	mov    -0x18(%rbp),%rax
  1076eb:	48 89 d6             	mov    %rdx,%rsi
  1076ee:	48 89 c7             	mov    %rax,%rdi
  1076f1:	ff d1                	callq  *%rcx
  1076f3:	90                   	nop
  1076f4:	48 8b 5d f8          	mov    -0x8(%rbp),%rbx
  1076f8:	c9                   	leaveq 
  1076f9:	c3                   	retq   

00000000001076fa <_ZN5FAT3222GetDirectoryEntryCountEPKc>:
  1076fa:	f3 0f 1e fa          	endbr64 
  1076fe:	55                   	push   %rbp
  1076ff:	48 89 e5             	mov    %rsp,%rbp
  107702:	53                   	push   %rbx
  107703:	48 81 ec d8 00 00 00 	sub    $0xd8,%rsp
  10770a:	48 89 bd 28 ff ff ff 	mov    %rdi,-0xd8(%rbp)
  107711:	48 89 b5 20 ff ff ff 	mov    %rsi,-0xe0(%rbp)
  107718:	48 8b 85 28 ff ff ff 	mov    -0xd8(%rbp),%rax
  10771f:	48 8b 40 18          	mov    0x18(%rax),%rax
  107723:	48 8d 95 50 ff ff ff 	lea    -0xb0(%rbp),%rdx
  10772a:	48 8b 8d 20 ff ff ff 	mov    -0xe0(%rbp),%rcx
  107731:	48 89 ce             	mov    %rcx,%rsi
  107734:	48 89 c7             	mov    %rax,%rdi
  107737:	e8 c2 21 00 00       	callq  1098fe <_ZN11FAT32Driver8OpenFileEPKcP8DirEntry>
  10773c:	89 45 ec             	mov    %eax,-0x14(%rbp)
  10773f:	83 7d ec 00          	cmpl   $0x0,-0x14(%rbp)
  107743:	74 07                	je     10774c <_ZN5FAT3222GetDirectoryEntryCountEPKc+0x52>
  107745:	bb 00 00 00 00       	mov    $0x0,%ebx
  10774a:	eb 4a                	jmp    107796 <_ZN5FAT3222GetDirectoryEntryCountEPKc+0x9c>
  10774c:	48 8b 85 28 ff ff ff 	mov    -0xd8(%rbp),%rax
  107753:	48 8b 70 18          	mov    0x18(%rax),%rsi
  107757:	8b 55 d0             	mov    -0x30(%rbp),%edx
  10775a:	48 8d 85 30 ff ff ff 	lea    -0xd0(%rbp),%rax
  107761:	41 b8 00 00 00 00    	mov    $0x0,%r8d
  107767:	b9 00 00 00 00       	mov    $0x0,%ecx
  10776c:	48 89 c7             	mov    %rax,%rdi
  10776f:	e8 34 12 00 00       	callq  1089a8 <_ZN11FAT32Driver14GetDirectoriesEjjb>
  107774:	48 8d 85 30 ff ff ff 	lea    -0xd0(%rbp),%rax
  10777b:	48 89 c7             	mov    %rax,%rdi
  10777e:	e8 a9 6c 00 00       	callq  10e42c <_ZNK6vectorI8DirEntryE4sizeEv>
  107783:	48 89 c3             	mov    %rax,%rbx
  107786:	90                   	nop
  107787:	48 8d 85 30 ff ff ff 	lea    -0xd0(%rbp),%rax
  10778e:	48 89 c7             	mov    %rax,%rdi
  107791:	e8 66 6c 00 00       	callq  10e3fc <_ZN6vectorI8DirEntryED1Ev>
  107796:	48 89 d8             	mov    %rbx,%rax
  107799:	48 81 c4 d8 00 00 00 	add    $0xd8,%rsp
  1077a0:	5b                   	pop    %rbx
  1077a1:	5d                   	pop    %rbp
  1077a2:	c3                   	retq   
  1077a3:	90                   	nop

00000000001077a4 <_ZN5FAT327GetFileEPKcm>:
  1077a4:	f3 0f 1e fa          	endbr64 
  1077a8:	55                   	push   %rbp
  1077a9:	48 89 e5             	mov    %rsp,%rbp
  1077ac:	53                   	push   %rbx
  1077ad:	48 81 ec a8 01 00 00 	sub    $0x1a8,%rsp
  1077b4:	48 89 bd 68 fe ff ff 	mov    %rdi,-0x198(%rbp)
  1077bb:	48 89 b5 60 fe ff ff 	mov    %rsi,-0x1a0(%rbp)
  1077c2:	48 89 95 58 fe ff ff 	mov    %rdx,-0x1a8(%rbp)
  1077c9:	48 8b 85 68 fe ff ff 	mov    -0x198(%rbp),%rax
  1077d0:	48 8b 40 18          	mov    0x18(%rax),%rax
  1077d4:	48 8d 95 30 ff ff ff 	lea    -0xd0(%rbp),%rdx
  1077db:	48 8b 8d 60 fe ff ff 	mov    -0x1a0(%rbp),%rcx
  1077e2:	48 89 ce             	mov    %rcx,%rsi
  1077e5:	48 89 c7             	mov    %rax,%rdi
  1077e8:	e8 11 21 00 00       	callq  1098fe <_ZN11FAT32Driver8OpenFileEPKcP8DirEntry>
  1077ed:	48 8b 85 68 fe ff ff 	mov    -0x198(%rbp),%rax
  1077f4:	48 8b 70 18          	mov    0x18(%rax),%rsi
  1077f8:	8b 55 b0             	mov    -0x50(%rbp),%edx
  1077fb:	48 8d 85 10 ff ff ff 	lea    -0xf0(%rbp),%rax
  107802:	41 b8 00 00 00 00    	mov    $0x0,%r8d
  107808:	b9 00 00 00 00       	mov    $0x0,%ecx
  10780d:	48 89 c7             	mov    %rax,%rdi
  107810:	e8 93 11 00 00       	callq  1089a8 <_ZN11FAT32Driver14GetDirectoriesEjjb>
  107815:	48 8d 85 10 ff ff ff 	lea    -0xf0(%rbp),%rax
  10781c:	48 89 c7             	mov    %rax,%rdi
  10781f:	e8 08 6c 00 00       	callq  10e42c <_ZNK6vectorI8DirEntryE4sizeEv>
  107824:	48 39 85 58 fe ff ff 	cmp    %rax,-0x1a8(%rbp)
  10782b:	0f 92 c0             	setb   %al
  10782e:	84 c0                	test   %al,%al
  107830:	0f 84 e1 01 00 00    	je     107a17 <_ZN5FAT327GetFileEPKcm+0x273>
  107836:	48 8b 95 58 fe ff ff 	mov    -0x1a8(%rbp),%rdx
  10783d:	48 8d 85 10 ff ff ff 	lea    -0xf0(%rbp),%rax
  107844:	48 89 d6             	mov    %rdx,%rsi
  107847:	48 89 c7             	mov    %rax,%rdi
  10784a:	e8 f7 6b 00 00       	callq  10e446 <_ZN6vectorI8DirEntryEixEm>
  10784f:	48 8b 08             	mov    (%rax),%rcx
  107852:	48 8b 58 08          	mov    0x8(%rax),%rbx
  107856:	48 89 8d 70 fe ff ff 	mov    %rcx,-0x190(%rbp)
  10785d:	48 89 9d 78 fe ff ff 	mov    %rbx,-0x188(%rbp)
  107864:	48 8b 48 10          	mov    0x10(%rax),%rcx
  107868:	48 8b 58 18          	mov    0x18(%rax),%rbx
  10786c:	48 89 8d 80 fe ff ff 	mov    %rcx,-0x180(%rbp)
  107873:	48 89 9d 88 fe ff ff 	mov    %rbx,-0x178(%rbp)
  10787a:	48 8b 48 20          	mov    0x20(%rax),%rcx
  10787e:	48 8b 58 28          	mov    0x28(%rax),%rbx
  107882:	48 89 8d 90 fe ff ff 	mov    %rcx,-0x170(%rbp)
  107889:	48 89 9d 98 fe ff ff 	mov    %rbx,-0x168(%rbp)
  107890:	48 8b 48 30          	mov    0x30(%rax),%rcx
  107894:	48 8b 58 38          	mov    0x38(%rax),%rbx
  107898:	48 89 8d a0 fe ff ff 	mov    %rcx,-0x160(%rbp)
  10789f:	48 89 9d a8 fe ff ff 	mov    %rbx,-0x158(%rbp)
  1078a6:	48 8b 48 40          	mov    0x40(%rax),%rcx
  1078aa:	48 8b 58 48          	mov    0x48(%rax),%rbx
  1078ae:	48 89 8d b0 fe ff ff 	mov    %rcx,-0x150(%rbp)
  1078b5:	48 89 9d b8 fe ff ff 	mov    %rbx,-0x148(%rbp)
  1078bc:	48 8b 48 50          	mov    0x50(%rax),%rcx
  1078c0:	48 8b 58 58          	mov    0x58(%rax),%rbx
  1078c4:	48 89 8d c0 fe ff ff 	mov    %rcx,-0x140(%rbp)
  1078cb:	48 89 9d c8 fe ff ff 	mov    %rbx,-0x138(%rbp)
  1078d2:	48 8b 48 60          	mov    0x60(%rax),%rcx
  1078d6:	48 8b 58 68          	mov    0x68(%rax),%rbx
  1078da:	48 89 8d d0 fe ff ff 	mov    %rcx,-0x130(%rbp)
  1078e1:	48 89 9d d8 fe ff ff 	mov    %rbx,-0x128(%rbp)
  1078e8:	48 8b 48 70          	mov    0x70(%rax),%rcx
  1078ec:	48 8b 58 78          	mov    0x78(%rax),%rbx
  1078f0:	48 89 8d e0 fe ff ff 	mov    %rcx,-0x120(%rbp)
  1078f7:	48 89 9d e8 fe ff ff 	mov    %rbx,-0x118(%rbp)
  1078fe:	48 8b 88 80 00 00 00 	mov    0x80(%rax),%rcx
  107905:	48 8b 98 88 00 00 00 	mov    0x88(%rax),%rbx
  10790c:	48 89 8d f0 fe ff ff 	mov    %rcx,-0x110(%rbp)
  107913:	48 89 9d f8 fe ff ff 	mov    %rbx,-0x108(%rbp)
  10791a:	8b 80 90 00 00 00    	mov    0x90(%rax),%eax
  107920:	89 85 00 ff ff ff    	mov    %eax,-0x100(%rbp)
  107926:	48 8b 85 60 fe ff ff 	mov    -0x1a0(%rbp),%rax
  10792d:	48 89 c7             	mov    %rax,%rdi
  107930:	e8 0f 4b 00 00       	callq  10c444 <_Z6strlenPc>
  107935:	48 89 45 e8          	mov    %rax,-0x18(%rbp)
  107939:	48 8d 85 70 fe ff ff 	lea    -0x190(%rbp),%rax
  107940:	48 89 c7             	mov    %rax,%rdi
  107943:	e8 fc 4a 00 00       	callq  10c444 <_Z6strlenPc>
  107948:	48 89 45 e0          	mov    %rax,-0x20(%rbp)
  10794c:	48 8b 55 e8          	mov    -0x18(%rbp),%rdx
  107950:	48 8b 45 e0          	mov    -0x20(%rbp),%rax
  107954:	48 01 d0             	add    %rdx,%rax
  107957:	48 83 c0 01          	add    $0x1,%rax
  10795b:	48 89 45 d8          	mov    %rax,-0x28(%rbp)
  10795f:	48 8b 45 d8          	mov    -0x28(%rbp),%rax
  107963:	48 83 c0 01          	add    $0x1,%rax
  107967:	48 89 c7             	mov    %rax,%rdi
  10796a:	e8 8c c0 ff ff       	callq  1039fb <_Znam>
  10796f:	48 89 45 d0          	mov    %rax,-0x30(%rbp)
  107973:	48 8b 55 e8          	mov    -0x18(%rbp),%rdx
  107977:	48 8b 8d 60 fe ff ff 	mov    -0x1a0(%rbp),%rcx
  10797e:	48 8b 45 d0          	mov    -0x30(%rbp),%rax
  107982:	48 89 ce             	mov    %rcx,%rsi
  107985:	48 89 c7             	mov    %rax,%rdi
  107988:	e8 74 52 00 00       	callq  10cc01 <_Z6memcpyPvPKvm>
  10798d:	48 8b 55 d0          	mov    -0x30(%rbp),%rdx
  107991:	48 8b 45 e8          	mov    -0x18(%rbp),%rax
  107995:	48 01 d0             	add    %rdx,%rax
  107998:	c6 00 2f             	movb   $0x2f,(%rax)
  10799b:	48 8b 45 e8          	mov    -0x18(%rbp),%rax
  10799f:	48 8d 50 01          	lea    0x1(%rax),%rdx
  1079a3:	48 8b 45 d0          	mov    -0x30(%rbp),%rax
  1079a7:	48 8d 0c 02          	lea    (%rdx,%rax,1),%rcx
  1079ab:	48 8b 55 e0          	mov    -0x20(%rbp),%rdx
  1079af:	48 8d 85 70 fe ff ff 	lea    -0x190(%rbp),%rax
  1079b6:	48 89 c6             	mov    %rax,%rsi
  1079b9:	48 89 cf             	mov    %rcx,%rdi
  1079bc:	e8 40 52 00 00       	callq  10cc01 <_Z6memcpyPvPKvm>
  1079c1:	48 8b 55 e8          	mov    -0x18(%rbp),%rdx
  1079c5:	48 8b 45 e0          	mov    -0x20(%rbp),%rax
  1079c9:	48 01 d0             	add    %rdx,%rax
  1079cc:	48 8d 50 01          	lea    0x1(%rax),%rdx
  1079d0:	48 8b 45 d0          	mov    -0x30(%rbp),%rax
  1079d4:	48 01 d0             	add    %rdx,%rax
  1079d7:	c6 00 00             	movb   $0x0,(%rax)
  1079da:	48 8b 85 68 fe ff ff 	mov    -0x198(%rbp),%rax
  1079e1:	48 8b 00             	mov    (%rax),%rax
  1079e4:	48 8b 08             	mov    (%rax),%rcx
  1079e7:	48 8b 55 d0          	mov    -0x30(%rbp),%rdx
  1079eb:	48 8b 85 68 fe ff ff 	mov    -0x198(%rbp),%rax
  1079f2:	48 89 d6             	mov    %rdx,%rsi
  1079f5:	48 89 c7             	mov    %rax,%rdi
  1079f8:	ff d1                	callq  *%rcx
  1079fa:	48 89 45 c8          	mov    %rax,-0x38(%rbp)
  1079fe:	48 83 7d d0 00       	cmpq   $0x0,-0x30(%rbp)
  107a03:	74 0c                	je     107a11 <_ZN5FAT327GetFileEPKcm+0x26d>
  107a05:	48 8b 45 d0          	mov    -0x30(%rbp),%rax
  107a09:	48 89 c7             	mov    %rax,%rdi
  107a0c:	e8 27 c0 ff ff       	callq  103a38 <_ZdaPv>
  107a11:	48 8b 5d c8          	mov    -0x38(%rbp),%rbx
  107a15:	eb 05                	jmp    107a1c <_ZN5FAT327GetFileEPKcm+0x278>
  107a17:	bb 00 00 00 00       	mov    $0x0,%ebx
  107a1c:	48 8d 85 10 ff ff ff 	lea    -0xf0(%rbp),%rax
  107a23:	48 89 c7             	mov    %rax,%rdi
  107a26:	e8 d1 69 00 00       	callq  10e3fc <_ZN6vectorI8DirEntryED1Ev>
  107a2b:	48 89 d8             	mov    %rbx,%rax
  107a2e:	48 81 c4 a8 01 00 00 	add    $0x1a8,%rsp
  107a35:	5b                   	pop    %rbx
  107a36:	5d                   	pop    %rbp
  107a37:	c3                   	retq   

0000000000107a38 <_ZN5FAT324ReadEP10ActiveFilePvm>:
  107a38:	f3 0f 1e fa          	endbr64 
  107a3c:	55                   	push   %rbp
  107a3d:	48 89 e5             	mov    %rsp,%rbp
  107a40:	53                   	push   %rbx
  107a41:	48 83 ec 38          	sub    $0x38,%rsp
  107a45:	48 89 7d d8          	mov    %rdi,-0x28(%rbp)
  107a49:	48 89 75 d0          	mov    %rsi,-0x30(%rbp)
  107a4d:	48 89 55 c8          	mov    %rdx,-0x38(%rbp)
  107a51:	48 89 4d c0          	mov    %rcx,-0x40(%rbp)
  107a55:	48 8b 45 d0          	mov    -0x30(%rbp),%rax
  107a59:	48 8b 40 08          	mov    0x8(%rax),%rax
  107a5d:	48 89 45 e8          	mov    %rax,-0x18(%rbp)
  107a61:	48 8b 45 d8          	mov    -0x28(%rbp),%rax
  107a65:	48 8b 78 18          	mov    0x18(%rax),%rdi
  107a69:	4c 8b 4d c0          	mov    -0x40(%rbp),%r9
  107a6d:	4c 8b 45 c8          	mov    -0x38(%rbp),%r8
  107a71:	48 8b 75 e8          	mov    -0x18(%rbp),%rsi
  107a75:	48 83 ec 08          	sub    $0x8,%rsp
  107a79:	48 8b 45 d0          	mov    -0x30(%rbp),%rax
  107a7d:	48 81 ec 98 00 00 00 	sub    $0x98,%rsp
  107a84:	48 89 e2             	mov    %rsp,%rdx
  107a87:	48 8b 48 10          	mov    0x10(%rax),%rcx
  107a8b:	48 8b 58 18          	mov    0x18(%rax),%rbx
  107a8f:	48 89 0a             	mov    %rcx,(%rdx)
  107a92:	48 89 5a 08          	mov    %rbx,0x8(%rdx)
  107a96:	48 8b 48 20          	mov    0x20(%rax),%rcx
  107a9a:	48 8b 58 28          	mov    0x28(%rax),%rbx
  107a9e:	48 89 4a 10          	mov    %rcx,0x10(%rdx)
  107aa2:	48 89 5a 18          	mov    %rbx,0x18(%rdx)
  107aa6:	48 8b 48 30          	mov    0x30(%rax),%rcx
  107aaa:	48 8b 58 38          	mov    0x38(%rax),%rbx
  107aae:	48 89 4a 20          	mov    %rcx,0x20(%rdx)
  107ab2:	48 89 5a 28          	mov    %rbx,0x28(%rdx)
  107ab6:	48 8b 48 40          	mov    0x40(%rax),%rcx
  107aba:	48 8b 58 48          	mov    0x48(%rax),%rbx
  107abe:	48 89 4a 30          	mov    %rcx,0x30(%rdx)
  107ac2:	48 89 5a 38          	mov    %rbx,0x38(%rdx)
  107ac6:	48 8b 48 50          	mov    0x50(%rax),%rcx
  107aca:	48 8b 58 58          	mov    0x58(%rax),%rbx
  107ace:	48 89 4a 40          	mov    %rcx,0x40(%rdx)
  107ad2:	48 89 5a 48          	mov    %rbx,0x48(%rdx)
  107ad6:	48 8b 48 60          	mov    0x60(%rax),%rcx
  107ada:	48 8b 58 68          	mov    0x68(%rax),%rbx
  107ade:	48 89 4a 50          	mov    %rcx,0x50(%rdx)
  107ae2:	48 89 5a 58          	mov    %rbx,0x58(%rdx)
  107ae6:	48 8b 48 70          	mov    0x70(%rax),%rcx
  107aea:	48 8b 58 78          	mov    0x78(%rax),%rbx
  107aee:	48 89 4a 60          	mov    %rcx,0x60(%rdx)
  107af2:	48 89 5a 68          	mov    %rbx,0x68(%rdx)
  107af6:	48 8b 88 80 00 00 00 	mov    0x80(%rax),%rcx
  107afd:	48 8b 98 88 00 00 00 	mov    0x88(%rax),%rbx
  107b04:	48 89 4a 70          	mov    %rcx,0x70(%rdx)
  107b08:	48 89 5a 78          	mov    %rbx,0x78(%rdx)
  107b0c:	48 8b 88 90 00 00 00 	mov    0x90(%rax),%rcx
  107b13:	48 8b 98 98 00 00 00 	mov    0x98(%rax),%rbx
  107b1a:	48 89 8a 80 00 00 00 	mov    %rcx,0x80(%rdx)
  107b21:	48 89 9a 88 00 00 00 	mov    %rbx,0x88(%rdx)
  107b28:	8b 80 a0 00 00 00    	mov    0xa0(%rax),%eax
  107b2e:	89 82 90 00 00 00    	mov    %eax,0x90(%rdx)
  107b34:	4c 89 c9             	mov    %r9,%rcx
  107b37:	4c 89 c2             	mov    %r8,%rdx
  107b3a:	e8 1b 22 00 00       	callq  109d5a <_ZN11FAT32Driver8ReadFileE8DirEntrymPvm>
  107b3f:	48 81 c4 a0 00 00 00 	add    $0xa0,%rsp
  107b46:	48 8b 45 d0          	mov    -0x30(%rbp),%rax
  107b4a:	48 8b 50 08          	mov    0x8(%rax),%rdx
  107b4e:	48 8b 45 c0          	mov    -0x40(%rbp),%rax
  107b52:	48 01 c2             	add    %rax,%rdx
  107b55:	48 8b 45 d0          	mov    -0x30(%rbp),%rax
  107b59:	48 89 50 08          	mov    %rdx,0x8(%rax)
  107b5d:	b8 00 00 00 00       	mov    $0x0,%eax
  107b62:	48 8b 5d f8          	mov    -0x8(%rbp),%rbx
  107b66:	c9                   	leaveq 
  107b67:	c3                   	retq   

0000000000107b68 <_ZN5FAT325WriteEP10ActiveFilePvm>:
  107b68:	f3 0f 1e fa          	endbr64 
  107b6c:	55                   	push   %rbp
  107b6d:	48 89 e5             	mov    %rsp,%rbp
  107b70:	53                   	push   %rbx
  107b71:	48 83 ec 38          	sub    $0x38,%rsp
  107b75:	48 89 7d d8          	mov    %rdi,-0x28(%rbp)
  107b79:	48 89 75 d0          	mov    %rsi,-0x30(%rbp)
  107b7d:	48 89 55 c8          	mov    %rdx,-0x38(%rbp)
  107b81:	48 89 4d c0          	mov    %rcx,-0x40(%rbp)
  107b85:	48 8b 45 d0          	mov    -0x30(%rbp),%rax
  107b89:	48 8b 40 08          	mov    0x8(%rax),%rax
  107b8d:	48 89 45 e8          	mov    %rax,-0x18(%rbp)
  107b91:	48 8b 45 d8          	mov    -0x28(%rbp),%rax
  107b95:	48 8b 78 18          	mov    0x18(%rax),%rdi
  107b99:	4c 8b 4d c0          	mov    -0x40(%rbp),%r9
  107b9d:	4c 8b 45 c8          	mov    -0x38(%rbp),%r8
  107ba1:	48 8b 75 e8          	mov    -0x18(%rbp),%rsi
  107ba5:	48 83 ec 08          	sub    $0x8,%rsp
  107ba9:	48 8b 45 d0          	mov    -0x30(%rbp),%rax
  107bad:	48 81 ec 98 00 00 00 	sub    $0x98,%rsp
  107bb4:	48 89 e2             	mov    %rsp,%rdx
  107bb7:	48 8b 48 10          	mov    0x10(%rax),%rcx
  107bbb:	48 8b 58 18          	mov    0x18(%rax),%rbx
  107bbf:	48 89 0a             	mov    %rcx,(%rdx)
  107bc2:	48 89 5a 08          	mov    %rbx,0x8(%rdx)
  107bc6:	48 8b 48 20          	mov    0x20(%rax),%rcx
  107bca:	48 8b 58 28          	mov    0x28(%rax),%rbx
  107bce:	48 89 4a 10          	mov    %rcx,0x10(%rdx)
  107bd2:	48 89 5a 18          	mov    %rbx,0x18(%rdx)
  107bd6:	48 8b 48 30          	mov    0x30(%rax),%rcx
  107bda:	48 8b 58 38          	mov    0x38(%rax),%rbx
  107bde:	48 89 4a 20          	mov    %rcx,0x20(%rdx)
  107be2:	48 89 5a 28          	mov    %rbx,0x28(%rdx)
  107be6:	48 8b 48 40          	mov    0x40(%rax),%rcx
  107bea:	48 8b 58 48          	mov    0x48(%rax),%rbx
  107bee:	48 89 4a 30          	mov    %rcx,0x30(%rdx)
  107bf2:	48 89 5a 38          	mov    %rbx,0x38(%rdx)
  107bf6:	48 8b 48 50          	mov    0x50(%rax),%rcx
  107bfa:	48 8b 58 58          	mov    0x58(%rax),%rbx
  107bfe:	48 89 4a 40          	mov    %rcx,0x40(%rdx)
  107c02:	48 89 5a 48          	mov    %rbx,0x48(%rdx)
  107c06:	48 8b 48 60          	mov    0x60(%rax),%rcx
  107c0a:	48 8b 58 68          	mov    0x68(%rax),%rbx
  107c0e:	48 89 4a 50          	mov    %rcx,0x50(%rdx)
  107c12:	48 89 5a 58          	mov    %rbx,0x58(%rdx)
  107c16:	48 8b 48 70          	mov    0x70(%rax),%rcx
  107c1a:	48 8b 58 78          	mov    0x78(%rax),%rbx
  107c1e:	48 89 4a 60          	mov    %rcx,0x60(%rdx)
  107c22:	48 89 5a 68          	mov    %rbx,0x68(%rdx)
  107c26:	48 8b 88 80 00 00 00 	mov    0x80(%rax),%rcx
  107c2d:	48 8b 98 88 00 00 00 	mov    0x88(%rax),%rbx
  107c34:	48 89 4a 70          	mov    %rcx,0x70(%rdx)
  107c38:	48 89 5a 78          	mov    %rbx,0x78(%rdx)
  107c3c:	48 8b 88 90 00 00 00 	mov    0x90(%rax),%rcx
  107c43:	48 8b 98 98 00 00 00 	mov    0x98(%rax),%rbx
  107c4a:	48 89 8a 80 00 00 00 	mov    %rcx,0x80(%rdx)
  107c51:	48 89 9a 88 00 00 00 	mov    %rbx,0x88(%rdx)
  107c58:	8b 80 a0 00 00 00    	mov    0xa0(%rax),%eax
  107c5e:	89 82 90 00 00 00    	mov    %eax,0x90(%rdx)
  107c64:	4c 89 c9             	mov    %r9,%rcx
  107c67:	4c 89 c2             	mov    %r8,%rdx
  107c6a:	e8 9d 22 00 00       	callq  109f0c <_ZN11FAT32Driver9WriteFileE8DirEntrymPvm>
  107c6f:	48 81 c4 a0 00 00 00 	add    $0xa0,%rsp
  107c76:	48 8b 45 d0          	mov    -0x30(%rbp),%rax
  107c7a:	48 8b 50 08          	mov    0x8(%rax),%rdx
  107c7e:	48 8b 45 c0          	mov    -0x40(%rbp),%rax
  107c82:	48 01 c2             	add    %rax,%rdx
  107c85:	48 8b 45 d0          	mov    -0x30(%rbp),%rax
  107c89:	48 89 50 08          	mov    %rdx,0x8(%rax)
  107c8d:	48 8b 45 d0          	mov    -0x30(%rbp),%rax
  107c91:	8b 80 94 00 00 00    	mov    0x94(%rax),%eax
  107c97:	89 c2                	mov    %eax,%edx
  107c99:	48 8b 45 d0          	mov    -0x30(%rbp),%rax
  107c9d:	48 8b 40 08          	mov    0x8(%rax),%rax
  107ca1:	48 39 c2             	cmp    %rax,%rdx
  107ca4:	73 14                	jae    107cba <_ZN5FAT325WriteEP10ActiveFilePvm+0x152>
  107ca6:	48 8b 45 d0          	mov    -0x30(%rbp),%rax
  107caa:	48 8b 40 08          	mov    0x8(%rax),%rax
  107cae:	89 c2                	mov    %eax,%edx
  107cb0:	48 8b 45 d0          	mov    -0x30(%rbp),%rax
  107cb4:	89 90 94 00 00 00    	mov    %edx,0x94(%rax)
  107cba:	b8 00 00 00 00       	mov    $0x0,%eax
  107cbf:	48 8b 5d f8          	mov    -0x8(%rbp),%rbx
  107cc3:	c9                   	leaveq 
  107cc4:	c3                   	retq   
  107cc5:	90                   	nop

0000000000107cc6 <_ZN11FAT32DriverC1EP6Devicej>:
  107cc6:	f3 0f 1e fa          	endbr64 
  107cca:	55                   	push   %rbp
  107ccb:	48 89 e5             	mov    %rsp,%rbp
  107cce:	48 83 ec 40          	sub    $0x40,%rsp
  107cd2:	48 89 7d d8          	mov    %rdi,-0x28(%rbp)
  107cd6:	48 89 75 d0          	mov    %rsi,-0x30(%rbp)
  107cda:	89 55 cc             	mov    %edx,-0x34(%rbp)
  107cdd:	48 8b 45 d8          	mov    -0x28(%rbp),%rax
  107ce1:	48 8b 55 d0          	mov    -0x30(%rbp),%rdx
  107ce5:	48 89 10             	mov    %rdx,(%rax)
  107ce8:	48 8b 45 d8          	mov    -0x28(%rbp),%rax
  107cec:	8b 55 cc             	mov    -0x34(%rbp),%edx
  107cef:	89 50 08             	mov    %edx,0x8(%rax)
  107cf2:	48 c7 45 f8 00 06 00 	movq   $0x600,-0x8(%rbp)
  107cf9:	00 
  107cfa:	48 8b 45 d8          	mov    -0x28(%rbp),%rax
  107cfe:	c7 40 08 00 00 00 00 	movl   $0x0,0x8(%rax)
  107d05:	0f b6 05 14 fc 00 00 	movzbl 0xfc14(%rip),%eax        # 117920 <fromUEFI>
  107d0c:	84 c0                	test   %al,%al
  107d0e:	75 29                	jne    107d39 <_ZN11FAT32DriverC1EP6Devicej+0x73>
  107d10:	48 c7 45 f0 be 01 00 	movq   $0x1be,-0x10(%rbp)
  107d17:	00 
  107d18:	48 8b 55 f8          	mov    -0x8(%rbp),%rdx
  107d1c:	48 8b 45 f0          	mov    -0x10(%rbp),%rax
  107d20:	48 01 d0             	add    %rdx,%rax
  107d23:	48 83 c0 10          	add    $0x10,%rax
  107d27:	48 89 45 e8          	mov    %rax,-0x18(%rbp)
  107d2b:	48 8b 45 e8          	mov    -0x18(%rbp),%rax
  107d2f:	8b 50 08             	mov    0x8(%rax),%edx
  107d32:	48 8b 45 d8          	mov    -0x28(%rbp),%rax
  107d36:	89 50 08             	mov    %edx,0x8(%rax)
  107d39:	bf 00 02 00 00       	mov    $0x200,%edi
  107d3e:	e8 17 51 00 00       	callq  10ce5a <_Z7kmallocm>
  107d43:	48 89 c2             	mov    %rax,%rdx
  107d46:	48 8b 45 d8          	mov    -0x28(%rbp),%rax
  107d4a:	48 89 50 10          	mov    %rdx,0x10(%rax)
  107d4e:	48 8b 45 d0          	mov    -0x30(%rbp),%rax
  107d52:	48 8b 00             	mov    (%rax),%rax
  107d55:	48 83 c0 18          	add    $0x18,%rax
  107d59:	4c 8b 00             	mov    (%rax),%r8
  107d5c:	48 8b 45 d8          	mov    -0x28(%rbp),%rax
  107d60:	48 8b 50 10          	mov    0x10(%rax),%rdx
  107d64:	48 8b 45 d8          	mov    -0x28(%rbp),%rax
  107d68:	8b 40 08             	mov    0x8(%rax),%eax
  107d6b:	89 c6                	mov    %eax,%esi
  107d6d:	48 8b 45 d0          	mov    -0x30(%rbp),%rax
  107d71:	b9 01 00 00 00       	mov    $0x1,%ecx
  107d76:	48 89 c7             	mov    %rax,%rdi
  107d79:	41 ff d0             	callq  *%r8
  107d7c:	48 8d 3d ad 93 00 00 	lea    0x93ad(%rip),%rdi        # 111130 <_ZL8sc_ascii+0xd0>
  107d83:	b8 00 00 00 00       	mov    $0x0,%eax
  107d88:	e8 77 4a 00 00       	callq  10c804 <_Z7kprintfPKcz>
  107d8d:	48 8b 45 d8          	mov    -0x28(%rbp),%rax
  107d91:	48 8b 40 10          	mov    0x10(%rax),%rax
  107d95:	0f b6 40 10          	movzbl 0x10(%rax),%eax
  107d99:	0f b6 d0             	movzbl %al,%edx
  107d9c:	48 8b 45 d8          	mov    -0x28(%rbp),%rax
  107da0:	48 8b 40 10          	mov    0x10(%rax),%rax
  107da4:	8b 40 24             	mov    0x24(%rax),%eax
  107da7:	0f af d0             	imul   %eax,%edx
  107daa:	48 8b 45 d8          	mov    -0x28(%rbp),%rax
  107dae:	48 8b 40 10          	mov    0x10(%rax),%rax
  107db2:	0f b7 40 0e          	movzwl 0xe(%rax),%eax
  107db6:	0f b7 c0             	movzwl %ax,%eax
  107db9:	01 c2                	add    %eax,%edx
  107dbb:	48 8b 45 d8          	mov    -0x28(%rbp),%rax
  107dbf:	89 50 34             	mov    %edx,0x34(%rax)
  107dc2:	48 8b 45 d8          	mov    -0x28(%rbp),%rax
  107dc6:	48 8b 40 10          	mov    0x10(%rax),%rax
  107dca:	8b 50 2c             	mov    0x2c(%rax),%edx
  107dcd:	48 8b 45 d8          	mov    -0x28(%rbp),%rax
  107dd1:	89 50 38             	mov    %edx,0x38(%rax)
  107dd4:	48 8b 45 d8          	mov    -0x28(%rbp),%rax
  107dd8:	48 8b 40 10          	mov    0x10(%rax),%rax
  107ddc:	0f b7 40 13          	movzwl 0x13(%rax),%eax
  107de0:	66 85 c0             	test   %ax,%ax
  107de3:	75 14                	jne    107df9 <_ZN11FAT32DriverC1EP6Devicej+0x133>
  107de5:	48 8b 45 d8          	mov    -0x28(%rbp),%rax
  107de9:	48 8b 40 10          	mov    0x10(%rax),%rax
  107ded:	8b 50 20             	mov    0x20(%rax),%edx
  107df0:	48 8b 45 d8          	mov    -0x28(%rbp),%rax
  107df4:	89 50 3c             	mov    %edx,0x3c(%rax)
  107df7:	eb 16                	jmp    107e0f <_ZN11FAT32DriverC1EP6Devicej+0x149>
  107df9:	48 8b 45 d8          	mov    -0x28(%rbp),%rax
  107dfd:	48 8b 40 10          	mov    0x10(%rax),%rax
  107e01:	0f b7 40 13          	movzwl 0x13(%rax),%eax
  107e05:	0f b7 d0             	movzwl %ax,%edx
  107e08:	48 8b 45 d8          	mov    -0x28(%rbp),%rax
  107e0c:	89 50 3c             	mov    %edx,0x3c(%rax)
  107e0f:	48 8b 45 d8          	mov    -0x28(%rbp),%rax
  107e13:	8b 40 3c             	mov    0x3c(%rax),%eax
  107e16:	48 8b 55 d8          	mov    -0x28(%rbp),%rdx
  107e1a:	48 8b 52 10          	mov    0x10(%rdx),%rdx
  107e1e:	0f b6 52 0d          	movzbl 0xd(%rdx),%edx
  107e22:	0f b6 ca             	movzbl %dl,%ecx
  107e25:	ba 00 00 00 00       	mov    $0x0,%edx
  107e2a:	f7 f1                	div    %ecx
  107e2c:	89 c2                	mov    %eax,%edx
  107e2e:	48 8b 45 d8          	mov    -0x28(%rbp),%rax
  107e32:	89 50 40             	mov    %edx,0x40(%rax)
  107e35:	48 8b 45 d8          	mov    -0x28(%rbp),%rax
  107e39:	48 8b 40 10          	mov    0x10(%rax),%rax
  107e3d:	0f b6 40 0d          	movzbl 0xd(%rax),%eax
  107e41:	0f b6 d0             	movzbl %al,%edx
  107e44:	48 8b 45 d8          	mov    -0x28(%rbp),%rax
  107e48:	48 8b 40 10          	mov    0x10(%rax),%rax
  107e4c:	0f b7 40 0b          	movzwl 0xb(%rax),%eax
  107e50:	0f b7 c0             	movzwl %ax,%eax
  107e53:	0f af c2             	imul   %edx,%eax
  107e56:	89 c2                	mov    %eax,%edx
  107e58:	48 8b 45 d8          	mov    -0x28(%rbp),%rax
  107e5c:	89 50 30             	mov    %edx,0x30(%rax)
  107e5f:	48 8b 45 d8          	mov    -0x28(%rbp),%rax
  107e63:	8b 40 30             	mov    0x30(%rax),%eax
  107e66:	89 c0                	mov    %eax,%eax
  107e68:	48 89 c7             	mov    %rax,%rdi
  107e6b:	e8 ea 4f 00 00       	callq  10ce5a <_Z7kmallocm>
  107e70:	48 89 c2             	mov    %rax,%rdx
  107e73:	48 8b 45 d8          	mov    -0x28(%rbp),%rax
  107e77:	48 89 50 18          	mov    %rdx,0x18(%rax)
  107e7b:	48 8b 45 d8          	mov    -0x28(%rbp),%rax
  107e7f:	8b 40 30             	mov    0x30(%rax),%eax
  107e82:	89 c0                	mov    %eax,%eax
  107e84:	48 89 c7             	mov    %rax,%rdi
  107e87:	e8 ce 4f 00 00       	callq  10ce5a <_Z7kmallocm>
  107e8c:	48 89 c2             	mov    %rax,%rdx
  107e8f:	48 8b 45 d8          	mov    -0x28(%rbp),%rax
  107e93:	48 89 50 20          	mov    %rdx,0x20(%rax)
  107e97:	48 8b 45 d8          	mov    -0x28(%rbp),%rax
  107e9b:	48 8b 40 10          	mov    0x10(%rax),%rax
  107e9f:	8b 50 24             	mov    0x24(%rax),%edx
  107ea2:	48 8b 45 d8          	mov    -0x28(%rbp),%rax
  107ea6:	48 8b 40 10          	mov    0x10(%rax),%rax
  107eaa:	0f b7 40 0b          	movzwl 0xb(%rax),%eax
  107eae:	0f b7 c0             	movzwl %ax,%eax
  107eb1:	0f af c2             	imul   %edx,%eax
  107eb4:	89 c0                	mov    %eax,%eax
  107eb6:	48 89 c7             	mov    %rax,%rdi
  107eb9:	e8 9c 4f 00 00       	callq  10ce5a <_Z7kmallocm>
  107ebe:	48 89 c2             	mov    %rax,%rdx
  107ec1:	48 8b 45 d8          	mov    -0x28(%rbp),%rax
  107ec5:	48 89 50 28          	mov    %rdx,0x28(%rax)
  107ec9:	48 8b 45 d0          	mov    -0x30(%rbp),%rax
  107ecd:	48 8b 00             	mov    (%rax),%rax
  107ed0:	48 83 c0 18          	add    $0x18,%rax
  107ed4:	4c 8b 00             	mov    (%rax),%r8
  107ed7:	48 8b 45 d8          	mov    -0x28(%rbp),%rax
  107edb:	48 8b 40 10          	mov    0x10(%rax),%rax
  107edf:	8b 40 24             	mov    0x24(%rax),%eax
  107ee2:	89 c7                	mov    %eax,%edi
  107ee4:	48 8b 45 d8          	mov    -0x28(%rbp),%rax
  107ee8:	48 8b 50 28          	mov    0x28(%rax),%rdx
  107eec:	48 8b 45 d8          	mov    -0x28(%rbp),%rax
  107ef0:	8b 48 08             	mov    0x8(%rax),%ecx
  107ef3:	48 8b 45 d8          	mov    -0x28(%rbp),%rax
  107ef7:	48 8b 40 10          	mov    0x10(%rax),%rax
  107efb:	0f b7 40 0e          	movzwl 0xe(%rax),%eax
  107eff:	0f b7 c0             	movzwl %ax,%eax
  107f02:	01 c8                	add    %ecx,%eax
  107f04:	89 c6                	mov    %eax,%esi
  107f06:	48 8b 45 d0          	mov    -0x30(%rbp),%rax
  107f0a:	48 89 f9             	mov    %rdi,%rcx
  107f0d:	48 89 c7             	mov    %rax,%rdi
  107f10:	41 ff d0             	callq  *%r8
  107f13:	48 8d 3d 53 92 00 00 	lea    0x9253(%rip),%rdi        # 11116d <_ZL8sc_ascii+0x10d>
  107f1a:	b8 00 00 00 00       	mov    $0x0,%eax
  107f1f:	e8 e0 48 00 00       	callq  10c804 <_Z7kprintfPKcz>
  107f24:	48 8b 45 d8          	mov    -0x28(%rbp),%rax
  107f28:	8b 40 34             	mov    0x34(%rax),%eax
  107f2b:	89 c6                	mov    %eax,%esi
  107f2d:	48 8d 3d 47 92 00 00 	lea    0x9247(%rip),%rdi        # 11117b <_ZL8sc_ascii+0x11b>
  107f34:	b8 00 00 00 00       	mov    $0x0,%eax
  107f39:	e8 c6 48 00 00       	callq  10c804 <_Z7kprintfPKcz>
  107f3e:	48 8b 45 d8          	mov    -0x28(%rbp),%rax
  107f42:	8b 40 38             	mov    0x38(%rax),%eax
  107f45:	89 c6                	mov    %eax,%esi
  107f47:	48 8d 3d 4a 92 00 00 	lea    0x924a(%rip),%rdi        # 111198 <_ZL8sc_ascii+0x138>
  107f4e:	b8 00 00 00 00       	mov    $0x0,%eax
  107f53:	e8 ac 48 00 00       	callq  10c804 <_Z7kprintfPKcz>
  107f58:	48 8b 45 d8          	mov    -0x28(%rbp),%rax
  107f5c:	8b 40 3c             	mov    0x3c(%rax),%eax
  107f5f:	89 c6                	mov    %eax,%esi
  107f61:	48 8d 3d 53 92 00 00 	lea    0x9253(%rip),%rdi        # 1111bb <_ZL8sc_ascii+0x15b>
  107f68:	b8 00 00 00 00       	mov    $0x0,%eax
  107f6d:	e8 92 48 00 00       	callq  10c804 <_Z7kprintfPKcz>
  107f72:	48 8b 45 d8          	mov    -0x28(%rbp),%rax
  107f76:	8b 40 40             	mov    0x40(%rax),%eax
  107f79:	89 c6                	mov    %eax,%esi
  107f7b:	48 8d 3d 55 92 00 00 	lea    0x9255(%rip),%rdi        # 1111d7 <_ZL8sc_ascii+0x177>
  107f82:	b8 00 00 00 00       	mov    $0x0,%eax
  107f87:	e8 78 48 00 00       	callq  10c804 <_Z7kprintfPKcz>
  107f8c:	48 8b 45 d8          	mov    -0x28(%rbp),%rax
  107f90:	8b 40 30             	mov    0x30(%rax),%eax
  107f93:	89 c6                	mov    %eax,%esi
  107f95:	48 8d 3d 54 92 00 00 	lea    0x9254(%rip),%rdi        # 1111f0 <_ZL8sc_ascii+0x190>
  107f9c:	b8 00 00 00 00       	mov    $0x0,%eax
  107fa1:	e8 5e 48 00 00       	callq  10c804 <_Z7kprintfPKcz>
  107fa6:	90                   	nop
  107fa7:	c9                   	leaveq 
  107fa8:	c3                   	retq   
  107fa9:	90                   	nop

0000000000107faa <_ZN11FAT32DriverD1Ev>:
  107faa:	f3 0f 1e fa          	endbr64 
  107fae:	55                   	push   %rbp
  107faf:	48 89 e5             	mov    %rsp,%rbp
  107fb2:	48 83 ec 20          	sub    $0x20,%rsp
  107fb6:	48 89 7d e8          	mov    %rdi,-0x18(%rbp)
  107fba:	48 8b 45 e8          	mov    -0x18(%rbp),%rax
  107fbe:	48 8b 00             	mov    (%rax),%rax
  107fc1:	48 8b 55 e8          	mov    -0x18(%rbp),%rdx
  107fc5:	48 8b 12             	mov    (%rdx),%rdx
  107fc8:	48 8b 12             	mov    (%rdx),%rdx
  107fcb:	48 83 c2 20          	add    $0x20,%rdx
  107fcf:	4c 8b 02             	mov    (%rdx),%r8
  107fd2:	48 8b 55 e8          	mov    -0x18(%rbp),%rdx
  107fd6:	48 8b 52 10          	mov    0x10(%rdx),%rdx
  107fda:	48 8b 4d e8          	mov    -0x18(%rbp),%rcx
  107fde:	8b 49 08             	mov    0x8(%rcx),%ecx
  107fe1:	89 ce                	mov    %ecx,%esi
  107fe3:	b9 01 00 00 00       	mov    $0x1,%ecx
  107fe8:	48 89 c7             	mov    %rax,%rdi
  107feb:	41 ff d0             	callq  *%r8
  107fee:	48 8b 45 e8          	mov    -0x18(%rbp),%rax
  107ff2:	48 8b 00             	mov    (%rax),%rax
  107ff5:	48 8b 55 e8          	mov    -0x18(%rbp),%rdx
  107ff9:	48 8b 12             	mov    (%rdx),%rdx
  107ffc:	48 8b 12             	mov    (%rdx),%rdx
  107fff:	48 83 c2 20          	add    $0x20,%rdx
  108003:	4c 8b 02             	mov    (%rdx),%r8
  108006:	48 8b 55 e8          	mov    -0x18(%rbp),%rdx
  10800a:	48 8b 52 10          	mov    0x10(%rdx),%rdx
  10800e:	48 8b 4d e8          	mov    -0x18(%rbp),%rcx
  108012:	8b 71 08             	mov    0x8(%rcx),%esi
  108015:	48 8b 4d e8          	mov    -0x18(%rbp),%rcx
  108019:	48 8b 49 10          	mov    0x10(%rcx),%rcx
  10801d:	0f b7 49 32          	movzwl 0x32(%rcx),%ecx
  108021:	0f b7 c9             	movzwl %cx,%ecx
  108024:	01 f1                	add    %esi,%ecx
  108026:	89 ce                	mov    %ecx,%esi
  108028:	b9 01 00 00 00       	mov    $0x1,%ecx
  10802d:	48 89 c7             	mov    %rax,%rdi
  108030:	41 ff d0             	callq  *%r8
  108033:	c7 45 fc 00 00 00 00 	movl   $0x0,-0x4(%rbp)
  10803a:	48 8b 45 e8          	mov    -0x18(%rbp),%rax
  10803e:	48 8b 40 10          	mov    0x10(%rax),%rax
  108042:	0f b6 40 10          	movzbl 0x10(%rax),%eax
  108046:	0f b6 c0             	movzbl %al,%eax
  108049:	39 45 fc             	cmp    %eax,-0x4(%rbp)
  10804c:	73 67                	jae    1080b5 <_ZN11FAT32DriverD1Ev+0x10b>
  10804e:	48 8b 45 e8          	mov    -0x18(%rbp),%rax
  108052:	48 8b 00             	mov    (%rax),%rax
  108055:	48 8b 55 e8          	mov    -0x18(%rbp),%rdx
  108059:	48 8b 12             	mov    (%rdx),%rdx
  10805c:	48 8b 12             	mov    (%rdx),%rdx
  10805f:	48 83 c2 20          	add    $0x20,%rdx
  108063:	4c 8b 02             	mov    (%rdx),%r8
  108066:	48 8b 55 e8          	mov    -0x18(%rbp),%rdx
  10806a:	48 8b 52 10          	mov    0x10(%rdx),%rdx
  10806e:	8b 52 24             	mov    0x24(%rdx),%edx
  108071:	89 d7                	mov    %edx,%edi
  108073:	48 8b 55 e8          	mov    -0x18(%rbp),%rdx
  108077:	48 8b 52 28          	mov    0x28(%rdx),%rdx
  10807b:	48 8b 4d e8          	mov    -0x18(%rbp),%rcx
  10807f:	8b 71 08             	mov    0x8(%rcx),%esi
  108082:	48 8b 4d e8          	mov    -0x18(%rbp),%rcx
  108086:	48 8b 49 10          	mov    0x10(%rcx),%rcx
  10808a:	0f b7 49 0e          	movzwl 0xe(%rcx),%ecx
  10808e:	0f b7 c9             	movzwl %cx,%ecx
  108091:	01 ce                	add    %ecx,%esi
  108093:	48 8b 4d e8          	mov    -0x18(%rbp),%rcx
  108097:	48 8b 49 10          	mov    0x10(%rcx),%rcx
  10809b:	8b 49 24             	mov    0x24(%rcx),%ecx
  10809e:	0f af 4d fc          	imul   -0x4(%rbp),%ecx
  1080a2:	01 f1                	add    %esi,%ecx
  1080a4:	89 ce                	mov    %ecx,%esi
  1080a6:	48 89 f9             	mov    %rdi,%rcx
  1080a9:	48 89 c7             	mov    %rax,%rdi
  1080ac:	41 ff d0             	callq  *%r8
  1080af:	83 45 fc 01          	addl   $0x1,-0x4(%rbp)
  1080b3:	eb 85                	jmp    10803a <_ZN11FAT32DriverD1Ev+0x90>
  1080b5:	48 8b 45 e8          	mov    -0x18(%rbp),%rax
  1080b9:	48 8b 40 18          	mov    0x18(%rax),%rax
  1080bd:	48 89 c7             	mov    %rax,%rdi
  1080c0:	e8 ed 4c 00 00       	callq  10cdb2 <_Z5kfreePv>
  1080c5:	48 8b 45 e8          	mov    -0x18(%rbp),%rax
  1080c9:	48 8b 40 20          	mov    0x20(%rax),%rax
  1080cd:	48 89 c7             	mov    %rax,%rdi
  1080d0:	e8 dd 4c 00 00       	callq  10cdb2 <_Z5kfreePv>
  1080d5:	48 8b 45 e8          	mov    -0x18(%rbp),%rax
  1080d9:	48 8b 40 28          	mov    0x28(%rax),%rax
  1080dd:	48 89 c7             	mov    %rax,%rdi
  1080e0:	e8 cd 4c 00 00       	callq  10cdb2 <_Z5kfreePv>
  1080e5:	48 8b 45 e8          	mov    -0x18(%rbp),%rax
  1080e9:	48 8b 40 10          	mov    0x10(%rax),%rax
  1080ed:	48 89 c7             	mov    %rax,%rdi
  1080f0:	e8 bd 4c 00 00       	callq  10cdb2 <_Z5kfreePv>
  1080f5:	90                   	nop
  1080f6:	c9                   	leaveq 
  1080f7:	c3                   	retq   

00000000001080f8 <_ZN11FAT32Driver7ReadFATEj>:
  1080f8:	f3 0f 1e fa          	endbr64 
  1080fc:	55                   	push   %rbp
  1080fd:	48 89 e5             	mov    %rsp,%rbp
  108100:	48 83 ec 10          	sub    $0x10,%rsp
  108104:	48 89 7d f8          	mov    %rdi,-0x8(%rbp)
  108108:	89 75 f4             	mov    %esi,-0xc(%rbp)
  10810b:	83 7d f4 01          	cmpl   $0x1,-0xc(%rbp)
  10810f:	76 0c                	jbe    10811d <_ZN11FAT32Driver7ReadFATEj+0x25>
  108111:	48 8b 45 f8          	mov    -0x8(%rbp),%rax
  108115:	8b 40 40             	mov    0x40(%rax),%eax
  108118:	39 45 f4             	cmp    %eax,-0xc(%rbp)
  10811b:	76 07                	jbe    108124 <_ZN11FAT32Driver7ReadFATEj+0x2c>
  10811d:	b8 ff ff ff ff       	mov    $0xffffffff,%eax
  108122:	eb 19                	jmp    10813d <_ZN11FAT32Driver7ReadFATEj+0x45>
  108124:	48 8b 45 f8          	mov    -0x8(%rbp),%rax
  108128:	48 8b 40 28          	mov    0x28(%rax),%rax
  10812c:	8b 55 f4             	mov    -0xc(%rbp),%edx
  10812f:	48 c1 e2 02          	shl    $0x2,%rdx
  108133:	48 01 d0             	add    %rdx,%rax
  108136:	8b 00                	mov    (%rax),%eax
  108138:	25 ff ff ff 0f       	and    $0xfffffff,%eax
  10813d:	c9                   	leaveq 
  10813e:	c3                   	retq   
  10813f:	90                   	nop

0000000000108140 <_ZN11FAT32Driver8WriteFATEjj>:
  108140:	f3 0f 1e fa          	endbr64 
  108144:	55                   	push   %rbp
  108145:	48 89 e5             	mov    %rsp,%rbp
  108148:	48 83 ec 10          	sub    $0x10,%rsp
  10814c:	48 89 7d f8          	mov    %rdi,-0x8(%rbp)
  108150:	89 75 f4             	mov    %esi,-0xc(%rbp)
  108153:	89 55 f0             	mov    %edx,-0x10(%rbp)
  108156:	83 7d f4 01          	cmpl   $0x1,-0xc(%rbp)
  10815a:	76 0c                	jbe    108168 <_ZN11FAT32Driver8WriteFATEjj+0x28>
  10815c:	48 8b 45 f8          	mov    -0x8(%rbp),%rax
  108160:	8b 40 40             	mov    0x40(%rax),%eax
  108163:	39 45 f4             	cmp    %eax,-0xc(%rbp)
  108166:	76 07                	jbe    10816f <_ZN11FAT32Driver8WriteFATEjj+0x2f>
  108168:	b8 ff ff ff ff       	mov    $0xffffffff,%eax
  10816d:	eb 67                	jmp    1081d6 <_ZN11FAT32Driver8WriteFATEjj+0x96>
  10816f:	48 8b 45 f8          	mov    -0x8(%rbp),%rax
  108173:	48 8b 40 28          	mov    0x28(%rax),%rax
  108177:	8b 55 f4             	mov    -0xc(%rbp),%edx
  10817a:	48 c1 e2 02          	shl    $0x2,%rdx
  10817e:	48 01 d0             	add    %rdx,%rax
  108181:	8b 10                	mov    (%rax),%edx
  108183:	48 8b 45 f8          	mov    -0x8(%rbp),%rax
  108187:	48 8b 40 28          	mov    0x28(%rax),%rax
  10818b:	8b 4d f4             	mov    -0xc(%rbp),%ecx
  10818e:	48 c1 e1 02          	shl    $0x2,%rcx
  108192:	48 01 c8             	add    %rcx,%rax
  108195:	81 e2 00 00 00 f0    	and    $0xf0000000,%edx
  10819b:	89 10                	mov    %edx,(%rax)
  10819d:	48 8b 45 f8          	mov    -0x8(%rbp),%rax
  1081a1:	48 8b 40 28          	mov    0x28(%rax),%rax
  1081a5:	8b 55 f4             	mov    -0xc(%rbp),%edx
  1081a8:	48 c1 e2 02          	shl    $0x2,%rdx
  1081ac:	48 01 d0             	add    %rdx,%rax
  1081af:	8b 10                	mov    (%rax),%edx
  1081b1:	8b 45 f0             	mov    -0x10(%rbp),%eax
  1081b4:	25 ff ff ff 0f       	and    $0xfffffff,%eax
  1081b9:	89 c6                	mov    %eax,%esi
  1081bb:	48 8b 45 f8          	mov    -0x8(%rbp),%rax
  1081bf:	48 8b 40 28          	mov    0x28(%rax),%rax
  1081c3:	8b 4d f4             	mov    -0xc(%rbp),%ecx
  1081c6:	48 c1 e1 02          	shl    $0x2,%rcx
  1081ca:	48 01 c8             	add    %rcx,%rax
  1081cd:	09 f2                	or     %esi,%edx
  1081cf:	89 10                	mov    %edx,(%rax)
  1081d1:	b8 00 00 00 00       	mov    $0x0,%eax
  1081d6:	c9                   	leaveq 
  1081d7:	c3                   	retq   

00000000001081d8 <_ZN11FAT32Driver11ReadClusterEjPv>:
  1081d8:	f3 0f 1e fa          	endbr64 
  1081dc:	55                   	push   %rbp
  1081dd:	48 89 e5             	mov    %rsp,%rbp
  1081e0:	48 83 ec 30          	sub    $0x30,%rsp
  1081e4:	48 89 7d e8          	mov    %rdi,-0x18(%rbp)
  1081e8:	89 75 e4             	mov    %esi,-0x1c(%rbp)
  1081eb:	48 89 55 d8          	mov    %rdx,-0x28(%rbp)
  1081ef:	83 7d e4 01          	cmpl   $0x1,-0x1c(%rbp)
  1081f3:	76 0c                	jbe    108201 <_ZN11FAT32Driver11ReadClusterEjPv+0x29>
  1081f5:	48 8b 45 e8          	mov    -0x18(%rbp),%rax
  1081f9:	8b 40 40             	mov    0x40(%rax),%eax
  1081fc:	39 45 e4             	cmp    %eax,-0x1c(%rbp)
  1081ff:	76 07                	jbe    108208 <_ZN11FAT32Driver11ReadClusterEjPv+0x30>
  108201:	b8 ff ff ff ff       	mov    $0xffffffff,%eax
  108206:	eb 78                	jmp    108280 <_ZN11FAT32Driver11ReadClusterEjPv+0xa8>
  108208:	8b 45 e4             	mov    -0x1c(%rbp),%eax
  10820b:	8d 50 fe             	lea    -0x2(%rax),%edx
  10820e:	48 8b 45 e8          	mov    -0x18(%rbp),%rax
  108212:	48 8b 40 10          	mov    0x10(%rax),%rax
  108216:	0f b6 40 0d          	movzbl 0xd(%rax),%eax
  10821a:	0f b6 c0             	movzbl %al,%eax
  10821d:	0f af d0             	imul   %eax,%edx
  108220:	48 8b 45 e8          	mov    -0x18(%rbp),%rax
  108224:	8b 40 34             	mov    0x34(%rax),%eax
  108227:	01 d0                	add    %edx,%eax
  108229:	89 45 fc             	mov    %eax,-0x4(%rbp)
  10822c:	48 8b 45 e8          	mov    -0x18(%rbp),%rax
  108230:	48 8b 38             	mov    (%rax),%rdi
  108233:	48 8b 45 e8          	mov    -0x18(%rbp),%rax
  108237:	48 8b 00             	mov    (%rax),%rax
  10823a:	48 8b 00             	mov    (%rax),%rax
  10823d:	48 83 c0 18          	add    $0x18,%rax
  108241:	4c 8b 00             	mov    (%rax),%r8
  108244:	48 8b 45 e8          	mov    -0x18(%rbp),%rax
  108248:	8b 40 30             	mov    0x30(%rax),%eax
  10824b:	48 8b 55 e8          	mov    -0x18(%rbp),%rdx
  10824f:	48 8b 52 10          	mov    0x10(%rdx),%rdx
  108253:	0f b7 52 0b          	movzwl 0xb(%rdx),%edx
  108257:	0f b7 ca             	movzwl %dx,%ecx
  10825a:	ba 00 00 00 00       	mov    $0x0,%edx
  10825f:	f7 f1                	div    %ecx
  108261:	89 c1                	mov    %eax,%ecx
  108263:	48 8b 45 e8          	mov    -0x18(%rbp),%rax
  108267:	8b 50 08             	mov    0x8(%rax),%edx
  10826a:	8b 45 fc             	mov    -0x4(%rbp),%eax
  10826d:	01 d0                	add    %edx,%eax
  10826f:	89 c6                	mov    %eax,%esi
  108271:	48 8b 45 d8          	mov    -0x28(%rbp),%rax
  108275:	48 89 c2             	mov    %rax,%rdx
  108278:	41 ff d0             	callq  *%r8
  10827b:	b8 00 00 00 00       	mov    $0x0,%eax
  108280:	c9                   	leaveq 
  108281:	c3                   	retq   

0000000000108282 <_ZN11FAT32Driver12WriteClusterEjPv>:
  108282:	f3 0f 1e fa          	endbr64 
  108286:	55                   	push   %rbp
  108287:	48 89 e5             	mov    %rsp,%rbp
  10828a:	48 83 ec 30          	sub    $0x30,%rsp
  10828e:	48 89 7d e8          	mov    %rdi,-0x18(%rbp)
  108292:	89 75 e4             	mov    %esi,-0x1c(%rbp)
  108295:	48 89 55 d8          	mov    %rdx,-0x28(%rbp)
  108299:	83 7d e4 01          	cmpl   $0x1,-0x1c(%rbp)
  10829d:	76 0c                	jbe    1082ab <_ZN11FAT32Driver12WriteClusterEjPv+0x29>
  10829f:	48 8b 45 e8          	mov    -0x18(%rbp),%rax
  1082a3:	8b 40 40             	mov    0x40(%rax),%eax
  1082a6:	39 45 e4             	cmp    %eax,-0x1c(%rbp)
  1082a9:	76 07                	jbe    1082b2 <_ZN11FAT32Driver12WriteClusterEjPv+0x30>
  1082ab:	b8 ff ff ff ff       	mov    $0xffffffff,%eax
  1082b0:	eb 78                	jmp    10832a <_ZN11FAT32Driver12WriteClusterEjPv+0xa8>
  1082b2:	8b 45 e4             	mov    -0x1c(%rbp),%eax
  1082b5:	8d 50 fe             	lea    -0x2(%rax),%edx
  1082b8:	48 8b 45 e8          	mov    -0x18(%rbp),%rax
  1082bc:	48 8b 40 10          	mov    0x10(%rax),%rax
  1082c0:	0f b6 40 0d          	movzbl 0xd(%rax),%eax
  1082c4:	0f b6 c0             	movzbl %al,%eax
  1082c7:	0f af d0             	imul   %eax,%edx
  1082ca:	48 8b 45 e8          	mov    -0x18(%rbp),%rax
  1082ce:	8b 40 34             	mov    0x34(%rax),%eax
  1082d1:	01 d0                	add    %edx,%eax
  1082d3:	89 45 fc             	mov    %eax,-0x4(%rbp)
  1082d6:	48 8b 45 e8          	mov    -0x18(%rbp),%rax
  1082da:	48 8b 38             	mov    (%rax),%rdi
  1082dd:	48 8b 45 e8          	mov    -0x18(%rbp),%rax
  1082e1:	48 8b 00             	mov    (%rax),%rax
  1082e4:	48 8b 00             	mov    (%rax),%rax
  1082e7:	48 83 c0 20          	add    $0x20,%rax
  1082eb:	4c 8b 00             	mov    (%rax),%r8
  1082ee:	48 8b 45 e8          	mov    -0x18(%rbp),%rax
  1082f2:	8b 40 30             	mov    0x30(%rax),%eax
  1082f5:	48 8b 55 e8          	mov    -0x18(%rbp),%rdx
  1082f9:	48 8b 52 10          	mov    0x10(%rdx),%rdx
  1082fd:	0f b7 52 0b          	movzwl 0xb(%rdx),%edx
  108301:	0f b7 ca             	movzwl %dx,%ecx
  108304:	ba 00 00 00 00       	mov    $0x0,%edx
  108309:	f7 f1                	div    %ecx
  10830b:	89 c1                	mov    %eax,%ecx
  10830d:	48 8b 45 e8          	mov    -0x18(%rbp),%rax
  108311:	8b 50 08             	mov    0x8(%rax),%edx
  108314:	8b 45 fc             	mov    -0x4(%rbp),%eax
  108317:	01 d0                	add    %edx,%eax
  108319:	89 c6                	mov    %eax,%esi
  10831b:	48 8b 45 d8          	mov    -0x28(%rbp),%rax
  10831f:	48 89 c2             	mov    %rax,%rdx
  108322:	41 ff d0             	callq  *%r8
  108325:	b8 00 00 00 00       	mov    $0x0,%eax
  10832a:	c9                   	leaveq 
  10832b:	c3                   	retq   

000000000010832c <_ZN11FAT32Driver15GetClusterChainEj>:
  10832c:	f3 0f 1e fa          	endbr64 
  108330:	55                   	push   %rbp
  108331:	48 89 e5             	mov    %rsp,%rbp
  108334:	48 83 ec 50          	sub    $0x50,%rsp
  108338:	48 89 7d c8          	mov    %rdi,-0x38(%rbp)
  10833c:	48 89 75 c0          	mov    %rsi,-0x40(%rbp)
  108340:	89 55 bc             	mov    %edx,-0x44(%rbp)
  108343:	8b 45 bc             	mov    -0x44(%rbp),%eax
  108346:	83 f8 01             	cmp    $0x1,%eax
  108349:	76 0e                	jbe    108359 <_ZN11FAT32Driver15GetClusterChainEj+0x2d>
  10834b:	48 8b 45 c0          	mov    -0x40(%rbp),%rax
  10834f:	8b 50 40             	mov    0x40(%rax),%edx
  108352:	8b 45 bc             	mov    -0x44(%rbp),%eax
  108355:	39 c2                	cmp    %eax,%edx
  108357:	73 11                	jae    10836a <_ZN11FAT32Driver15GetClusterChainEj+0x3e>
  108359:	48 8b 45 c8          	mov    -0x38(%rbp),%rax
  10835d:	48 89 c7             	mov    %rax,%rdi
  108360:	e8 2b 61 00 00       	callq  10e490 <_ZN6vectorIjEC1Ev>
  108365:	e9 90 00 00 00       	jmpq   1083fa <_ZN11FAT32Driver15GetClusterChainEj+0xce>
  10836a:	48 8d 45 e0          	lea    -0x20(%rbp),%rax
  10836e:	48 89 c7             	mov    %rax,%rdi
  108371:	e8 1a 61 00 00       	callq  10e490 <_ZN6vectorIjEC1Ev>
  108376:	48 8d 55 bc          	lea    -0x44(%rbp),%rdx
  10837a:	48 8d 45 e0          	lea    -0x20(%rbp),%rax
  10837e:	48 89 d6             	mov    %rdx,%rsi
  108381:	48 89 c7             	mov    %rax,%rdi
  108384:	e8 77 61 00 00       	callq  10e500 <_ZN6vectorIjE9push_backERKj>
  108389:	8b 45 bc             	mov    -0x44(%rbp),%eax
  10838c:	89 45 dc             	mov    %eax,-0x24(%rbp)
  10838f:	8b 55 dc             	mov    -0x24(%rbp),%edx
  108392:	48 8b 45 c0          	mov    -0x40(%rbp),%rax
  108396:	89 d6                	mov    %edx,%esi
  108398:	48 89 c7             	mov    %rax,%rdi
  10839b:	e8 58 fd ff ff       	callq  1080f8 <_ZN11FAT32Driver7ReadFATEj>
  1083a0:	89 45 dc             	mov    %eax,-0x24(%rbp)
  1083a3:	8b 45 dc             	mov    -0x24(%rbp),%eax
  1083a6:	3d f7 ff ff 0f       	cmp    $0xffffff7,%eax
  1083ab:	75 0e                	jne    1083bb <_ZN11FAT32Driver15GetClusterChainEj+0x8f>
  1083ad:	48 8b 45 c8          	mov    -0x38(%rbp),%rax
  1083b1:	48 89 c7             	mov    %rax,%rdi
  1083b4:	e8 d7 60 00 00       	callq  10e490 <_ZN6vectorIjEC1Ev>
  1083b9:	eb 33                	jmp    1083ee <_ZN11FAT32Driver15GetClusterChainEj+0xc2>
  1083bb:	8b 45 dc             	mov    -0x24(%rbp),%eax
  1083be:	3d f7 ff ff 0f       	cmp    $0xffffff7,%eax
  1083c3:	77 15                	ja     1083da <_ZN11FAT32Driver15GetClusterChainEj+0xae>
  1083c5:	48 8d 55 dc          	lea    -0x24(%rbp),%rdx
  1083c9:	48 8d 45 e0          	lea    -0x20(%rbp),%rax
  1083cd:	48 89 d6             	mov    %rdx,%rsi
  1083d0:	48 89 c7             	mov    %rax,%rdi
  1083d3:	e8 28 61 00 00       	callq  10e500 <_ZN6vectorIjE9push_backERKj>
  1083d8:	eb b5                	jmp    10838f <_ZN11FAT32Driver15GetClusterChainEj+0x63>
  1083da:	90                   	nop
  1083db:	48 8d 55 e0          	lea    -0x20(%rbp),%rdx
  1083df:	48 8b 45 c8          	mov    -0x38(%rbp),%rax
  1083e3:	48 89 d6             	mov    %rdx,%rsi
  1083e6:	48 89 c7             	mov    %rax,%rdi
  1083e9:	e8 84 61 00 00       	callq  10e572 <_ZN6vectorIjEC1ERKS0_>
  1083ee:	48 8d 45 e0          	lea    -0x20(%rbp),%rax
  1083f2:	48 89 c7             	mov    %rax,%rdi
  1083f5:	e8 d6 60 00 00       	callq  10e4d0 <_ZN6vectorIjED1Ev>
  1083fa:	48 8b 45 c8          	mov    -0x38(%rbp),%rax
  1083fe:	c9                   	leaveq 
  1083ff:	c3                   	retq   

0000000000108400 <_ZN11FAT32Driver20AllocateClusterChainEj>:
  108400:	f3 0f 1e fa          	endbr64 
  108404:	55                   	push   %rbp
  108405:	48 89 e5             	mov    %rsp,%rbp
  108408:	48 83 ec 30          	sub    $0x30,%rsp
  10840c:	48 89 7d d8          	mov    %rdi,-0x28(%rbp)
  108410:	89 75 d4             	mov    %esi,-0x2c(%rbp)
  108413:	c7 45 fc 00 00 00 00 	movl   $0x0,-0x4(%rbp)
  10841a:	c7 45 f8 02 00 00 00 	movl   $0x2,-0x8(%rbp)
  108421:	8b 45 f8             	mov    -0x8(%rbp),%eax
  108424:	89 45 f4             	mov    %eax,-0xc(%rbp)
  108427:	c7 45 f0 00 00 00 00 	movl   $0x0,-0x10(%rbp)
  10842e:	c7 45 ec 00 00 00 00 	movl   $0x0,-0x14(%rbp)
  108435:	8b 45 fc             	mov    -0x4(%rbp),%eax
  108438:	3b 45 d4             	cmp    -0x2c(%rbp),%eax
  10843b:	0f 83 a4 00 00 00    	jae    1084e5 <_ZN11FAT32Driver20AllocateClusterChainEj+0xe5>
  108441:	48 8b 45 d8          	mov    -0x28(%rbp),%rax
  108445:	8b 40 40             	mov    0x40(%rax),%eax
  108448:	39 45 f8             	cmp    %eax,-0x8(%rbp)
  10844b:	72 0a                	jb     108457 <_ZN11FAT32Driver20AllocateClusterChainEj+0x57>
  10844d:	b8 f7 ff ff 0f       	mov    $0xffffff7,%eax
  108452:	e9 91 00 00 00       	jmpq   1084e8 <_ZN11FAT32Driver20AllocateClusterChainEj+0xe8>
  108457:	8b 55 f8             	mov    -0x8(%rbp),%edx
  10845a:	48 8b 45 d8          	mov    -0x28(%rbp),%rax
  10845e:	89 d6                	mov    %edx,%esi
  108460:	48 89 c7             	mov    %rax,%rdi
  108463:	e8 90 fc ff ff       	callq  1080f8 <_ZN11FAT32Driver7ReadFATEj>
  108468:	89 45 ec             	mov    %eax,-0x14(%rbp)
  10846b:	83 7d ec 00          	cmpl   $0x0,-0x14(%rbp)
  10846f:	75 6b                	jne    1084dc <_ZN11FAT32Driver20AllocateClusterChainEj+0xdc>
  108471:	83 7d fc 00          	cmpl   $0x0,-0x4(%rbp)
  108475:	74 24                	je     10849b <_ZN11FAT32Driver20AllocateClusterChainEj+0x9b>
  108477:	8b 55 f8             	mov    -0x8(%rbp),%edx
  10847a:	8b 4d f4             	mov    -0xc(%rbp),%ecx
  10847d:	48 8b 45 d8          	mov    -0x28(%rbp),%rax
  108481:	89 ce                	mov    %ecx,%esi
  108483:	48 89 c7             	mov    %rax,%rdi
  108486:	e8 b5 fc ff ff       	callq  108140 <_ZN11FAT32Driver8WriteFATEjj>
  10848b:	85 c0                	test   %eax,%eax
  10848d:	0f 95 c0             	setne  %al
  108490:	84 c0                	test   %al,%al
  108492:	74 0d                	je     1084a1 <_ZN11FAT32Driver20AllocateClusterChainEj+0xa1>
  108494:	b8 f7 ff ff 0f       	mov    $0xffffff7,%eax
  108499:	eb 4d                	jmp    1084e8 <_ZN11FAT32Driver20AllocateClusterChainEj+0xe8>
  10849b:	8b 45 f8             	mov    -0x8(%rbp),%eax
  10849e:	89 45 f0             	mov    %eax,-0x10(%rbp)
  1084a1:	8b 45 d4             	mov    -0x2c(%rbp),%eax
  1084a4:	83 e8 01             	sub    $0x1,%eax
  1084a7:	39 45 fc             	cmp    %eax,-0x4(%rbp)
  1084aa:	75 26                	jne    1084d2 <_ZN11FAT32Driver20AllocateClusterChainEj+0xd2>
  1084ac:	8b 4d f8             	mov    -0x8(%rbp),%ecx
  1084af:	48 8b 45 d8          	mov    -0x28(%rbp),%rax
  1084b3:	ba f8 ff ff 0f       	mov    $0xffffff8,%edx
  1084b8:	89 ce                	mov    %ecx,%esi
  1084ba:	48 89 c7             	mov    %rax,%rdi
  1084bd:	e8 7e fc ff ff       	callq  108140 <_ZN11FAT32Driver8WriteFATEjj>
  1084c2:	85 c0                	test   %eax,%eax
  1084c4:	0f 95 c0             	setne  %al
  1084c7:	84 c0                	test   %al,%al
  1084c9:	74 07                	je     1084d2 <_ZN11FAT32Driver20AllocateClusterChainEj+0xd2>
  1084cb:	b8 f7 ff ff 0f       	mov    $0xffffff7,%eax
  1084d0:	eb 16                	jmp    1084e8 <_ZN11FAT32Driver20AllocateClusterChainEj+0xe8>
  1084d2:	83 45 fc 01          	addl   $0x1,-0x4(%rbp)
  1084d6:	8b 45 f8             	mov    -0x8(%rbp),%eax
  1084d9:	89 45 f4             	mov    %eax,-0xc(%rbp)
  1084dc:	83 45 f8 01          	addl   $0x1,-0x8(%rbp)
  1084e0:	e9 50 ff ff ff       	jmpq   108435 <_ZN11FAT32Driver20AllocateClusterChainEj+0x35>
  1084e5:	8b 45 f0             	mov    -0x10(%rbp),%eax
  1084e8:	c9                   	leaveq 
  1084e9:	c3                   	retq   

00000000001084ea <_ZN11FAT32Driver16FreeClusterChainEj>:
  1084ea:	f3 0f 1e fa          	endbr64 
  1084ee:	55                   	push   %rbp
  1084ef:	48 89 e5             	mov    %rsp,%rbp
  1084f2:	53                   	push   %rbx
  1084f3:	48 83 ec 38          	sub    $0x38,%rsp
  1084f7:	48 89 7d c8          	mov    %rdi,-0x38(%rbp)
  1084fb:	89 75 c4             	mov    %esi,-0x3c(%rbp)
  1084fe:	48 8d 45 d0          	lea    -0x30(%rbp),%rax
  108502:	8b 55 c4             	mov    -0x3c(%rbp),%edx
  108505:	48 8b 4d c8          	mov    -0x38(%rbp),%rcx
  108509:	48 89 ce             	mov    %rcx,%rsi
  10850c:	48 89 c7             	mov    %rax,%rdi
  10850f:	e8 18 fe ff ff       	callq  10832c <_ZN11FAT32Driver15GetClusterChainEj>
  108514:	c7 45 ec 00 00 00 00 	movl   $0x0,-0x14(%rbp)
  10851b:	8b 5d ec             	mov    -0x14(%rbp),%ebx
  10851e:	48 8d 45 d0          	lea    -0x30(%rbp),%rax
  108522:	48 89 c7             	mov    %rax,%rdi
  108525:	e8 de 60 00 00       	callq  10e608 <_ZNK6vectorIjE4sizeEv>
  10852a:	48 39 c3             	cmp    %rax,%rbx
  10852d:	0f 92 c0             	setb   %al
  108530:	84 c0                	test   %al,%al
  108532:	74 2d                	je     108561 <_ZN11FAT32Driver16FreeClusterChainEj+0x77>
  108534:	8b 55 ec             	mov    -0x14(%rbp),%edx
  108537:	48 8d 45 d0          	lea    -0x30(%rbp),%rax
  10853b:	48 89 d6             	mov    %rdx,%rsi
  10853e:	48 89 c7             	mov    %rax,%rdi
  108541:	e8 dc 60 00 00       	callq  10e622 <_ZN6vectorIjEixEm>
  108546:	8b 08                	mov    (%rax),%ecx
  108548:	48 8b 45 c8          	mov    -0x38(%rbp),%rax
  10854c:	ba 00 00 00 00       	mov    $0x0,%edx
  108551:	89 ce                	mov    %ecx,%esi
  108553:	48 89 c7             	mov    %rax,%rdi
  108556:	e8 e5 fb ff ff       	callq  108140 <_ZN11FAT32Driver8WriteFATEjj>
  10855b:	83 45 ec 01          	addl   $0x1,-0x14(%rbp)
  10855f:	eb ba                	jmp    10851b <_ZN11FAT32Driver16FreeClusterChainEj+0x31>
  108561:	48 8d 45 d0          	lea    -0x30(%rbp),%rax
  108565:	48 89 c7             	mov    %rax,%rdi
  108568:	e8 63 5f 00 00       	callq  10e4d0 <_ZN6vectorIjED1Ev>
  10856d:	90                   	nop
  10856e:	48 83 c4 38          	add    $0x38,%rsp
  108572:	5b                   	pop    %rbx
  108573:	5d                   	pop    %rbp
  108574:	c3                   	retq   
  108575:	90                   	nop

0000000000108576 <_ZN11FAT32Driver16ReadClusterChainEjRj>:
  108576:	f3 0f 1e fa          	endbr64 
  10857a:	55                   	push   %rbp
  10857b:	48 89 e5             	mov    %rsp,%rbp
  10857e:	53                   	push   %rbx
  10857f:	48 83 ec 58          	sub    $0x58,%rsp
  108583:	48 89 7d b8          	mov    %rdi,-0x48(%rbp)
  108587:	89 75 b4             	mov    %esi,-0x4c(%rbp)
  10858a:	48 89 55 a8          	mov    %rdx,-0x58(%rbp)
  10858e:	83 7d b4 01          	cmpl   $0x1,-0x4c(%rbp)
  108592:	76 0c                	jbe    1085a0 <_ZN11FAT32Driver16ReadClusterChainEjRj+0x2a>
  108594:	48 8b 45 b8          	mov    -0x48(%rbp),%rax
  108598:	8b 40 40             	mov    0x40(%rax),%eax
  10859b:	39 45 b4             	cmp    %eax,-0x4c(%rbp)
  10859e:	76 0a                	jbe    1085aa <_ZN11FAT32Driver16ReadClusterChainEjRj+0x34>
  1085a0:	bb 00 00 00 00       	mov    $0x0,%ebx
  1085a5:	e9 a7 00 00 00       	jmpq   108651 <_ZN11FAT32Driver16ReadClusterChainEjRj+0xdb>
  1085aa:	48 8d 45 c0          	lea    -0x40(%rbp),%rax
  1085ae:	8b 55 b4             	mov    -0x4c(%rbp),%edx
  1085b1:	48 8b 4d b8          	mov    -0x48(%rbp),%rcx
  1085b5:	48 89 ce             	mov    %rcx,%rsi
  1085b8:	48 89 c7             	mov    %rax,%rdi
  1085bb:	e8 6c fd ff ff       	callq  10832c <_ZN11FAT32Driver15GetClusterChainEj>
  1085c0:	48 8d 45 c0          	lea    -0x40(%rbp),%rax
  1085c4:	48 89 c7             	mov    %rax,%rdi
  1085c7:	e8 3c 60 00 00       	callq  10e608 <_ZNK6vectorIjE4sizeEv>
  1085cc:	89 45 e0             	mov    %eax,-0x20(%rbp)
  1085cf:	48 8b 45 b8          	mov    -0x48(%rbp),%rax
  1085d3:	8b 40 30             	mov    0x30(%rax),%eax
  1085d6:	0f af 45 e0          	imul   -0x20(%rbp),%eax
  1085da:	89 c2                	mov    %eax,%edx
  1085dc:	48 8b 45 a8          	mov    -0x58(%rbp),%rax
  1085e0:	89 10                	mov    %edx,(%rax)
  1085e2:	48 8b 45 a8          	mov    -0x58(%rbp),%rax
  1085e6:	8b 00                	mov    (%rax),%eax
  1085e8:	89 c0                	mov    %eax,%eax
  1085ea:	48 89 c7             	mov    %rax,%rdi
  1085ed:	e8 09 b4 ff ff       	callq  1039fb <_Znam>
  1085f2:	48 89 45 e8          	mov    %rax,-0x18(%rbp)
  1085f6:	c7 45 e4 00 00 00 00 	movl   $0x0,-0x1c(%rbp)
  1085fd:	48 8b 45 a8          	mov    -0x58(%rbp),%rax
  108601:	8b 00                	mov    (%rax),%eax
  108603:	39 45 e4             	cmp    %eax,-0x1c(%rbp)
  108606:	73 39                	jae    108641 <_ZN11FAT32Driver16ReadClusterChainEjRj+0xcb>
  108608:	8b 55 e4             	mov    -0x1c(%rbp),%edx
  10860b:	48 8d 45 c0          	lea    -0x40(%rbp),%rax
  10860f:	48 89 d6             	mov    %rdx,%rsi
  108612:	48 89 c7             	mov    %rax,%rdi
  108615:	e8 08 60 00 00       	callq  10e622 <_ZN6vectorIjEixEm>
  10861a:	8b 08                	mov    (%rax),%ecx
  10861c:	48 8b 55 e8          	mov    -0x18(%rbp),%rdx
  108620:	48 8b 45 b8          	mov    -0x48(%rbp),%rax
  108624:	89 ce                	mov    %ecx,%esi
  108626:	48 89 c7             	mov    %rax,%rdi
  108629:	e8 aa fb ff ff       	callq  1081d8 <_ZN11FAT32Driver11ReadClusterEjPv>
  10862e:	48 8b 45 b8          	mov    -0x48(%rbp),%rax
  108632:	8b 40 30             	mov    0x30(%rax),%eax
  108635:	89 c0                	mov    %eax,%eax
  108637:	48 01 45 e8          	add    %rax,-0x18(%rbp)
  10863b:	83 45 e4 01          	addl   $0x1,-0x1c(%rbp)
  10863f:	eb bc                	jmp    1085fd <_ZN11FAT32Driver16ReadClusterChainEjRj+0x87>
  108641:	48 8b 5d e8          	mov    -0x18(%rbp),%rbx
  108645:	48 8d 45 c0          	lea    -0x40(%rbp),%rax
  108649:	48 89 c7             	mov    %rax,%rdi
  10864c:	e8 7f 5e 00 00       	callq  10e4d0 <_ZN6vectorIjED1Ev>
  108651:	48 89 d8             	mov    %rbx,%rax
  108654:	48 83 c4 58          	add    $0x58,%rsp
  108658:	5b                   	pop    %rbx
  108659:	5d                   	pop    %rbp
  10865a:	c3                   	retq   
  10865b:	90                   	nop

000000000010865c <_ZN11FAT32Driver17WriteClusterChainEjPvj>:
  10865c:	f3 0f 1e fa          	endbr64 
  108660:	55                   	push   %rbp
  108661:	48 89 e5             	mov    %rsp,%rbp
  108664:	48 83 ec 50          	sub    $0x50,%rsp
  108668:	48 89 7d c8          	mov    %rdi,-0x38(%rbp)
  10866c:	89 75 c4             	mov    %esi,-0x3c(%rbp)
  10866f:	48 89 55 b8          	mov    %rdx,-0x48(%rbp)
  108673:	89 4d c0             	mov    %ecx,-0x40(%rbp)
  108676:	48 8d 45 d0          	lea    -0x30(%rbp),%rax
  10867a:	8b 55 c4             	mov    -0x3c(%rbp),%edx
  10867d:	48 8b 4d c8          	mov    -0x38(%rbp),%rcx
  108681:	48 89 ce             	mov    %rcx,%rsi
  108684:	48 89 c7             	mov    %rax,%rdi
  108687:	e8 a0 fc ff ff       	callq  10832c <_ZN11FAT32Driver15GetClusterChainEj>
  10868c:	48 8d 45 d0          	lea    -0x30(%rbp),%rax
  108690:	48 89 c7             	mov    %rax,%rdi
  108693:	e8 70 5f 00 00       	callq  10e608 <_ZNK6vectorIjE4sizeEv>
  108698:	89 45 e8             	mov    %eax,-0x18(%rbp)
  10869b:	8b 45 c0             	mov    -0x40(%rbp),%eax
  10869e:	89 45 fc             	mov    %eax,-0x4(%rbp)
  1086a1:	8b 45 fc             	mov    -0x4(%rbp),%eax
  1086a4:	3b 45 e8             	cmp    -0x18(%rbp),%eax
  1086a7:	76 06                	jbe    1086af <_ZN11FAT32Driver17WriteClusterChainEjPvj+0x53>
  1086a9:	8b 45 e8             	mov    -0x18(%rbp),%eax
  1086ac:	89 45 fc             	mov    %eax,-0x4(%rbp)
  1086af:	48 8b 45 b8          	mov    -0x48(%rbp),%rax
  1086b3:	48 89 45 f0          	mov    %rax,-0x10(%rbp)
  1086b7:	c7 45 ec 00 00 00 00 	movl   $0x0,-0x14(%rbp)
  1086be:	8b 45 ec             	mov    -0x14(%rbp),%eax
  1086c1:	3b 45 fc             	cmp    -0x4(%rbp),%eax
  1086c4:	73 39                	jae    1086ff <_ZN11FAT32Driver17WriteClusterChainEjPvj+0xa3>
  1086c6:	8b 55 ec             	mov    -0x14(%rbp),%edx
  1086c9:	48 8d 45 d0          	lea    -0x30(%rbp),%rax
  1086cd:	48 89 d6             	mov    %rdx,%rsi
  1086d0:	48 89 c7             	mov    %rax,%rdi
  1086d3:	e8 4a 5f 00 00       	callq  10e622 <_ZN6vectorIjEixEm>
  1086d8:	8b 08                	mov    (%rax),%ecx
  1086da:	48 8b 55 f0          	mov    -0x10(%rbp),%rdx
  1086de:	48 8b 45 c8          	mov    -0x38(%rbp),%rax
  1086e2:	89 ce                	mov    %ecx,%esi
  1086e4:	48 89 c7             	mov    %rax,%rdi
  1086e7:	e8 96 fb ff ff       	callq  108282 <_ZN11FAT32Driver12WriteClusterEjPv>
  1086ec:	48 8b 45 c8          	mov    -0x38(%rbp),%rax
  1086f0:	8b 40 30             	mov    0x30(%rax),%eax
  1086f3:	89 c0                	mov    %eax,%eax
  1086f5:	48 01 45 f0          	add    %rax,-0x10(%rbp)
  1086f9:	83 45 ec 01          	addl   $0x1,-0x14(%rbp)
  1086fd:	eb bf                	jmp    1086be <_ZN11FAT32Driver17WriteClusterChainEjPvj+0x62>
  1086ff:	48 8d 45 d0          	lea    -0x30(%rbp),%rax
  108703:	48 89 c7             	mov    %rax,%rdi
  108706:	e8 c5 5d 00 00       	callq  10e4d0 <_ZN6vectorIjED1Ev>
  10870b:	90                   	nop
  10870c:	c9                   	leaveq 
  10870d:	c3                   	retq   

000000000010870e <_ZN11FAT32Driver18ResizeClusterChainEjj>:
  10870e:	f3 0f 1e fa          	endbr64 
  108712:	55                   	push   %rbp
  108713:	48 89 e5             	mov    %rsp,%rbp
  108716:	53                   	push   %rbx
  108717:	48 83 ec 38          	sub    $0x38,%rsp
  10871b:	48 89 7d c8          	mov    %rdi,-0x38(%rbp)
  10871f:	89 75 c4             	mov    %esi,-0x3c(%rbp)
  108722:	89 55 c0             	mov    %edx,-0x40(%rbp)
  108725:	48 8d 45 d0          	lea    -0x30(%rbp),%rax
  108729:	8b 55 c4             	mov    -0x3c(%rbp),%edx
  10872c:	48 8b 4d c8          	mov    -0x38(%rbp),%rcx
  108730:	48 89 ce             	mov    %rcx,%rsi
  108733:	48 89 c7             	mov    %rax,%rdi
  108736:	e8 f1 fb ff ff       	callq  10832c <_ZN11FAT32Driver15GetClusterChainEj>
  10873b:	48 8d 45 d0          	lea    -0x30(%rbp),%rax
  10873f:	48 89 c7             	mov    %rax,%rdi
  108742:	e8 c1 5e 00 00       	callq  10e608 <_ZNK6vectorIjE4sizeEv>
  108747:	89 45 ec             	mov    %eax,-0x14(%rbp)
  10874a:	8b 45 ec             	mov    -0x14(%rbp),%eax
  10874d:	3b 45 c0             	cmp    -0x40(%rbp),%eax
  108750:	75 0a                	jne    10875c <_ZN11FAT32Driver18ResizeClusterChainEjj+0x4e>
  108752:	bb 00 00 00 00       	mov    $0x0,%ebx
  108757:	e9 a0 00 00 00       	jmpq   1087fc <_ZN11FAT32Driver18ResizeClusterChainEjj+0xee>
  10875c:	8b 45 ec             	mov    -0x14(%rbp),%eax
  10875f:	3b 45 c0             	cmp    -0x40(%rbp),%eax
  108762:	76 50                	jbe    1087b4 <_ZN11FAT32Driver18ResizeClusterChainEjj+0xa6>
  108764:	8b 45 c0             	mov    -0x40(%rbp),%eax
  108767:	83 e8 01             	sub    $0x1,%eax
  10876a:	89 c2                	mov    %eax,%edx
  10876c:	48 8d 45 d0          	lea    -0x30(%rbp),%rax
  108770:	48 89 d6             	mov    %rdx,%rsi
  108773:	48 89 c7             	mov    %rax,%rdi
  108776:	e8 a7 5e 00 00       	callq  10e622 <_ZN6vectorIjEixEm>
  10877b:	8b 08                	mov    (%rax),%ecx
  10877d:	48 8b 45 c8          	mov    -0x38(%rbp),%rax
  108781:	ba f8 ff ff 0f       	mov    $0xffffff8,%edx
  108786:	89 ce                	mov    %ecx,%esi
  108788:	48 89 c7             	mov    %rax,%rdi
  10878b:	e8 b0 f9 ff ff       	callq  108140 <_ZN11FAT32Driver8WriteFATEjj>
  108790:	8b 55 c0             	mov    -0x40(%rbp),%edx
  108793:	48 8d 45 d0          	lea    -0x30(%rbp),%rax
  108797:	48 89 d6             	mov    %rdx,%rsi
  10879a:	48 89 c7             	mov    %rax,%rdi
  10879d:	e8 80 5e 00 00       	callq  10e622 <_ZN6vectorIjEixEm>
  1087a2:	8b 10                	mov    (%rax),%edx
  1087a4:	48 8b 45 c8          	mov    -0x38(%rbp),%rax
  1087a8:	89 d6                	mov    %edx,%esi
  1087aa:	48 89 c7             	mov    %rax,%rdi
  1087ad:	e8 38 fd ff ff       	callq  1084ea <_ZN11FAT32Driver16FreeClusterChainEj>
  1087b2:	eb 43                	jmp    1087f7 <_ZN11FAT32Driver18ResizeClusterChainEjj+0xe9>
  1087b4:	8b 45 c0             	mov    -0x40(%rbp),%eax
  1087b7:	2b 45 ec             	sub    -0x14(%rbp),%eax
  1087ba:	89 c2                	mov    %eax,%edx
  1087bc:	48 8b 45 c8          	mov    -0x38(%rbp),%rax
  1087c0:	89 d6                	mov    %edx,%esi
  1087c2:	48 89 c7             	mov    %rax,%rdi
  1087c5:	e8 36 fc ff ff       	callq  108400 <_ZN11FAT32Driver20AllocateClusterChainEj>
  1087ca:	89 45 e8             	mov    %eax,-0x18(%rbp)
  1087cd:	8b 45 ec             	mov    -0x14(%rbp),%eax
  1087d0:	83 e8 01             	sub    $0x1,%eax
  1087d3:	89 c2                	mov    %eax,%edx
  1087d5:	48 8d 45 d0          	lea    -0x30(%rbp),%rax
  1087d9:	48 89 d6             	mov    %rdx,%rsi
  1087dc:	48 89 c7             	mov    %rax,%rdi
  1087df:	e8 3e 5e 00 00       	callq  10e622 <_ZN6vectorIjEixEm>
  1087e4:	8b 08                	mov    (%rax),%ecx
  1087e6:	8b 55 e8             	mov    -0x18(%rbp),%edx
  1087e9:	48 8b 45 c8          	mov    -0x38(%rbp),%rax
  1087ed:	89 ce                	mov    %ecx,%esi
  1087ef:	48 89 c7             	mov    %rax,%rdi
  1087f2:	e8 49 f9 ff ff       	callq  108140 <_ZN11FAT32Driver8WriteFATEjj>
  1087f7:	bb 01 00 00 00       	mov    $0x1,%ebx
  1087fc:	48 8d 45 d0          	lea    -0x30(%rbp),%rax
  108800:	48 89 c7             	mov    %rax,%rdi
  108803:	e8 c8 5c 00 00       	callq  10e4d0 <_ZN6vectorIjED1Ev>
  108808:	83 fb 01             	cmp    $0x1,%ebx
  10880b:	48 83 c4 38          	add    $0x38,%rsp
  10880f:	5b                   	pop    %rbx
  108810:	5d                   	pop    %rbp
  108811:	c3                   	retq   

0000000000108812 <_ZN11FAT32Driver23GetDirectoriesOnClusterEjR6vectorI8DirEntryE>:
  108812:	f3 0f 1e fa          	endbr64 
  108816:	55                   	push   %rbp
  108817:	48 89 e5             	mov    %rsp,%rbp
  10881a:	48 81 ec d0 00 00 00 	sub    $0xd0,%rsp
  108821:	48 89 bd 48 ff ff ff 	mov    %rdi,-0xb8(%rbp)
  108828:	89 b5 44 ff ff ff    	mov    %esi,-0xbc(%rbp)
  10882e:	48 89 95 38 ff ff ff 	mov    %rdx,-0xc8(%rbp)
  108835:	83 bd 44 ff ff ff 01 	cmpl   $0x1,-0xbc(%rbp)
  10883c:	0f 86 5c 01 00 00    	jbe    10899e <_ZN11FAT32Driver23GetDirectoriesOnClusterEjR6vectorI8DirEntryE+0x18c>
  108842:	48 8b 85 48 ff ff ff 	mov    -0xb8(%rbp),%rax
  108849:	8b 40 40             	mov    0x40(%rax),%eax
  10884c:	39 85 44 ff ff ff    	cmp    %eax,-0xbc(%rbp)
  108852:	0f 87 46 01 00 00    	ja     10899e <_ZN11FAT32Driver23GetDirectoriesOnClusterEjR6vectorI8DirEntryE+0x18c>
  108858:	48 8b 85 48 ff ff ff 	mov    -0xb8(%rbp),%rax
  10885f:	48 8b 50 18          	mov    0x18(%rax),%rdx
  108863:	8b 8d 44 ff ff ff    	mov    -0xbc(%rbp),%ecx
  108869:	48 8b 85 48 ff ff ff 	mov    -0xb8(%rbp),%rax
  108870:	89 ce                	mov    %ecx,%esi
  108872:	48 89 c7             	mov    %rax,%rdi
  108875:	e8 5e f9 ff ff       	callq  1081d8 <_ZN11FAT32Driver11ReadClusterEjPv>
  10887a:	48 8b 85 48 ff ff ff 	mov    -0xb8(%rbp),%rax
  108881:	48 8b 40 18          	mov    0x18(%rax),%rax
  108885:	48 89 45 f8          	mov    %rax,-0x8(%rbp)
  108889:	c7 45 f4 00 00 00 00 	movl   $0x0,-0xc(%rbp)
  108890:	c6 45 f3 00          	movb   $0x0,-0xd(%rbp)
  108894:	48 8b 45 f8          	mov    -0x8(%rbp),%rax
  108898:	0f b6 00             	movzbl (%rax),%eax
  10889b:	84 c0                	test   %al,%al
  10889d:	0f 84 fe 00 00 00    	je     1089a1 <_ZN11FAT32Driver23GetDirectoriesOnClusterEjR6vectorI8DirEntryE+0x18f>
  1088a3:	48 8b 45 f8          	mov    -0x8(%rbp),%rax
  1088a7:	0f b6 00             	movzbl (%rax),%eax
  1088aa:	3c e5                	cmp    $0xe5,%al
  1088ac:	74 17                	je     1088c5 <_ZN11FAT32Driver23GetDirectoriesOnClusterEjR6vectorI8DirEntryE+0xb3>
  1088ae:	48 8b 45 f8          	mov    -0x8(%rbp),%rax
  1088b2:	0f b6 40 0b          	movzbl 0xb(%rax),%eax
  1088b6:	0f b6 c0             	movzbl %al,%eax
  1088b9:	83 e0 0f             	and    $0xf,%eax
  1088bc:	83 f8 0f             	cmp    $0xf,%eax
  1088bf:	0f 85 81 00 00 00    	jne    108946 <_ZN11FAT32Driver23GetDirectoriesOnClusterEjR6vectorI8DirEntryE+0x134>
  1088c5:	48 8b 45 f8          	mov    -0x8(%rbp),%rax
  1088c9:	0f b6 40 0b          	movzbl 0xb(%rax),%eax
  1088cd:	0f b6 c0             	movzbl %al,%eax
  1088d0:	83 e0 0f             	and    $0xf,%eax
  1088d3:	83 f8 0f             	cmp    $0xf,%eax
  1088d6:	0f 94 c0             	sete   %al
  1088d9:	88 45 f3             	mov    %al,-0xd(%rbp)
  1088dc:	8b 55 f4             	mov    -0xc(%rbp),%edx
  1088df:	48 8b 85 48 ff ff ff 	mov    -0xb8(%rbp),%rax
  1088e6:	8b 40 30             	mov    0x30(%rax),%eax
  1088e9:	89 c0                	mov    %eax,%eax
  1088eb:	48 c1 e8 05          	shr    $0x5,%rax
  1088ef:	48 83 e8 01          	sub    $0x1,%rax
  1088f3:	48 39 c2             	cmp    %rax,%rdx
  1088f6:	73 0e                	jae    108906 <_ZN11FAT32Driver23GetDirectoriesOnClusterEjR6vectorI8DirEntryE+0xf4>
  1088f8:	48 83 45 f8 20       	addq   $0x20,-0x8(%rbp)
  1088fd:	83 45 f4 01          	addl   $0x1,-0xc(%rbp)
  108901:	e9 93 00 00 00       	jmpq   108999 <_ZN11FAT32Driver23GetDirectoriesOnClusterEjR6vectorI8DirEntryE+0x187>
  108906:	8b 95 44 ff ff ff    	mov    -0xbc(%rbp),%edx
  10890c:	48 8b 85 48 ff ff ff 	mov    -0xb8(%rbp),%rax
  108913:	89 d6                	mov    %edx,%esi
  108915:	48 89 c7             	mov    %rax,%rdi
  108918:	e8 db f7 ff ff       	callq  1080f8 <_ZN11FAT32Driver7ReadFATEj>
  10891d:	89 45 ec             	mov    %eax,-0x14(%rbp)
  108920:	81 7d ec f7 ff ff 0f 	cmpl   $0xffffff7,-0x14(%rbp)
  108927:	77 7b                	ja     1089a4 <_ZN11FAT32Driver23GetDirectoriesOnClusterEjR6vectorI8DirEntryE+0x192>
  108929:	48 8b 95 38 ff ff ff 	mov    -0xc8(%rbp),%rdx
  108930:	8b 4d ec             	mov    -0x14(%rbp),%ecx
  108933:	48 8b 85 48 ff ff ff 	mov    -0xb8(%rbp),%rax
  10893a:	89 ce                	mov    %ecx,%esi
  10893c:	48 89 c7             	mov    %rax,%rdi
  10893f:	e8 ce fe ff ff       	callq  108812 <_ZN11FAT32Driver23GetDirectoriesOnClusterEjR6vectorI8DirEntryE>
  108944:	eb 5f                	jmp    1089a5 <_ZN11FAT32Driver23GetDirectoriesOnClusterEjR6vectorI8DirEntryE+0x193>
  108946:	0f b6 4d f3          	movzbl -0xd(%rbp),%ecx
  10894a:	48 8d 85 50 ff ff ff 	lea    -0xb0(%rbp),%rax
  108951:	48 8b 55 f8          	mov    -0x8(%rbp),%rdx
  108955:	48 8b b5 48 ff ff ff 	mov    -0xb8(%rbp),%rsi
  10895c:	48 89 c7             	mov    %rax,%rdi
  10895f:	e8 3c 1c 00 00       	callq  10a5a0 <_ZN11FAT32Driver12FromFATEntryEP14DirectoryEntryb>
  108964:	8b 85 44 ff ff ff    	mov    -0xbc(%rbp),%eax
  10896a:	89 45 dc             	mov    %eax,-0x24(%rbp)
  10896d:	8b 45 f4             	mov    -0xc(%rbp),%eax
  108970:	89 45 e0             	mov    %eax,-0x20(%rbp)
  108973:	48 8d 95 50 ff ff ff 	lea    -0xb0(%rbp),%rdx
  10897a:	48 8b 85 38 ff ff ff 	mov    -0xc8(%rbp),%rax
  108981:	48 89 d6             	mov    %rdx,%rsi
  108984:	48 89 c7             	mov    %rax,%rdi
  108987:	e8 d0 5c 00 00       	callq  10e65c <_ZN6vectorI8DirEntryE9push_backERKS0_>
  10898c:	c6 45 f3 00          	movb   $0x0,-0xd(%rbp)
  108990:	48 83 45 f8 20       	addq   $0x20,-0x8(%rbp)
  108995:	83 45 f4 01          	addl   $0x1,-0xc(%rbp)
  108999:	e9 f6 fe ff ff       	jmpq   108894 <_ZN11FAT32Driver23GetDirectoriesOnClusterEjR6vectorI8DirEntryE+0x82>
  10899e:	90                   	nop
  10899f:	eb 04                	jmp    1089a5 <_ZN11FAT32Driver23GetDirectoriesOnClusterEjR6vectorI8DirEntryE+0x193>
  1089a1:	90                   	nop
  1089a2:	eb 01                	jmp    1089a5 <_ZN11FAT32Driver23GetDirectoriesOnClusterEjR6vectorI8DirEntryE+0x193>
  1089a4:	90                   	nop
  1089a5:	c9                   	leaveq 
  1089a6:	c3                   	retq   
  1089a7:	90                   	nop

00000000001089a8 <_ZN11FAT32Driver14GetDirectoriesEjjb>:
  1089a8:	f3 0f 1e fa          	endbr64 
  1089ac:	55                   	push   %rbp
  1089ad:	48 89 e5             	mov    %rsp,%rbp
  1089b0:	48 83 ec 40          	sub    $0x40,%rsp
  1089b4:	48 89 7d d8          	mov    %rdi,-0x28(%rbp)
  1089b8:	48 89 75 d0          	mov    %rsi,-0x30(%rbp)
  1089bc:	89 55 cc             	mov    %edx,-0x34(%rbp)
  1089bf:	89 4d c8             	mov    %ecx,-0x38(%rbp)
  1089c2:	44 89 c0             	mov    %r8d,%eax
  1089c5:	88 45 c4             	mov    %al,-0x3c(%rbp)
  1089c8:	48 8b 45 d8          	mov    -0x28(%rbp),%rax
  1089cc:	48 89 c7             	mov    %rax,%rdi
  1089cf:	e8 b2 5d 00 00       	callq  10e786 <_ZN6vectorI8DirEntryEC1Ev>
  1089d4:	83 7d cc 01          	cmpl   $0x1,-0x34(%rbp)
  1089d8:	0f 86 19 01 00 00    	jbe    108af7 <_ZN11FAT32Driver14GetDirectoriesEjjb+0x14f>
  1089de:	48 8b 45 d0          	mov    -0x30(%rbp),%rax
  1089e2:	8b 40 40             	mov    0x40(%rax),%eax
  1089e5:	39 45 cc             	cmp    %eax,-0x34(%rbp)
  1089e8:	0f 87 09 01 00 00    	ja     108af7 <_ZN11FAT32Driver14GetDirectoriesEjjb+0x14f>
  1089ee:	48 8d 45 e0          	lea    -0x20(%rbp),%rax
  1089f2:	48 89 c7             	mov    %rax,%rdi
  1089f5:	e8 8c 5d 00 00       	callq  10e786 <_ZN6vectorI8DirEntryEC1Ev>
  1089fa:	48 8d 55 e0          	lea    -0x20(%rbp),%rdx
  1089fe:	8b 4d cc             	mov    -0x34(%rbp),%ecx
  108a01:	48 8b 45 d0          	mov    -0x30(%rbp),%rax
  108a05:	89 ce                	mov    %ecx,%esi
  108a07:	48 89 c7             	mov    %rax,%rdi
  108a0a:	e8 03 fe ff ff       	callq  108812 <_ZN11FAT32Driver23GetDirectoriesOnClusterEjR6vectorI8DirEntryE>
  108a0f:	48 c7 45 f8 00 00 00 	movq   $0x0,-0x8(%rbp)
  108a16:	00 
  108a17:	48 8d 45 e0          	lea    -0x20(%rbp),%rax
  108a1b:	48 89 c7             	mov    %rax,%rdi
  108a1e:	e8 09 5a 00 00       	callq  10e42c <_ZNK6vectorI8DirEntryE4sizeEv>
  108a23:	48 39 45 f8          	cmp    %rax,-0x8(%rbp)
  108a27:	0f 92 c0             	setb   %al
  108a2a:	84 c0                	test   %al,%al
  108a2c:	0f 84 b6 00 00 00    	je     108ae8 <_ZN11FAT32Driver14GetDirectoriesEjjb+0x140>
  108a32:	0f b6 45 c4          	movzbl -0x3c(%rbp),%eax
  108a36:	83 f0 01             	xor    $0x1,%eax
  108a39:	84 c0                	test   %al,%al
  108a3b:	74 50                	je     108a8d <_ZN11FAT32Driver14GetDirectoriesEjjb+0xe5>
  108a3d:	48 8b 55 f8          	mov    -0x8(%rbp),%rdx
  108a41:	48 8d 45 e0          	lea    -0x20(%rbp),%rax
  108a45:	48 89 d6             	mov    %rdx,%rsi
  108a48:	48 89 c7             	mov    %rax,%rdi
  108a4b:	e8 f6 59 00 00       	callq  10e446 <_ZN6vectorI8DirEntryEixEm>
  108a50:	0f b6 80 88 00 00 00 	movzbl 0x88(%rax),%eax
  108a57:	0f b6 c0             	movzbl %al,%eax
  108a5a:	23 45 c8             	and    -0x38(%rbp),%eax
  108a5d:	85 c0                	test   %eax,%eax
  108a5f:	0f 95 c0             	setne  %al
  108a62:	84 c0                	test   %al,%al
  108a64:	75 77                	jne    108add <_ZN11FAT32Driver14GetDirectoriesEjjb+0x135>
  108a66:	48 8b 55 f8          	mov    -0x8(%rbp),%rdx
  108a6a:	48 8d 45 e0          	lea    -0x20(%rbp),%rax
  108a6e:	48 89 d6             	mov    %rdx,%rsi
  108a71:	48 89 c7             	mov    %rax,%rdi
  108a74:	e8 cd 59 00 00       	callq  10e446 <_ZN6vectorI8DirEntryEixEm>
  108a79:	48 89 c2             	mov    %rax,%rdx
  108a7c:	48 8b 45 d8          	mov    -0x28(%rbp),%rax
  108a80:	48 89 d6             	mov    %rdx,%rsi
  108a83:	48 89 c7             	mov    %rax,%rdi
  108a86:	e8 d1 5b 00 00       	callq  10e65c <_ZN6vectorI8DirEntryE9push_backERKS0_>
  108a8b:	eb 51                	jmp    108ade <_ZN11FAT32Driver14GetDirectoriesEjjb+0x136>
  108a8d:	48 8b 55 f8          	mov    -0x8(%rbp),%rdx
  108a91:	48 8d 45 e0          	lea    -0x20(%rbp),%rax
  108a95:	48 89 d6             	mov    %rdx,%rsi
  108a98:	48 89 c7             	mov    %rax,%rdi
  108a9b:	e8 a6 59 00 00       	callq  10e446 <_ZN6vectorI8DirEntryEixEm>
  108aa0:	0f b6 80 88 00 00 00 	movzbl 0x88(%rax),%eax
  108aa7:	0f b6 c0             	movzbl %al,%eax
  108aaa:	23 45 c8             	and    -0x38(%rbp),%eax
  108aad:	85 c0                	test   %eax,%eax
  108aaf:	0f 95 c0             	setne  %al
  108ab2:	84 c0                	test   %al,%al
  108ab4:	74 28                	je     108ade <_ZN11FAT32Driver14GetDirectoriesEjjb+0x136>
  108ab6:	48 8b 55 f8          	mov    -0x8(%rbp),%rdx
  108aba:	48 8d 45 e0          	lea    -0x20(%rbp),%rax
  108abe:	48 89 d6             	mov    %rdx,%rsi
  108ac1:	48 89 c7             	mov    %rax,%rdi
  108ac4:	e8 7d 59 00 00       	callq  10e446 <_ZN6vectorI8DirEntryEixEm>
  108ac9:	48 89 c2             	mov    %rax,%rdx
  108acc:	48 8b 45 d8          	mov    -0x28(%rbp),%rax
  108ad0:	48 89 d6             	mov    %rdx,%rsi
  108ad3:	48 89 c7             	mov    %rax,%rdi
  108ad6:	e8 81 5b 00 00       	callq  10e65c <_ZN6vectorI8DirEntryE9push_backERKS0_>
  108adb:	eb 01                	jmp    108ade <_ZN11FAT32Driver14GetDirectoriesEjjb+0x136>
  108add:	90                   	nop
  108ade:	48 83 45 f8 01       	addq   $0x1,-0x8(%rbp)
  108ae3:	e9 2f ff ff ff       	jmpq   108a17 <_ZN11FAT32Driver14GetDirectoriesEjjb+0x6f>
  108ae8:	90                   	nop
  108ae9:	48 8d 45 e0          	lea    -0x20(%rbp),%rax
  108aed:	48 89 c7             	mov    %rax,%rdi
  108af0:	e8 07 59 00 00       	callq  10e3fc <_ZN6vectorI8DirEntryED1Ev>
  108af5:	eb 01                	jmp    108af8 <_ZN11FAT32Driver14GetDirectoriesEjjb+0x150>
  108af7:	90                   	nop
  108af8:	48 8b 45 d8          	mov    -0x28(%rbp),%rax
  108afc:	c9                   	leaveq 
  108afd:	c3                   	retq   

0000000000108afe <_ZN11FAT32Driver20ModifyDirectoryEntryEjPKc8DirEntry>:
  108afe:	f3 0f 1e fa          	endbr64 
  108b02:	55                   	push   %rbp
  108b03:	48 89 e5             	mov    %rsp,%rbp
  108b06:	53                   	push   %rbx
  108b07:	48 83 ec 58          	sub    $0x58,%rsp
  108b0b:	48 89 7d b8          	mov    %rdi,-0x48(%rbp)
  108b0f:	89 75 b4             	mov    %esi,-0x4c(%rbp)
  108b12:	48 89 55 a8          	mov    %rdx,-0x58(%rbp)
  108b16:	c6 45 ef 00          	movb   $0x0,-0x11(%rbp)
  108b1a:	48 8b 55 a8          	mov    -0x58(%rbp),%rdx
  108b1e:	48 8b 45 b8          	mov    -0x48(%rbp),%rax
  108b22:	48 89 d6             	mov    %rdx,%rsi
  108b25:	48 89 c7             	mov    %rax,%rdi
  108b28:	e8 e3 22 00 00       	callq  10ae10 <_ZN11FAT32Driver11IsFATFormatEPc>
  108b2d:	85 c0                	test   %eax,%eax
  108b2f:	0f 95 c0             	setne  %al
  108b32:	84 c0                	test   %al,%al
  108b34:	74 04                	je     108b3a <_ZN11FAT32Driver20ModifyDirectoryEntryEjPKc8DirEntry+0x3c>
  108b36:	c6 45 ef 01          	movb   $0x1,-0x11(%rbp)
  108b3a:	48 8b 45 b8          	mov    -0x48(%rbp),%rax
  108b3e:	48 8b 50 18          	mov    0x18(%rax),%rdx
  108b42:	8b 4d b4             	mov    -0x4c(%rbp),%ecx
  108b45:	48 8b 45 b8          	mov    -0x48(%rbp),%rax
  108b49:	89 ce                	mov    %ecx,%esi
  108b4b:	48 89 c7             	mov    %rax,%rdi
  108b4e:	e8 85 f6 ff ff       	callq  1081d8 <_ZN11FAT32Driver11ReadClusterEjPv>
  108b53:	48 8b 45 b8          	mov    -0x48(%rbp),%rax
  108b57:	48 8b 40 18          	mov    0x18(%rax),%rax
  108b5b:	48 89 45 e0          	mov    %rax,-0x20(%rbp)
  108b5f:	c7 45 dc 00 00 00 00 	movl   $0x0,-0x24(%rbp)
  108b66:	c7 45 c0 00 00 00 00 	movl   $0x0,-0x40(%rbp)
  108b6d:	48 8d 75 c0          	lea    -0x40(%rbp),%rsi
  108b71:	48 8b 55 b8          	mov    -0x48(%rbp),%rdx
  108b75:	48 83 ec 08          	sub    $0x8,%rsp
  108b79:	48 81 ec 98 00 00 00 	sub    $0x98,%rsp
  108b80:	48 89 e0             	mov    %rsp,%rax
  108b83:	48 8b 4d 10          	mov    0x10(%rbp),%rcx
  108b87:	48 8b 5d 18          	mov    0x18(%rbp),%rbx
  108b8b:	48 89 08             	mov    %rcx,(%rax)
  108b8e:	48 89 58 08          	mov    %rbx,0x8(%rax)
  108b92:	48 8b 4d 20          	mov    0x20(%rbp),%rcx
  108b96:	48 8b 5d 28          	mov    0x28(%rbp),%rbx
  108b9a:	48 89 48 10          	mov    %rcx,0x10(%rax)
  108b9e:	48 89 58 18          	mov    %rbx,0x18(%rax)
  108ba2:	48 8b 4d 30          	mov    0x30(%rbp),%rcx
  108ba6:	48 8b 5d 38          	mov    0x38(%rbp),%rbx
  108baa:	48 89 48 20          	mov    %rcx,0x20(%rax)
  108bae:	48 89 58 28          	mov    %rbx,0x28(%rax)
  108bb2:	48 8b 4d 40          	mov    0x40(%rbp),%rcx
  108bb6:	48 8b 5d 48          	mov    0x48(%rbp),%rbx
  108bba:	48 89 48 30          	mov    %rcx,0x30(%rax)
  108bbe:	48 89 58 38          	mov    %rbx,0x38(%rax)
  108bc2:	48 8b 4d 50          	mov    0x50(%rbp),%rcx
  108bc6:	48 8b 5d 58          	mov    0x58(%rbp),%rbx
  108bca:	48 89 48 40          	mov    %rcx,0x40(%rax)
  108bce:	48 89 58 48          	mov    %rbx,0x48(%rax)
  108bd2:	48 8b 4d 60          	mov    0x60(%rbp),%rcx
  108bd6:	48 8b 5d 68          	mov    0x68(%rbp),%rbx
  108bda:	48 89 48 50          	mov    %rcx,0x50(%rax)
  108bde:	48 89 58 58          	mov    %rbx,0x58(%rax)
  108be2:	48 8b 4d 70          	mov    0x70(%rbp),%rcx
  108be6:	48 8b 5d 78          	mov    0x78(%rbp),%rbx
  108bea:	48 89 48 60          	mov    %rcx,0x60(%rax)
  108bee:	48 89 58 68          	mov    %rbx,0x68(%rax)
  108bf2:	48 8b 8d 80 00 00 00 	mov    0x80(%rbp),%rcx
  108bf9:	48 8b 9d 88 00 00 00 	mov    0x88(%rbp),%rbx
  108c00:	48 89 48 70          	mov    %rcx,0x70(%rax)
  108c04:	48 89 58 78          	mov    %rbx,0x78(%rax)
  108c08:	48 8b 8d 90 00 00 00 	mov    0x90(%rbp),%rcx
  108c0f:	48 8b 9d 98 00 00 00 	mov    0x98(%rbp),%rbx
  108c16:	48 89 88 80 00 00 00 	mov    %rcx,0x80(%rax)
  108c1d:	48 89 98 88 00 00 00 	mov    %rbx,0x88(%rax)
  108c24:	8b 8d a0 00 00 00    	mov    0xa0(%rbp),%ecx
  108c2a:	89 88 90 00 00 00    	mov    %ecx,0x90(%rax)
  108c30:	48 89 d7             	mov    %rdx,%rdi
  108c33:	e8 66 1b 00 00       	callq  10a79e <_ZN11FAT32Driver10ToFATEntryE8DirEntryRj>
  108c38:	48 81 c4 a0 00 00 00 	add    $0xa0,%rsp
  108c3f:	48 89 45 d0          	mov    %rax,-0x30(%rbp)
  108c43:	48 8b 45 e0          	mov    -0x20(%rbp),%rax
  108c47:	0f b6 00             	movzbl (%rax),%eax
  108c4a:	84 c0                	test   %al,%al
  108c4c:	0f 84 f4 01 00 00    	je     108e46 <_ZN11FAT32Driver20ModifyDirectoryEntryEjPKc8DirEntry+0x348>
  108c52:	48 8b 45 e0          	mov    -0x20(%rbp),%rax
  108c56:	0f b6 40 0b          	movzbl 0xb(%rax),%eax
  108c5a:	0f b6 c0             	movzbl %al,%eax
  108c5d:	83 e0 0f             	and    $0xf,%eax
  108c60:	83 f8 0f             	cmp    $0xf,%eax
  108c63:	74 1f                	je     108c84 <_ZN11FAT32Driver20ModifyDirectoryEntryEjPKc8DirEntry+0x186>
  108c65:	0f b6 4d ef          	movzbl -0x11(%rbp),%ecx
  108c69:	48 8b 55 a8          	mov    -0x58(%rbp),%rdx
  108c6d:	48 8b 75 e0          	mov    -0x20(%rbp),%rsi
  108c71:	48 8b 45 b8          	mov    -0x48(%rbp),%rax
  108c75:	48 89 c7             	mov    %rax,%rdi
  108c78:	e8 65 20 00 00       	callq  10ace2 <_ZN11FAT32Driver7CompareEP14DirectoryEntryPKcb>
  108c7d:	83 f0 01             	xor    $0x1,%eax
  108c80:	84 c0                	test   %al,%al
  108c82:	74 07                	je     108c8b <_ZN11FAT32Driver20ModifyDirectoryEntryEjPKc8DirEntry+0x18d>
  108c84:	b8 01 00 00 00       	mov    $0x1,%eax
  108c89:	eb 05                	jmp    108c90 <_ZN11FAT32Driver20ModifyDirectoryEntryEjPKc8DirEntry+0x192>
  108c8b:	b8 00 00 00 00       	mov    $0x0,%eax
  108c90:	84 c0                	test   %al,%al
  108c92:	0f 84 1c 01 00 00    	je     108db4 <_ZN11FAT32Driver20ModifyDirectoryEntryEjPKc8DirEntry+0x2b6>
  108c98:	8b 55 dc             	mov    -0x24(%rbp),%edx
  108c9b:	48 8b 45 b8          	mov    -0x48(%rbp),%rax
  108c9f:	8b 40 30             	mov    0x30(%rax),%eax
  108ca2:	89 c0                	mov    %eax,%eax
  108ca4:	48 c1 e8 05          	shr    $0x5,%rax
  108ca8:	48 83 e8 01          	sub    $0x1,%rax
  108cac:	48 39 c2             	cmp    %rax,%rdx
  108caf:	73 0b                	jae    108cbc <_ZN11FAT32Driver20ModifyDirectoryEntryEjPKc8DirEntry+0x1be>
  108cb1:	48 83 45 e0 20       	addq   $0x20,-0x20(%rbp)
  108cb6:	83 45 dc 01          	addl   $0x1,-0x24(%rbp)
  108cba:	eb 87                	jmp    108c43 <_ZN11FAT32Driver20ModifyDirectoryEntryEjPKc8DirEntry+0x145>
  108cbc:	8b 55 b4             	mov    -0x4c(%rbp),%edx
  108cbf:	48 8b 45 b8          	mov    -0x48(%rbp),%rax
  108cc3:	89 d6                	mov    %edx,%esi
  108cc5:	48 89 c7             	mov    %rax,%rdi
  108cc8:	e8 2b f4 ff ff       	callq  1080f8 <_ZN11FAT32Driver7ReadFATEj>
  108ccd:	89 45 c4             	mov    %eax,-0x3c(%rbp)
  108cd0:	81 7d c4 f7 ff ff 0f 	cmpl   $0xffffff7,-0x3c(%rbp)
  108cd7:	0f 87 6c 01 00 00    	ja     108e49 <_ZN11FAT32Driver20ModifyDirectoryEntryEjPKc8DirEntry+0x34b>
  108cdd:	48 8b 55 a8          	mov    -0x58(%rbp),%rdx
  108ce1:	8b 75 c4             	mov    -0x3c(%rbp),%esi
  108ce4:	48 8b 7d b8          	mov    -0x48(%rbp),%rdi
  108ce8:	48 83 ec 08          	sub    $0x8,%rsp
  108cec:	48 81 ec 98 00 00 00 	sub    $0x98,%rsp
  108cf3:	48 89 e0             	mov    %rsp,%rax
  108cf6:	48 8b 4d 10          	mov    0x10(%rbp),%rcx
  108cfa:	48 8b 5d 18          	mov    0x18(%rbp),%rbx
  108cfe:	48 89 08             	mov    %rcx,(%rax)
  108d01:	48 89 58 08          	mov    %rbx,0x8(%rax)
  108d05:	48 8b 4d 20          	mov    0x20(%rbp),%rcx
  108d09:	48 8b 5d 28          	mov    0x28(%rbp),%rbx
  108d0d:	48 89 48 10          	mov    %rcx,0x10(%rax)
  108d11:	48 89 58 18          	mov    %rbx,0x18(%rax)
  108d15:	48 8b 4d 30          	mov    0x30(%rbp),%rcx
  108d19:	48 8b 5d 38          	mov    0x38(%rbp),%rbx
  108d1d:	48 89 48 20          	mov    %rcx,0x20(%rax)
  108d21:	48 89 58 28          	mov    %rbx,0x28(%rax)
  108d25:	48 8b 4d 40          	mov    0x40(%rbp),%rcx
  108d29:	48 8b 5d 48          	mov    0x48(%rbp),%rbx
  108d2d:	48 89 48 30          	mov    %rcx,0x30(%rax)
  108d31:	48 89 58 38          	mov    %rbx,0x38(%rax)
  108d35:	48 8b 4d 50          	mov    0x50(%rbp),%rcx
  108d39:	48 8b 5d 58          	mov    0x58(%rbp),%rbx
  108d3d:	48 89 48 40          	mov    %rcx,0x40(%rax)
  108d41:	48 89 58 48          	mov    %rbx,0x48(%rax)
  108d45:	48 8b 4d 60          	mov    0x60(%rbp),%rcx
  108d49:	48 8b 5d 68          	mov    0x68(%rbp),%rbx
  108d4d:	48 89 48 50          	mov    %rcx,0x50(%rax)
  108d51:	48 89 58 58          	mov    %rbx,0x58(%rax)
  108d55:	48 8b 4d 70          	mov    0x70(%rbp),%rcx
  108d59:	48 8b 5d 78          	mov    0x78(%rbp),%rbx
  108d5d:	48 89 48 60          	mov    %rcx,0x60(%rax)
  108d61:	48 89 58 68          	mov    %rbx,0x68(%rax)
  108d65:	48 8b 8d 80 00 00 00 	mov    0x80(%rbp),%rcx
  108d6c:	48 8b 9d 88 00 00 00 	mov    0x88(%rbp),%rbx
  108d73:	48 89 48 70          	mov    %rcx,0x70(%rax)
  108d77:	48 89 58 78          	mov    %rbx,0x78(%rax)
  108d7b:	48 8b 8d 90 00 00 00 	mov    0x90(%rbp),%rcx
  108d82:	48 8b 9d 98 00 00 00 	mov    0x98(%rbp),%rbx
  108d89:	48 89 88 80 00 00 00 	mov    %rcx,0x80(%rax)
  108d90:	48 89 98 88 00 00 00 	mov    %rbx,0x88(%rax)
  108d97:	8b 8d a0 00 00 00    	mov    0xa0(%rbp),%ecx
  108d9d:	89 88 90 00 00 00    	mov    %ecx,0x90(%rax)
  108da3:	e8 56 fd ff ff       	callq  108afe <_ZN11FAT32Driver20ModifyDirectoryEntryEjPKc8DirEntry>
  108da8:	48 81 c4 a0 00 00 00 	add    $0xa0,%rsp
  108daf:	e9 96 00 00 00       	jmpq   108e4a <_ZN11FAT32Driver20ModifyDirectoryEntryEjPKc8DirEntry+0x34c>
  108db4:	0f b6 85 98 00 00 00 	movzbl 0x98(%rbp),%eax
  108dbb:	84 c0                	test   %al,%al
  108dbd:	75 37                	jne    108df6 <_ZN11FAT32Driver20ModifyDirectoryEntryEjPKc8DirEntry+0x2f8>
  108dbf:	c7 45 d8 00 00 00 00 	movl   $0x0,-0x28(%rbp)
  108dc6:	8b 45 c0             	mov    -0x40(%rbp),%eax
  108dc9:	83 c0 01             	add    $0x1,%eax
  108dcc:	39 45 d8             	cmp    %eax,-0x28(%rbp)
  108dcf:	73 5a                	jae    108e2b <_ZN11FAT32Driver20ModifyDirectoryEntryEjPKc8DirEntry+0x32d>
  108dd1:	8b 45 d8             	mov    -0x28(%rbp),%eax
  108dd4:	48 c1 e0 05          	shl    $0x5,%rax
  108dd8:	48 f7 d8             	neg    %rax
  108ddb:	48 89 c2             	mov    %rax,%rdx
  108dde:	48 8b 45 e0          	mov    -0x20(%rbp),%rax
  108de2:	48 01 d0             	add    %rdx,%rax
  108de5:	48 89 45 c8          	mov    %rax,-0x38(%rbp)
  108de9:	48 8b 45 c8          	mov    -0x38(%rbp),%rax
  108ded:	c6 00 e5             	movb   $0xe5,(%rax)
  108df0:	83 45 d8 01          	addl   $0x1,-0x28(%rbp)
  108df4:	eb d0                	jmp    108dc6 <_ZN11FAT32Driver20ModifyDirectoryEntryEjPKc8DirEntry+0x2c8>
  108df6:	0f b6 95 98 00 00 00 	movzbl 0x98(%rbp),%edx
  108dfd:	48 8b 45 e0          	mov    -0x20(%rbp),%rax
  108e01:	88 50 0b             	mov    %dl,0xb(%rax)
  108e04:	8b 85 90 00 00 00    	mov    0x90(%rbp),%eax
  108e0a:	89 c2                	mov    %eax,%edx
  108e0c:	48 8b 45 e0          	mov    -0x20(%rbp),%rax
  108e10:	66 89 50 1a          	mov    %dx,0x1a(%rax)
  108e14:	48 8b 45 e0          	mov    -0x20(%rbp),%rax
  108e18:	66 c7 40 14 00 00    	movw   $0x0,0x14(%rax)
  108e1e:	8b 95 94 00 00 00    	mov    0x94(%rbp),%edx
  108e24:	48 8b 45 e0          	mov    -0x20(%rbp),%rax
  108e28:	89 50 1c             	mov    %edx,0x1c(%rax)
  108e2b:	48 8b 45 b8          	mov    -0x48(%rbp),%rax
  108e2f:	48 8b 50 18          	mov    0x18(%rax),%rdx
  108e33:	8b 4d b4             	mov    -0x4c(%rbp),%ecx
  108e36:	48 8b 45 b8          	mov    -0x48(%rbp),%rax
  108e3a:	89 ce                	mov    %ecx,%esi
  108e3c:	48 89 c7             	mov    %rax,%rdi
  108e3f:	e8 3e f4 ff ff       	callq  108282 <_ZN11FAT32Driver12WriteClusterEjPv>
  108e44:	eb 04                	jmp    108e4a <_ZN11FAT32Driver20ModifyDirectoryEntryEjPKc8DirEntry+0x34c>
  108e46:	90                   	nop
  108e47:	eb 01                	jmp    108e4a <_ZN11FAT32Driver20ModifyDirectoryEntryEjPKc8DirEntry+0x34c>
  108e49:	90                   	nop
  108e4a:	48 8b 5d f8          	mov    -0x8(%rbp),%rbx
  108e4e:	c9                   	leaveq 
  108e4f:	c3                   	retq   

0000000000108e50 <_ZN11FAT32Driver21PrepareAddedDirectoryEj>:
  108e50:	f3 0f 1e fa          	endbr64 
  108e54:	55                   	push   %rbp
  108e55:	48 89 e5             	mov    %rsp,%rbp
  108e58:	48 83 ec 20          	sub    $0x20,%rsp
  108e5c:	48 89 7d e8          	mov    %rdi,-0x18(%rbp)
  108e60:	89 75 e4             	mov    %esi,-0x1c(%rbp)
  108e63:	83 7d e4 01          	cmpl   $0x1,-0x1c(%rbp)
  108e67:	76 0c                	jbe    108e75 <_ZN11FAT32Driver21PrepareAddedDirectoryEj+0x25>
  108e69:	48 8b 45 e8          	mov    -0x18(%rbp),%rax
  108e6d:	8b 40 40             	mov    0x40(%rax),%eax
  108e70:	39 45 e4             	cmp    %eax,-0x1c(%rbp)
  108e73:	76 0a                	jbe    108e7f <_ZN11FAT32Driver21PrepareAddedDirectoryEj+0x2f>
  108e75:	b8 ff ff ff ff       	mov    $0xffffffff,%eax
  108e7a:	e9 db 01 00 00       	jmpq   10905a <_ZN11FAT32Driver21PrepareAddedDirectoryEj+0x20a>
  108e7f:	48 8b 45 e8          	mov    -0x18(%rbp),%rax
  108e83:	8b 40 30             	mov    0x30(%rax),%eax
  108e86:	89 c0                	mov    %eax,%eax
  108e88:	48 89 c7             	mov    %rax,%rdi
  108e8b:	e8 6b ab ff ff       	callq  1039fb <_Znam>
  108e90:	48 89 45 f8          	mov    %rax,-0x8(%rbp)
  108e94:	48 8b 55 f8          	mov    -0x8(%rbp),%rdx
  108e98:	8b 4d e4             	mov    -0x1c(%rbp),%ecx
  108e9b:	48 8b 45 e8          	mov    -0x18(%rbp),%rax
  108e9f:	89 ce                	mov    %ecx,%esi
  108ea1:	48 89 c7             	mov    %rax,%rdi
  108ea4:	e8 2f f3 ff ff       	callq  1081d8 <_ZN11FAT32Driver11ReadClusterEjPv>
  108ea9:	48 8b 45 f8          	mov    -0x8(%rbp),%rax
  108ead:	48 89 45 f0          	mov    %rax,-0x10(%rbp)
  108eb1:	48 8b 45 f0          	mov    -0x10(%rbp),%rax
  108eb5:	ba 20 00 00 00       	mov    $0x20,%edx
  108eba:	be 00 00 00 00       	mov    $0x0,%esi
  108ebf:	48 89 c7             	mov    %rax,%rdi
  108ec2:	e8 7c 3d 00 00       	callq  10cc43 <_Z6memsetPvim>
  108ec7:	48 8b 45 f0          	mov    -0x10(%rbp),%rax
  108ecb:	ba 0b 00 00 00       	mov    $0xb,%edx
  108ed0:	48 8d 35 31 83 00 00 	lea    0x8331(%rip),%rsi        # 111208 <_ZL8sc_ascii+0x1a8>
  108ed7:	48 89 c7             	mov    %rax,%rdi
  108eda:	e8 22 3d 00 00       	callq  10cc01 <_Z6memcpyPvPKvm>
  108edf:	48 8b 45 f0          	mov    -0x10(%rbp),%rax
  108ee3:	c6 40 0b 10          	movb   $0x10,0xb(%rax)
  108ee7:	8b 45 e4             	mov    -0x1c(%rbp),%eax
  108eea:	89 c2                	mov    %eax,%edx
  108eec:	48 8b 45 f0          	mov    -0x10(%rbp),%rax
  108ef0:	66 89 50 1a          	mov    %dx,0x1a(%rax)
  108ef4:	8b 45 e4             	mov    -0x1c(%rbp),%eax
  108ef7:	c1 e8 10             	shr    $0x10,%eax
  108efa:	89 c2                	mov    %eax,%edx
  108efc:	48 8b 45 f0          	mov    -0x10(%rbp),%rax
  108f00:	66 89 50 14          	mov    %dx,0x14(%rax)
  108f04:	48 8b 45 e8          	mov    -0x18(%rbp),%rax
  108f08:	48 89 c7             	mov    %rax,%rdi
  108f0b:	e8 a8 1e 00 00       	callq  10adb8 <_ZNK11FAT32Driver7GetDateEv>
  108f10:	48 8b 55 f0          	mov    -0x10(%rbp),%rdx
  108f14:	66 89 42 10          	mov    %ax,0x10(%rdx)
  108f18:	48 8b 45 e8          	mov    -0x18(%rbp),%rax
  108f1c:	48 89 c7             	mov    %rax,%rdi
  108f1f:	e8 46 1e 00 00       	callq  10ad6a <_ZNK11FAT32Driver7GetTimeEv>
  108f24:	48 8b 55 f0          	mov    -0x10(%rbp),%rdx
  108f28:	66 89 42 0e          	mov    %ax,0xe(%rdx)
  108f2c:	48 8b 45 e8          	mov    -0x18(%rbp),%rax
  108f30:	48 89 c7             	mov    %rax,%rdi
  108f33:	e8 1a 1e 00 00       	callq  10ad52 <_ZNK11FAT32Driver15GetMillisecondsEv>
  108f38:	48 8b 55 f0          	mov    -0x10(%rbp),%rdx
  108f3c:	88 42 0d             	mov    %al,0xd(%rdx)
  108f3f:	48 8b 45 e8          	mov    -0x18(%rbp),%rax
  108f43:	48 89 c7             	mov    %rax,%rdi
  108f46:	e8 6d 1e 00 00       	callq  10adb8 <_ZNK11FAT32Driver7GetDateEv>
  108f4b:	48 8b 55 f0          	mov    -0x10(%rbp),%rdx
  108f4f:	66 89 42 12          	mov    %ax,0x12(%rdx)
  108f53:	48 8b 45 e8          	mov    -0x18(%rbp),%rax
  108f57:	48 89 c7             	mov    %rax,%rdi
  108f5a:	e8 59 1e 00 00       	callq  10adb8 <_ZNK11FAT32Driver7GetDateEv>
  108f5f:	48 8b 55 f0          	mov    -0x10(%rbp),%rdx
  108f63:	66 89 42 18          	mov    %ax,0x18(%rdx)
  108f67:	48 8b 45 e8          	mov    -0x18(%rbp),%rax
  108f6b:	48 89 c7             	mov    %rax,%rdi
  108f6e:	e8 f7 1d 00 00       	callq  10ad6a <_ZNK11FAT32Driver7GetTimeEv>
  108f73:	48 8b 55 f0          	mov    -0x10(%rbp),%rdx
  108f77:	66 89 42 16          	mov    %ax,0x16(%rdx)
  108f7b:	48 83 45 f0 20       	addq   $0x20,-0x10(%rbp)
  108f80:	48 8b 45 f0          	mov    -0x10(%rbp),%rax
  108f84:	ba 20 00 00 00       	mov    $0x20,%edx
  108f89:	be 00 00 00 00       	mov    $0x0,%esi
  108f8e:	48 89 c7             	mov    %rax,%rdi
  108f91:	e8 ad 3c 00 00       	callq  10cc43 <_Z6memsetPvim>
  108f96:	48 8b 45 f0          	mov    -0x10(%rbp),%rax
  108f9a:	ba 0b 00 00 00       	mov    $0xb,%edx
  108f9f:	48 8d 35 6e 82 00 00 	lea    0x826e(%rip),%rsi        # 111214 <_ZL8sc_ascii+0x1b4>
  108fa6:	48 89 c7             	mov    %rax,%rdi
  108fa9:	e8 53 3c 00 00       	callq  10cc01 <_Z6memcpyPvPKvm>
  108fae:	48 8b 45 f0          	mov    -0x10(%rbp),%rax
  108fb2:	c6 40 0b 10          	movb   $0x10,0xb(%rax)
  108fb6:	48 8b 45 e8          	mov    -0x18(%rbp),%rax
  108fba:	48 89 c7             	mov    %rax,%rdi
  108fbd:	e8 f6 1d 00 00       	callq  10adb8 <_ZNK11FAT32Driver7GetDateEv>
  108fc2:	48 8b 55 f0          	mov    -0x10(%rbp),%rdx
  108fc6:	66 89 42 10          	mov    %ax,0x10(%rdx)
  108fca:	48 8b 45 e8          	mov    -0x18(%rbp),%rax
  108fce:	48 89 c7             	mov    %rax,%rdi
  108fd1:	e8 94 1d 00 00       	callq  10ad6a <_ZNK11FAT32Driver7GetTimeEv>
  108fd6:	48 8b 55 f0          	mov    -0x10(%rbp),%rdx
  108fda:	66 89 42 0e          	mov    %ax,0xe(%rdx)
  108fde:	48 8b 45 e8          	mov    -0x18(%rbp),%rax
  108fe2:	48 89 c7             	mov    %rax,%rdi
  108fe5:	e8 68 1d 00 00       	callq  10ad52 <_ZNK11FAT32Driver15GetMillisecondsEv>
  108fea:	48 8b 55 f0          	mov    -0x10(%rbp),%rdx
  108fee:	88 42 0d             	mov    %al,0xd(%rdx)
  108ff1:	48 8b 45 e8          	mov    -0x18(%rbp),%rax
  108ff5:	48 89 c7             	mov    %rax,%rdi
  108ff8:	e8 bb 1d 00 00       	callq  10adb8 <_ZNK11FAT32Driver7GetDateEv>
  108ffd:	48 8b 55 f0          	mov    -0x10(%rbp),%rdx
  109001:	66 89 42 12          	mov    %ax,0x12(%rdx)
  109005:	48 8b 45 e8          	mov    -0x18(%rbp),%rax
  109009:	48 89 c7             	mov    %rax,%rdi
  10900c:	e8 a7 1d 00 00       	callq  10adb8 <_ZNK11FAT32Driver7GetDateEv>
  109011:	48 8b 55 f0          	mov    -0x10(%rbp),%rdx
  109015:	66 89 42 18          	mov    %ax,0x18(%rdx)
  109019:	48 8b 45 e8          	mov    -0x18(%rbp),%rax
  10901d:	48 89 c7             	mov    %rax,%rdi
  109020:	e8 45 1d 00 00       	callq  10ad6a <_ZNK11FAT32Driver7GetTimeEv>
  109025:	48 8b 55 f0          	mov    -0x10(%rbp),%rdx
  109029:	66 89 42 16          	mov    %ax,0x16(%rdx)
  10902d:	48 8b 55 f8          	mov    -0x8(%rbp),%rdx
  109031:	8b 4d e4             	mov    -0x1c(%rbp),%ecx
  109034:	48 8b 45 e8          	mov    -0x18(%rbp),%rax
  109038:	89 ce                	mov    %ecx,%esi
  10903a:	48 89 c7             	mov    %rax,%rdi
  10903d:	e8 40 f2 ff ff       	callq  108282 <_ZN11FAT32Driver12WriteClusterEjPv>
  109042:	48 83 7d f8 00       	cmpq   $0x0,-0x8(%rbp)
  109047:	74 0c                	je     109055 <_ZN11FAT32Driver21PrepareAddedDirectoryEj+0x205>
  109049:	48 8b 45 f8          	mov    -0x8(%rbp),%rax
  10904d:	48 89 c7             	mov    %rax,%rdi
  109050:	e8 e3 a9 ff ff       	callq  103a38 <_ZdaPv>
  109055:	b8 00 00 00 00       	mov    $0x0,%eax
  10905a:	c9                   	leaveq 
  10905b:	c3                   	retq   

000000000010905c <_ZN11FAT32Driver14CleanFileEntryEj8DirEntry>:
  10905c:	f3 0f 1e fa          	endbr64 
  109060:	55                   	push   %rbp
  109061:	48 89 e5             	mov    %rsp,%rbp
  109064:	53                   	push   %rbx
  109065:	48 83 ec 18          	sub    $0x18,%rsp
  109069:	48 89 7d e8          	mov    %rdi,-0x18(%rbp)
  10906d:	89 75 e4             	mov    %esi,-0x1c(%rbp)
  109070:	c6 85 98 00 00 00 00 	movb   $0x0,0x98(%rbp)
  109077:	8b 75 e4             	mov    -0x1c(%rbp),%esi
  10907a:	48 8b 7d e8          	mov    -0x18(%rbp),%rdi
  10907e:	48 83 ec 08          	sub    $0x8,%rsp
  109082:	48 81 ec 98 00 00 00 	sub    $0x98,%rsp
  109089:	48 89 e0             	mov    %rsp,%rax
  10908c:	48 8b 4d 10          	mov    0x10(%rbp),%rcx
  109090:	48 8b 5d 18          	mov    0x18(%rbp),%rbx
  109094:	48 89 08             	mov    %rcx,(%rax)
  109097:	48 89 58 08          	mov    %rbx,0x8(%rax)
  10909b:	48 8b 4d 20          	mov    0x20(%rbp),%rcx
  10909f:	48 8b 5d 28          	mov    0x28(%rbp),%rbx
  1090a3:	48 89 48 10          	mov    %rcx,0x10(%rax)
  1090a7:	48 89 58 18          	mov    %rbx,0x18(%rax)
  1090ab:	48 8b 4d 30          	mov    0x30(%rbp),%rcx
  1090af:	48 8b 5d 38          	mov    0x38(%rbp),%rbx
  1090b3:	48 89 48 20          	mov    %rcx,0x20(%rax)
  1090b7:	48 89 58 28          	mov    %rbx,0x28(%rax)
  1090bb:	48 8b 4d 40          	mov    0x40(%rbp),%rcx
  1090bf:	48 8b 5d 48          	mov    0x48(%rbp),%rbx
  1090c3:	48 89 48 30          	mov    %rcx,0x30(%rax)
  1090c7:	48 89 58 38          	mov    %rbx,0x38(%rax)
  1090cb:	48 8b 4d 50          	mov    0x50(%rbp),%rcx
  1090cf:	48 8b 5d 58          	mov    0x58(%rbp),%rbx
  1090d3:	48 89 48 40          	mov    %rcx,0x40(%rax)
  1090d7:	48 89 58 48          	mov    %rbx,0x48(%rax)
  1090db:	48 8b 4d 60          	mov    0x60(%rbp),%rcx
  1090df:	48 8b 5d 68          	mov    0x68(%rbp),%rbx
  1090e3:	48 89 48 50          	mov    %rcx,0x50(%rax)
  1090e7:	48 89 58 58          	mov    %rbx,0x58(%rax)
  1090eb:	48 8b 4d 70          	mov    0x70(%rbp),%rcx
  1090ef:	48 8b 5d 78          	mov    0x78(%rbp),%rbx
  1090f3:	48 89 48 60          	mov    %rcx,0x60(%rax)
  1090f7:	48 89 58 68          	mov    %rbx,0x68(%rax)
  1090fb:	48 8b 8d 80 00 00 00 	mov    0x80(%rbp),%rcx
  109102:	48 8b 9d 88 00 00 00 	mov    0x88(%rbp),%rbx
  109109:	48 89 48 70          	mov    %rcx,0x70(%rax)
  10910d:	48 89 58 78          	mov    %rbx,0x78(%rax)
  109111:	48 8b 8d 90 00 00 00 	mov    0x90(%rbp),%rcx
  109118:	48 8b 9d 98 00 00 00 	mov    0x98(%rbp),%rbx
  10911f:	48 89 88 80 00 00 00 	mov    %rcx,0x80(%rax)
  109126:	48 89 98 88 00 00 00 	mov    %rbx,0x88(%rax)
  10912d:	8b 95 a0 00 00 00    	mov    0xa0(%rbp),%edx
  109133:	89 90 90 00 00 00    	mov    %edx,0x90(%rax)
  109139:	48 8d 55 10          	lea    0x10(%rbp),%rdx
  10913d:	e8 bc f9 ff ff       	callq  108afe <_ZN11FAT32Driver20ModifyDirectoryEntryEjPKc8DirEntry>
  109142:	48 81 c4 a0 00 00 00 	add    $0xa0,%rsp
  109149:	90                   	nop
  10914a:	48 8b 5d f8          	mov    -0x8(%rbp),%rbx
  10914e:	c9                   	leaveq 
  10914f:	c3                   	retq   

0000000000109150 <_ZN11FAT32Driver15DirectorySearchEPKcjP8DirEntry>:
  109150:	f3 0f 1e fa          	endbr64 
  109154:	55                   	push   %rbp
  109155:	48 89 e5             	mov    %rsp,%rbp
  109158:	53                   	push   %rbx
  109159:	48 83 ec 48          	sub    $0x48,%rsp
  10915d:	48 89 7d c8          	mov    %rdi,-0x38(%rbp)
  109161:	48 89 75 c0          	mov    %rsi,-0x40(%rbp)
  109165:	89 55 bc             	mov    %edx,-0x44(%rbp)
  109168:	48 89 4d b0          	mov    %rcx,-0x50(%rbp)
  10916c:	83 7d bc 01          	cmpl   $0x1,-0x44(%rbp)
  109170:	76 0c                	jbe    10917e <_ZN11FAT32Driver15DirectorySearchEPKcjP8DirEntry+0x2e>
  109172:	48 8b 45 c8          	mov    -0x38(%rbp),%rax
  109176:	8b 40 40             	mov    0x40(%rax),%eax
  109179:	39 45 bc             	cmp    %eax,-0x44(%rbp)
  10917c:	76 0a                	jbe    109188 <_ZN11FAT32Driver15DirectorySearchEPKcjP8DirEntry+0x38>
  10917e:	bb ff ff ff ff       	mov    $0xffffffff,%ebx
  109183:	e9 60 01 00 00       	jmpq   1092e8 <_ZN11FAT32Driver15DirectorySearchEPKcjP8DirEntry+0x198>
  109188:	48 8d 45 d0          	lea    -0x30(%rbp),%rax
  10918c:	48 89 c7             	mov    %rax,%rdi
  10918f:	e8 f2 55 00 00       	callq  10e786 <_ZN6vectorI8DirEntryEC1Ev>
  109194:	48 8d 55 d0          	lea    -0x30(%rbp),%rdx
  109198:	8b 4d bc             	mov    -0x44(%rbp),%ecx
  10919b:	48 8b 45 c8          	mov    -0x38(%rbp),%rax
  10919f:	89 ce                	mov    %ecx,%esi
  1091a1:	48 89 c7             	mov    %rax,%rdi
  1091a4:	e8 69 f6 ff ff       	callq  108812 <_ZN11FAT32Driver23GetDirectoriesOnClusterEjR6vectorI8DirEntryE>
  1091a9:	48 c7 45 e8 00 00 00 	movq   $0x0,-0x18(%rbp)
  1091b0:	00 
  1091b1:	48 8d 45 d0          	lea    -0x30(%rbp),%rax
  1091b5:	48 89 c7             	mov    %rax,%rdi
  1091b8:	e8 6f 52 00 00       	callq  10e42c <_ZNK6vectorI8DirEntryE4sizeEv>
  1091bd:	48 39 45 e8          	cmp    %rax,-0x18(%rbp)
  1091c1:	0f 92 c0             	setb   %al
  1091c4:	84 c0                	test   %al,%al
  1091c6:	0f 84 0b 01 00 00    	je     1092d7 <_ZN11FAT32Driver15DirectorySearchEPKcjP8DirEntry+0x187>
  1091cc:	48 8b 55 e8          	mov    -0x18(%rbp),%rdx
  1091d0:	48 8d 45 d0          	lea    -0x30(%rbp),%rax
  1091d4:	48 89 d6             	mov    %rdx,%rsi
  1091d7:	48 89 c7             	mov    %rax,%rdi
  1091da:	e8 67 52 00 00       	callq  10e446 <_ZN6vectorI8DirEntryEixEm>
  1091df:	48 89 c2             	mov    %rax,%rdx
  1091e2:	48 8b 45 c0          	mov    -0x40(%rbp),%rax
  1091e6:	48 89 c6             	mov    %rax,%rsi
  1091e9:	48 89 d7             	mov    %rdx,%rdi
  1091ec:	e8 71 32 00 00       	callq  10c462 <_Z6strcmpPcS_>
  1091f1:	85 c0                	test   %eax,%eax
  1091f3:	0f 94 c0             	sete   %al
  1091f6:	84 c0                	test   %al,%al
  1091f8:	0f 84 cf 00 00 00    	je     1092cd <_ZN11FAT32Driver15DirectorySearchEPKcjP8DirEntry+0x17d>
  1091fe:	48 83 7d b0 00       	cmpq   $0x0,-0x50(%rbp)
  109203:	0f 84 bd 00 00 00    	je     1092c6 <_ZN11FAT32Driver15DirectorySearchEPKcjP8DirEntry+0x176>
  109209:	48 8b 55 e8          	mov    -0x18(%rbp),%rdx
  10920d:	48 8d 45 d0          	lea    -0x30(%rbp),%rax
  109211:	48 89 d6             	mov    %rdx,%rsi
  109214:	48 89 c7             	mov    %rax,%rdi
  109217:	e8 2a 52 00 00       	callq  10e446 <_ZN6vectorI8DirEntryEixEm>
  10921c:	48 8b 55 b0          	mov    -0x50(%rbp),%rdx
  109220:	48 8b 08             	mov    (%rax),%rcx
  109223:	48 8b 58 08          	mov    0x8(%rax),%rbx
  109227:	48 89 0a             	mov    %rcx,(%rdx)
  10922a:	48 89 5a 08          	mov    %rbx,0x8(%rdx)
  10922e:	48 8b 48 10          	mov    0x10(%rax),%rcx
  109232:	48 8b 58 18          	mov    0x18(%rax),%rbx
  109236:	48 89 4a 10          	mov    %rcx,0x10(%rdx)
  10923a:	48 89 5a 18          	mov    %rbx,0x18(%rdx)
  10923e:	48 8b 48 20          	mov    0x20(%rax),%rcx
  109242:	48 8b 58 28          	mov    0x28(%rax),%rbx
  109246:	48 89 4a 20          	mov    %rcx,0x20(%rdx)
  10924a:	48 89 5a 28          	mov    %rbx,0x28(%rdx)
  10924e:	48 8b 48 30          	mov    0x30(%rax),%rcx
  109252:	48 8b 58 38          	mov    0x38(%rax),%rbx
  109256:	48 89 4a 30          	mov    %rcx,0x30(%rdx)
  10925a:	48 89 5a 38          	mov    %rbx,0x38(%rdx)
  10925e:	48 8b 48 40          	mov    0x40(%rax),%rcx
  109262:	48 8b 58 48          	mov    0x48(%rax),%rbx
  109266:	48 89 4a 40          	mov    %rcx,0x40(%rdx)
  10926a:	48 89 5a 48          	mov    %rbx,0x48(%rdx)
  10926e:	48 8b 48 50          	mov    0x50(%rax),%rcx
  109272:	48 8b 58 58          	mov    0x58(%rax),%rbx
  109276:	48 89 4a 50          	mov    %rcx,0x50(%rdx)
  10927a:	48 89 5a 58          	mov    %rbx,0x58(%rdx)
  10927e:	48 8b 48 60          	mov    0x60(%rax),%rcx
  109282:	48 8b 58 68          	mov    0x68(%rax),%rbx
  109286:	48 89 4a 60          	mov    %rcx,0x60(%rdx)
  10928a:	48 89 5a 68          	mov    %rbx,0x68(%rdx)
  10928e:	48 8b 48 70          	mov    0x70(%rax),%rcx
  109292:	48 8b 58 78          	mov    0x78(%rax),%rbx
  109296:	48 89 4a 70          	mov    %rcx,0x70(%rdx)
  10929a:	48 89 5a 78          	mov    %rbx,0x78(%rdx)
  10929e:	48 8b 88 80 00 00 00 	mov    0x80(%rax),%rcx
  1092a5:	48 8b 98 88 00 00 00 	mov    0x88(%rax),%rbx
  1092ac:	48 89 8a 80 00 00 00 	mov    %rcx,0x80(%rdx)
  1092b3:	48 89 9a 88 00 00 00 	mov    %rbx,0x88(%rdx)
  1092ba:	8b 80 90 00 00 00    	mov    0x90(%rax),%eax
  1092c0:	89 82 90 00 00 00    	mov    %eax,0x90(%rdx)
  1092c6:	bb 00 00 00 00       	mov    $0x0,%ebx
  1092cb:	eb 0f                	jmp    1092dc <_ZN11FAT32Driver15DirectorySearchEPKcjP8DirEntry+0x18c>
  1092cd:	48 83 45 e8 01       	addq   $0x1,-0x18(%rbp)
  1092d2:	e9 da fe ff ff       	jmpq   1091b1 <_ZN11FAT32Driver15DirectorySearchEPKcjP8DirEntry+0x61>
  1092d7:	bb fe ff ff ff       	mov    $0xfffffffe,%ebx
  1092dc:	48 8d 45 d0          	lea    -0x30(%rbp),%rax
  1092e0:	48 89 c7             	mov    %rax,%rdi
  1092e3:	e8 14 51 00 00       	callq  10e3fc <_ZN6vectorI8DirEntryED1Ev>
  1092e8:	89 d8                	mov    %ebx,%eax
  1092ea:	48 83 c4 48          	add    $0x48,%rsp
  1092ee:	5b                   	pop    %rbx
  1092ef:	5d                   	pop    %rbp
  1092f0:	c3                   	retq   
  1092f1:	90                   	nop

00000000001092f2 <_ZN11FAT32Driver12DirectoryAddEj8DirEntry>:
  1092f2:	f3 0f 1e fa          	endbr64 
  1092f6:	55                   	push   %rbp
  1092f7:	48 89 e5             	mov    %rsp,%rbp
  1092fa:	53                   	push   %rbx
  1092fb:	48 83 ec 58          	sub    $0x58,%rsp
  1092ff:	48 89 7d a8          	mov    %rdi,-0x58(%rbp)
  109303:	89 75 a4             	mov    %esi,-0x5c(%rbp)
  109306:	83 7d a4 01          	cmpl   $0x1,-0x5c(%rbp)
  10930a:	76 0c                	jbe    109318 <_ZN11FAT32Driver12DirectoryAddEj8DirEntry+0x26>
  10930c:	48 8b 45 a8          	mov    -0x58(%rbp),%rax
  109310:	8b 40 40             	mov    0x40(%rax),%eax
  109313:	39 45 a4             	cmp    %eax,-0x5c(%rbp)
  109316:	76 0a                	jbe    109322 <_ZN11FAT32Driver12DirectoryAddEj8DirEntry+0x30>
  109318:	b8 ff ff ff ff       	mov    $0xffffffff,%eax
  10931d:	e9 d6 05 00 00       	jmpq   1098f8 <_ZN11FAT32Driver12DirectoryAddEj8DirEntry+0x606>
  109322:	c6 45 d3 00          	movb   $0x0,-0x2d(%rbp)
  109326:	48 8b 45 a8          	mov    -0x58(%rbp),%rax
  10932a:	48 8d 75 10          	lea    0x10(%rbp),%rsi
  10932e:	48 89 c7             	mov    %rax,%rdi
  109331:	e8 da 1a 00 00       	callq  10ae10 <_ZN11FAT32Driver11IsFATFormatEPc>
  109336:	85 c0                	test   %eax,%eax
  109338:	0f 95 c0             	setne  %al
  10933b:	84 c0                	test   %al,%al
  10933d:	74 04                	je     109343 <_ZN11FAT32Driver12DirectoryAddEj8DirEntry+0x51>
  10933f:	c6 45 d3 01          	movb   $0x1,-0x2d(%rbp)
  109343:	48 8b 45 a8          	mov    -0x58(%rbp),%rax
  109347:	48 8b 50 18          	mov    0x18(%rax),%rdx
  10934b:	8b 4d a4             	mov    -0x5c(%rbp),%ecx
  10934e:	48 8b 45 a8          	mov    -0x58(%rbp),%rax
  109352:	89 ce                	mov    %ecx,%esi
  109354:	48 89 c7             	mov    %rax,%rdi
  109357:	e8 7c ee ff ff       	callq  1081d8 <_ZN11FAT32Driver11ReadClusterEjPv>
  10935c:	48 8b 45 a8          	mov    -0x58(%rbp),%rax
  109360:	48 8b 40 18          	mov    0x18(%rax),%rax
  109364:	48 89 45 e8          	mov    %rax,-0x18(%rbp)
  109368:	c7 45 e4 00 00 00 00 	movl   $0x0,-0x1c(%rbp)
  10936f:	48 8d 75 b4          	lea    -0x4c(%rbp),%rsi
  109373:	48 8b 55 a8          	mov    -0x58(%rbp),%rdx
  109377:	48 83 ec 08          	sub    $0x8,%rsp
  10937b:	48 81 ec 98 00 00 00 	sub    $0x98,%rsp
  109382:	48 89 e0             	mov    %rsp,%rax
  109385:	48 8b 4d 10          	mov    0x10(%rbp),%rcx
  109389:	48 8b 5d 18          	mov    0x18(%rbp),%rbx
  10938d:	48 89 08             	mov    %rcx,(%rax)
  109390:	48 89 58 08          	mov    %rbx,0x8(%rax)
  109394:	48 8b 4d 20          	mov    0x20(%rbp),%rcx
  109398:	48 8b 5d 28          	mov    0x28(%rbp),%rbx
  10939c:	48 89 48 10          	mov    %rcx,0x10(%rax)
  1093a0:	48 89 58 18          	mov    %rbx,0x18(%rax)
  1093a4:	48 8b 4d 30          	mov    0x30(%rbp),%rcx
  1093a8:	48 8b 5d 38          	mov    0x38(%rbp),%rbx
  1093ac:	48 89 48 20          	mov    %rcx,0x20(%rax)
  1093b0:	48 89 58 28          	mov    %rbx,0x28(%rax)
  1093b4:	48 8b 4d 40          	mov    0x40(%rbp),%rcx
  1093b8:	48 8b 5d 48          	mov    0x48(%rbp),%rbx
  1093bc:	48 89 48 30          	mov    %rcx,0x30(%rax)
  1093c0:	48 89 58 38          	mov    %rbx,0x38(%rax)
  1093c4:	48 8b 4d 50          	mov    0x50(%rbp),%rcx
  1093c8:	48 8b 5d 58          	mov    0x58(%rbp),%rbx
  1093cc:	48 89 48 40          	mov    %rcx,0x40(%rax)
  1093d0:	48 89 58 48          	mov    %rbx,0x48(%rax)
  1093d4:	48 8b 4d 60          	mov    0x60(%rbp),%rcx
  1093d8:	48 8b 5d 68          	mov    0x68(%rbp),%rbx
  1093dc:	48 89 48 50          	mov    %rcx,0x50(%rax)
  1093e0:	48 89 58 58          	mov    %rbx,0x58(%rax)
  1093e4:	48 8b 4d 70          	mov    0x70(%rbp),%rcx
  1093e8:	48 8b 5d 78          	mov    0x78(%rbp),%rbx
  1093ec:	48 89 48 60          	mov    %rcx,0x60(%rax)
  1093f0:	48 89 58 68          	mov    %rbx,0x68(%rax)
  1093f4:	48 8b 8d 80 00 00 00 	mov    0x80(%rbp),%rcx
  1093fb:	48 8b 9d 88 00 00 00 	mov    0x88(%rbp),%rbx
  109402:	48 89 48 70          	mov    %rcx,0x70(%rax)
  109406:	48 89 58 78          	mov    %rbx,0x78(%rax)
  10940a:	48 8b 8d 90 00 00 00 	mov    0x90(%rbp),%rcx
  109411:	48 8b 9d 98 00 00 00 	mov    0x98(%rbp),%rbx
  109418:	48 89 88 80 00 00 00 	mov    %rcx,0x80(%rax)
  10941f:	48 89 98 88 00 00 00 	mov    %rbx,0x88(%rax)
  109426:	8b 8d a0 00 00 00    	mov    0xa0(%rbp),%ecx
  10942c:	89 88 90 00 00 00    	mov    %ecx,0x90(%rax)
  109432:	48 89 d7             	mov    %rdx,%rdi
  109435:	e8 64 13 00 00       	callq  10a79e <_ZN11FAT32Driver10ToFATEntryE8DirEntryRj>
  10943a:	48 81 c4 a0 00 00 00 	add    $0xa0,%rsp
  109441:	48 89 45 c8          	mov    %rax,-0x38(%rbp)
  109445:	c7 45 e0 00 00 00 00 	movl   $0x0,-0x20(%rbp)
  10944c:	48 8b 45 e8          	mov    -0x18(%rbp),%rax
  109450:	0f b6 00             	movzbl (%rax),%eax
  109453:	3c e5                	cmp    $0xe5,%al
  109455:	0f 84 64 01 00 00    	je     1095bf <_ZN11FAT32Driver12DirectoryAddEj8DirEntry+0x2cd>
  10945b:	48 8b 45 e8          	mov    -0x18(%rbp),%rax
  10945f:	0f b6 00             	movzbl (%rax),%eax
  109462:	84 c0                	test   %al,%al
  109464:	0f 84 55 01 00 00    	je     1095bf <_ZN11FAT32Driver12DirectoryAddEj8DirEntry+0x2cd>
  10946a:	8b 55 e4             	mov    -0x1c(%rbp),%edx
  10946d:	48 8b 45 a8          	mov    -0x58(%rbp),%rax
  109471:	8b 40 30             	mov    0x30(%rax),%eax
  109474:	89 c0                	mov    %eax,%eax
  109476:	48 c1 e8 05          	shr    $0x5,%rax
  10947a:	48 83 e8 01          	sub    $0x1,%rax
  10947e:	48 39 c2             	cmp    %rax,%rdx
  109481:	73 0e                	jae    109491 <_ZN11FAT32Driver12DirectoryAddEj8DirEntry+0x19f>
  109483:	48 83 45 e8 20       	addq   $0x20,-0x18(%rbp)
  109488:	83 45 e4 01          	addl   $0x1,-0x1c(%rbp)
  10948c:	e9 62 04 00 00       	jmpq   1098f3 <_ZN11FAT32Driver12DirectoryAddEj8DirEntry+0x601>
  109491:	8b 55 a4             	mov    -0x5c(%rbp),%edx
  109494:	48 8b 45 a8          	mov    -0x58(%rbp),%rax
  109498:	89 d6                	mov    %edx,%esi
  10949a:	48 89 c7             	mov    %rax,%rdi
  10949d:	e8 56 ec ff ff       	callq  1080f8 <_ZN11FAT32Driver7ReadFATEj>
  1094a2:	89 45 dc             	mov    %eax,-0x24(%rbp)
  1094a5:	81 7d dc f7 ff ff 0f 	cmpl   $0xffffff7,-0x24(%rbp)
  1094ac:	76 3b                	jbe    1094e9 <_ZN11FAT32Driver12DirectoryAddEj8DirEntry+0x1f7>
  1094ae:	48 8b 45 a8          	mov    -0x58(%rbp),%rax
  1094b2:	be 01 00 00 00       	mov    $0x1,%esi
  1094b7:	48 89 c7             	mov    %rax,%rdi
  1094ba:	e8 41 ef ff ff       	callq  108400 <_ZN11FAT32Driver20AllocateClusterChainEj>
  1094bf:	89 45 dc             	mov    %eax,-0x24(%rbp)
  1094c2:	81 7d dc f7 ff ff 0f 	cmpl   $0xffffff7,-0x24(%rbp)
  1094c9:	75 0a                	jne    1094d5 <_ZN11FAT32Driver12DirectoryAddEj8DirEntry+0x1e3>
  1094cb:	b8 ff ff ff ff       	mov    $0xffffffff,%eax
  1094d0:	e9 23 04 00 00       	jmpq   1098f8 <_ZN11FAT32Driver12DirectoryAddEj8DirEntry+0x606>
  1094d5:	8b 55 dc             	mov    -0x24(%rbp),%edx
  1094d8:	8b 4d a4             	mov    -0x5c(%rbp),%ecx
  1094db:	48 8b 45 a8          	mov    -0x58(%rbp),%rax
  1094df:	89 ce                	mov    %ecx,%esi
  1094e1:	48 89 c7             	mov    %rax,%rdi
  1094e4:	e8 57 ec ff ff       	callq  108140 <_ZN11FAT32Driver8WriteFATEjj>
  1094e9:	8b 75 dc             	mov    -0x24(%rbp),%esi
  1094ec:	48 8b 55 a8          	mov    -0x58(%rbp),%rdx
  1094f0:	48 83 ec 08          	sub    $0x8,%rsp
  1094f4:	48 81 ec 98 00 00 00 	sub    $0x98,%rsp
  1094fb:	48 89 e0             	mov    %rsp,%rax
  1094fe:	48 8b 4d 10          	mov    0x10(%rbp),%rcx
  109502:	48 8b 5d 18          	mov    0x18(%rbp),%rbx
  109506:	48 89 08             	mov    %rcx,(%rax)
  109509:	48 89 58 08          	mov    %rbx,0x8(%rax)
  10950d:	48 8b 4d 20          	mov    0x20(%rbp),%rcx
  109511:	48 8b 5d 28          	mov    0x28(%rbp),%rbx
  109515:	48 89 48 10          	mov    %rcx,0x10(%rax)
  109519:	48 89 58 18          	mov    %rbx,0x18(%rax)
  10951d:	48 8b 4d 30          	mov    0x30(%rbp),%rcx
  109521:	48 8b 5d 38          	mov    0x38(%rbp),%rbx
  109525:	48 89 48 20          	mov    %rcx,0x20(%rax)
  109529:	48 89 58 28          	mov    %rbx,0x28(%rax)
  10952d:	48 8b 4d 40          	mov    0x40(%rbp),%rcx
  109531:	48 8b 5d 48          	mov    0x48(%rbp),%rbx
  109535:	48 89 48 30          	mov    %rcx,0x30(%rax)
  109539:	48 89 58 38          	mov    %rbx,0x38(%rax)
  10953d:	48 8b 4d 50          	mov    0x50(%rbp),%rcx
  109541:	48 8b 5d 58          	mov    0x58(%rbp),%rbx
  109545:	48 89 48 40          	mov    %rcx,0x40(%rax)
  109549:	48 89 58 48          	mov    %rbx,0x48(%rax)
  10954d:	48 8b 4d 60          	mov    0x60(%rbp),%rcx
  109551:	48 8b 5d 68          	mov    0x68(%rbp),%rbx
  109555:	48 89 48 50          	mov    %rcx,0x50(%rax)
  109559:	48 89 58 58          	mov    %rbx,0x58(%rax)
  10955d:	48 8b 4d 70          	mov    0x70(%rbp),%rcx
  109561:	48 8b 5d 78          	mov    0x78(%rbp),%rbx
  109565:	48 89 48 60          	mov    %rcx,0x60(%rax)
  109569:	48 89 58 68          	mov    %rbx,0x68(%rax)
  10956d:	48 8b 8d 80 00 00 00 	mov    0x80(%rbp),%rcx
  109574:	48 8b 9d 88 00 00 00 	mov    0x88(%rbp),%rbx
  10957b:	48 89 48 70          	mov    %rcx,0x70(%rax)
  10957f:	48 89 58 78          	mov    %rbx,0x78(%rax)
  109583:	48 8b 8d 90 00 00 00 	mov    0x90(%rbp),%rcx
  10958a:	48 8b 9d 98 00 00 00 	mov    0x98(%rbp),%rbx
  109591:	48 89 88 80 00 00 00 	mov    %rcx,0x80(%rax)
  109598:	48 89 98 88 00 00 00 	mov    %rbx,0x88(%rax)
  10959f:	8b 8d a0 00 00 00    	mov    0xa0(%rbp),%ecx
  1095a5:	89 88 90 00 00 00    	mov    %ecx,0x90(%rax)
  1095ab:	48 89 d7             	mov    %rdx,%rdi
  1095ae:	e8 3f fd ff ff       	callq  1092f2 <_ZN11FAT32Driver12DirectoryAddEj8DirEntry>
  1095b3:	48 81 c4 a0 00 00 00 	add    $0xa0,%rsp
  1095ba:	e9 39 03 00 00       	jmpq   1098f8 <_ZN11FAT32Driver12DirectoryAddEj8DirEntry+0x606>
  1095bf:	8b 45 b4             	mov    -0x4c(%rbp),%eax
  1095c2:	39 45 e0             	cmp    %eax,-0x20(%rbp)
  1095c5:	0f 83 59 01 00 00    	jae    109724 <_ZN11FAT32Driver12DirectoryAddEj8DirEntry+0x432>
  1095cb:	83 45 e0 01          	addl   $0x1,-0x20(%rbp)
  1095cf:	8b 55 e4             	mov    -0x1c(%rbp),%edx
  1095d2:	48 8b 45 a8          	mov    -0x58(%rbp),%rax
  1095d6:	8b 40 30             	mov    0x30(%rax),%eax
  1095d9:	89 c0                	mov    %eax,%eax
  1095db:	48 c1 e8 05          	shr    $0x5,%rax
  1095df:	48 83 e8 01          	sub    $0x1,%rax
  1095e3:	48 39 c2             	cmp    %rax,%rdx
  1095e6:	73 0e                	jae    1095f6 <_ZN11FAT32Driver12DirectoryAddEj8DirEntry+0x304>
  1095e8:	48 83 45 e8 20       	addq   $0x20,-0x18(%rbp)
  1095ed:	83 45 e4 01          	addl   $0x1,-0x1c(%rbp)
  1095f1:	e9 fd 02 00 00       	jmpq   1098f3 <_ZN11FAT32Driver12DirectoryAddEj8DirEntry+0x601>
  1095f6:	8b 55 a4             	mov    -0x5c(%rbp),%edx
  1095f9:	48 8b 45 a8          	mov    -0x58(%rbp),%rax
  1095fd:	89 d6                	mov    %edx,%esi
  1095ff:	48 89 c7             	mov    %rax,%rdi
  109602:	e8 f1 ea ff ff       	callq  1080f8 <_ZN11FAT32Driver7ReadFATEj>
  109607:	89 45 d8             	mov    %eax,-0x28(%rbp)
  10960a:	81 7d d8 f7 ff ff 0f 	cmpl   $0xffffff7,-0x28(%rbp)
  109611:	76 3b                	jbe    10964e <_ZN11FAT32Driver12DirectoryAddEj8DirEntry+0x35c>
  109613:	48 8b 45 a8          	mov    -0x58(%rbp),%rax
  109617:	be 01 00 00 00       	mov    $0x1,%esi
  10961c:	48 89 c7             	mov    %rax,%rdi
  10961f:	e8 dc ed ff ff       	callq  108400 <_ZN11FAT32Driver20AllocateClusterChainEj>
  109624:	89 45 d8             	mov    %eax,-0x28(%rbp)
  109627:	81 7d d8 f7 ff ff 0f 	cmpl   $0xffffff7,-0x28(%rbp)
  10962e:	75 0a                	jne    10963a <_ZN11FAT32Driver12DirectoryAddEj8DirEntry+0x348>
  109630:	b8 ff ff ff ff       	mov    $0xffffffff,%eax
  109635:	e9 be 02 00 00       	jmpq   1098f8 <_ZN11FAT32Driver12DirectoryAddEj8DirEntry+0x606>
  10963a:	8b 55 d8             	mov    -0x28(%rbp),%edx
  10963d:	8b 4d a4             	mov    -0x5c(%rbp),%ecx
  109640:	48 8b 45 a8          	mov    -0x58(%rbp),%rax
  109644:	89 ce                	mov    %ecx,%esi
  109646:	48 89 c7             	mov    %rax,%rdi
  109649:	e8 f2 ea ff ff       	callq  108140 <_ZN11FAT32Driver8WriteFATEjj>
  10964e:	8b 75 d8             	mov    -0x28(%rbp),%esi
  109651:	48 8b 55 a8          	mov    -0x58(%rbp),%rdx
  109655:	48 83 ec 08          	sub    $0x8,%rsp
  109659:	48 81 ec 98 00 00 00 	sub    $0x98,%rsp
  109660:	48 89 e0             	mov    %rsp,%rax
  109663:	48 8b 4d 10          	mov    0x10(%rbp),%rcx
  109667:	48 8b 5d 18          	mov    0x18(%rbp),%rbx
  10966b:	48 89 08             	mov    %rcx,(%rax)
  10966e:	48 89 58 08          	mov    %rbx,0x8(%rax)
  109672:	48 8b 4d 20          	mov    0x20(%rbp),%rcx
  109676:	48 8b 5d 28          	mov    0x28(%rbp),%rbx
  10967a:	48 89 48 10          	mov    %rcx,0x10(%rax)
  10967e:	48 89 58 18          	mov    %rbx,0x18(%rax)
  109682:	48 8b 4d 30          	mov    0x30(%rbp),%rcx
  109686:	48 8b 5d 38          	mov    0x38(%rbp),%rbx
  10968a:	48 89 48 20          	mov    %rcx,0x20(%rax)
  10968e:	48 89 58 28          	mov    %rbx,0x28(%rax)
  109692:	48 8b 4d 40          	mov    0x40(%rbp),%rcx
  109696:	48 8b 5d 48          	mov    0x48(%rbp),%rbx
  10969a:	48 89 48 30          	mov    %rcx,0x30(%rax)
  10969e:	48 89 58 38          	mov    %rbx,0x38(%rax)
  1096a2:	48 8b 4d 50          	mov    0x50(%rbp),%rcx
  1096a6:	48 8b 5d 58          	mov    0x58(%rbp),%rbx
  1096aa:	48 89 48 40          	mov    %rcx,0x40(%rax)
  1096ae:	48 89 58 48          	mov    %rbx,0x48(%rax)
  1096b2:	48 8b 4d 60          	mov    0x60(%rbp),%rcx
  1096b6:	48 8b 5d 68          	mov    0x68(%rbp),%rbx
  1096ba:	48 89 48 50          	mov    %rcx,0x50(%rax)
  1096be:	48 89 58 58          	mov    %rbx,0x58(%rax)
  1096c2:	48 8b 4d 70          	mov    0x70(%rbp),%rcx
  1096c6:	48 8b 5d 78          	mov    0x78(%rbp),%rbx
  1096ca:	48 89 48 60          	mov    %rcx,0x60(%rax)
  1096ce:	48 89 58 68          	mov    %rbx,0x68(%rax)
  1096d2:	48 8b 8d 80 00 00 00 	mov    0x80(%rbp),%rcx
  1096d9:	48 8b 9d 88 00 00 00 	mov    0x88(%rbp),%rbx
  1096e0:	48 89 48 70          	mov    %rcx,0x70(%rax)
  1096e4:	48 89 58 78          	mov    %rbx,0x78(%rax)
  1096e8:	48 8b 8d 90 00 00 00 	mov    0x90(%rbp),%rcx
  1096ef:	48 8b 9d 98 00 00 00 	mov    0x98(%rbp),%rbx
  1096f6:	48 89 88 80 00 00 00 	mov    %rcx,0x80(%rax)
  1096fd:	48 89 98 88 00 00 00 	mov    %rbx,0x88(%rax)
  109704:	8b 8d a0 00 00 00    	mov    0xa0(%rbp),%ecx
  10970a:	89 88 90 00 00 00    	mov    %ecx,0x90(%rax)
  109710:	48 89 d7             	mov    %rdx,%rdi
  109713:	e8 da fb ff ff       	callq  1092f2 <_ZN11FAT32Driver12DirectoryAddEj8DirEntry>
  109718:	48 81 c4 a0 00 00 00 	add    $0xa0,%rsp
  10971f:	e9 d4 01 00 00       	jmpq   1098f8 <_ZN11FAT32Driver12DirectoryAddEj8DirEntry+0x606>
  109724:	48 8b 45 a8          	mov    -0x58(%rbp),%rax
  109728:	48 89 c7             	mov    %rax,%rdi
  10972b:	e8 88 16 00 00       	callq  10adb8 <_ZNK11FAT32Driver7GetDateEv>
  109730:	48 8b 55 c8          	mov    -0x38(%rbp),%rdx
  109734:	66 89 42 10          	mov    %ax,0x10(%rdx)
  109738:	48 8b 45 a8          	mov    -0x58(%rbp),%rax
  10973c:	48 89 c7             	mov    %rax,%rdi
  10973f:	e8 26 16 00 00       	callq  10ad6a <_ZNK11FAT32Driver7GetTimeEv>
  109744:	48 8b 55 c8          	mov    -0x38(%rbp),%rdx
  109748:	66 89 42 0e          	mov    %ax,0xe(%rdx)
  10974c:	48 8b 45 a8          	mov    -0x58(%rbp),%rax
  109750:	48 89 c7             	mov    %rax,%rdi
  109753:	e8 fa 15 00 00       	callq  10ad52 <_ZNK11FAT32Driver15GetMillisecondsEv>
  109758:	48 8b 55 c8          	mov    -0x38(%rbp),%rdx
  10975c:	88 42 0d             	mov    %al,0xd(%rdx)
  10975f:	48 8b 45 a8          	mov    -0x58(%rbp),%rax
  109763:	48 89 c7             	mov    %rax,%rdi
  109766:	e8 4d 16 00 00       	callq  10adb8 <_ZNK11FAT32Driver7GetDateEv>
  10976b:	48 8b 55 c8          	mov    -0x38(%rbp),%rdx
  10976f:	66 89 42 12          	mov    %ax,0x12(%rdx)
  109773:	48 8b 45 a8          	mov    -0x58(%rbp),%rax
  109777:	48 89 c7             	mov    %rax,%rdi
  10977a:	e8 39 16 00 00       	callq  10adb8 <_ZNK11FAT32Driver7GetDateEv>
  10977f:	48 8b 55 c8          	mov    -0x38(%rbp),%rdx
  109783:	66 89 42 18          	mov    %ax,0x18(%rdx)
  109787:	48 8b 45 a8          	mov    -0x58(%rbp),%rax
  10978b:	48 89 c7             	mov    %rax,%rdi
  10978e:	e8 d7 15 00 00       	callq  10ad6a <_ZNK11FAT32Driver7GetTimeEv>
  109793:	48 8b 55 c8          	mov    -0x38(%rbp),%rdx
  109797:	66 89 42 16          	mov    %ax,0x16(%rdx)
  10979b:	48 8b 45 c8          	mov    -0x38(%rbp),%rax
  10979f:	8b 40 1c             	mov    0x1c(%rax),%eax
  1097a2:	48 8b 55 a8          	mov    -0x58(%rbp),%rdx
  1097a6:	8b 5a 30             	mov    0x30(%rdx),%ebx
  1097a9:	ba 00 00 00 00       	mov    $0x0,%edx
  1097ae:	f7 f3                	div    %ebx
  1097b0:	89 45 d4             	mov    %eax,-0x2c(%rbp)
  1097b3:	48 8b 45 a8          	mov    -0x58(%rbp),%rax
  1097b7:	8b 40 30             	mov    0x30(%rax),%eax
  1097ba:	0f af 45 d4          	imul   -0x2c(%rbp),%eax
  1097be:	89 c2                	mov    %eax,%edx
  1097c0:	48 8b 45 a8          	mov    -0x58(%rbp),%rax
  1097c4:	8b 40 30             	mov    0x30(%rax),%eax
  1097c7:	39 c2                	cmp    %eax,%edx
  1097c9:	74 04                	je     1097cf <_ZN11FAT32Driver12DirectoryAddEj8DirEntry+0x4dd>
  1097cb:	83 45 d4 01          	addl   $0x1,-0x2c(%rbp)
  1097cf:	8b 55 d4             	mov    -0x2c(%rbp),%edx
  1097d2:	48 8b 45 a8          	mov    -0x58(%rbp),%rax
  1097d6:	89 d6                	mov    %edx,%esi
  1097d8:	48 89 c7             	mov    %rax,%rdi
  1097db:	e8 20 ec ff ff       	callq  108400 <_ZN11FAT32Driver20AllocateClusterChainEj>
  1097e0:	89 45 c4             	mov    %eax,-0x3c(%rbp)
  1097e3:	81 7d c4 f7 ff ff 0f 	cmpl   $0xffffff7,-0x3c(%rbp)
  1097ea:	75 0a                	jne    1097f6 <_ZN11FAT32Driver12DirectoryAddEj8DirEntry+0x504>
  1097ec:	b8 ff ff ff ff       	mov    $0xffffffff,%eax
  1097f1:	e9 02 01 00 00       	jmpq   1098f8 <_ZN11FAT32Driver12DirectoryAddEj8DirEntry+0x606>
  1097f6:	48 8b 45 a8          	mov    -0x58(%rbp),%rax
  1097fa:	8b 40 30             	mov    0x30(%rax),%eax
  1097fd:	0f af 45 d4          	imul   -0x2c(%rbp),%eax
  109801:	89 c0                	mov    %eax,%eax
  109803:	48 89 c7             	mov    %rax,%rdi
  109806:	e8 f0 a1 ff ff       	callq  1039fb <_Znam>
  10980b:	48 89 45 b8          	mov    %rax,-0x48(%rbp)
  10980f:	48 8b 45 a8          	mov    -0x58(%rbp),%rax
  109813:	8b 40 30             	mov    0x30(%rax),%eax
  109816:	0f af 45 d4          	imul   -0x2c(%rbp),%eax
  10981a:	89 c2                	mov    %eax,%edx
  10981c:	48 8b 45 b8          	mov    -0x48(%rbp),%rax
  109820:	be 00 00 00 00       	mov    $0x0,%esi
  109825:	48 89 c7             	mov    %rax,%rdi
  109828:	e8 16 34 00 00       	callq  10cc43 <_Z6memsetPvim>
  10982d:	48 8b 45 a8          	mov    -0x58(%rbp),%rax
  109831:	8b 40 30             	mov    0x30(%rax),%eax
  109834:	0f af 45 d4          	imul   -0x2c(%rbp),%eax
  109838:	89 c1                	mov    %eax,%ecx
  10983a:	48 8b 55 b8          	mov    -0x48(%rbp),%rdx
  10983e:	8b 75 c4             	mov    -0x3c(%rbp),%esi
  109841:	48 8b 45 a8          	mov    -0x58(%rbp),%rax
  109845:	48 89 c7             	mov    %rax,%rdi
  109848:	e8 0f ee ff ff       	callq  10865c <_ZN11FAT32Driver17WriteClusterChainEjPvj>
  10984d:	48 8b 45 c8          	mov    -0x38(%rbp),%rax
  109851:	0f b6 40 0b          	movzbl 0xb(%rax),%eax
  109855:	0f b6 c0             	movzbl %al,%eax
  109858:	83 e0 10             	and    $0x10,%eax
  10985b:	85 c0                	test   %eax,%eax
  10985d:	74 11                	je     109870 <_ZN11FAT32Driver12DirectoryAddEj8DirEntry+0x57e>
  10985f:	8b 55 c4             	mov    -0x3c(%rbp),%edx
  109862:	48 8b 45 a8          	mov    -0x58(%rbp),%rax
  109866:	89 d6                	mov    %edx,%esi
  109868:	48 89 c7             	mov    %rax,%rdi
  10986b:	e8 e0 f5 ff ff       	callq  108e50 <_ZN11FAT32Driver21PrepareAddedDirectoryEj>
  109870:	8b 45 c4             	mov    -0x3c(%rbp),%eax
  109873:	89 c2                	mov    %eax,%edx
  109875:	48 8b 45 c8          	mov    -0x38(%rbp),%rax
  109879:	66 89 50 1a          	mov    %dx,0x1a(%rax)
  10987d:	8b 45 c4             	mov    -0x3c(%rbp),%eax
  109880:	c1 e8 10             	shr    $0x10,%eax
  109883:	89 c2                	mov    %eax,%edx
  109885:	48 8b 45 c8          	mov    -0x38(%rbp),%rax
  109889:	66 89 50 14          	mov    %dx,0x14(%rax)
  10988d:	8b 45 b4             	mov    -0x4c(%rbp),%eax
  109890:	83 c0 01             	add    $0x1,%eax
  109893:	89 c0                	mov    %eax,%eax
  109895:	48 c1 e0 05          	shl    $0x5,%rax
  109899:	48 89 c2             	mov    %rax,%rdx
  10989c:	8b 45 b4             	mov    -0x4c(%rbp),%eax
  10989f:	89 c0                	mov    %eax,%eax
  1098a1:	48 c1 e0 05          	shl    $0x5,%rax
  1098a5:	48 f7 d8             	neg    %rax
  1098a8:	48 89 c1             	mov    %rax,%rcx
  1098ab:	48 8b 45 c8          	mov    -0x38(%rbp),%rax
  1098af:	48 01 c1             	add    %rax,%rcx
  1098b2:	8b 45 b4             	mov    -0x4c(%rbp),%eax
  1098b5:	89 c0                	mov    %eax,%eax
  1098b7:	48 c1 e0 05          	shl    $0x5,%rax
  1098bb:	48 f7 d8             	neg    %rax
  1098be:	48 89 c6             	mov    %rax,%rsi
  1098c1:	48 8b 45 e8          	mov    -0x18(%rbp),%rax
  1098c5:	48 01 f0             	add    %rsi,%rax
  1098c8:	48 89 ce             	mov    %rcx,%rsi
  1098cb:	48 89 c7             	mov    %rax,%rdi
  1098ce:	e8 2e 33 00 00       	callq  10cc01 <_Z6memcpyPvPKvm>
  1098d3:	48 8b 45 a8          	mov    -0x58(%rbp),%rax
  1098d7:	48 8b 50 18          	mov    0x18(%rax),%rdx
  1098db:	8b 4d a4             	mov    -0x5c(%rbp),%ecx
  1098de:	48 8b 45 a8          	mov    -0x58(%rbp),%rax
  1098e2:	89 ce                	mov    %ecx,%esi
  1098e4:	48 89 c7             	mov    %rax,%rdi
  1098e7:	e8 96 e9 ff ff       	callq  108282 <_ZN11FAT32Driver12WriteClusterEjPv>
  1098ec:	b8 00 00 00 00       	mov    $0x0,%eax
  1098f1:	eb 05                	jmp    1098f8 <_ZN11FAT32Driver12DirectoryAddEj8DirEntry+0x606>
  1098f3:	e9 54 fb ff ff       	jmpq   10944c <_ZN11FAT32Driver12DirectoryAddEj8DirEntry+0x15a>
  1098f8:	48 8b 5d f8          	mov    -0x8(%rbp),%rbx
  1098fc:	c9                   	leaveq 
  1098fd:	c3                   	retq   

00000000001098fe <_ZN11FAT32Driver8OpenFileEPKcP8DirEntry>:
  1098fe:	f3 0f 1e fa          	endbr64 
  109902:	55                   	push   %rbp
  109903:	48 89 e5             	mov    %rsp,%rbp
  109906:	48 83 ec 20          	sub    $0x20,%rsp
  10990a:	48 89 7d f8          	mov    %rdi,-0x8(%rbp)
  10990e:	48 89 75 f0          	mov    %rsi,-0x10(%rbp)
  109912:	48 89 55 e8          	mov    %rdx,-0x18(%rbp)
  109916:	48 83 7d e8 00       	cmpq   $0x0,-0x18(%rbp)
  10991b:	75 07                	jne    109924 <_ZN11FAT32Driver8OpenFileEPKcP8DirEntry+0x26>
  10991d:	b8 ff ff ff ff       	mov    $0xffffffff,%eax
  109922:	eb 1c                	jmp    109940 <_ZN11FAT32Driver8OpenFileEPKcP8DirEntry+0x42>
  109924:	48 8b 55 e8          	mov    -0x18(%rbp),%rdx
  109928:	48 8b 4d f0          	mov    -0x10(%rbp),%rcx
  10992c:	48 8b 45 f8          	mov    -0x8(%rbp),%rax
  109930:	48 89 ce             	mov    %rcx,%rsi
  109933:	48 89 c7             	mov    %rax,%rdi
  109936:	e8 05 0a 00 00       	callq  10a340 <_ZN11FAT32Driver22GetClusterFromFilePathEPKcP8DirEntry>
  10993b:	b8 00 00 00 00       	mov    $0x0,%eax
  109940:	c9                   	leaveq 
  109941:	c3                   	retq   

0000000000109942 <_ZN11FAT32Driver10CreateFileEPKcP8DirEntry>:
  109942:	f3 0f 1e fa          	endbr64 
  109946:	55                   	push   %rbp
  109947:	48 89 e5             	mov    %rsp,%rbp
  10994a:	53                   	push   %rbx
  10994b:	48 81 ec c8 00 00 00 	sub    $0xc8,%rsp
  109952:	48 89 bd 48 ff ff ff 	mov    %rdi,-0xb8(%rbp)
  109959:	48 89 b5 40 ff ff ff 	mov    %rsi,-0xc0(%rbp)
  109960:	48 89 95 38 ff ff ff 	mov    %rdx,-0xc8(%rbp)
  109967:	48 8d 95 50 ff ff ff 	lea    -0xb0(%rbp),%rdx
  10996e:	48 8b 8d 40 ff ff ff 	mov    -0xc0(%rbp),%rcx
  109975:	48 8b 85 48 ff ff ff 	mov    -0xb8(%rbp),%rax
  10997c:	48 89 ce             	mov    %rcx,%rsi
  10997f:	48 89 c7             	mov    %rax,%rdi
  109982:	e8 b9 09 00 00       	callq  10a340 <_ZN11FAT32Driver22GetClusterFromFilePathEPKcP8DirEntry>
  109987:	89 45 ec             	mov    %eax,-0x14(%rbp)
  10998a:	48 8b 85 38 ff ff ff 	mov    -0xc8(%rbp),%rax
  109991:	8b 55 ec             	mov    -0x14(%rbp),%edx
  109994:	89 90 8c 00 00 00    	mov    %edx,0x8c(%rax)
  10999a:	48 8b 85 38 ff ff ff 	mov    -0xc8(%rbp),%rax
  1099a1:	c7 80 90 00 00 00 ff 	movl   $0xffffffff,0x90(%rax)
  1099a8:	ff ff ff 
  1099ab:	48 8b b5 38 ff ff ff 	mov    -0xc8(%rbp),%rsi
  1099b2:	8b 55 ec             	mov    -0x14(%rbp),%edx
  1099b5:	48 8b 85 48 ff ff ff 	mov    -0xb8(%rbp),%rax
  1099bc:	b9 00 00 00 00       	mov    $0x0,%ecx
  1099c1:	48 89 c7             	mov    %rax,%rdi
  1099c4:	e8 87 f7 ff ff       	callq  109150 <_ZN11FAT32Driver15DirectorySearchEPKcjP8DirEntry>
  1099c9:	89 45 e8             	mov    %eax,-0x18(%rbp)
  1099cc:	83 7d e8 fe          	cmpl   $0xfffffffe,-0x18(%rbp)
  1099d0:	74 08                	je     1099da <_ZN11FAT32Driver10CreateFileEPKcP8DirEntry+0x98>
  1099d2:	8b 45 e8             	mov    -0x18(%rbp),%eax
  1099d5:	e9 0a 01 00 00       	jmpq   109ae4 <_ZN11FAT32Driver10CreateFileEPKcP8DirEntry+0x1a2>
  1099da:	0f b6 45 d8          	movzbl -0x28(%rbp),%eax
  1099de:	0f b6 c0             	movzbl %al,%eax
  1099e1:	83 e0 10             	and    $0x10,%eax
  1099e4:	85 c0                	test   %eax,%eax
  1099e6:	75 0a                	jne    1099f2 <_ZN11FAT32Driver10CreateFileEPKcP8DirEntry+0xb0>
  1099e8:	b8 fe ff ff ff       	mov    $0xfffffffe,%eax
  1099ed:	e9 f2 00 00 00       	jmpq   109ae4 <_ZN11FAT32Driver10CreateFileEPKcP8DirEntry+0x1a2>
  1099f2:	8b 75 ec             	mov    -0x14(%rbp),%esi
  1099f5:	48 8b bd 48 ff ff ff 	mov    -0xb8(%rbp),%rdi
  1099fc:	48 83 ec 08          	sub    $0x8,%rsp
  109a00:	48 8b 85 38 ff ff ff 	mov    -0xc8(%rbp),%rax
  109a07:	48 81 ec 98 00 00 00 	sub    $0x98,%rsp
  109a0e:	48 89 e2             	mov    %rsp,%rdx
  109a11:	48 8b 08             	mov    (%rax),%rcx
  109a14:	48 8b 58 08          	mov    0x8(%rax),%rbx
  109a18:	48 89 0a             	mov    %rcx,(%rdx)
  109a1b:	48 89 5a 08          	mov    %rbx,0x8(%rdx)
  109a1f:	48 8b 48 10          	mov    0x10(%rax),%rcx
  109a23:	48 8b 58 18          	mov    0x18(%rax),%rbx
  109a27:	48 89 4a 10          	mov    %rcx,0x10(%rdx)
  109a2b:	48 89 5a 18          	mov    %rbx,0x18(%rdx)
  109a2f:	48 8b 48 20          	mov    0x20(%rax),%rcx
  109a33:	48 8b 58 28          	mov    0x28(%rax),%rbx
  109a37:	48 89 4a 20          	mov    %rcx,0x20(%rdx)
  109a3b:	48 89 5a 28          	mov    %rbx,0x28(%rdx)
  109a3f:	48 8b 48 30          	mov    0x30(%rax),%rcx
  109a43:	48 8b 58 38          	mov    0x38(%rax),%rbx
  109a47:	48 89 4a 30          	mov    %rcx,0x30(%rdx)
  109a4b:	48 89 5a 38          	mov    %rbx,0x38(%rdx)
  109a4f:	48 8b 48 40          	mov    0x40(%rax),%rcx
  109a53:	48 8b 58 48          	mov    0x48(%rax),%rbx
  109a57:	48 89 4a 40          	mov    %rcx,0x40(%rdx)
  109a5b:	48 89 5a 48          	mov    %rbx,0x48(%rdx)
  109a5f:	48 8b 48 50          	mov    0x50(%rax),%rcx
  109a63:	48 8b 58 58          	mov    0x58(%rax),%rbx
  109a67:	48 89 4a 50          	mov    %rcx,0x50(%rdx)
  109a6b:	48 89 5a 58          	mov    %rbx,0x58(%rdx)
  109a6f:	48 8b 48 60          	mov    0x60(%rax),%rcx
  109a73:	48 8b 58 68          	mov    0x68(%rax),%rbx
  109a77:	48 89 4a 60          	mov    %rcx,0x60(%rdx)
  109a7b:	48 89 5a 68          	mov    %rbx,0x68(%rdx)
  109a7f:	48 8b 48 70          	mov    0x70(%rax),%rcx
  109a83:	48 8b 58 78          	mov    0x78(%rax),%rbx
  109a87:	48 89 4a 70          	mov    %rcx,0x70(%rdx)
  109a8b:	48 89 5a 78          	mov    %rbx,0x78(%rdx)
  109a8f:	48 8b 88 80 00 00 00 	mov    0x80(%rax),%rcx
  109a96:	48 8b 98 88 00 00 00 	mov    0x88(%rax),%rbx
  109a9d:	48 89 8a 80 00 00 00 	mov    %rcx,0x80(%rdx)
  109aa4:	48 89 9a 88 00 00 00 	mov    %rbx,0x88(%rdx)
  109aab:	8b 80 90 00 00 00    	mov    0x90(%rax),%eax
  109ab1:	89 82 90 00 00 00    	mov    %eax,0x90(%rdx)
  109ab7:	e8 36 f8 ff ff       	callq  1092f2 <_ZN11FAT32Driver12DirectoryAddEj8DirEntry>
  109abc:	48 81 c4 a0 00 00 00 	add    $0xa0,%rsp
  109ac3:	48 8b b5 38 ff ff ff 	mov    -0xc8(%rbp),%rsi
  109aca:	48 8b 8d 38 ff ff ff 	mov    -0xc8(%rbp),%rcx
  109ad1:	8b 55 ec             	mov    -0x14(%rbp),%edx
  109ad4:	48 8b 85 48 ff ff ff 	mov    -0xb8(%rbp),%rax
  109adb:	48 89 c7             	mov    %rax,%rdi
  109ade:	e8 6d f6 ff ff       	callq  109150 <_ZN11FAT32Driver15DirectorySearchEPKcjP8DirEntry>
  109ae3:	90                   	nop
  109ae4:	48 8b 5d f8          	mov    -0x8(%rbp),%rbx
  109ae8:	c9                   	leaveq 
  109ae9:	c3                   	retq   

0000000000109aea <_ZN11FAT32Driver10DeleteFileE8DirEntry>:
  109aea:	f3 0f 1e fa          	endbr64 
  109aee:	55                   	push   %rbp
  109aef:	48 89 e5             	mov    %rsp,%rbp
  109af2:	53                   	push   %rbx
  109af3:	48 83 ec 38          	sub    $0x38,%rsp
  109af7:	48 89 7d c8          	mov    %rdi,-0x38(%rbp)
  109afb:	0f b6 85 98 00 00 00 	movzbl 0x98(%rbp),%eax
  109b02:	0f b6 c0             	movzbl %al,%eax
  109b05:	83 e0 10             	and    $0x10,%eax
  109b08:	85 c0                	test   %eax,%eax
  109b0a:	0f 84 57 01 00 00    	je     109c67 <_ZN11FAT32Driver10DeleteFileE8DirEntry+0x17d>
  109b10:	8b 95 90 00 00 00    	mov    0x90(%rbp),%edx
  109b16:	48 8d 45 d0          	lea    -0x30(%rbp),%rax
  109b1a:	48 8b 75 c8          	mov    -0x38(%rbp),%rsi
  109b1e:	41 b8 00 00 00 00    	mov    $0x0,%r8d
  109b24:	b9 00 00 00 00       	mov    $0x0,%ecx
  109b29:	48 89 c7             	mov    %rax,%rdi
  109b2c:	e8 77 ee ff ff       	callq  1089a8 <_ZN11FAT32Driver14GetDirectoriesEjjb>
  109b31:	48 c7 45 e8 00 00 00 	movq   $0x0,-0x18(%rbp)
  109b38:	00 
  109b39:	48 8d 45 d0          	lea    -0x30(%rbp),%rax
  109b3d:	48 89 c7             	mov    %rax,%rdi
  109b40:	e8 e7 48 00 00       	callq  10e42c <_ZNK6vectorI8DirEntryE4sizeEv>
  109b45:	48 39 45 e8          	cmp    %rax,-0x18(%rbp)
  109b49:	0f 92 c0             	setb   %al
  109b4c:	84 c0                	test   %al,%al
  109b4e:	0f 84 07 01 00 00    	je     109c5b <_ZN11FAT32Driver10DeleteFileE8DirEntry+0x171>
  109b54:	48 8b 55 e8          	mov    -0x18(%rbp),%rdx
  109b58:	48 8d 45 d0          	lea    -0x30(%rbp),%rax
  109b5c:	48 89 d6             	mov    %rdx,%rsi
  109b5f:	48 89 c7             	mov    %rax,%rdi
  109b62:	e8 df 48 00 00       	callq  10e446 <_ZN6vectorI8DirEntryEixEm>
  109b67:	0f b6 00             	movzbl (%rax),%eax
  109b6a:	3c 2e                	cmp    $0x2e,%al
  109b6c:	0f 95 c0             	setne  %al
  109b6f:	84 c0                	test   %al,%al
  109b71:	0f 84 da 00 00 00    	je     109c51 <_ZN11FAT32Driver10DeleteFileE8DirEntry+0x167>
  109b77:	48 8b 55 e8          	mov    -0x18(%rbp),%rdx
  109b7b:	48 8d 45 d0          	lea    -0x30(%rbp),%rax
  109b7f:	48 89 d6             	mov    %rdx,%rsi
  109b82:	48 89 c7             	mov    %rax,%rdi
  109b85:	e8 bc 48 00 00       	callq  10e446 <_ZN6vectorI8DirEntryEixEm>
  109b8a:	48 8b 75 c8          	mov    -0x38(%rbp),%rsi
  109b8e:	48 83 ec 08          	sub    $0x8,%rsp
  109b92:	48 81 ec 98 00 00 00 	sub    $0x98,%rsp
  109b99:	48 89 e2             	mov    %rsp,%rdx
  109b9c:	48 8b 08             	mov    (%rax),%rcx
  109b9f:	48 8b 58 08          	mov    0x8(%rax),%rbx
  109ba3:	48 89 0a             	mov    %rcx,(%rdx)
  109ba6:	48 89 5a 08          	mov    %rbx,0x8(%rdx)
  109baa:	48 8b 48 10          	mov    0x10(%rax),%rcx
  109bae:	48 8b 58 18          	mov    0x18(%rax),%rbx
  109bb2:	48 89 4a 10          	mov    %rcx,0x10(%rdx)
  109bb6:	48 89 5a 18          	mov    %rbx,0x18(%rdx)
  109bba:	48 8b 48 20          	mov    0x20(%rax),%rcx
  109bbe:	48 8b 58 28          	mov    0x28(%rax),%rbx
  109bc2:	48 89 4a 20          	mov    %rcx,0x20(%rdx)
  109bc6:	48 89 5a 28          	mov    %rbx,0x28(%rdx)
  109bca:	48 8b 48 30          	mov    0x30(%rax),%rcx
  109bce:	48 8b 58 38          	mov    0x38(%rax),%rbx
  109bd2:	48 89 4a 30          	mov    %rcx,0x30(%rdx)
  109bd6:	48 89 5a 38          	mov    %rbx,0x38(%rdx)
  109bda:	48 8b 48 40          	mov    0x40(%rax),%rcx
  109bde:	48 8b 58 48          	mov    0x48(%rax),%rbx
  109be2:	48 89 4a 40          	mov    %rcx,0x40(%rdx)
  109be6:	48 89 5a 48          	mov    %rbx,0x48(%rdx)
  109bea:	48 8b 48 50          	mov    0x50(%rax),%rcx
  109bee:	48 8b 58 58          	mov    0x58(%rax),%rbx
  109bf2:	48 89 4a 50          	mov    %rcx,0x50(%rdx)
  109bf6:	48 89 5a 58          	mov    %rbx,0x58(%rdx)
  109bfa:	48 8b 48 60          	mov    0x60(%rax),%rcx
  109bfe:	48 8b 58 68          	mov    0x68(%rax),%rbx
  109c02:	48 89 4a 60          	mov    %rcx,0x60(%rdx)
  109c06:	48 89 5a 68          	mov    %rbx,0x68(%rdx)
  109c0a:	48 8b 48 70          	mov    0x70(%rax),%rcx
  109c0e:	48 8b 58 78          	mov    0x78(%rax),%rbx
  109c12:	48 89 4a 70          	mov    %rcx,0x70(%rdx)
  109c16:	48 89 5a 78          	mov    %rbx,0x78(%rdx)
  109c1a:	48 8b 88 80 00 00 00 	mov    0x80(%rax),%rcx
  109c21:	48 8b 98 88 00 00 00 	mov    0x88(%rax),%rbx
  109c28:	48 89 8a 80 00 00 00 	mov    %rcx,0x80(%rdx)
  109c2f:	48 89 9a 88 00 00 00 	mov    %rbx,0x88(%rdx)
  109c36:	8b 80 90 00 00 00    	mov    0x90(%rax),%eax
  109c3c:	89 82 90 00 00 00    	mov    %eax,0x90(%rdx)
  109c42:	48 89 f7             	mov    %rsi,%rdi
  109c45:	e8 a0 fe ff ff       	callq  109aea <_ZN11FAT32Driver10DeleteFileE8DirEntry>
  109c4a:	48 81 c4 a0 00 00 00 	add    $0xa0,%rsp
  109c51:	48 83 45 e8 01       	addq   $0x1,-0x18(%rbp)
  109c56:	e9 de fe ff ff       	jmpq   109b39 <_ZN11FAT32Driver10DeleteFileE8DirEntry+0x4f>
  109c5b:	48 8d 45 d0          	lea    -0x30(%rbp),%rax
  109c5f:	48 89 c7             	mov    %rax,%rdi
  109c62:	e8 95 47 00 00       	callq  10e3fc <_ZN6vectorI8DirEntryED1Ev>
  109c67:	8b 95 90 00 00 00    	mov    0x90(%rbp),%edx
  109c6d:	48 8b 45 c8          	mov    -0x38(%rbp),%rax
  109c71:	89 d6                	mov    %edx,%esi
  109c73:	48 89 c7             	mov    %rax,%rdi
  109c76:	e8 6f e8 ff ff       	callq  1084ea <_ZN11FAT32Driver16FreeClusterChainEj>
  109c7b:	8b b5 9c 00 00 00    	mov    0x9c(%rbp),%esi
  109c81:	48 8b 55 c8          	mov    -0x38(%rbp),%rdx
  109c85:	48 83 ec 08          	sub    $0x8,%rsp
  109c89:	48 81 ec 98 00 00 00 	sub    $0x98,%rsp
  109c90:	48 89 e0             	mov    %rsp,%rax
  109c93:	48 8b 4d 10          	mov    0x10(%rbp),%rcx
  109c97:	48 8b 5d 18          	mov    0x18(%rbp),%rbx
  109c9b:	48 89 08             	mov    %rcx,(%rax)
  109c9e:	48 89 58 08          	mov    %rbx,0x8(%rax)
  109ca2:	48 8b 4d 20          	mov    0x20(%rbp),%rcx
  109ca6:	48 8b 5d 28          	mov    0x28(%rbp),%rbx
  109caa:	48 89 48 10          	mov    %rcx,0x10(%rax)
  109cae:	48 89 58 18          	mov    %rbx,0x18(%rax)
  109cb2:	48 8b 4d 30          	mov    0x30(%rbp),%rcx
  109cb6:	48 8b 5d 38          	mov    0x38(%rbp),%rbx
  109cba:	48 89 48 20          	mov    %rcx,0x20(%rax)
  109cbe:	48 89 58 28          	mov    %rbx,0x28(%rax)
  109cc2:	48 8b 4d 40          	mov    0x40(%rbp),%rcx
  109cc6:	48 8b 5d 48          	mov    0x48(%rbp),%rbx
  109cca:	48 89 48 30          	mov    %rcx,0x30(%rax)
  109cce:	48 89 58 38          	mov    %rbx,0x38(%rax)
  109cd2:	48 8b 4d 50          	mov    0x50(%rbp),%rcx
  109cd6:	48 8b 5d 58          	mov    0x58(%rbp),%rbx
  109cda:	48 89 48 40          	mov    %rcx,0x40(%rax)
  109cde:	48 89 58 48          	mov    %rbx,0x48(%rax)
  109ce2:	48 8b 4d 60          	mov    0x60(%rbp),%rcx
  109ce6:	48 8b 5d 68          	mov    0x68(%rbp),%rbx
  109cea:	48 89 48 50          	mov    %rcx,0x50(%rax)
  109cee:	48 89 58 58          	mov    %rbx,0x58(%rax)
  109cf2:	48 8b 4d 70          	mov    0x70(%rbp),%rcx
  109cf6:	48 8b 5d 78          	mov    0x78(%rbp),%rbx
  109cfa:	48 89 48 60          	mov    %rcx,0x60(%rax)
  109cfe:	48 89 58 68          	mov    %rbx,0x68(%rax)
  109d02:	48 8b 8d 80 00 00 00 	mov    0x80(%rbp),%rcx
  109d09:	48 8b 9d 88 00 00 00 	mov    0x88(%rbp),%rbx
  109d10:	48 89 48 70          	mov    %rcx,0x70(%rax)
  109d14:	48 89 58 78          	mov    %rbx,0x78(%rax)
  109d18:	48 8b 8d 90 00 00 00 	mov    0x90(%rbp),%rcx
  109d1f:	48 8b 9d 98 00 00 00 	mov    0x98(%rbp),%rbx
  109d26:	48 89 88 80 00 00 00 	mov    %rcx,0x80(%rax)
  109d2d:	48 89 98 88 00 00 00 	mov    %rbx,0x88(%rax)
  109d34:	8b 8d a0 00 00 00    	mov    0xa0(%rbp),%ecx
  109d3a:	89 88 90 00 00 00    	mov    %ecx,0x90(%rax)
  109d40:	48 89 d7             	mov    %rdx,%rdi
  109d43:	e8 14 f3 ff ff       	callq  10905c <_ZN11FAT32Driver14CleanFileEntryEj8DirEntry>
  109d48:	48 81 c4 a0 00 00 00 	add    $0xa0,%rsp
  109d4f:	b8 00 00 00 00       	mov    $0x0,%eax
  109d54:	48 8b 5d f8          	mov    -0x8(%rbp),%rbx
  109d58:	c9                   	leaveq 
  109d59:	c3                   	retq   

0000000000109d5a <_ZN11FAT32Driver8ReadFileE8DirEntrymPvm>:
  109d5a:	f3 0f 1e fa          	endbr64 
  109d5e:	55                   	push   %rbp
  109d5f:	48 89 e5             	mov    %rsp,%rbp
  109d62:	53                   	push   %rbx
  109d63:	48 83 ec 78          	sub    $0x78,%rsp
  109d67:	48 89 7d 98          	mov    %rdi,-0x68(%rbp)
  109d6b:	48 89 75 90          	mov    %rsi,-0x70(%rbp)
  109d6f:	48 89 55 88          	mov    %rdx,-0x78(%rbp)
  109d73:	48 89 4d 80          	mov    %rcx,-0x80(%rbp)
  109d77:	0f b6 85 98 00 00 00 	movzbl 0x98(%rbp),%eax
  109d7e:	0f b6 c0             	movzbl %al,%eax
  109d81:	83 e0 10             	and    $0x10,%eax
  109d84:	85 c0                	test   %eax,%eax
  109d86:	74 0a                	je     109d92 <_ZN11FAT32Driver8ReadFileE8DirEntrymPvm+0x38>
  109d88:	bb fd ff ff ff       	mov    $0xfffffffd,%ebx
  109d8d:	e9 71 01 00 00       	jmpq   109f03 <_ZN11FAT32Driver8ReadFileE8DirEntrymPvm+0x1a9>
  109d92:	48 8b 55 80          	mov    -0x80(%rbp),%rdx
  109d96:	48 8b 45 90          	mov    -0x70(%rbp),%rax
  109d9a:	48 01 d0             	add    %rdx,%rax
  109d9d:	8b 95 94 00 00 00    	mov    0x94(%rbp),%edx
  109da3:	89 d2                	mov    %edx,%edx
  109da5:	48 39 d0             	cmp    %rdx,%rax
  109da8:	76 10                	jbe    109dba <_ZN11FAT32Driver8ReadFileE8DirEntrymPvm+0x60>
  109daa:	8b 85 94 00 00 00    	mov    0x94(%rbp),%eax
  109db0:	89 c0                	mov    %eax,%eax
  109db2:	48 2b 45 90          	sub    -0x70(%rbp),%rax
  109db6:	48 89 45 80          	mov    %rax,-0x80(%rbp)
  109dba:	8b 95 90 00 00 00    	mov    0x90(%rbp),%edx
  109dc0:	48 8d 45 a0          	lea    -0x60(%rbp),%rax
  109dc4:	48 8b 4d 98          	mov    -0x68(%rbp),%rcx
  109dc8:	48 89 ce             	mov    %rcx,%rsi
  109dcb:	48 89 c7             	mov    %rax,%rdi
  109dce:	e8 59 e5 ff ff       	callq  10832c <_ZN11FAT32Driver15GetClusterChainEj>
  109dd3:	48 c7 45 e8 00 00 00 	movq   $0x0,-0x18(%rbp)
  109dda:	00 
  109ddb:	48 8b 45 88          	mov    -0x78(%rbp),%rax
  109ddf:	48 89 45 e0          	mov    %rax,-0x20(%rbp)
  109de3:	c7 45 dc 00 00 00 00 	movl   $0x0,-0x24(%rbp)
  109dea:	8b 5d dc             	mov    -0x24(%rbp),%ebx
  109ded:	48 8d 45 a0          	lea    -0x60(%rbp),%rax
  109df1:	48 89 c7             	mov    %rax,%rdi
  109df4:	e8 0f 48 00 00       	callq  10e608 <_ZNK6vectorIjE4sizeEv>
  109df9:	48 39 c3             	cmp    %rax,%rbx
  109dfc:	0f 92 c0             	setb   %al
  109dff:	84 c0                	test   %al,%al
  109e01:	0f 84 eb 00 00 00    	je     109ef2 <_ZN11FAT32Driver8ReadFileE8DirEntrymPvm+0x198>
  109e07:	8b 55 dc             	mov    -0x24(%rbp),%edx
  109e0a:	48 8d 45 a0          	lea    -0x60(%rbp),%rax
  109e0e:	48 89 d6             	mov    %rdx,%rsi
  109e11:	48 89 c7             	mov    %rax,%rdi
  109e14:	e8 09 48 00 00       	callq  10e622 <_ZN6vectorIjEixEm>
  109e19:	8b 00                	mov    (%rax),%eax
  109e1b:	89 45 cc             	mov    %eax,-0x34(%rbp)
  109e1e:	48 8b 45 e8          	mov    -0x18(%rbp),%rax
  109e22:	48 3b 45 90          	cmp    -0x70(%rbp),%rax
  109e26:	73 12                	jae    109e3a <_ZN11FAT32Driver8ReadFileE8DirEntrymPvm+0xe0>
  109e28:	48 8b 45 98          	mov    -0x68(%rbp),%rax
  109e2c:	8b 40 30             	mov    0x30(%rax),%eax
  109e2f:	89 c0                	mov    %eax,%eax
  109e31:	48 01 45 e8          	add    %rax,-0x18(%rbp)
  109e35:	e9 af 00 00 00       	jmpq   109ee9 <_ZN11FAT32Driver8ReadFileE8DirEntrymPvm+0x18f>
  109e3a:	48 8b 55 80          	mov    -0x80(%rbp),%rdx
  109e3e:	48 8b 45 90          	mov    -0x70(%rbp),%rax
  109e42:	48 01 d0             	add    %rdx,%rax
  109e45:	48 2b 45 e8          	sub    -0x18(%rbp),%rax
  109e49:	48 89 45 d0          	mov    %rax,-0x30(%rbp)
  109e4d:	48 8b 45 98          	mov    -0x68(%rbp),%rax
  109e51:	8b 40 30             	mov    0x30(%rax),%eax
  109e54:	89 c0                	mov    %eax,%eax
  109e56:	48 39 45 d0          	cmp    %rax,-0x30(%rbp)
  109e5a:	76 24                	jbe    109e80 <_ZN11FAT32Driver8ReadFileE8DirEntrymPvm+0x126>
  109e5c:	48 8b 45 98          	mov    -0x68(%rbp),%rax
  109e60:	8b 40 30             	mov    0x30(%rax),%eax
  109e63:	89 c0                	mov    %eax,%eax
  109e65:	48 89 45 d0          	mov    %rax,-0x30(%rbp)
  109e69:	48 8b 55 e0          	mov    -0x20(%rbp),%rdx
  109e6d:	8b 4d cc             	mov    -0x34(%rbp),%ecx
  109e70:	48 8b 45 98          	mov    -0x68(%rbp),%rax
  109e74:	89 ce                	mov    %ecx,%esi
  109e76:	48 89 c7             	mov    %rax,%rdi
  109e79:	e8 5a e3 ff ff       	callq  1081d8 <_ZN11FAT32Driver11ReadClusterEjPv>
  109e7e:	eb 54                	jmp    109ed4 <_ZN11FAT32Driver8ReadFileE8DirEntrymPvm+0x17a>
  109e80:	48 8b 45 98          	mov    -0x68(%rbp),%rax
  109e84:	8b 40 30             	mov    0x30(%rax),%eax
  109e87:	89 c0                	mov    %eax,%eax
  109e89:	48 89 c7             	mov    %rax,%rdi
  109e8c:	e8 6a 9b ff ff       	callq  1039fb <_Znam>
  109e91:	48 89 45 c0          	mov    %rax,-0x40(%rbp)
  109e95:	48 8b 55 c0          	mov    -0x40(%rbp),%rdx
  109e99:	8b 4d cc             	mov    -0x34(%rbp),%ecx
  109e9c:	48 8b 45 98          	mov    -0x68(%rbp),%rax
  109ea0:	89 ce                	mov    %ecx,%esi
  109ea2:	48 89 c7             	mov    %rax,%rdi
  109ea5:	e8 2e e3 ff ff       	callq  1081d8 <_ZN11FAT32Driver11ReadClusterEjPv>
  109eaa:	48 8b 55 d0          	mov    -0x30(%rbp),%rdx
  109eae:	48 8b 4d c0          	mov    -0x40(%rbp),%rcx
  109eb2:	48 8b 45 e0          	mov    -0x20(%rbp),%rax
  109eb6:	48 89 ce             	mov    %rcx,%rsi
  109eb9:	48 89 c7             	mov    %rax,%rdi
  109ebc:	e8 40 2d 00 00       	callq  10cc01 <_Z6memcpyPvPKvm>
  109ec1:	48 83 7d c0 00       	cmpq   $0x0,-0x40(%rbp)
  109ec6:	74 0c                	je     109ed4 <_ZN11FAT32Driver8ReadFileE8DirEntrymPvm+0x17a>
  109ec8:	48 8b 45 c0          	mov    -0x40(%rbp),%rax
  109ecc:	48 89 c7             	mov    %rax,%rdi
  109ecf:	e8 64 9b ff ff       	callq  103a38 <_ZdaPv>
  109ed4:	48 8b 45 98          	mov    -0x68(%rbp),%rax
  109ed8:	8b 40 30             	mov    0x30(%rax),%eax
  109edb:	89 c0                	mov    %eax,%eax
  109edd:	48 01 45 e0          	add    %rax,-0x20(%rbp)
  109ee1:	48 8b 45 d0          	mov    -0x30(%rbp),%rax
  109ee5:	48 01 45 e8          	add    %rax,-0x18(%rbp)
  109ee9:	83 45 dc 01          	addl   $0x1,-0x24(%rbp)
  109eed:	e9 f8 fe ff ff       	jmpq   109dea <_ZN11FAT32Driver8ReadFileE8DirEntrymPvm+0x90>
  109ef2:	bb 00 00 00 00       	mov    $0x0,%ebx
  109ef7:	48 8d 45 a0          	lea    -0x60(%rbp),%rax
  109efb:	48 89 c7             	mov    %rax,%rdi
  109efe:	e8 cd 45 00 00       	callq  10e4d0 <_ZN6vectorIjED1Ev>
  109f03:	89 d8                	mov    %ebx,%eax
  109f05:	48 83 c4 78          	add    $0x78,%rsp
  109f09:	5b                   	pop    %rbx
  109f0a:	5d                   	pop    %rbp
  109f0b:	c3                   	retq   

0000000000109f0c <_ZN11FAT32Driver9WriteFileE8DirEntrymPvm>:
  109f0c:	f3 0f 1e fa          	endbr64 
  109f10:	55                   	push   %rbp
  109f11:	48 89 e5             	mov    %rsp,%rbp
  109f14:	53                   	push   %rbx
  109f15:	48 83 ec 78          	sub    $0x78,%rsp
  109f19:	48 89 7d 98          	mov    %rdi,-0x68(%rbp)
  109f1d:	48 89 75 90          	mov    %rsi,-0x70(%rbp)
  109f21:	48 89 55 88          	mov    %rdx,-0x78(%rbp)
  109f25:	48 89 4d 80          	mov    %rcx,-0x80(%rbp)
  109f29:	0f b6 85 98 00 00 00 	movzbl 0x98(%rbp),%eax
  109f30:	0f b6 c0             	movzbl %al,%eax
  109f33:	83 e0 10             	and    $0x10,%eax
  109f36:	85 c0                	test   %eax,%eax
  109f38:	74 0a                	je     109f44 <_ZN11FAT32Driver9WriteFileE8DirEntrymPvm+0x38>
  109f3a:	bb fd ff ff ff       	mov    $0xfffffffd,%ebx
  109f3f:	e9 91 02 00 00       	jmpq   10a1d5 <_ZN11FAT32Driver9WriteFileE8DirEntrymPvm+0x2c9>
  109f44:	48 8b 55 80          	mov    -0x80(%rbp),%rdx
  109f48:	48 8b 45 90          	mov    -0x70(%rbp),%rax
  109f4c:	48 01 d0             	add    %rdx,%rax
  109f4f:	8b 95 94 00 00 00    	mov    0x94(%rbp),%edx
  109f55:	89 d2                	mov    %edx,%edx
  109f57:	48 39 d0             	cmp    %rdx,%rax
  109f5a:	76 5b                	jbe    109fb7 <_ZN11FAT32Driver9WriteFileE8DirEntrymPvm+0xab>
  109f5c:	48 8b 45 80          	mov    -0x80(%rbp),%rax
  109f60:	89 c2                	mov    %eax,%edx
  109f62:	48 8b 45 90          	mov    -0x70(%rbp),%rax
  109f66:	01 d0                	add    %edx,%eax
  109f68:	89 85 94 00 00 00    	mov    %eax,0x94(%rbp)
  109f6e:	8b 85 94 00 00 00    	mov    0x94(%rbp),%eax
  109f74:	48 8b 55 98          	mov    -0x68(%rbp),%rdx
  109f78:	8b 5a 30             	mov    0x30(%rdx),%ebx
  109f7b:	ba 00 00 00 00       	mov    $0x0,%edx
  109f80:	f7 f3                	div    %ebx
  109f82:	89 45 ec             	mov    %eax,-0x14(%rbp)
  109f85:	48 8b 45 98          	mov    -0x68(%rbp),%rax
  109f89:	8b 40 30             	mov    0x30(%rax),%eax
  109f8c:	0f af 45 ec          	imul   -0x14(%rbp),%eax
  109f90:	89 c2                	mov    %eax,%edx
  109f92:	8b 85 94 00 00 00    	mov    0x94(%rbp),%eax
  109f98:	39 c2                	cmp    %eax,%edx
  109f9a:	74 04                	je     109fa0 <_ZN11FAT32Driver9WriteFileE8DirEntrymPvm+0x94>
  109f9c:	83 45 ec 01          	addl   $0x1,-0x14(%rbp)
  109fa0:	8b 8d 90 00 00 00    	mov    0x90(%rbp),%ecx
  109fa6:	8b 55 ec             	mov    -0x14(%rbp),%edx
  109fa9:	48 8b 45 98          	mov    -0x68(%rbp),%rax
  109fad:	89 ce                	mov    %ecx,%esi
  109faf:	48 89 c7             	mov    %rax,%rdi
  109fb2:	e8 57 e7 ff ff       	callq  10870e <_ZN11FAT32Driver18ResizeClusterChainEjj>
  109fb7:	8b 95 90 00 00 00    	mov    0x90(%rbp),%edx
  109fbd:	48 8d 45 a0          	lea    -0x60(%rbp),%rax
  109fc1:	48 8b 4d 98          	mov    -0x68(%rbp),%rcx
  109fc5:	48 89 ce             	mov    %rcx,%rsi
  109fc8:	48 89 c7             	mov    %rax,%rdi
  109fcb:	e8 5c e3 ff ff       	callq  10832c <_ZN11FAT32Driver15GetClusterChainEj>
  109fd0:	48 c7 45 e0 00 00 00 	movq   $0x0,-0x20(%rbp)
  109fd7:	00 
  109fd8:	48 8b 45 88          	mov    -0x78(%rbp),%rax
  109fdc:	48 89 45 d8          	mov    %rax,-0x28(%rbp)
  109fe0:	c7 45 d4 00 00 00 00 	movl   $0x0,-0x2c(%rbp)
  109fe7:	8b 5d d4             	mov    -0x2c(%rbp),%ebx
  109fea:	48 8d 45 a0          	lea    -0x60(%rbp),%rax
  109fee:	48 89 c7             	mov    %rax,%rdi
  109ff1:	e8 12 46 00 00       	callq  10e608 <_ZNK6vectorIjE4sizeEv>
  109ff6:	48 39 c3             	cmp    %rax,%rbx
  109ff9:	0f 92 c0             	setb   %al
  109ffc:	84 c0                	test   %al,%al
  109ffe:	0f 84 eb 00 00 00    	je     10a0ef <_ZN11FAT32Driver9WriteFileE8DirEntrymPvm+0x1e3>
  10a004:	8b 55 d4             	mov    -0x2c(%rbp),%edx
  10a007:	48 8d 45 a0          	lea    -0x60(%rbp),%rax
  10a00b:	48 89 d6             	mov    %rdx,%rsi
  10a00e:	48 89 c7             	mov    %rax,%rdi
  10a011:	e8 0c 46 00 00       	callq  10e622 <_ZN6vectorIjEixEm>
  10a016:	8b 00                	mov    (%rax),%eax
  10a018:	89 45 c4             	mov    %eax,-0x3c(%rbp)
  10a01b:	48 8b 45 e0          	mov    -0x20(%rbp),%rax
  10a01f:	48 3b 45 90          	cmp    -0x70(%rbp),%rax
  10a023:	73 12                	jae    10a037 <_ZN11FAT32Driver9WriteFileE8DirEntrymPvm+0x12b>
  10a025:	48 8b 45 98          	mov    -0x68(%rbp),%rax
  10a029:	8b 40 30             	mov    0x30(%rax),%eax
  10a02c:	89 c0                	mov    %eax,%eax
  10a02e:	48 01 45 e0          	add    %rax,-0x20(%rbp)
  10a032:	e9 af 00 00 00       	jmpq   10a0e6 <_ZN11FAT32Driver9WriteFileE8DirEntrymPvm+0x1da>
  10a037:	48 8b 55 80          	mov    -0x80(%rbp),%rdx
  10a03b:	48 8b 45 90          	mov    -0x70(%rbp),%rax
  10a03f:	48 01 d0             	add    %rdx,%rax
  10a042:	48 2b 45 e0          	sub    -0x20(%rbp),%rax
  10a046:	48 89 45 c8          	mov    %rax,-0x38(%rbp)
  10a04a:	48 8b 45 98          	mov    -0x68(%rbp),%rax
  10a04e:	8b 40 30             	mov    0x30(%rax),%eax
  10a051:	89 c0                	mov    %eax,%eax
  10a053:	48 39 45 c8          	cmp    %rax,-0x38(%rbp)
  10a057:	76 24                	jbe    10a07d <_ZN11FAT32Driver9WriteFileE8DirEntrymPvm+0x171>
  10a059:	48 8b 45 98          	mov    -0x68(%rbp),%rax
  10a05d:	8b 40 30             	mov    0x30(%rax),%eax
  10a060:	89 c0                	mov    %eax,%eax
  10a062:	48 89 45 c8          	mov    %rax,-0x38(%rbp)
  10a066:	48 8b 55 d8          	mov    -0x28(%rbp),%rdx
  10a06a:	8b 4d c4             	mov    -0x3c(%rbp),%ecx
  10a06d:	48 8b 45 98          	mov    -0x68(%rbp),%rax
  10a071:	89 ce                	mov    %ecx,%esi
  10a073:	48 89 c7             	mov    %rax,%rdi
  10a076:	e8 07 e2 ff ff       	callq  108282 <_ZN11FAT32Driver12WriteClusterEjPv>
  10a07b:	eb 54                	jmp    10a0d1 <_ZN11FAT32Driver9WriteFileE8DirEntrymPvm+0x1c5>
  10a07d:	48 8b 45 98          	mov    -0x68(%rbp),%rax
  10a081:	8b 40 30             	mov    0x30(%rax),%eax
  10a084:	89 c0                	mov    %eax,%eax
  10a086:	48 89 c7             	mov    %rax,%rdi
  10a089:	e8 6d 99 ff ff       	callq  1039fb <_Znam>
  10a08e:	48 89 45 b8          	mov    %rax,-0x48(%rbp)
  10a092:	48 8b 55 b8          	mov    -0x48(%rbp),%rdx
  10a096:	8b 4d c4             	mov    -0x3c(%rbp),%ecx
  10a099:	48 8b 45 98          	mov    -0x68(%rbp),%rax
  10a09d:	89 ce                	mov    %ecx,%esi
  10a09f:	48 89 c7             	mov    %rax,%rdi
  10a0a2:	e8 db e1 ff ff       	callq  108282 <_ZN11FAT32Driver12WriteClusterEjPv>
  10a0a7:	48 8b 55 c8          	mov    -0x38(%rbp),%rdx
  10a0ab:	48 8b 4d b8          	mov    -0x48(%rbp),%rcx
  10a0af:	48 8b 45 d8          	mov    -0x28(%rbp),%rax
  10a0b3:	48 89 ce             	mov    %rcx,%rsi
  10a0b6:	48 89 c7             	mov    %rax,%rdi
  10a0b9:	e8 43 2b 00 00       	callq  10cc01 <_Z6memcpyPvPKvm>
  10a0be:	48 83 7d b8 00       	cmpq   $0x0,-0x48(%rbp)
  10a0c3:	74 0c                	je     10a0d1 <_ZN11FAT32Driver9WriteFileE8DirEntrymPvm+0x1c5>
  10a0c5:	48 8b 45 b8          	mov    -0x48(%rbp),%rax
  10a0c9:	48 89 c7             	mov    %rax,%rdi
  10a0cc:	e8 67 99 ff ff       	callq  103a38 <_ZdaPv>
  10a0d1:	48 8b 45 98          	mov    -0x68(%rbp),%rax
  10a0d5:	8b 40 30             	mov    0x30(%rax),%eax
  10a0d8:	89 c0                	mov    %eax,%eax
  10a0da:	48 01 45 d8          	add    %rax,-0x28(%rbp)
  10a0de:	48 8b 45 c8          	mov    -0x38(%rbp),%rax
  10a0e2:	48 01 45 e0          	add    %rax,-0x20(%rbp)
  10a0e6:	83 45 d4 01          	addl   $0x1,-0x2c(%rbp)
  10a0ea:	e9 f8 fe ff ff       	jmpq   109fe7 <_ZN11FAT32Driver9WriteFileE8DirEntrymPvm+0xdb>
  10a0ef:	8b b5 9c 00 00 00    	mov    0x9c(%rbp),%esi
  10a0f5:	48 8b 7d 98          	mov    -0x68(%rbp),%rdi
  10a0f9:	48 83 ec 08          	sub    $0x8,%rsp
  10a0fd:	48 81 ec 98 00 00 00 	sub    $0x98,%rsp
  10a104:	48 89 e0             	mov    %rsp,%rax
  10a107:	48 8b 4d 10          	mov    0x10(%rbp),%rcx
  10a10b:	48 8b 5d 18          	mov    0x18(%rbp),%rbx
  10a10f:	48 89 08             	mov    %rcx,(%rax)
  10a112:	48 89 58 08          	mov    %rbx,0x8(%rax)
  10a116:	48 8b 4d 20          	mov    0x20(%rbp),%rcx
  10a11a:	48 8b 5d 28          	mov    0x28(%rbp),%rbx
  10a11e:	48 89 48 10          	mov    %rcx,0x10(%rax)
  10a122:	48 89 58 18          	mov    %rbx,0x18(%rax)
  10a126:	48 8b 4d 30          	mov    0x30(%rbp),%rcx
  10a12a:	48 8b 5d 38          	mov    0x38(%rbp),%rbx
  10a12e:	48 89 48 20          	mov    %rcx,0x20(%rax)
  10a132:	48 89 58 28          	mov    %rbx,0x28(%rax)
  10a136:	48 8b 4d 40          	mov    0x40(%rbp),%rcx
  10a13a:	48 8b 5d 48          	mov    0x48(%rbp),%rbx
  10a13e:	48 89 48 30          	mov    %rcx,0x30(%rax)
  10a142:	48 89 58 38          	mov    %rbx,0x38(%rax)
  10a146:	48 8b 4d 50          	mov    0x50(%rbp),%rcx
  10a14a:	48 8b 5d 58          	mov    0x58(%rbp),%rbx
  10a14e:	48 89 48 40          	mov    %rcx,0x40(%rax)
  10a152:	48 89 58 48          	mov    %rbx,0x48(%rax)
  10a156:	48 8b 4d 60          	mov    0x60(%rbp),%rcx
  10a15a:	48 8b 5d 68          	mov    0x68(%rbp),%rbx
  10a15e:	48 89 48 50          	mov    %rcx,0x50(%rax)
  10a162:	48 89 58 58          	mov    %rbx,0x58(%rax)
  10a166:	48 8b 4d 70          	mov    0x70(%rbp),%rcx
  10a16a:	48 8b 5d 78          	mov    0x78(%rbp),%rbx
  10a16e:	48 89 48 60          	mov    %rcx,0x60(%rax)
  10a172:	48 89 58 68          	mov    %rbx,0x68(%rax)
  10a176:	48 8b 8d 80 00 00 00 	mov    0x80(%rbp),%rcx
  10a17d:	48 8b 9d 88 00 00 00 	mov    0x88(%rbp),%rbx
  10a184:	48 89 48 70          	mov    %rcx,0x70(%rax)
  10a188:	48 89 58 78          	mov    %rbx,0x78(%rax)
  10a18c:	48 8b 8d 90 00 00 00 	mov    0x90(%rbp),%rcx
  10a193:	48 8b 9d 98 00 00 00 	mov    0x98(%rbp),%rbx
  10a19a:	48 89 88 80 00 00 00 	mov    %rcx,0x80(%rax)
  10a1a1:	48 89 98 88 00 00 00 	mov    %rbx,0x88(%rax)
  10a1a8:	8b 95 a0 00 00 00    	mov    0xa0(%rbp),%edx
  10a1ae:	89 90 90 00 00 00    	mov    %edx,0x90(%rax)
  10a1b4:	48 8d 55 10          	lea    0x10(%rbp),%rdx
  10a1b8:	e8 41 e9 ff ff       	callq  108afe <_ZN11FAT32Driver20ModifyDirectoryEntryEjPKc8DirEntry>
  10a1bd:	48 81 c4 a0 00 00 00 	add    $0xa0,%rsp
  10a1c4:	bb 00 00 00 00       	mov    $0x0,%ebx
  10a1c9:	48 8d 45 a0          	lea    -0x60(%rbp),%rax
  10a1cd:	48 89 c7             	mov    %rax,%rdi
  10a1d0:	e8 fb 42 00 00       	callq  10e4d0 <_ZN6vectorIjED1Ev>
  10a1d5:	89 d8                	mov    %ebx,%eax
  10a1d7:	48 8b 5d f8          	mov    -0x8(%rbp),%rbx
  10a1db:	c9                   	leaveq 
  10a1dc:	c3                   	retq   
  10a1dd:	90                   	nop

000000000010a1de <_ZN11FAT32Driver10ResizeFileE8DirEntryj>:
  10a1de:	f3 0f 1e fa          	endbr64 
  10a1e2:	55                   	push   %rbp
  10a1e3:	48 89 e5             	mov    %rsp,%rbp
  10a1e6:	53                   	push   %rbx
  10a1e7:	48 83 ec 28          	sub    $0x28,%rsp
  10a1eb:	48 89 7d d8          	mov    %rdi,-0x28(%rbp)
  10a1ef:	89 75 d4             	mov    %esi,-0x2c(%rbp)
  10a1f2:	0f b6 85 98 00 00 00 	movzbl 0x98(%rbp),%eax
  10a1f9:	0f b6 c0             	movzbl %al,%eax
  10a1fc:	83 e0 10             	and    $0x10,%eax
  10a1ff:	85 c0                	test   %eax,%eax
  10a201:	74 0a                	je     10a20d <_ZN11FAT32Driver10ResizeFileE8DirEntryj+0x2f>
  10a203:	b8 fd ff ff ff       	mov    $0xfffffffd,%eax
  10a208:	e9 2c 01 00 00       	jmpq   10a339 <_ZN11FAT32Driver10ResizeFileE8DirEntryj+0x15b>
  10a20d:	8b 45 d4             	mov    -0x2c(%rbp),%eax
  10a210:	89 85 94 00 00 00    	mov    %eax,0x94(%rbp)
  10a216:	8b 85 94 00 00 00    	mov    0x94(%rbp),%eax
  10a21c:	48 8b 55 d8          	mov    -0x28(%rbp),%rdx
  10a220:	8b 5a 30             	mov    0x30(%rdx),%ebx
  10a223:	ba 00 00 00 00       	mov    $0x0,%edx
  10a228:	f7 f3                	div    %ebx
  10a22a:	89 45 ec             	mov    %eax,-0x14(%rbp)
  10a22d:	48 8b 45 d8          	mov    -0x28(%rbp),%rax
  10a231:	8b 40 30             	mov    0x30(%rax),%eax
  10a234:	0f af 45 ec          	imul   -0x14(%rbp),%eax
  10a238:	89 c2                	mov    %eax,%edx
  10a23a:	8b 85 94 00 00 00    	mov    0x94(%rbp),%eax
  10a240:	39 c2                	cmp    %eax,%edx
  10a242:	74 04                	je     10a248 <_ZN11FAT32Driver10ResizeFileE8DirEntryj+0x6a>
  10a244:	83 45 ec 01          	addl   $0x1,-0x14(%rbp)
  10a248:	8b 8d 90 00 00 00    	mov    0x90(%rbp),%ecx
  10a24e:	8b 55 ec             	mov    -0x14(%rbp),%edx
  10a251:	48 8b 45 d8          	mov    -0x28(%rbp),%rax
  10a255:	89 ce                	mov    %ecx,%esi
  10a257:	48 89 c7             	mov    %rax,%rdi
  10a25a:	e8 af e4 ff ff       	callq  10870e <_ZN11FAT32Driver18ResizeClusterChainEjj>
  10a25f:	8b b5 9c 00 00 00    	mov    0x9c(%rbp),%esi
  10a265:	48 8b 7d d8          	mov    -0x28(%rbp),%rdi
  10a269:	48 83 ec 08          	sub    $0x8,%rsp
  10a26d:	48 81 ec 98 00 00 00 	sub    $0x98,%rsp
  10a274:	48 89 e0             	mov    %rsp,%rax
  10a277:	48 8b 4d 10          	mov    0x10(%rbp),%rcx
  10a27b:	48 8b 5d 18          	mov    0x18(%rbp),%rbx
  10a27f:	48 89 08             	mov    %rcx,(%rax)
  10a282:	48 89 58 08          	mov    %rbx,0x8(%rax)
  10a286:	48 8b 4d 20          	mov    0x20(%rbp),%rcx
  10a28a:	48 8b 5d 28          	mov    0x28(%rbp),%rbx
  10a28e:	48 89 48 10          	mov    %rcx,0x10(%rax)
  10a292:	48 89 58 18          	mov    %rbx,0x18(%rax)
  10a296:	48 8b 4d 30          	mov    0x30(%rbp),%rcx
  10a29a:	48 8b 5d 38          	mov    0x38(%rbp),%rbx
  10a29e:	48 89 48 20          	mov    %rcx,0x20(%rax)
  10a2a2:	48 89 58 28          	mov    %rbx,0x28(%rax)
  10a2a6:	48 8b 4d 40          	mov    0x40(%rbp),%rcx
  10a2aa:	48 8b 5d 48          	mov    0x48(%rbp),%rbx
  10a2ae:	48 89 48 30          	mov    %rcx,0x30(%rax)
  10a2b2:	48 89 58 38          	mov    %rbx,0x38(%rax)
  10a2b6:	48 8b 4d 50          	mov    0x50(%rbp),%rcx
  10a2ba:	48 8b 5d 58          	mov    0x58(%rbp),%rbx
  10a2be:	48 89 48 40          	mov    %rcx,0x40(%rax)
  10a2c2:	48 89 58 48          	mov    %rbx,0x48(%rax)
  10a2c6:	48 8b 4d 60          	mov    0x60(%rbp),%rcx
  10a2ca:	48 8b 5d 68          	mov    0x68(%rbp),%rbx
  10a2ce:	48 89 48 50          	mov    %rcx,0x50(%rax)
  10a2d2:	48 89 58 58          	mov    %rbx,0x58(%rax)
  10a2d6:	48 8b 4d 70          	mov    0x70(%rbp),%rcx
  10a2da:	48 8b 5d 78          	mov    0x78(%rbp),%rbx
  10a2de:	48 89 48 60          	mov    %rcx,0x60(%rax)
  10a2e2:	48 89 58 68          	mov    %rbx,0x68(%rax)
  10a2e6:	48 8b 8d 80 00 00 00 	mov    0x80(%rbp),%rcx
  10a2ed:	48 8b 9d 88 00 00 00 	mov    0x88(%rbp),%rbx
  10a2f4:	48 89 48 70          	mov    %rcx,0x70(%rax)
  10a2f8:	48 89 58 78          	mov    %rbx,0x78(%rax)
  10a2fc:	48 8b 8d 90 00 00 00 	mov    0x90(%rbp),%rcx
  10a303:	48 8b 9d 98 00 00 00 	mov    0x98(%rbp),%rbx
  10a30a:	48 89 88 80 00 00 00 	mov    %rcx,0x80(%rax)
  10a311:	48 89 98 88 00 00 00 	mov    %rbx,0x88(%rax)
  10a318:	8b 95 a0 00 00 00    	mov    0xa0(%rbp),%edx
  10a31e:	89 90 90 00 00 00    	mov    %edx,0x90(%rax)
  10a324:	48 8d 55 10          	lea    0x10(%rbp),%rdx
  10a328:	e8 d1 e7 ff ff       	callq  108afe <_ZN11FAT32Driver20ModifyDirectoryEntryEjPKc8DirEntry>
  10a32d:	48 81 c4 a0 00 00 00 	add    $0xa0,%rsp
  10a334:	b8 00 00 00 00       	mov    $0x0,%eax
  10a339:	48 8b 5d f8          	mov    -0x8(%rbp),%rbx
  10a33d:	c9                   	leaveq 
  10a33e:	c3                   	retq   
  10a33f:	90                   	nop

000000000010a340 <_ZN11FAT32Driver22GetClusterFromFilePathEPKcP8DirEntry>:
  10a340:	f3 0f 1e fa          	endbr64 
  10a344:	55                   	push   %rbp
  10a345:	48 89 e5             	mov    %rsp,%rbp
  10a348:	53                   	push   %rbx
  10a349:	48 81 ec d8 01 00 00 	sub    $0x1d8,%rsp
  10a350:	48 89 bd 38 fe ff ff 	mov    %rdi,-0x1c8(%rbp)
  10a357:	48 89 b5 30 fe ff ff 	mov    %rsi,-0x1d0(%rbp)
  10a35e:	48 89 95 28 fe ff ff 	mov    %rdx,-0x1d8(%rbp)
  10a365:	66 c7 45 ee 02 00    	movw   $0x2,-0x12(%rbp)
  10a36b:	48 8b 85 38 fe ff ff 	mov    -0x1c8(%rbp),%rax
  10a372:	8b 40 38             	mov    0x38(%rax),%eax
  10a375:	89 45 e8             	mov    %eax,-0x18(%rbp)
  10a378:	c7 45 e4 02 00 00 00 	movl   $0x2,-0x1c(%rbp)
  10a37f:	48 8b 85 30 fe ff ff 	mov    -0x1d0(%rbp),%rax
  10a386:	48 8d 35 93 6e 00 00 	lea    0x6e93(%rip),%rsi        # 111220 <_ZL8sc_ascii+0x1c0>
  10a38d:	48 89 c7             	mov    %rax,%rdi
  10a390:	e8 cd 20 00 00       	callq  10c462 <_Z6strcmpPcS_>
  10a395:	85 c0                	test   %eax,%eax
  10a397:	0f 94 c0             	sete   %al
  10a39a:	84 c0                	test   %al,%al
  10a39c:	74 1f                	je     10a3bd <_ZN11FAT32Driver22GetClusterFromFilePathEPKcP8DirEntry+0x7d>
  10a39e:	c6 85 c8 fe ff ff 18 	movb   $0x18,-0x138(%rbp)
  10a3a5:	c7 85 c4 fe ff ff 00 	movl   $0x0,-0x13c(%rbp)
  10a3ac:	00 00 00 
  10a3af:	8b 45 e8             	mov    -0x18(%rbp),%eax
  10a3b2:	89 85 c0 fe ff ff    	mov    %eax,-0x140(%rbp)
  10a3b8:	e9 e9 00 00 00       	jmpq   10a4a6 <_ZN11FAT32Driver22GetClusterFromFilePathEPKcP8DirEntry+0x166>
  10a3bd:	c7 45 e4 02 00 00 00 	movl   $0x2,-0x1c(%rbp)
  10a3c4:	8b 45 e4             	mov    -0x1c(%rbp),%eax
  10a3c7:	83 e8 01             	sub    $0x1,%eax
  10a3ca:	89 c2                	mov    %eax,%edx
  10a3cc:	48 8b 85 30 fe ff ff 	mov    -0x1d0(%rbp),%rax
  10a3d3:	48 01 d0             	add    %rdx,%rax
  10a3d6:	0f b6 00             	movzbl (%rax),%eax
  10a3d9:	84 c0                	test   %al,%al
  10a3db:	0f 84 c5 00 00 00    	je     10a4a6 <_ZN11FAT32Driver22GetClusterFromFilePathEPKcP8DirEntry+0x166>
  10a3e1:	8b 55 e4             	mov    -0x1c(%rbp),%edx
  10a3e4:	48 8b 85 30 fe ff ff 	mov    -0x1d0(%rbp),%rax
  10a3eb:	48 01 d0             	add    %rdx,%rax
  10a3ee:	0f b6 00             	movzbl (%rax),%eax
  10a3f1:	3c 2f                	cmp    $0x2f,%al
  10a3f3:	74 18                	je     10a40d <_ZN11FAT32Driver22GetClusterFromFilePathEPKcP8DirEntry+0xcd>
  10a3f5:	8b 55 e4             	mov    -0x1c(%rbp),%edx
  10a3f8:	48 8b 85 30 fe ff ff 	mov    -0x1d0(%rbp),%rax
  10a3ff:	48 01 d0             	add    %rdx,%rax
  10a402:	0f b6 00             	movzbl (%rax),%eax
  10a405:	84 c0                	test   %al,%al
  10a407:	0f 85 90 00 00 00    	jne    10a49d <_ZN11FAT32Driver22GetClusterFromFilePathEPKcP8DirEntry+0x15d>
  10a40d:	48 8d 85 e0 fe ff ff 	lea    -0x120(%rbp),%rax
  10a414:	ba 00 01 00 00       	mov    $0x100,%edx
  10a419:	be 00 00 00 00       	mov    $0x0,%esi
  10a41e:	48 89 c7             	mov    %rax,%rdi
  10a421:	e8 1d 28 00 00       	callq  10cc43 <_Z6memsetPvim>
  10a426:	0f b7 45 ee          	movzwl -0x12(%rbp),%eax
  10a42a:	8b 55 e4             	mov    -0x1c(%rbp),%edx
  10a42d:	29 c2                	sub    %eax,%edx
  10a42f:	89 d0                	mov    %edx,%eax
  10a431:	89 c6                	mov    %eax,%esi
  10a433:	0f b7 55 ee          	movzwl -0x12(%rbp),%edx
  10a437:	48 8b 85 30 fe ff ff 	mov    -0x1d0(%rbp),%rax
  10a43e:	48 01 d0             	add    %rdx,%rax
  10a441:	48 89 c1             	mov    %rax,%rcx
  10a444:	48 8d 85 e0 fe ff ff 	lea    -0x120(%rbp),%rax
  10a44b:	48 89 f2             	mov    %rsi,%rdx
  10a44e:	48 89 ce             	mov    %rcx,%rsi
  10a451:	48 89 c7             	mov    %rax,%rdi
  10a454:	e8 a8 27 00 00       	callq  10cc01 <_Z6memcpyPvPKvm>
  10a459:	48 8d 8d 40 fe ff ff 	lea    -0x1c0(%rbp),%rcx
  10a460:	8b 55 e8             	mov    -0x18(%rbp),%edx
  10a463:	48 8d b5 e0 fe ff ff 	lea    -0x120(%rbp),%rsi
  10a46a:	48 8b 85 38 fe ff ff 	mov    -0x1c8(%rbp),%rax
  10a471:	48 89 c7             	mov    %rax,%rdi
  10a474:	e8 d7 ec ff ff       	callq  109150 <_ZN11FAT32Driver15DirectorySearchEPKcjP8DirEntry>
  10a479:	89 45 e0             	mov    %eax,-0x20(%rbp)
  10a47c:	83 7d e0 00          	cmpl   $0x0,-0x20(%rbp)
  10a480:	74 08                	je     10a48a <_ZN11FAT32Driver22GetClusterFromFilePathEPKcP8DirEntry+0x14a>
  10a482:	8b 45 e0             	mov    -0x20(%rbp),%eax
  10a485:	e9 0b 01 00 00       	jmpq   10a595 <_ZN11FAT32Driver22GetClusterFromFilePathEPKcP8DirEntry+0x255>
  10a48a:	8b 45 e4             	mov    -0x1c(%rbp),%eax
  10a48d:	83 c0 01             	add    $0x1,%eax
  10a490:	66 89 45 ee          	mov    %ax,-0x12(%rbp)
  10a494:	8b 85 c0 fe ff ff    	mov    -0x140(%rbp),%eax
  10a49a:	89 45 e8             	mov    %eax,-0x18(%rbp)
  10a49d:	83 45 e4 01          	addl   $0x1,-0x1c(%rbp)
  10a4a1:	e9 1e ff ff ff       	jmpq   10a3c4 <_ZN11FAT32Driver22GetClusterFromFilePathEPKcP8DirEntry+0x84>
  10a4a6:	48 83 bd 28 fe ff ff 	cmpq   $0x0,-0x1d8(%rbp)
  10a4ad:	00 
  10a4ae:	0f 84 de 00 00 00    	je     10a592 <_ZN11FAT32Driver22GetClusterFromFilePathEPKcP8DirEntry+0x252>
  10a4b4:	48 8b 85 28 fe ff ff 	mov    -0x1d8(%rbp),%rax
  10a4bb:	48 8b 8d 40 fe ff ff 	mov    -0x1c0(%rbp),%rcx
  10a4c2:	48 8b 9d 48 fe ff ff 	mov    -0x1b8(%rbp),%rbx
  10a4c9:	48 89 08             	mov    %rcx,(%rax)
  10a4cc:	48 89 58 08          	mov    %rbx,0x8(%rax)
  10a4d0:	48 8b 8d 50 fe ff ff 	mov    -0x1b0(%rbp),%rcx
  10a4d7:	48 8b 9d 58 fe ff ff 	mov    -0x1a8(%rbp),%rbx
  10a4de:	48 89 48 10          	mov    %rcx,0x10(%rax)
  10a4e2:	48 89 58 18          	mov    %rbx,0x18(%rax)
  10a4e6:	48 8b 8d 60 fe ff ff 	mov    -0x1a0(%rbp),%rcx
  10a4ed:	48 8b 9d 68 fe ff ff 	mov    -0x198(%rbp),%rbx
  10a4f4:	48 89 48 20          	mov    %rcx,0x20(%rax)
  10a4f8:	48 89 58 28          	mov    %rbx,0x28(%rax)
  10a4fc:	48 8b 8d 70 fe ff ff 	mov    -0x190(%rbp),%rcx
  10a503:	48 8b 9d 78 fe ff ff 	mov    -0x188(%rbp),%rbx
  10a50a:	48 89 48 30          	mov    %rcx,0x30(%rax)
  10a50e:	48 89 58 38          	mov    %rbx,0x38(%rax)
  10a512:	48 8b 8d 80 fe ff ff 	mov    -0x180(%rbp),%rcx
  10a519:	48 8b 9d 88 fe ff ff 	mov    -0x178(%rbp),%rbx
  10a520:	48 89 48 40          	mov    %rcx,0x40(%rax)
  10a524:	48 89 58 48          	mov    %rbx,0x48(%rax)
  10a528:	48 8b 8d 90 fe ff ff 	mov    -0x170(%rbp),%rcx
  10a52f:	48 8b 9d 98 fe ff ff 	mov    -0x168(%rbp),%rbx
  10a536:	48 89 48 50          	mov    %rcx,0x50(%rax)
  10a53a:	48 89 58 58          	mov    %rbx,0x58(%rax)
  10a53e:	48 8b 8d a0 fe ff ff 	mov    -0x160(%rbp),%rcx
  10a545:	48 8b 9d a8 fe ff ff 	mov    -0x158(%rbp),%rbx
  10a54c:	48 89 48 60          	mov    %rcx,0x60(%rax)
  10a550:	48 89 58 68          	mov    %rbx,0x68(%rax)
  10a554:	48 8b 8d b0 fe ff ff 	mov    -0x150(%rbp),%rcx
  10a55b:	48 8b 9d b8 fe ff ff 	mov    -0x148(%rbp),%rbx
  10a562:	48 89 48 70          	mov    %rcx,0x70(%rax)
  10a566:	48 89 58 78          	mov    %rbx,0x78(%rax)
  10a56a:	48 8b 8d c0 fe ff ff 	mov    -0x140(%rbp),%rcx
  10a571:	48 8b 9d c8 fe ff ff 	mov    -0x138(%rbp),%rbx
  10a578:	48 89 88 80 00 00 00 	mov    %rcx,0x80(%rax)
  10a57f:	48 89 98 88 00 00 00 	mov    %rbx,0x88(%rax)
  10a586:	8b 95 d0 fe ff ff    	mov    -0x130(%rbp),%edx
  10a58c:	89 90 90 00 00 00    	mov    %edx,0x90(%rax)
  10a592:	8b 45 e8             	mov    -0x18(%rbp),%eax
  10a595:	48 81 c4 d8 01 00 00 	add    $0x1d8,%rsp
  10a59c:	5b                   	pop    %rbx
  10a59d:	5d                   	pop    %rbp
  10a59e:	c3                   	retq   
  10a59f:	90                   	nop

000000000010a5a0 <_ZN11FAT32Driver12FromFATEntryEP14DirectoryEntryb>:
  10a5a0:	f3 0f 1e fa          	endbr64 
  10a5a4:	55                   	push   %rbp
  10a5a5:	48 89 e5             	mov    %rsp,%rbp
  10a5a8:	48 81 ec d0 00 00 00 	sub    $0xd0,%rsp
  10a5af:	48 89 bd 48 ff ff ff 	mov    %rdi,-0xb8(%rbp)
  10a5b6:	48 89 b5 40 ff ff ff 	mov    %rsi,-0xc0(%rbp)
  10a5bd:	48 89 95 38 ff ff ff 	mov    %rdx,-0xc8(%rbp)
  10a5c4:	89 c8                	mov    %ecx,%eax
  10a5c6:	88 85 34 ff ff ff    	mov    %al,-0xcc(%rbp)
  10a5cc:	80 bd 34 ff ff ff 00 	cmpb   $0x0,-0xcc(%rbp)
  10a5d3:	0f 84 fb 00 00 00    	je     10a6d4 <_ZN11FAT32Driver12FromFATEntryEP14DirectoryEntryb+0x134>
  10a5d9:	c7 45 fc 00 00 00 00 	movl   $0x0,-0x4(%rbp)
  10a5e0:	48 8b 85 38 ff ff ff 	mov    -0xc8(%rbp),%rax
  10a5e7:	48 83 e8 20          	sub    $0x20,%rax
  10a5eb:	48 89 45 f0          	mov    %rax,-0x10(%rbp)
  10a5ef:	c7 45 ec 00 00 00 00 	movl   $0x0,-0x14(%rbp)
  10a5f6:	83 7d ec 04          	cmpl   $0x4,-0x14(%rbp)
  10a5fa:	77 26                	ja     10a622 <_ZN11FAT32Driver12FromFATEntryEP14DirectoryEntryb+0x82>
  10a5fc:	48 8b 45 f0          	mov    -0x10(%rbp),%rax
  10a600:	8b 55 ec             	mov    -0x14(%rbp),%edx
  10a603:	0f b7 4c 50 01       	movzwl 0x1(%rax,%rdx,2),%ecx
  10a608:	8b 45 fc             	mov    -0x4(%rbp),%eax
  10a60b:	8d 50 01             	lea    0x1(%rax),%edx
  10a60e:	89 55 fc             	mov    %edx,-0x4(%rbp)
  10a611:	89 ca                	mov    %ecx,%edx
  10a613:	89 c0                	mov    %eax,%eax
  10a615:	88 94 05 50 ff ff ff 	mov    %dl,-0xb0(%rbp,%rax,1)
  10a61c:	83 45 ec 01          	addl   $0x1,-0x14(%rbp)
  10a620:	eb d4                	jmp    10a5f6 <_ZN11FAT32Driver12FromFATEntryEP14DirectoryEntryb+0x56>
  10a622:	c7 45 e8 00 00 00 00 	movl   $0x0,-0x18(%rbp)
  10a629:	83 7d e8 05          	cmpl   $0x5,-0x18(%rbp)
  10a62d:	77 26                	ja     10a655 <_ZN11FAT32Driver12FromFATEntryEP14DirectoryEntryb+0xb5>
  10a62f:	48 8b 45 f0          	mov    -0x10(%rbp),%rax
  10a633:	8b 55 e8             	mov    -0x18(%rbp),%edx
  10a636:	0f b7 4c 50 0e       	movzwl 0xe(%rax,%rdx,2),%ecx
  10a63b:	8b 45 fc             	mov    -0x4(%rbp),%eax
  10a63e:	8d 50 01             	lea    0x1(%rax),%edx
  10a641:	89 55 fc             	mov    %edx,-0x4(%rbp)
  10a644:	89 ca                	mov    %ecx,%edx
  10a646:	89 c0                	mov    %eax,%eax
  10a648:	88 94 05 50 ff ff ff 	mov    %dl,-0xb0(%rbp,%rax,1)
  10a64f:	83 45 e8 01          	addl   $0x1,-0x18(%rbp)
  10a653:	eb d4                	jmp    10a629 <_ZN11FAT32Driver12FromFATEntryEP14DirectoryEntryb+0x89>
  10a655:	c7 45 e4 00 00 00 00 	movl   $0x0,-0x1c(%rbp)
  10a65c:	83 7d e4 01          	cmpl   $0x1,-0x1c(%rbp)
  10a660:	77 2a                	ja     10a68c <_ZN11FAT32Driver12FromFATEntryEP14DirectoryEntryb+0xec>
  10a662:	48 8b 45 f0          	mov    -0x10(%rbp),%rax
  10a666:	8b 55 e4             	mov    -0x1c(%rbp),%edx
  10a669:	48 83 c2 08          	add    $0x8,%rdx
  10a66d:	0f b7 4c 50 0c       	movzwl 0xc(%rax,%rdx,2),%ecx
  10a672:	8b 45 fc             	mov    -0x4(%rbp),%eax
  10a675:	8d 50 01             	lea    0x1(%rax),%edx
  10a678:	89 55 fc             	mov    %edx,-0x4(%rbp)
  10a67b:	89 ca                	mov    %ecx,%edx
  10a67d:	89 c0                	mov    %eax,%eax
  10a67f:	88 94 05 50 ff ff ff 	mov    %dl,-0xb0(%rbp,%rax,1)
  10a686:	83 45 e4 01          	addl   $0x1,-0x1c(%rbp)
  10a68a:	eb d0                	jmp    10a65c <_ZN11FAT32Driver12FromFATEntryEP14DirectoryEntryb+0xbc>
  10a68c:	48 8b 45 f0          	mov    -0x10(%rbp),%rax
  10a690:	0f b6 00             	movzbl (%rax),%eax
  10a693:	0f b6 c0             	movzbl %al,%eax
  10a696:	83 e0 40             	and    $0x40,%eax
  10a699:	85 c0                	test   %eax,%eax
  10a69b:	75 0a                	jne    10a6a7 <_ZN11FAT32Driver12FromFATEntryEP14DirectoryEntryb+0x107>
  10a69d:	48 83 6d f0 20       	subq   $0x20,-0x10(%rbp)
  10a6a2:	e9 48 ff ff ff       	jmpq   10a5ef <_ZN11FAT32Driver12FromFATEntryEP14DirectoryEntryb+0x4f>
  10a6a7:	90                   	nop
  10a6a8:	8b 55 fc             	mov    -0x4(%rbp),%edx
  10a6ab:	48 8d 8d 50 ff ff ff 	lea    -0xb0(%rbp),%rcx
  10a6b2:	48 8b 85 48 ff ff ff 	mov    -0xb8(%rbp),%rax
  10a6b9:	48 89 ce             	mov    %rcx,%rsi
  10a6bc:	48 89 c7             	mov    %rax,%rdi
  10a6bf:	e8 3d 25 00 00       	callq  10cc01 <_Z6memcpyPvPKvm>
  10a6c4:	48 8b 95 48 ff ff ff 	mov    -0xb8(%rbp),%rdx
  10a6cb:	8b 45 fc             	mov    -0x4(%rbp),%eax
  10a6ce:	c6 04 02 00          	movb   $0x0,(%rdx,%rax,1)
  10a6d2:	eb 61                	jmp    10a735 <_ZN11FAT32Driver12FromFATEntryEP14DirectoryEntryb+0x195>
  10a6d4:	48 8b 8d 38 ff ff ff 	mov    -0xc8(%rbp),%rcx
  10a6db:	48 8d 55 d3          	lea    -0x2d(%rbp),%rdx
  10a6df:	48 8b 85 40 ff ff ff 	mov    -0xc0(%rbp),%rax
  10a6e6:	48 89 ce             	mov    %rcx,%rsi
  10a6e9:	48 89 c7             	mov    %rax,%rdi
  10a6ec:	e8 ef 09 00 00       	callq  10b0e0 <_ZN11FAT32Driver20ConvertFromFATFormatEPcS0_>
  10a6f1:	48 8d 55 d3          	lea    -0x2d(%rbp),%rdx
  10a6f5:	48 8b 85 48 ff ff ff 	mov    -0xb8(%rbp),%rax
  10a6fc:	48 89 d6             	mov    %rdx,%rsi
  10a6ff:	48 89 c7             	mov    %rax,%rdi
  10a702:	e8 f5 1d 00 00       	callq  10c4fc <_Z6strcpyPcPKc>
  10a707:	c7 45 e0 0b 00 00 00 	movl   $0xb,-0x20(%rbp)
  10a70e:	48 8b 95 48 ff ff ff 	mov    -0xb8(%rbp),%rdx
  10a715:	8b 45 e0             	mov    -0x20(%rbp),%eax
  10a718:	0f b6 04 02          	movzbl (%rdx,%rax,1),%eax
  10a71c:	3c 20                	cmp    $0x20,%al
  10a71e:	75 14                	jne    10a734 <_ZN11FAT32Driver12FromFATEntryEP14DirectoryEntryb+0x194>
  10a720:	48 8b 95 48 ff ff ff 	mov    -0xb8(%rbp),%rdx
  10a727:	8b 45 e0             	mov    -0x20(%rbp),%eax
  10a72a:	c6 04 02 00          	movb   $0x0,(%rdx,%rax,1)
  10a72e:	83 6d e0 01          	subl   $0x1,-0x20(%rbp)
  10a732:	eb da                	jmp    10a70e <_ZN11FAT32Driver12FromFATEntryEP14DirectoryEntryb+0x16e>
  10a734:	90                   	nop
  10a735:	48 8b 85 38 ff ff ff 	mov    -0xc8(%rbp),%rax
  10a73c:	8b 50 1c             	mov    0x1c(%rax),%edx
  10a73f:	48 8b 85 48 ff ff ff 	mov    -0xb8(%rbp),%rax
  10a746:	89 90 84 00 00 00    	mov    %edx,0x84(%rax)
  10a74c:	48 8b 85 38 ff ff ff 	mov    -0xc8(%rbp),%rax
  10a753:	0f b6 50 0b          	movzbl 0xb(%rax),%edx
  10a757:	48 8b 85 48 ff ff ff 	mov    -0xb8(%rbp),%rax
  10a75e:	88 90 88 00 00 00    	mov    %dl,0x88(%rax)
  10a764:	48 8b 85 38 ff ff ff 	mov    -0xc8(%rbp),%rax
  10a76b:	0f b7 40 1a          	movzwl 0x1a(%rax),%eax
  10a76f:	0f b7 d0             	movzwl %ax,%edx
  10a772:	48 8b 85 38 ff ff ff 	mov    -0xc8(%rbp),%rax
  10a779:	0f b7 40 14          	movzwl 0x14(%rax),%eax
  10a77d:	0f b7 c0             	movzwl %ax,%eax
  10a780:	c1 e0 10             	shl    $0x10,%eax
  10a783:	09 d0                	or     %edx,%eax
  10a785:	89 c2                	mov    %eax,%edx
  10a787:	48 8b 85 48 ff ff ff 	mov    -0xb8(%rbp),%rax
  10a78e:	89 90 80 00 00 00    	mov    %edx,0x80(%rax)
  10a794:	90                   	nop
  10a795:	48 8b 85 48 ff ff ff 	mov    -0xb8(%rbp),%rax
  10a79c:	c9                   	leaveq 
  10a79d:	c3                   	retq   

000000000010a79e <_ZN11FAT32Driver10ToFATEntryE8DirEntryRj>:
  10a79e:	f3 0f 1e fa          	endbr64 
  10a7a2:	55                   	push   %rbp
  10a7a3:	48 89 e5             	mov    %rsp,%rbp
  10a7a6:	48 81 ec b0 00 00 00 	sub    $0xb0,%rsp
  10a7ad:	48 89 bd 58 ff ff ff 	mov    %rdi,-0xa8(%rbp)
  10a7b4:	48 89 b5 50 ff ff ff 	mov    %rsi,-0xb0(%rbp)
  10a7bb:	48 8d 45 10          	lea    0x10(%rbp),%rax
  10a7bf:	48 89 45 a8          	mov    %rax,-0x58(%rbp)
  10a7c3:	48 8b 45 a8          	mov    -0x58(%rbp),%rax
  10a7c7:	48 89 c7             	mov    %rax,%rdi
  10a7ca:	e8 75 1c 00 00       	callq  10c444 <_Z6strlenPc>
  10a7cf:	48 89 45 a0          	mov    %rax,-0x60(%rbp)
  10a7d3:	48 83 7d a0 0c       	cmpq   $0xc,-0x60(%rbp)
  10a7d8:	0f 87 3b 01 00 00    	ja     10a919 <_ZN11FAT32Driver10ToFATEntryE8DirEntryRj+0x17b>
  10a7de:	48 c7 45 f8 00 00 00 	movq   $0x0,-0x8(%rbp)
  10a7e5:	00 
  10a7e6:	48 8b 45 a8          	mov    -0x58(%rbp),%rax
  10a7ea:	ba 0b 00 00 00       	mov    $0xb,%edx
  10a7ef:	48 8d 35 12 6a 00 00 	lea    0x6a12(%rip),%rsi        # 111208 <_ZL8sc_ascii+0x1a8>
  10a7f6:	48 89 c7             	mov    %rax,%rdi
  10a7f9:	e8 c4 1c 00 00       	callq  10c4c2 <_Z7strncmpPcS_i>
  10a7fe:	85 c0                	test   %eax,%eax
  10a800:	74 1c                	je     10a81e <_ZN11FAT32Driver10ToFATEntryE8DirEntryRj+0x80>
  10a802:	48 8b 45 a8          	mov    -0x58(%rbp),%rax
  10a806:	ba 0b 00 00 00       	mov    $0xb,%edx
  10a80b:	48 8d 35 02 6a 00 00 	lea    0x6a02(%rip),%rsi        # 111214 <_ZL8sc_ascii+0x1b4>
  10a812:	48 89 c7             	mov    %rax,%rdi
  10a815:	e8 a8 1c 00 00       	callq  10c4c2 <_Z7strncmpPcS_i>
  10a81a:	85 c0                	test   %eax,%eax
  10a81c:	75 07                	jne    10a825 <_ZN11FAT32Driver10ToFATEntryE8DirEntryRj+0x87>
  10a81e:	b8 01 00 00 00       	mov    $0x1,%eax
  10a823:	eb 05                	jmp    10a82a <_ZN11FAT32Driver10ToFATEntryE8DirEntryRj+0x8c>
  10a825:	b8 00 00 00 00       	mov    $0x0,%eax
  10a82a:	84 c0                	test   %al,%al
  10a82c:	74 0a                	je     10a838 <_ZN11FAT32Driver10ToFATEntryE8DirEntryRj+0x9a>
  10a82e:	48 8b 45 a8          	mov    -0x58(%rbp),%rax
  10a832:	48 89 45 f8          	mov    %rax,-0x8(%rbp)
  10a836:	eb 1a                	jmp    10a852 <_ZN11FAT32Driver10ToFATEntryE8DirEntryRj+0xb4>
  10a838:	48 8b 55 a8          	mov    -0x58(%rbp),%rdx
  10a83c:	48 8b 85 58 ff ff ff 	mov    -0xa8(%rbp),%rax
  10a843:	48 89 d6             	mov    %rdx,%rsi
  10a846:	48 89 c7             	mov    %rax,%rdi
  10a849:	e8 0a 07 00 00       	callq  10af58 <_ZN11FAT32Driver18ConvertToFATFormatEPc>
  10a84e:	48 89 45 f8          	mov    %rax,-0x8(%rbp)
  10a852:	48 8b 85 50 ff ff ff 	mov    -0xb0(%rbp),%rax
  10a859:	c7 00 00 00 00 00    	movl   $0x0,(%rax)
  10a85f:	bf 20 00 00 00       	mov    $0x20,%edi
  10a864:	e8 74 91 ff ff       	callq  1039dd <_Znwm>
  10a869:	48 c7 00 00 00 00 00 	movq   $0x0,(%rax)
  10a870:	48 c7 40 08 00 00 00 	movq   $0x0,0x8(%rax)
  10a877:	00 
  10a878:	48 c7 40 10 00 00 00 	movq   $0x0,0x10(%rax)
  10a87f:	00 
  10a880:	48 c7 40 18 00 00 00 	movq   $0x0,0x18(%rax)
  10a887:	00 
  10a888:	48 89 85 78 ff ff ff 	mov    %rax,-0x88(%rbp)
  10a88f:	48 8b 85 78 ff ff ff 	mov    -0x88(%rbp),%rax
  10a896:	ba 20 00 00 00       	mov    $0x20,%edx
  10a89b:	be 00 00 00 00       	mov    $0x0,%esi
  10a8a0:	48 89 c7             	mov    %rax,%rdi
  10a8a3:	e8 9b 23 00 00       	callq  10cc43 <_Z6memsetPvim>
  10a8a8:	48 8b 85 78 ff ff ff 	mov    -0x88(%rbp),%rax
  10a8af:	48 8b 4d f8          	mov    -0x8(%rbp),%rcx
  10a8b3:	ba 0b 00 00 00       	mov    $0xb,%edx
  10a8b8:	48 89 ce             	mov    %rcx,%rsi
  10a8bb:	48 89 c7             	mov    %rax,%rdi
  10a8be:	e8 3e 23 00 00       	callq  10cc01 <_Z6memcpyPvPKvm>
  10a8c3:	0f b6 95 98 00 00 00 	movzbl 0x98(%rbp),%edx
  10a8ca:	48 8b 85 78 ff ff ff 	mov    -0x88(%rbp),%rax
  10a8d1:	88 50 0b             	mov    %dl,0xb(%rax)
  10a8d4:	8b 95 94 00 00 00    	mov    0x94(%rbp),%edx
  10a8da:	48 8b 85 78 ff ff ff 	mov    -0x88(%rbp),%rax
  10a8e1:	89 50 1c             	mov    %edx,0x1c(%rax)
  10a8e4:	8b 85 90 00 00 00    	mov    0x90(%rbp),%eax
  10a8ea:	89 c2                	mov    %eax,%edx
  10a8ec:	48 8b 85 78 ff ff ff 	mov    -0x88(%rbp),%rax
  10a8f3:	66 89 50 1a          	mov    %dx,0x1a(%rax)
  10a8f7:	8b 85 90 00 00 00    	mov    0x90(%rbp),%eax
  10a8fd:	c1 e8 10             	shr    $0x10,%eax
  10a900:	89 c2                	mov    %eax,%edx
  10a902:	48 8b 85 78 ff ff ff 	mov    -0x88(%rbp),%rax
  10a909:	66 89 50 14          	mov    %dx,0x14(%rax)
  10a90d:	48 8b 85 78 ff ff ff 	mov    -0x88(%rbp),%rax
  10a914:	e9 c7 03 00 00       	jmpq   10ace0 <_ZN11FAT32Driver10ToFATEntryE8DirEntryRj+0x542>
  10a919:	48 8b 45 a0          	mov    -0x60(%rbp),%rax
  10a91d:	48 ba c5 4e ec c4 4e 	movabs $0x4ec4ec4ec4ec4ec5,%rdx
  10a924:	ec c4 4e 
  10a927:	48 f7 e2             	mul    %rdx
  10a92a:	48 89 d0             	mov    %rdx,%rax
  10a92d:	48 c1 e8 02          	shr    $0x2,%rax
  10a931:	48 83 c0 01          	add    $0x1,%rax
  10a935:	48 89 45 98          	mov    %rax,-0x68(%rbp)
  10a939:	48 8b 45 98          	mov    -0x68(%rbp),%rax
  10a93d:	89 c2                	mov    %eax,%edx
  10a93f:	48 8b 85 50 ff ff ff 	mov    -0xb0(%rbp),%rax
  10a946:	89 10                	mov    %edx,(%rax)
  10a948:	48 8b 45 98          	mov    -0x68(%rbp),%rax
  10a94c:	48 83 c0 01          	add    $0x1,%rax
  10a950:	48 ba ff ff ff ff ff 	movabs $0x3ffffffffffffff,%rdx
  10a957:	ff ff 03 
  10a95a:	48 39 d0             	cmp    %rdx,%rax
  10a95d:	77 06                	ja     10a965 <_ZN11FAT32Driver10ToFATEntryE8DirEntryRj+0x1c7>
  10a95f:	48 c1 e0 05          	shl    $0x5,%rax
  10a963:	eb 07                	jmp    10a96c <_ZN11FAT32Driver10ToFATEntryE8DirEntryRj+0x1ce>
  10a965:	48 c7 c0 ff ff ff ff 	mov    $0xffffffffffffffff,%rax
  10a96c:	48 89 c7             	mov    %rax,%rdi
  10a96f:	e8 87 90 ff ff       	callq  1039fb <_Znam>
  10a974:	48 89 45 90          	mov    %rax,-0x70(%rbp)
  10a978:	48 8b 45 98          	mov    -0x68(%rbp),%rax
  10a97c:	48 c1 e0 05          	shl    $0x5,%rax
  10a980:	48 8d 50 e0          	lea    -0x20(%rax),%rdx
  10a984:	48 8b 45 90          	mov    -0x70(%rbp),%rax
  10a988:	48 01 d0             	add    %rdx,%rax
  10a98b:	48 89 45 f0          	mov    %rax,-0x10(%rbp)
  10a98f:	c7 45 ec 00 00 00 00 	movl   $0x0,-0x14(%rbp)
  10a996:	83 7d ec 05          	cmpl   $0x5,-0x14(%rbp)
  10a99a:	77 35                	ja     10a9d1 <_ZN11FAT32Driver10ToFATEntryE8DirEntryRj+0x233>
  10a99c:	8b 55 ec             	mov    -0x14(%rbp),%edx
  10a99f:	48 8b 45 a8          	mov    -0x58(%rbp),%rax
  10a9a3:	48 01 d0             	add    %rdx,%rax
  10a9a6:	0f b6 00             	movzbl (%rax),%eax
  10a9a9:	88 45 8f             	mov    %al,-0x71(%rbp)
  10a9ac:	80 7d 8f 60          	cmpb   $0x60,-0x71(%rbp)
  10a9b0:	7e 19                	jle    10a9cb <_ZN11FAT32Driver10ToFATEntryE8DirEntryRj+0x22d>
  10a9b2:	80 7d 8f 7a          	cmpb   $0x7a,-0x71(%rbp)
  10a9b6:	7f 13                	jg     10a9cb <_ZN11FAT32Driver10ToFATEntryE8DirEntryRj+0x22d>
  10a9b8:	0f b6 45 8f          	movzbl -0x71(%rbp),%eax
  10a9bc:	83 e8 20             	sub    $0x20,%eax
  10a9bf:	89 c2                	mov    %eax,%edx
  10a9c1:	8b 45 ec             	mov    -0x14(%rbp),%eax
  10a9c4:	88 94 05 6d ff ff ff 	mov    %dl,-0x93(%rbp,%rax,1)
  10a9cb:	83 45 ec 01          	addl   $0x1,-0x14(%rbp)
  10a9cf:	eb c5                	jmp    10a996 <_ZN11FAT32Driver10ToFATEntryE8DirEntryRj+0x1f8>
  10a9d1:	c6 85 73 ff ff ff 7e 	movb   $0x7e,-0x8d(%rbp)
  10a9d8:	c6 85 74 ff ff ff 31 	movb   $0x31,-0x8c(%rbp)
  10a9df:	c6 45 eb 00          	movb   $0x0,-0x15(%rbp)
  10a9e3:	c7 45 e4 06 00 00 00 	movl   $0x6,-0x1c(%rbp)
  10a9ea:	8b 45 e4             	mov    -0x1c(%rbp),%eax
  10a9ed:	48 39 45 a0          	cmp    %rax,-0x60(%rbp)
  10a9f1:	0f 86 82 00 00 00    	jbe    10aa79 <_ZN11FAT32Driver10ToFATEntryE8DirEntryRj+0x2db>
  10a9f7:	8b 55 e4             	mov    -0x1c(%rbp),%edx
  10a9fa:	48 8b 45 a8          	mov    -0x58(%rbp),%rax
  10a9fe:	48 01 d0             	add    %rdx,%rax
  10aa01:	0f b6 00             	movzbl (%rax),%eax
  10aa04:	3c 2e                	cmp    $0x2e,%al
  10aa06:	75 67                	jne    10aa6f <_ZN11FAT32Driver10ToFATEntryE8DirEntryRj+0x2d1>
  10aa08:	c6 45 eb 01          	movb   $0x1,-0x15(%rbp)
  10aa0c:	c7 45 e0 00 00 00 00 	movl   $0x0,-0x20(%rbp)
  10aa13:	8b 45 e0             	mov    -0x20(%rbp),%eax
  10aa16:	8b 55 e4             	mov    -0x1c(%rbp),%edx
  10aa19:	83 c2 01             	add    $0x1,%edx
  10aa1c:	89 d1                	mov    %edx,%ecx
  10aa1e:	48 8b 55 a0          	mov    -0x60(%rbp),%rdx
  10aa22:	48 29 ca             	sub    %rcx,%rdx
  10aa25:	48 39 d0             	cmp    %rdx,%rax
  10aa28:	73 4e                	jae    10aa78 <_ZN11FAT32Driver10ToFATEntryE8DirEntryRj+0x2da>
  10aa2a:	83 7d e0 02          	cmpl   $0x2,-0x20(%rbp)
  10aa2e:	77 48                	ja     10aa78 <_ZN11FAT32Driver10ToFATEntryE8DirEntryRj+0x2da>
  10aa30:	8b 55 e4             	mov    -0x1c(%rbp),%edx
  10aa33:	8b 45 e0             	mov    -0x20(%rbp),%eax
  10aa36:	01 d0                	add    %edx,%eax
  10aa38:	83 c0 01             	add    $0x1,%eax
  10aa3b:	89 c2                	mov    %eax,%edx
  10aa3d:	48 8b 45 a8          	mov    -0x58(%rbp),%rax
  10aa41:	48 01 d0             	add    %rdx,%rax
  10aa44:	0f b6 00             	movzbl (%rax),%eax
  10aa47:	88 45 8e             	mov    %al,-0x72(%rbp)
  10aa4a:	80 7d 8e 60          	cmpb   $0x60,-0x72(%rbp)
  10aa4e:	7e 19                	jle    10aa69 <_ZN11FAT32Driver10ToFATEntryE8DirEntryRj+0x2cb>
  10aa50:	80 7d 8e 7a          	cmpb   $0x7a,-0x72(%rbp)
  10aa54:	7f 13                	jg     10aa69 <_ZN11FAT32Driver10ToFATEntryE8DirEntryRj+0x2cb>
  10aa56:	0f b6 45 8e          	movzbl -0x72(%rbp),%eax
  10aa5a:	83 e8 20             	sub    $0x20,%eax
  10aa5d:	89 c2                	mov    %eax,%edx
  10aa5f:	8b 45 e4             	mov    -0x1c(%rbp),%eax
  10aa62:	88 94 05 6d ff ff ff 	mov    %dl,-0x93(%rbp,%rax,1)
  10aa69:	83 45 e0 01          	addl   $0x1,-0x20(%rbp)
  10aa6d:	eb a4                	jmp    10aa13 <_ZN11FAT32Driver10ToFATEntryE8DirEntryRj+0x275>
  10aa6f:	83 45 e4 01          	addl   $0x1,-0x1c(%rbp)
  10aa73:	e9 72 ff ff ff       	jmpq   10a9ea <_ZN11FAT32Driver10ToFATEntryE8DirEntryRj+0x24c>
  10aa78:	90                   	nop
  10aa79:	0f b6 45 eb          	movzbl -0x15(%rbp),%eax
  10aa7d:	83 f0 01             	xor    $0x1,%eax
  10aa80:	84 c0                	test   %al,%al
  10aa82:	74 15                	je     10aa99 <_ZN11FAT32Driver10ToFATEntryE8DirEntryRj+0x2fb>
  10aa84:	c6 85 75 ff ff ff 20 	movb   $0x20,-0x8b(%rbp)
  10aa8b:	c6 85 76 ff ff ff 20 	movb   $0x20,-0x8a(%rbp)
  10aa92:	c6 85 77 ff ff ff 20 	movb   $0x20,-0x89(%rbp)
  10aa99:	c6 45 df 00          	movb   $0x0,-0x21(%rbp)
  10aa9d:	48 c7 45 d0 0b 00 00 	movq   $0xb,-0x30(%rbp)
  10aaa4:	00 
  10aaa5:	48 83 7d d0 00       	cmpq   $0x0,-0x30(%rbp)
  10aaaa:	74 2e                	je     10aada <_ZN11FAT32Driver10ToFATEntryE8DirEntryRj+0x33c>
  10aaac:	0f b6 45 df          	movzbl -0x21(%rbp),%eax
  10aab0:	c1 e0 07             	shl    $0x7,%eax
  10aab3:	89 c2                	mov    %eax,%edx
  10aab5:	0f b6 45 df          	movzbl -0x21(%rbp),%eax
  10aab9:	d1 f8                	sar    %eax
  10aabb:	01 c2                	add    %eax,%edx
  10aabd:	b8 0b 00 00 00       	mov    $0xb,%eax
  10aac2:	48 2b 45 d0          	sub    -0x30(%rbp),%rax
  10aac6:	0f b6 84 05 6d ff ff 	movzbl -0x93(%rbp,%rax,1),%eax
  10aacd:	ff 
  10aace:	01 d0                	add    %edx,%eax
  10aad0:	88 45 df             	mov    %al,-0x21(%rbp)
  10aad3:	48 83 6d d0 01       	subq   $0x1,-0x30(%rbp)
  10aad8:	eb cb                	jmp    10aaa5 <_ZN11FAT32Driver10ToFATEntryE8DirEntryRj+0x307>
  10aada:	c7 45 cc 00 00 00 00 	movl   $0x0,-0x34(%rbp)
  10aae1:	48 c7 45 c0 00 00 00 	movq   $0x0,-0x40(%rbp)
  10aae8:	00 
  10aae9:	48 8b 45 c0          	mov    -0x40(%rbp),%rax
  10aaed:	48 3b 45 98          	cmp    -0x68(%rbp),%rax
  10aaf1:	0f 83 60 01 00 00    	jae    10ac57 <_ZN11FAT32Driver10ToFATEntryE8DirEntryRj+0x4b9>
  10aaf7:	48 8b 45 f0          	mov    -0x10(%rbp),%rax
  10aafb:	ba 20 00 00 00       	mov    $0x20,%edx
  10ab00:	be 00 00 00 00       	mov    $0x0,%esi
  10ab05:	48 89 c7             	mov    %rax,%rdi
  10ab08:	e8 36 21 00 00       	callq  10cc43 <_Z6memsetPvim>
  10ab0d:	48 8b 45 c0          	mov    -0x40(%rbp),%rax
  10ab11:	8d 50 01             	lea    0x1(%rax),%edx
  10ab14:	48 8b 45 f0          	mov    -0x10(%rbp),%rax
  10ab18:	88 10                	mov    %dl,(%rax)
  10ab1a:	48 8b 45 98          	mov    -0x68(%rbp),%rax
  10ab1e:	48 83 e8 01          	sub    $0x1,%rax
  10ab22:	48 39 45 c0          	cmp    %rax,-0x40(%rbp)
  10ab26:	75 12                	jne    10ab3a <_ZN11FAT32Driver10ToFATEntryE8DirEntryRj+0x39c>
  10ab28:	48 8b 45 f0          	mov    -0x10(%rbp),%rax
  10ab2c:	0f b6 00             	movzbl (%rax),%eax
  10ab2f:	83 c8 40             	or     $0x40,%eax
  10ab32:	89 c2                	mov    %eax,%edx
  10ab34:	48 8b 45 f0          	mov    -0x10(%rbp),%rax
  10ab38:	88 10                	mov    %dl,(%rax)
  10ab3a:	48 8b 45 f0          	mov    -0x10(%rbp),%rax
  10ab3e:	c6 40 0b 0f          	movb   $0xf,0xb(%rax)
  10ab42:	48 8b 45 f0          	mov    -0x10(%rbp),%rax
  10ab46:	0f b6 55 df          	movzbl -0x21(%rbp),%edx
  10ab4a:	88 50 0d             	mov    %dl,0xd(%rax)
  10ab4d:	c7 45 bc 00 00 00 00 	movl   $0x0,-0x44(%rbp)
  10ab54:	83 7d bc 04          	cmpl   $0x4,-0x44(%rbp)
  10ab58:	77 44                	ja     10ab9e <_ZN11FAT32Driver10ToFATEntryE8DirEntryRj+0x400>
  10ab5a:	8b 45 cc             	mov    -0x34(%rbp),%eax
  10ab5d:	48 39 45 a0          	cmp    %rax,-0x60(%rbp)
  10ab61:	77 10                	ja     10ab73 <_ZN11FAT32Driver10ToFATEntryE8DirEntryRj+0x3d5>
  10ab63:	48 8b 45 f0          	mov    -0x10(%rbp),%rax
  10ab67:	8b 55 bc             	mov    -0x44(%rbp),%edx
  10ab6a:	66 c7 44 50 01 00 00 	movw   $0x0,0x1(%rax,%rdx,2)
  10ab71:	eb 2b                	jmp    10ab9e <_ZN11FAT32Driver10ToFATEntryE8DirEntryRj+0x400>
  10ab73:	8b 45 cc             	mov    -0x34(%rbp),%eax
  10ab76:	8d 50 01             	lea    0x1(%rax),%edx
  10ab79:	89 55 cc             	mov    %edx,-0x34(%rbp)
  10ab7c:	89 c2                	mov    %eax,%edx
  10ab7e:	48 8b 45 a8          	mov    -0x58(%rbp),%rax
  10ab82:	48 01 d0             	add    %rdx,%rax
  10ab85:	0f b6 00             	movzbl (%rax),%eax
  10ab88:	66 0f be c8          	movsbw %al,%cx
  10ab8c:	48 8b 45 f0          	mov    -0x10(%rbp),%rax
  10ab90:	8b 55 bc             	mov    -0x44(%rbp),%edx
  10ab93:	66 89 4c 50 01       	mov    %cx,0x1(%rax,%rdx,2)
  10ab98:	83 45 bc 01          	addl   $0x1,-0x44(%rbp)
  10ab9c:	eb b6                	jmp    10ab54 <_ZN11FAT32Driver10ToFATEntryE8DirEntryRj+0x3b6>
  10ab9e:	c7 45 b8 00 00 00 00 	movl   $0x0,-0x48(%rbp)
  10aba5:	83 7d b8 05          	cmpl   $0x5,-0x48(%rbp)
  10aba9:	77 44                	ja     10abef <_ZN11FAT32Driver10ToFATEntryE8DirEntryRj+0x451>
  10abab:	8b 45 cc             	mov    -0x34(%rbp),%eax
  10abae:	48 39 45 a0          	cmp    %rax,-0x60(%rbp)
  10abb2:	77 10                	ja     10abc4 <_ZN11FAT32Driver10ToFATEntryE8DirEntryRj+0x426>
  10abb4:	48 8b 45 f0          	mov    -0x10(%rbp),%rax
  10abb8:	8b 55 b8             	mov    -0x48(%rbp),%edx
  10abbb:	66 c7 44 50 0e 00 00 	movw   $0x0,0xe(%rax,%rdx,2)
  10abc2:	eb 2b                	jmp    10abef <_ZN11FAT32Driver10ToFATEntryE8DirEntryRj+0x451>
  10abc4:	8b 45 cc             	mov    -0x34(%rbp),%eax
  10abc7:	8d 50 01             	lea    0x1(%rax),%edx
  10abca:	89 55 cc             	mov    %edx,-0x34(%rbp)
  10abcd:	89 c2                	mov    %eax,%edx
  10abcf:	48 8b 45 a8          	mov    -0x58(%rbp),%rax
  10abd3:	48 01 d0             	add    %rdx,%rax
  10abd6:	0f b6 00             	movzbl (%rax),%eax
  10abd9:	66 0f be c8          	movsbw %al,%cx
  10abdd:	48 8b 45 f0          	mov    -0x10(%rbp),%rax
  10abe1:	8b 55 b8             	mov    -0x48(%rbp),%edx
  10abe4:	66 89 4c 50 0e       	mov    %cx,0xe(%rax,%rdx,2)
  10abe9:	83 45 b8 01          	addl   $0x1,-0x48(%rbp)
  10abed:	eb b6                	jmp    10aba5 <_ZN11FAT32Driver10ToFATEntryE8DirEntryRj+0x407>
  10abef:	c7 45 b4 00 00 00 00 	movl   $0x0,-0x4c(%rbp)
  10abf6:	83 7d b4 01          	cmpl   $0x1,-0x4c(%rbp)
  10abfa:	77 4c                	ja     10ac48 <_ZN11FAT32Driver10ToFATEntryE8DirEntryRj+0x4aa>
  10abfc:	8b 45 cc             	mov    -0x34(%rbp),%eax
  10abff:	48 39 45 a0          	cmp    %rax,-0x60(%rbp)
  10ac03:	77 14                	ja     10ac19 <_ZN11FAT32Driver10ToFATEntryE8DirEntryRj+0x47b>
  10ac05:	48 8b 45 f0          	mov    -0x10(%rbp),%rax
  10ac09:	8b 55 b4             	mov    -0x4c(%rbp),%edx
  10ac0c:	48 83 c2 08          	add    $0x8,%rdx
  10ac10:	66 c7 44 50 0c 00 00 	movw   $0x0,0xc(%rax,%rdx,2)
  10ac17:	eb 2f                	jmp    10ac48 <_ZN11FAT32Driver10ToFATEntryE8DirEntryRj+0x4aa>
  10ac19:	8b 45 cc             	mov    -0x34(%rbp),%eax
  10ac1c:	8d 50 01             	lea    0x1(%rax),%edx
  10ac1f:	89 55 cc             	mov    %edx,-0x34(%rbp)
  10ac22:	89 c2                	mov    %eax,%edx
  10ac24:	48 8b 45 a8          	mov    -0x58(%rbp),%rax
  10ac28:	48 01 d0             	add    %rdx,%rax
  10ac2b:	0f b6 00             	movzbl (%rax),%eax
  10ac2e:	66 0f be d0          	movsbw %al,%dx
  10ac32:	48 8b 45 f0          	mov    -0x10(%rbp),%rax
  10ac36:	8b 4d b4             	mov    -0x4c(%rbp),%ecx
  10ac39:	48 83 c1 08          	add    $0x8,%rcx
  10ac3d:	66 89 54 48 0c       	mov    %dx,0xc(%rax,%rcx,2)
  10ac42:	83 45 b4 01          	addl   $0x1,-0x4c(%rbp)
  10ac46:	eb ae                	jmp    10abf6 <_ZN11FAT32Driver10ToFATEntryE8DirEntryRj+0x458>
  10ac48:	48 83 6d f0 20       	subq   $0x20,-0x10(%rbp)
  10ac4d:	48 83 45 c0 01       	addq   $0x1,-0x40(%rbp)
  10ac52:	e9 92 fe ff ff       	jmpq   10aae9 <_ZN11FAT32Driver10ToFATEntryE8DirEntryRj+0x34b>
  10ac57:	48 8b 45 98          	mov    -0x68(%rbp),%rax
  10ac5b:	48 c1 e0 05          	shl    $0x5,%rax
  10ac5f:	48 89 c2             	mov    %rax,%rdx
  10ac62:	48 8b 45 90          	mov    -0x70(%rbp),%rax
  10ac66:	48 01 d0             	add    %rdx,%rax
  10ac69:	48 89 45 80          	mov    %rax,-0x80(%rbp)
  10ac6d:	48 8b 45 80          	mov    -0x80(%rbp),%rax
  10ac71:	ba 20 00 00 00       	mov    $0x20,%edx
  10ac76:	be 00 00 00 00       	mov    $0x0,%esi
  10ac7b:	48 89 c7             	mov    %rax,%rdi
  10ac7e:	e8 c0 1f 00 00       	callq  10cc43 <_Z6memsetPvim>
  10ac83:	48 8b 45 80          	mov    -0x80(%rbp),%rax
  10ac87:	48 8d 8d 6d ff ff ff 	lea    -0x93(%rbp),%rcx
  10ac8e:	ba 0b 00 00 00       	mov    $0xb,%edx
  10ac93:	48 89 ce             	mov    %rcx,%rsi
  10ac96:	48 89 c7             	mov    %rax,%rdi
  10ac99:	e8 63 1f 00 00       	callq  10cc01 <_Z6memcpyPvPKvm>
  10ac9e:	0f b6 95 98 00 00 00 	movzbl 0x98(%rbp),%edx
  10aca5:	48 8b 45 80          	mov    -0x80(%rbp),%rax
  10aca9:	88 50 0b             	mov    %dl,0xb(%rax)
  10acac:	8b 95 94 00 00 00    	mov    0x94(%rbp),%edx
  10acb2:	48 8b 45 80          	mov    -0x80(%rbp),%rax
  10acb6:	89 50 1c             	mov    %edx,0x1c(%rax)
  10acb9:	8b 85 90 00 00 00    	mov    0x90(%rbp),%eax
  10acbf:	89 c2                	mov    %eax,%edx
  10acc1:	48 8b 45 80          	mov    -0x80(%rbp),%rax
  10acc5:	66 89 50 1a          	mov    %dx,0x1a(%rax)
  10acc9:	8b 85 90 00 00 00    	mov    0x90(%rbp),%eax
  10accf:	c1 e8 10             	shr    $0x10,%eax
  10acd2:	89 c2                	mov    %eax,%edx
  10acd4:	48 8b 45 80          	mov    -0x80(%rbp),%rax
  10acd8:	66 89 50 14          	mov    %dx,0x14(%rax)
  10acdc:	48 8b 45 80          	mov    -0x80(%rbp),%rax
  10ace0:	c9                   	leaveq 
  10ace1:	c3                   	retq   

000000000010ace2 <_ZN11FAT32Driver7CompareEP14DirectoryEntryPKcb>:
  10ace2:	f3 0f 1e fa          	endbr64 
  10ace6:	55                   	push   %rbp
  10ace7:	48 89 e5             	mov    %rsp,%rbp
  10acea:	48 81 ec c0 00 00 00 	sub    $0xc0,%rsp
  10acf1:	48 89 bd 58 ff ff ff 	mov    %rdi,-0xa8(%rbp)
  10acf8:	48 89 b5 50 ff ff ff 	mov    %rsi,-0xb0(%rbp)
  10acff:	48 89 95 48 ff ff ff 	mov    %rdx,-0xb8(%rbp)
  10ad06:	89 c8                	mov    %ecx,%eax
  10ad08:	88 85 44 ff ff ff    	mov    %al,-0xbc(%rbp)
  10ad0e:	0f b6 8d 44 ff ff ff 	movzbl -0xbc(%rbp),%ecx
  10ad15:	48 8d 85 60 ff ff ff 	lea    -0xa0(%rbp),%rax
  10ad1c:	48 8b 95 50 ff ff ff 	mov    -0xb0(%rbp),%rdx
  10ad23:	48 8b b5 58 ff ff ff 	mov    -0xa8(%rbp),%rsi
  10ad2a:	48 89 c7             	mov    %rax,%rdi
  10ad2d:	e8 6e f8 ff ff       	callq  10a5a0 <_ZN11FAT32Driver12FromFATEntryEP14DirectoryEntryb>
  10ad32:	48 8b 95 48 ff ff ff 	mov    -0xb8(%rbp),%rdx
  10ad39:	48 8d 85 60 ff ff ff 	lea    -0xa0(%rbp),%rax
  10ad40:	48 89 d6             	mov    %rdx,%rsi
  10ad43:	48 89 c7             	mov    %rax,%rdi
  10ad46:	e8 17 17 00 00       	callq  10c462 <_Z6strcmpPcS_>
  10ad4b:	85 c0                	test   %eax,%eax
  10ad4d:	0f 94 c0             	sete   %al
  10ad50:	c9                   	leaveq 
  10ad51:	c3                   	retq   

000000000010ad52 <_ZNK11FAT32Driver15GetMillisecondsEv>:
  10ad52:	f3 0f 1e fa          	endbr64 
  10ad56:	55                   	push   %rbp
  10ad57:	48 89 e5             	mov    %rsp,%rbp
  10ad5a:	48 83 ec 08          	sub    $0x8,%rsp
  10ad5e:	48 89 7d f8          	mov    %rdi,-0x8(%rbp)
  10ad62:	b8 00 00 00 00       	mov    $0x0,%eax
  10ad67:	c9                   	leaveq 
  10ad68:	c3                   	retq   
  10ad69:	90                   	nop

000000000010ad6a <_ZNK11FAT32Driver7GetTimeEv>:
  10ad6a:	f3 0f 1e fa          	endbr64 
  10ad6e:	55                   	push   %rbp
  10ad6f:	48 89 e5             	mov    %rsp,%rbp
  10ad72:	48 83 ec 30          	sub    $0x30,%rsp
  10ad76:	48 89 7d d8          	mov    %rdi,-0x28(%rbp)
  10ad7a:	48 8d 45 e0          	lea    -0x20(%rbp),%rax
  10ad7e:	48 89 c7             	mov    %rax,%rdi
  10ad81:	e8 1b 6c ff ff       	callq  1019a1 <_Z10GetTimeRTCP2tm>
  10ad86:	8b 45 f4             	mov    -0xc(%rbp),%eax
  10ad89:	d1 e8                	shr    %eax
  10ad8b:	66 89 45 fe          	mov    %ax,-0x2(%rbp)
  10ad8f:	8b 45 f0             	mov    -0x10(%rbp),%eax
  10ad92:	66 89 45 fc          	mov    %ax,-0x4(%rbp)
  10ad96:	8b 45 ec             	mov    -0x14(%rbp),%eax
  10ad99:	66 89 45 fa          	mov    %ax,-0x6(%rbp)
  10ad9d:	0f b7 45 fc          	movzwl -0x4(%rbp),%eax
  10ada1:	c1 e0 05             	shl    $0x5,%eax
  10ada4:	89 c2                	mov    %eax,%edx
  10ada6:	0f b7 45 fe          	movzwl -0x2(%rbp),%eax
  10adaa:	09 c2                	or     %eax,%edx
  10adac:	0f b7 45 fa          	movzwl -0x6(%rbp),%eax
  10adb0:	c1 e0 0b             	shl    $0xb,%eax
  10adb3:	09 d0                	or     %edx,%eax
  10adb5:	c9                   	leaveq 
  10adb6:	c3                   	retq   
  10adb7:	90                   	nop

000000000010adb8 <_ZNK11FAT32Driver7GetDateEv>:
  10adb8:	f3 0f 1e fa          	endbr64 
  10adbc:	55                   	push   %rbp
  10adbd:	48 89 e5             	mov    %rsp,%rbp
  10adc0:	48 83 ec 30          	sub    $0x30,%rsp
  10adc4:	48 89 7d d8          	mov    %rdi,-0x28(%rbp)
  10adc8:	48 8d 45 e0          	lea    -0x20(%rbp),%rax
  10adcc:	48 89 c7             	mov    %rax,%rdi
  10adcf:	e8 cd 6b ff ff       	callq  1019a1 <_Z10GetTimeRTCP2tm>
  10add4:	8b 45 e8             	mov    -0x18(%rbp),%eax
  10add7:	66 89 45 fe          	mov    %ax,-0x2(%rbp)
  10addb:	8b 45 e4             	mov    -0x1c(%rbp),%eax
  10adde:	83 c0 01             	add    $0x1,%eax
  10ade1:	66 89 45 fc          	mov    %ax,-0x4(%rbp)
  10ade5:	8b 45 e0             	mov    -0x20(%rbp),%eax
  10ade8:	66 05 6c 07          	add    $0x76c,%ax
  10adec:	66 89 45 fa          	mov    %ax,-0x6(%rbp)
  10adf0:	0f b7 45 fc          	movzwl -0x4(%rbp),%eax
  10adf4:	c1 e0 05             	shl    $0x5,%eax
  10adf7:	89 c2                	mov    %eax,%edx
  10adf9:	0f b7 45 fe          	movzwl -0x2(%rbp),%eax
  10adfd:	09 c2                	or     %eax,%edx
  10adff:	0f b7 45 fa          	movzwl -0x6(%rbp),%eax
  10ae03:	2d bc 07 00 00       	sub    $0x7bc,%eax
  10ae08:	c1 e0 09             	shl    $0x9,%eax
  10ae0b:	09 d0                	or     %edx,%eax
  10ae0d:	c9                   	leaveq 
  10ae0e:	c3                   	retq   
  10ae0f:	90                   	nop

000000000010ae10 <_ZN11FAT32Driver11IsFATFormatEPc>:
  10ae10:	f3 0f 1e fa          	endbr64 
  10ae14:	55                   	push   %rbp
  10ae15:	48 89 e5             	mov    %rsp,%rbp
  10ae18:	48 83 ec 20          	sub    $0x20,%rsp
  10ae1c:	48 89 7d e8          	mov    %rdi,-0x18(%rbp)
  10ae20:	48 89 75 e0          	mov    %rsi,-0x20(%rbp)
  10ae24:	48 8b 45 e0          	mov    -0x20(%rbp),%rax
  10ae28:	48 89 c7             	mov    %rax,%rdi
  10ae2b:	e8 14 16 00 00       	callq  10c444 <_Z6strlenPc>
  10ae30:	48 89 45 f0          	mov    %rax,-0x10(%rbp)
  10ae34:	48 83 7d f0 0b       	cmpq   $0xb,-0x10(%rbp)
  10ae39:	74 0a                	je     10ae45 <_ZN11FAT32Driver11IsFATFormatEPc+0x35>
  10ae3b:	b8 f7 ff ff ff       	mov    $0xfffffff7,%eax
  10ae40:	e9 10 01 00 00       	jmpq   10af55 <_ZN11FAT32Driver11IsFATFormatEPc+0x145>
  10ae45:	48 8b 45 e0          	mov    -0x20(%rbp),%rax
  10ae49:	ba 0b 00 00 00       	mov    $0xb,%edx
  10ae4e:	48 8d 35 b3 63 00 00 	lea    0x63b3(%rip),%rsi        # 111208 <_ZL8sc_ascii+0x1a8>
  10ae55:	48 89 c7             	mov    %rax,%rdi
  10ae58:	e8 65 16 00 00       	callq  10c4c2 <_Z7strncmpPcS_i>
  10ae5d:	85 c0                	test   %eax,%eax
  10ae5f:	74 1c                	je     10ae7d <_ZN11FAT32Driver11IsFATFormatEPc+0x6d>
  10ae61:	48 8b 45 e0          	mov    -0x20(%rbp),%rax
  10ae65:	ba 0b 00 00 00       	mov    $0xb,%edx
  10ae6a:	48 8d 35 a3 63 00 00 	lea    0x63a3(%rip),%rsi        # 111214 <_ZL8sc_ascii+0x1b4>
  10ae71:	48 89 c7             	mov    %rax,%rdi
  10ae74:	e8 49 16 00 00       	callq  10c4c2 <_Z7strncmpPcS_i>
  10ae79:	85 c0                	test   %eax,%eax
  10ae7b:	75 07                	jne    10ae84 <_ZN11FAT32Driver11IsFATFormatEPc+0x74>
  10ae7d:	b8 01 00 00 00       	mov    $0x1,%eax
  10ae82:	eb 05                	jmp    10ae89 <_ZN11FAT32Driver11IsFATFormatEPc+0x79>
  10ae84:	b8 00 00 00 00       	mov    $0x0,%eax
  10ae89:	84 c0                	test   %al,%al
  10ae8b:	74 0a                	je     10ae97 <_ZN11FAT32Driver11IsFATFormatEPc+0x87>
  10ae8d:	b8 00 00 00 00       	mov    $0x0,%eax
  10ae92:	e9 be 00 00 00       	jmpq   10af55 <_ZN11FAT32Driver11IsFATFormatEPc+0x145>
  10ae97:	c7 45 fc 00 00 00 00 	movl   $0x0,-0x4(%rbp)
  10ae9e:	c7 45 f8 00 00 00 00 	movl   $0x0,-0x8(%rbp)
  10aea5:	83 7d f8 0a          	cmpl   $0xa,-0x8(%rbp)
  10aea9:	0f 87 a3 00 00 00    	ja     10af52 <_ZN11FAT32Driver11IsFATFormatEPc+0x142>
  10aeaf:	8b 55 f8             	mov    -0x8(%rbp),%edx
  10aeb2:	48 8b 45 e0          	mov    -0x20(%rbp),%rax
  10aeb6:	48 01 d0             	add    %rdx,%rax
  10aeb9:	0f b6 00             	movzbl (%rax),%eax
  10aebc:	3c 1f                	cmp    $0x1f,%al
  10aebe:	7f 15                	jg     10aed5 <_ZN11FAT32Driver11IsFATFormatEPc+0xc5>
  10aec0:	8b 55 f8             	mov    -0x8(%rbp),%edx
  10aec3:	48 8b 45 e0          	mov    -0x20(%rbp),%rax
  10aec7:	48 01 d0             	add    %rdx,%rax
  10aeca:	0f b6 00             	movzbl (%rax),%eax
  10aecd:	3c 05                	cmp    $0x5,%al
  10aecf:	74 04                	je     10aed5 <_ZN11FAT32Driver11IsFATFormatEPc+0xc5>
  10aed1:	83 4d fc f6          	orl    $0xfffffff6,-0x4(%rbp)
  10aed5:	8b 55 f8             	mov    -0x8(%rbp),%edx
  10aed8:	48 8b 45 e0          	mov    -0x20(%rbp),%rax
  10aedc:	48 01 d0             	add    %rdx,%rax
  10aedf:	0f b6 00             	movzbl (%rax),%eax
  10aee2:	0f be c0             	movsbl %al,%eax
  10aee5:	83 f8 5d             	cmp    $0x5d,%eax
  10aee8:	7f 30                	jg     10af1a <_ZN11FAT32Driver11IsFATFormatEPc+0x10a>
  10aeea:	83 f8 22             	cmp    $0x22,%eax
  10aeed:	7c 34                	jl     10af23 <_ZN11FAT32Driver11IsFATFormatEPc+0x113>
  10aeef:	83 e8 22             	sub    $0x22,%eax
  10aef2:	83 f8 3b             	cmp    $0x3b,%eax
  10aef5:	77 2c                	ja     10af23 <_ZN11FAT32Driver11IsFATFormatEPc+0x113>
  10aef7:	89 c0                	mov    %eax,%eax
  10aef9:	48 8d 14 85 00 00 00 	lea    0x0(,%rax,4),%rdx
  10af00:	00 
  10af01:	48 8d 05 1c 63 00 00 	lea    0x631c(%rip),%rax        # 111224 <_ZL8sc_ascii+0x1c4>
  10af08:	8b 04 02             	mov    (%rdx,%rax,1),%eax
  10af0b:	48 98                	cltq   
  10af0d:	48 8d 15 10 63 00 00 	lea    0x6310(%rip),%rdx        # 111224 <_ZL8sc_ascii+0x1c4>
  10af14:	48 01 d0             	add    %rdx,%rax
  10af17:	3e ff e0             	notrack jmpq *%rax
  10af1a:	83 f8 7c             	cmp    $0x7c,%eax
  10af1d:	75 04                	jne    10af23 <_ZN11FAT32Driver11IsFATFormatEPc+0x113>
  10af1f:	83 4d fc f6          	orl    $0xfffffff6,-0x4(%rbp)
  10af23:	8b 55 f8             	mov    -0x8(%rbp),%edx
  10af26:	48 8b 45 e0          	mov    -0x20(%rbp),%rax
  10af2a:	48 01 d0             	add    %rdx,%rax
  10af2d:	0f b6 00             	movzbl (%rax),%eax
  10af30:	3c 60                	cmp    $0x60,%al
  10af32:	7e 15                	jle    10af49 <_ZN11FAT32Driver11IsFATFormatEPc+0x139>
  10af34:	8b 55 f8             	mov    -0x8(%rbp),%edx
  10af37:	48 8b 45 e0          	mov    -0x20(%rbp),%rax
  10af3b:	48 01 d0             	add    %rdx,%rax
  10af3e:	0f b6 00             	movzbl (%rax),%eax
  10af41:	3c 7a                	cmp    $0x7a,%al
  10af43:	7f 04                	jg     10af49 <_ZN11FAT32Driver11IsFATFormatEPc+0x139>
  10af45:	83 4d fc f8          	orl    $0xfffffff8,-0x4(%rbp)
  10af49:	83 45 f8 01          	addl   $0x1,-0x8(%rbp)
  10af4d:	e9 53 ff ff ff       	jmpq   10aea5 <_ZN11FAT32Driver11IsFATFormatEPc+0x95>
  10af52:	8b 45 fc             	mov    -0x4(%rbp),%eax
  10af55:	c9                   	leaveq 
  10af56:	c3                   	retq   
  10af57:	90                   	nop

000000000010af58 <_ZN11FAT32Driver18ConvertToFATFormatEPc>:
  10af58:	f3 0f 1e fa          	endbr64 
  10af5c:	55                   	push   %rbp
  10af5d:	48 89 e5             	mov    %rsp,%rbp
  10af60:	48 83 ec 30          	sub    $0x30,%rsp
  10af64:	48 89 7d d8          	mov    %rdi,-0x28(%rbp)
  10af68:	48 89 75 d0          	mov    %rsi,-0x30(%rbp)
  10af6c:	c7 45 fc 00 00 00 00 	movl   $0x0,-0x4(%rbp)
  10af73:	c7 45 f8 00 00 00 00 	movl   $0x0,-0x8(%rbp)
  10af7a:	83 7d f8 0b          	cmpl   $0xb,-0x8(%rbp)
  10af7e:	77 37                	ja     10afb7 <_ZN11FAT32Driver18ConvertToFATFormatEPc+0x5f>
  10af80:	8b 55 f8             	mov    -0x8(%rbp),%edx
  10af83:	48 8b 45 d0          	mov    -0x30(%rbp),%rax
  10af87:	48 01 d0             	add    %rdx,%rax
  10af8a:	0f b6 00             	movzbl (%rax),%eax
  10af8d:	88 45 f1             	mov    %al,-0xf(%rbp)
  10af90:	80 7d f1 60          	cmpb   $0x60,-0xf(%rbp)
  10af94:	7e 1b                	jle    10afb1 <_ZN11FAT32Driver18ConvertToFATFormatEPc+0x59>
  10af96:	80 7d f1 7a          	cmpb   $0x7a,-0xf(%rbp)
  10af9a:	7f 15                	jg     10afb1 <_ZN11FAT32Driver18ConvertToFATFormatEPc+0x59>
  10af9c:	0f b6 45 f1          	movzbl -0xf(%rbp),%eax
  10afa0:	8d 48 e0             	lea    -0x20(%rax),%ecx
  10afa3:	8b 55 f8             	mov    -0x8(%rbp),%edx
  10afa6:	48 8b 45 d0          	mov    -0x30(%rbp),%rax
  10afaa:	48 01 d0             	add    %rdx,%rax
  10afad:	89 ca                	mov    %ecx,%edx
  10afaf:	88 10                	mov    %dl,(%rax)
  10afb1:	83 45 f8 01          	addl   $0x1,-0x8(%rbp)
  10afb5:	eb c3                	jmp    10af7a <_ZN11FAT32Driver18ConvertToFATFormatEPc+0x22>
  10afb7:	48 c7 45 e4 00 00 00 	movq   $0x0,-0x1c(%rbp)
  10afbe:	00 
  10afbf:	c7 45 ec 00 00 00 00 	movl   $0x0,-0x14(%rbp)
  10afc6:	c6 45 f0 00          	movb   $0x0,-0x10(%rbp)
  10afca:	66 c7 45 f6 00 00    	movw   $0x0,-0xa(%rbp)
  10afd0:	c6 45 f5 00          	movb   $0x0,-0xb(%rbp)
  10afd4:	c7 45 fc 00 00 00 00 	movl   $0x0,-0x4(%rbp)
  10afdb:	83 7d fc 08          	cmpl   $0x8,-0x4(%rbp)
  10afdf:	77 5f                	ja     10b040 <_ZN11FAT32Driver18ConvertToFATFormatEPc+0xe8>
  10afe1:	8b 55 fc             	mov    -0x4(%rbp),%edx
  10afe4:	48 8b 45 d0          	mov    -0x30(%rbp),%rax
  10afe8:	48 01 d0             	add    %rdx,%rax
  10afeb:	0f b6 00             	movzbl (%rax),%eax
  10afee:	3c 2e                	cmp    $0x2e,%al
  10aff0:	74 11                	je     10b003 <_ZN11FAT32Driver18ConvertToFATFormatEPc+0xab>
  10aff2:	8b 55 fc             	mov    -0x4(%rbp),%edx
  10aff5:	48 8b 45 d0          	mov    -0x30(%rbp),%rax
  10aff9:	48 01 d0             	add    %rdx,%rax
  10affc:	0f b6 00             	movzbl (%rax),%eax
  10afff:	84 c0                	test   %al,%al
  10b001:	75 22                	jne    10b025 <_ZN11FAT32Driver18ConvertToFATFormatEPc+0xcd>
  10b003:	8b 45 fc             	mov    -0x4(%rbp),%eax
  10b006:	66 89 45 f6          	mov    %ax,-0xa(%rbp)
  10b00a:	8b 55 fc             	mov    -0x4(%rbp),%edx
  10b00d:	48 8b 45 d0          	mov    -0x30(%rbp),%rax
  10b011:	48 01 d0             	add    %rdx,%rax
  10b014:	0f b6 00             	movzbl (%rax),%eax
  10b017:	3c 2e                	cmp    $0x2e,%al
  10b019:	75 24                	jne    10b03f <_ZN11FAT32Driver18ConvertToFATFormatEPc+0xe7>
  10b01b:	83 45 fc 01          	addl   $0x1,-0x4(%rbp)
  10b01f:	c6 45 f5 01          	movb   $0x1,-0xb(%rbp)
  10b023:	eb 1a                	jmp    10b03f <_ZN11FAT32Driver18ConvertToFATFormatEPc+0xe7>
  10b025:	8b 55 fc             	mov    -0x4(%rbp),%edx
  10b028:	48 8b 45 d0          	mov    -0x30(%rbp),%rax
  10b02c:	48 01 d0             	add    %rdx,%rax
  10b02f:	0f b6 10             	movzbl (%rax),%edx
  10b032:	8b 45 fc             	mov    -0x4(%rbp),%eax
  10b035:	88 54 05 e4          	mov    %dl,-0x1c(%rbp,%rax,1)
  10b039:	83 45 fc 01          	addl   $0x1,-0x4(%rbp)
  10b03d:	eb 9c                	jmp    10afdb <_ZN11FAT32Driver18ConvertToFATFormatEPc+0x83>
  10b03f:	90                   	nop
  10b040:	83 7d fc 09          	cmpl   $0x9,-0x4(%rbp)
  10b044:	76 0d                	jbe    10b053 <_ZN11FAT32Driver18ConvertToFATFormatEPc+0xfb>
  10b046:	c7 45 fc 08 00 00 00 	movl   $0x8,-0x4(%rbp)
  10b04d:	66 c7 45 f6 08 00    	movw   $0x8,-0xa(%rbp)
  10b053:	66 c7 45 f2 08 00    	movw   $0x8,-0xe(%rbp)
  10b059:	66 83 7d f2 0a       	cmpw   $0xa,-0xe(%rbp)
  10b05e:	77 4c                	ja     10b0ac <_ZN11FAT32Driver18ConvertToFATFormatEPc+0x154>
  10b060:	8b 55 fc             	mov    -0x4(%rbp),%edx
  10b063:	48 8b 45 d0          	mov    -0x30(%rbp),%rax
  10b067:	48 01 d0             	add    %rdx,%rax
  10b06a:	0f b6 00             	movzbl (%rax),%eax
  10b06d:	84 c0                	test   %al,%al
  10b06f:	74 1f                	je     10b090 <_ZN11FAT32Driver18ConvertToFATFormatEPc+0x138>
  10b071:	80 7d f5 00          	cmpb   $0x0,-0xb(%rbp)
  10b075:	74 19                	je     10b090 <_ZN11FAT32Driver18ConvertToFATFormatEPc+0x138>
  10b077:	8b 55 fc             	mov    -0x4(%rbp),%edx
  10b07a:	48 8b 45 d0          	mov    -0x30(%rbp),%rax
  10b07e:	48 01 c2             	add    %rax,%rdx
  10b081:	0f b7 45 f2          	movzwl -0xe(%rbp),%eax
  10b085:	0f b6 12             	movzbl (%rdx),%edx
  10b088:	48 98                	cltq   
  10b08a:	88 54 05 e4          	mov    %dl,-0x1c(%rbp,%rax,1)
  10b08e:	eb 0b                	jmp    10b09b <_ZN11FAT32Driver18ConvertToFATFormatEPc+0x143>
  10b090:	0f b7 45 f2          	movzwl -0xe(%rbp),%eax
  10b094:	48 98                	cltq   
  10b096:	c6 44 05 e4 20       	movb   $0x20,-0x1c(%rbp,%rax,1)
  10b09b:	83 45 fc 01          	addl   $0x1,-0x4(%rbp)
  10b09f:	0f b7 45 f2          	movzwl -0xe(%rbp),%eax
  10b0a3:	83 c0 01             	add    $0x1,%eax
  10b0a6:	66 89 45 f2          	mov    %ax,-0xe(%rbp)
  10b0aa:	eb ad                	jmp    10b059 <_ZN11FAT32Driver18ConvertToFATFormatEPc+0x101>
  10b0ac:	0f b7 45 f6          	movzwl -0xa(%rbp),%eax
  10b0b0:	89 45 fc             	mov    %eax,-0x4(%rbp)
  10b0b3:	83 7d fc 07          	cmpl   $0x7,-0x4(%rbp)
  10b0b7:	77 0e                	ja     10b0c7 <_ZN11FAT32Driver18ConvertToFATFormatEPc+0x16f>
  10b0b9:	8b 45 fc             	mov    -0x4(%rbp),%eax
  10b0bc:	c6 44 05 e4 20       	movb   $0x20,-0x1c(%rbp,%rax,1)
  10b0c1:	83 45 fc 01          	addl   $0x1,-0x4(%rbp)
  10b0c5:	eb ec                	jmp    10b0b3 <_ZN11FAT32Driver18ConvertToFATFormatEPc+0x15b>
  10b0c7:	48 8d 55 e4          	lea    -0x1c(%rbp),%rdx
  10b0cb:	48 8b 45 d0          	mov    -0x30(%rbp),%rax
  10b0cf:	48 89 d6             	mov    %rdx,%rsi
  10b0d2:	48 89 c7             	mov    %rax,%rdi
  10b0d5:	e8 22 14 00 00       	callq  10c4fc <_Z6strcpyPcPKc>
  10b0da:	48 8b 45 d0          	mov    -0x30(%rbp),%rax
  10b0de:	c9                   	leaveq 
  10b0df:	c3                   	retq   

000000000010b0e0 <_ZN11FAT32Driver20ConvertFromFATFormatEPcS0_>:
  10b0e0:	f3 0f 1e fa          	endbr64 
  10b0e4:	55                   	push   %rbp
  10b0e5:	48 89 e5             	mov    %rsp,%rbp
  10b0e8:	48 83 ec 30          	sub    $0x30,%rsp
  10b0ec:	48 89 7d e8          	mov    %rdi,-0x18(%rbp)
  10b0f0:	48 89 75 e0          	mov    %rsi,-0x20(%rbp)
  10b0f4:	48 89 55 d8          	mov    %rdx,-0x28(%rbp)
  10b0f8:	48 8b 45 e0          	mov    -0x20(%rbp),%rax
  10b0fc:	0f b6 00             	movzbl (%rax),%eax
  10b0ff:	3c 2e                	cmp    $0x2e,%al
  10b101:	75 3f                	jne    10b142 <_ZN11FAT32Driver20ConvertFromFATFormatEPcS0_+0x62>
  10b103:	48 8b 45 e0          	mov    -0x20(%rbp),%rax
  10b107:	48 83 c0 01          	add    $0x1,%rax
  10b10b:	0f b6 00             	movzbl (%rax),%eax
  10b10e:	3c 2e                	cmp    $0x2e,%al
  10b110:	75 18                	jne    10b12a <_ZN11FAT32Driver20ConvertFromFATFormatEPcS0_+0x4a>
  10b112:	48 8b 45 d8          	mov    -0x28(%rbp),%rax
  10b116:	48 8d 35 f7 61 00 00 	lea    0x61f7(%rip),%rsi        # 111314 <_ZL8sc_ascii+0x2b4>
  10b11d:	48 89 c7             	mov    %rax,%rdi
  10b120:	e8 d7 13 00 00       	callq  10c4fc <_Z6strcpyPcPKc>
  10b125:	e9 18 01 00 00       	jmpq   10b242 <_ZN11FAT32Driver20ConvertFromFATFormatEPcS0_+0x162>
  10b12a:	48 8b 45 d8          	mov    -0x28(%rbp),%rax
  10b12e:	48 8d 35 e2 61 00 00 	lea    0x61e2(%rip),%rsi        # 111317 <_ZL8sc_ascii+0x2b7>
  10b135:	48 89 c7             	mov    %rax,%rdi
  10b138:	e8 bf 13 00 00       	callq  10c4fc <_Z6strcpyPcPKc>
  10b13d:	e9 00 01 00 00       	jmpq   10b242 <_ZN11FAT32Driver20ConvertFromFATFormatEPcS0_+0x162>
  10b142:	66 c7 45 fe 00 00    	movw   $0x0,-0x2(%rbp)
  10b148:	66 c7 45 fe 00 00    	movw   $0x0,-0x2(%rbp)
  10b14e:	66 83 7d fe 07       	cmpw   $0x7,-0x2(%rbp)
  10b153:	77 4a                	ja     10b19f <_ZN11FAT32Driver20ConvertFromFATFormatEPcS0_+0xbf>
  10b155:	0f b7 55 fe          	movzwl -0x2(%rbp),%edx
  10b159:	48 8b 45 e0          	mov    -0x20(%rbp),%rax
  10b15d:	48 01 d0             	add    %rdx,%rax
  10b160:	0f b6 00             	movzbl (%rax),%eax
  10b163:	3c 20                	cmp    $0x20,%al
  10b165:	75 10                	jne    10b177 <_ZN11FAT32Driver20ConvertFromFATFormatEPcS0_+0x97>
  10b167:	0f b7 55 fe          	movzwl -0x2(%rbp),%edx
  10b16b:	48 8b 45 d8          	mov    -0x28(%rbp),%rax
  10b16f:	48 01 d0             	add    %rdx,%rax
  10b172:	c6 00 2e             	movb   $0x2e,(%rax)
  10b175:	eb 28                	jmp    10b19f <_ZN11FAT32Driver20ConvertFromFATFormatEPcS0_+0xbf>
  10b177:	0f b7 55 fe          	movzwl -0x2(%rbp),%edx
  10b17b:	48 8b 45 e0          	mov    -0x20(%rbp),%rax
  10b17f:	48 01 d0             	add    %rdx,%rax
  10b182:	0f b7 4d fe          	movzwl -0x2(%rbp),%ecx
  10b186:	48 8b 55 d8          	mov    -0x28(%rbp),%rdx
  10b18a:	48 01 ca             	add    %rcx,%rdx
  10b18d:	0f b6 00             	movzbl (%rax),%eax
  10b190:	88 02                	mov    %al,(%rdx)
  10b192:	0f b7 45 fe          	movzwl -0x2(%rbp),%eax
  10b196:	83 c0 01             	add    $0x1,%eax
  10b199:	66 89 45 fe          	mov    %ax,-0x2(%rbp)
  10b19d:	eb af                	jmp    10b14e <_ZN11FAT32Driver20ConvertFromFATFormatEPcS0_+0x6e>
  10b19f:	66 83 7d fe 08       	cmpw   $0x8,-0x2(%rbp)
  10b1a4:	75 0e                	jne    10b1b4 <_ZN11FAT32Driver20ConvertFromFATFormatEPcS0_+0xd4>
  10b1a6:	0f b7 55 fe          	movzwl -0x2(%rbp),%edx
  10b1aa:	48 8b 45 d8          	mov    -0x28(%rbp),%rax
  10b1ae:	48 01 d0             	add    %rdx,%rax
  10b1b1:	c6 00 2e             	movb   $0x2e,(%rax)
  10b1b4:	66 c7 45 fc 08 00    	movw   $0x8,-0x4(%rbp)
  10b1ba:	66 c7 45 fc 08 00    	movw   $0x8,-0x4(%rbp)
  10b1c0:	66 83 7d fc 0a       	cmpw   $0xa,-0x4(%rbp)
  10b1c5:	77 4e                	ja     10b215 <_ZN11FAT32Driver20ConvertFromFATFormatEPcS0_+0x135>
  10b1c7:	66 83 45 fe 01       	addw   $0x1,-0x2(%rbp)
  10b1cc:	0f b7 55 fc          	movzwl -0x4(%rbp),%edx
  10b1d0:	48 8b 45 e0          	mov    -0x20(%rbp),%rax
  10b1d4:	48 01 d0             	add    %rdx,%rax
  10b1d7:	0f b6 00             	movzbl (%rax),%eax
  10b1da:	3c 20                	cmp    $0x20,%al
  10b1dc:	75 0e                	jne    10b1ec <_ZN11FAT32Driver20ConvertFromFATFormatEPcS0_+0x10c>
  10b1de:	66 83 7d fc 08       	cmpw   $0x8,-0x4(%rbp)
  10b1e3:	75 2f                	jne    10b214 <_ZN11FAT32Driver20ConvertFromFATFormatEPcS0_+0x134>
  10b1e5:	66 83 6d fe 02       	subw   $0x2,-0x2(%rbp)
  10b1ea:	eb 28                	jmp    10b214 <_ZN11FAT32Driver20ConvertFromFATFormatEPcS0_+0x134>
  10b1ec:	0f b7 55 fc          	movzwl -0x4(%rbp),%edx
  10b1f0:	48 8b 45 e0          	mov    -0x20(%rbp),%rax
  10b1f4:	48 01 d0             	add    %rdx,%rax
  10b1f7:	0f b7 4d fe          	movzwl -0x2(%rbp),%ecx
  10b1fb:	48 8b 55 d8          	mov    -0x28(%rbp),%rdx
  10b1ff:	48 01 ca             	add    %rcx,%rdx
  10b202:	0f b6 00             	movzbl (%rax),%eax
  10b205:	88 02                	mov    %al,(%rdx)
  10b207:	0f b7 45 fc          	movzwl -0x4(%rbp),%eax
  10b20b:	83 c0 01             	add    $0x1,%eax
  10b20e:	66 89 45 fc          	mov    %ax,-0x4(%rbp)
  10b212:	eb ac                	jmp    10b1c0 <_ZN11FAT32Driver20ConvertFromFATFormatEPcS0_+0xe0>
  10b214:	90                   	nop
  10b215:	66 83 45 fe 01       	addw   $0x1,-0x2(%rbp)
  10b21a:	66 83 7d fe 0b       	cmpw   $0xb,-0x2(%rbp)
  10b21f:	77 15                	ja     10b236 <_ZN11FAT32Driver20ConvertFromFATFormatEPcS0_+0x156>
  10b221:	0f b7 55 fe          	movzwl -0x2(%rbp),%edx
  10b225:	48 8b 45 d8          	mov    -0x28(%rbp),%rax
  10b229:	48 01 d0             	add    %rdx,%rax
  10b22c:	c6 00 20             	movb   $0x20,(%rax)
  10b22f:	66 83 45 fe 01       	addw   $0x1,-0x2(%rbp)
  10b234:	eb e4                	jmp    10b21a <_ZN11FAT32Driver20ConvertFromFATFormatEPcS0_+0x13a>
  10b236:	48 8b 45 d8          	mov    -0x28(%rbp),%rax
  10b23a:	48 83 c0 0c          	add    $0xc,%rax
  10b23e:	c6 00 00             	movb   $0x0,(%rax)
  10b241:	90                   	nop
  10b242:	c9                   	leaveq 
  10b243:	c3                   	retq   

000000000010b244 <_Z21InitialiseFilesystemsv>:
  10b244:	f3 0f 1e fa          	endbr64 
  10b248:	55                   	push   %rbp
  10b249:	48 89 e5             	mov    %rsp,%rbp
  10b24c:	ba 00 02 00 00       	mov    $0x200,%edx
  10b251:	be 00 00 00 00       	mov    $0x0,%esi
  10b256:	48 8d 3d a3 c3 00 00 	lea    0xc3a3(%rip),%rdi        # 117600 <filesystems>
  10b25d:	e8 e1 19 00 00       	callq  10cc43 <_Z6memsetPvim>
  10b262:	90                   	nop
  10b263:	5d                   	pop    %rbp
  10b264:	c3                   	retq   

000000000010b265 <_Z18RegisterFilesystemP10Filesystem>:
  10b265:	f3 0f 1e fa          	endbr64 
  10b269:	55                   	push   %rbp
  10b26a:	48 89 e5             	mov    %rsp,%rbp
  10b26d:	48 83 ec 20          	sub    $0x20,%rsp
  10b271:	48 89 7d e8          	mov    %rdi,-0x18(%rbp)
  10b275:	c7 45 fc 00 00 00 00 	movl   $0x0,-0x4(%rbp)
  10b27c:	83 7d fc 3f          	cmpl   $0x3f,-0x4(%rbp)
  10b280:	77 3d                	ja     10b2bf <_Z18RegisterFilesystemP10Filesystem+0x5a>
  10b282:	8b 45 fc             	mov    -0x4(%rbp),%eax
  10b285:	48 8d 14 c5 00 00 00 	lea    0x0(,%rax,8),%rdx
  10b28c:	00 
  10b28d:	48 8d 05 6c c3 00 00 	lea    0xc36c(%rip),%rax        # 117600 <filesystems>
  10b294:	48 8b 04 02          	mov    (%rdx,%rax,1),%rax
  10b298:	48 85 c0             	test   %rax,%rax
  10b29b:	75 1c                	jne    10b2b9 <_Z18RegisterFilesystemP10Filesystem+0x54>
  10b29d:	8b 45 fc             	mov    -0x4(%rbp),%eax
  10b2a0:	48 8d 0c c5 00 00 00 	lea    0x0(,%rax,8),%rcx
  10b2a7:	00 
  10b2a8:	48 8d 15 51 c3 00 00 	lea    0xc351(%rip),%rdx        # 117600 <filesystems>
  10b2af:	48 8b 45 e8          	mov    -0x18(%rbp),%rax
  10b2b3:	48 89 04 11          	mov    %rax,(%rcx,%rdx,1)
  10b2b7:	eb 18                	jmp    10b2d1 <_Z18RegisterFilesystemP10Filesystem+0x6c>
  10b2b9:	83 45 fc 01          	addl   $0x1,-0x4(%rbp)
  10b2bd:	eb bd                	jmp    10b27c <_Z18RegisterFilesystemP10Filesystem+0x17>
  10b2bf:	48 8d 3d 5a 60 00 00 	lea    0x605a(%rip),%rdi        # 111320 <_ZL8sc_ascii+0x2c0>
  10b2c6:	b8 00 00 00 00       	mov    $0x0,%eax
  10b2cb:	e8 34 15 00 00       	callq  10c804 <_Z7kprintfPKcz>
  10b2d0:	f4                   	hlt    
  10b2d1:	c9                   	leaveq 
  10b2d2:	c3                   	retq   

000000000010b2d3 <_Z20UnregisterFilesystemP10Filesystem>:
  10b2d3:	f3 0f 1e fa          	endbr64 
  10b2d7:	55                   	push   %rbp
  10b2d8:	48 89 e5             	mov    %rsp,%rbp
  10b2db:	48 83 ec 20          	sub    $0x20,%rsp
  10b2df:	48 89 7d e8          	mov    %rdi,-0x18(%rbp)
  10b2e3:	c7 45 fc 00 00 00 00 	movl   $0x0,-0x4(%rbp)
  10b2ea:	83 7d fc 3f          	cmpl   $0x3f,-0x4(%rbp)
  10b2ee:	77 3e                	ja     10b32e <_Z20UnregisterFilesystemP10Filesystem+0x5b>
  10b2f0:	8b 45 fc             	mov    -0x4(%rbp),%eax
  10b2f3:	48 8d 14 c5 00 00 00 	lea    0x0(,%rax,8),%rdx
  10b2fa:	00 
  10b2fb:	48 8d 05 fe c2 00 00 	lea    0xc2fe(%rip),%rax        # 117600 <filesystems>
  10b302:	48 8b 04 02          	mov    (%rdx,%rax,1),%rax
  10b306:	48 39 45 e8          	cmp    %rax,-0x18(%rbp)
  10b30a:	75 1c                	jne    10b328 <_Z20UnregisterFilesystemP10Filesystem+0x55>
  10b30c:	8b 45 fc             	mov    -0x4(%rbp),%eax
  10b30f:	48 8d 14 c5 00 00 00 	lea    0x0(,%rax,8),%rdx
  10b316:	00 
  10b317:	48 8d 05 e2 c2 00 00 	lea    0xc2e2(%rip),%rax        # 117600 <filesystems>
  10b31e:	48 c7 04 02 00 00 00 	movq   $0x0,(%rdx,%rax,1)
  10b325:	00 
  10b326:	eb 18                	jmp    10b340 <_Z20UnregisterFilesystemP10Filesystem+0x6d>
  10b328:	83 45 fc 01          	addl   $0x1,-0x4(%rbp)
  10b32c:	eb bc                	jmp    10b2ea <_Z20UnregisterFilesystemP10Filesystem+0x17>
  10b32e:	48 8d 3d 1b 60 00 00 	lea    0x601b(%rip),%rdi        # 111350 <_ZL8sc_ascii+0x2f0>
  10b335:	b8 00 00 00 00       	mov    $0x0,%eax
  10b33a:	e8 c5 14 00 00       	callq  10c804 <_Z7kprintfPKcz>
  10b33f:	f4                   	hlt    
  10b340:	c9                   	leaveq 
  10b341:	c3                   	retq   

000000000010b342 <_ZL14elf_check_fileP10Elf64_Ehdr>:
  10b342:	f3 0f 1e fa          	endbr64 
  10b346:	55                   	push   %rbp
  10b347:	48 89 e5             	mov    %rsp,%rbp
  10b34a:	48 83 ec 10          	sub    $0x10,%rsp
  10b34e:	48 89 7d f8          	mov    %rdi,-0x8(%rbp)
  10b352:	48 83 7d f8 00       	cmpq   $0x0,-0x8(%rbp)
  10b357:	75 07                	jne    10b360 <_ZL14elf_check_fileP10Elf64_Ehdr+0x1e>
  10b359:	b8 00 00 00 00       	mov    $0x0,%eax
  10b35e:	eb 78                	jmp    10b3d8 <_ZL14elf_check_fileP10Elf64_Ehdr+0x96>
  10b360:	48 8b 45 f8          	mov    -0x8(%rbp),%rax
  10b364:	ba 04 00 00 00       	mov    $0x4,%edx
  10b369:	48 8d 35 0a 60 00 00 	lea    0x600a(%rip),%rsi        # 11137a <_ZL8sc_ascii+0x31a>
  10b370:	48 89 c7             	mov    %rax,%rdi
  10b373:	e8 0a 19 00 00       	callq  10cc82 <_Z6memcmpPvS_m>
  10b378:	85 c0                	test   %eax,%eax
  10b37a:	75 40                	jne    10b3bc <_ZL14elf_check_fileP10Elf64_Ehdr+0x7a>
  10b37c:	48 8b 45 f8          	mov    -0x8(%rbp),%rax
  10b380:	0f b6 40 04          	movzbl 0x4(%rax),%eax
  10b384:	3c 02                	cmp    $0x2,%al
  10b386:	75 34                	jne    10b3bc <_ZL14elf_check_fileP10Elf64_Ehdr+0x7a>
  10b388:	48 8b 45 f8          	mov    -0x8(%rbp),%rax
  10b38c:	0f b6 40 05          	movzbl 0x5(%rax),%eax
  10b390:	3c 01                	cmp    $0x1,%al
  10b392:	75 28                	jne    10b3bc <_ZL14elf_check_fileP10Elf64_Ehdr+0x7a>
  10b394:	48 8b 45 f8          	mov    -0x8(%rbp),%rax
  10b398:	0f b7 40 10          	movzwl 0x10(%rax),%eax
  10b39c:	66 83 f8 02          	cmp    $0x2,%ax
  10b3a0:	75 1a                	jne    10b3bc <_ZL14elf_check_fileP10Elf64_Ehdr+0x7a>
  10b3a2:	48 8b 45 f8          	mov    -0x8(%rbp),%rax
  10b3a6:	0f b7 40 12          	movzwl 0x12(%rax),%eax
  10b3aa:	66 83 f8 3e          	cmp    $0x3e,%ax
  10b3ae:	75 0c                	jne    10b3bc <_ZL14elf_check_fileP10Elf64_Ehdr+0x7a>
  10b3b0:	48 8b 45 f8          	mov    -0x8(%rbp),%rax
  10b3b4:	8b 40 14             	mov    0x14(%rax),%eax
  10b3b7:	83 f8 01             	cmp    $0x1,%eax
  10b3ba:	74 07                	je     10b3c3 <_ZL14elf_check_fileP10Elf64_Ehdr+0x81>
  10b3bc:	b8 01 00 00 00       	mov    $0x1,%eax
  10b3c1:	eb 05                	jmp    10b3c8 <_ZL14elf_check_fileP10Elf64_Ehdr+0x86>
  10b3c3:	b8 00 00 00 00       	mov    $0x0,%eax
  10b3c8:	84 c0                	test   %al,%al
  10b3ca:	74 07                	je     10b3d3 <_ZL14elf_check_fileP10Elf64_Ehdr+0x91>
  10b3cc:	b8 00 00 00 00       	mov    $0x0,%eax
  10b3d1:	eb 05                	jmp    10b3d8 <_ZL14elf_check_fileP10Elf64_Ehdr+0x96>
  10b3d3:	b8 01 00 00 00       	mov    $0x1,%eax
  10b3d8:	c9                   	leaveq 
  10b3d9:	c3                   	retq   

000000000010b3da <_Z11LoadProgramPKcPm>:
  10b3da:	f3 0f 1e fa          	endbr64 
  10b3de:	55                   	push   %rbp
  10b3df:	48 89 e5             	mov    %rsp,%rbp
  10b3e2:	48 83 ec 40          	sub    $0x40,%rsp
  10b3e6:	48 89 7d c8          	mov    %rdi,-0x38(%rbp)
  10b3ea:	48 89 75 c0          	mov    %rsi,-0x40(%rbp)
  10b3ee:	48 8b 05 0b c2 00 00 	mov    0xc20b(%rip),%rax        # 117600 <filesystems>
  10b3f5:	48 89 45 f8          	mov    %rax,-0x8(%rbp)
  10b3f9:	48 8b 45 f8          	mov    -0x8(%rbp),%rax
  10b3fd:	48 8b 00             	mov    (%rax),%rax
  10b400:	48 8b 08             	mov    (%rax),%rcx
  10b403:	48 8b 55 c8          	mov    -0x38(%rbp),%rdx
  10b407:	48 8b 45 f8          	mov    -0x8(%rbp),%rax
  10b40b:	48 89 d6             	mov    %rdx,%rsi
  10b40e:	48 89 c7             	mov    %rax,%rdi
  10b411:	ff d1                	callq  *%rcx
  10b413:	48 89 45 f0          	mov    %rax,-0x10(%rbp)
  10b417:	48 83 7d f0 00       	cmpq   $0x0,-0x10(%rbp)
  10b41c:	75 22                	jne    10b440 <_Z11LoadProgramPKcPm+0x66>
  10b41e:	48 8b 45 c8          	mov    -0x38(%rbp),%rax
  10b422:	48 89 c6             	mov    %rax,%rsi
  10b425:	48 8d 3d 53 5f 00 00 	lea    0x5f53(%rip),%rdi        # 11137f <_ZL8sc_ascii+0x31f>
  10b42c:	b8 00 00 00 00       	mov    $0x0,%eax
  10b431:	e8 ce 13 00 00       	callq  10c804 <_Z7kprintfPKcz>
  10b436:	b8 00 00 00 00       	mov    $0x0,%eax
  10b43b:	e9 a8 00 00 00       	jmpq   10b4e8 <_Z11LoadProgramPKcPm+0x10e>
  10b440:	48 8b 45 f0          	mov    -0x10(%rbp),%rax
  10b444:	48 8b 00             	mov    (%rax),%rax
  10b447:	48 8b 10             	mov    (%rax),%rdx
  10b44a:	48 8b 45 f0          	mov    -0x10(%rbp),%rax
  10b44e:	48 89 c7             	mov    %rax,%rdi
  10b451:	ff d2                	callq  *%rdx
  10b453:	48 89 45 e8          	mov    %rax,-0x18(%rbp)
  10b457:	48 8b 45 e8          	mov    -0x18(%rbp),%rax
  10b45b:	48 89 c7             	mov    %rax,%rdi
  10b45e:	e8 f7 19 00 00       	callq  10ce5a <_Z7kmallocm>
  10b463:	48 89 45 e0          	mov    %rax,-0x20(%rbp)
  10b467:	48 8b 45 f8          	mov    -0x8(%rbp),%rax
  10b46b:	48 8b 00             	mov    (%rax),%rax
  10b46e:	48 83 c0 38          	add    $0x38,%rax
  10b472:	4c 8b 00             	mov    (%rax),%r8
  10b475:	48 8b 55 e0          	mov    -0x20(%rbp),%rdx
  10b479:	48 8b 4d e8          	mov    -0x18(%rbp),%rcx
  10b47d:	48 8b 75 f0          	mov    -0x10(%rbp),%rsi
  10b481:	48 8b 45 f8          	mov    -0x8(%rbp),%rax
  10b485:	48 89 c7             	mov    %rax,%rdi
  10b488:	41 ff d0             	callq  *%r8
  10b48b:	48 8b 45 f8          	mov    -0x8(%rbp),%rax
  10b48f:	48 8b 00             	mov    (%rax),%rax
  10b492:	48 83 c0 08          	add    $0x8,%rax
  10b496:	48 8b 08             	mov    (%rax),%rcx
  10b499:	48 8b 55 f0          	mov    -0x10(%rbp),%rdx
  10b49d:	48 8b 45 f8          	mov    -0x8(%rbp),%rax
  10b4a1:	48 89 d6             	mov    %rdx,%rsi
  10b4a4:	48 89 c7             	mov    %rax,%rdi
  10b4a7:	ff d1                	callq  *%rcx
  10b4a9:	48 8b 45 c0          	mov    -0x40(%rbp),%rax
  10b4ad:	48 8b 55 e0          	mov    -0x20(%rbp),%rdx
  10b4b1:	48 89 10             	mov    %rdx,(%rax)
  10b4b4:	48 8b 45 e0          	mov    -0x20(%rbp),%rax
  10b4b8:	48 89 45 d8          	mov    %rax,-0x28(%rbp)
  10b4bc:	48 8b 45 d8          	mov    -0x28(%rbp),%rax
  10b4c0:	48 89 c7             	mov    %rax,%rdi
  10b4c3:	e8 7a fe ff ff       	callq  10b342 <_ZL14elf_check_fileP10Elf64_Ehdr>
  10b4c8:	84 c0                	test   %al,%al
  10b4ca:	0f 94 c0             	sete   %al
  10b4cd:	84 c0                	test   %al,%al
  10b4cf:	74 13                	je     10b4e4 <_Z11LoadProgramPKcPm+0x10a>
  10b4d1:	48 8b 45 e0          	mov    -0x20(%rbp),%rax
  10b4d5:	48 89 c7             	mov    %rax,%rdi
  10b4d8:	e8 d5 18 00 00       	callq  10cdb2 <_Z5kfreePv>
  10b4dd:	b8 00 00 00 00       	mov    $0x0,%eax
  10b4e2:	eb 04                	jmp    10b4e8 <_Z11LoadProgramPKcPm+0x10e>
  10b4e4:	48 8b 45 d8          	mov    -0x28(%rbp),%rax
  10b4e8:	c9                   	leaveq 
  10b4e9:	c3                   	retq   

000000000010b4ea <_Z14PrepareProgramP10Elf64_Ehdrm>:
  10b4ea:	f3 0f 1e fa          	endbr64 
  10b4ee:	55                   	push   %rbp
  10b4ef:	48 89 e5             	mov    %rsp,%rbp
  10b4f2:	48 83 ec 50          	sub    $0x50,%rsp
  10b4f6:	48 89 7d b8          	mov    %rdi,-0x48(%rbp)
  10b4fa:	48 89 75 b0          	mov    %rsi,-0x50(%rbp)
  10b4fe:	48 8b 45 b8          	mov    -0x48(%rbp),%rax
  10b502:	48 8b 50 20          	mov    0x20(%rax),%rdx
  10b506:	48 8b 45 b0          	mov    -0x50(%rbp),%rax
  10b50a:	48 01 d0             	add    %rdx,%rax
  10b50d:	48 89 45 e8          	mov    %rax,-0x18(%rbp)
  10b511:	48 8b 45 e8          	mov    -0x18(%rbp),%rax
  10b515:	48 89 45 f8          	mov    %rax,-0x8(%rbp)
  10b519:	48 8b 45 b8          	mov    -0x48(%rbp),%rax
  10b51d:	0f b7 40 38          	movzwl 0x38(%rax),%eax
  10b521:	0f b7 d0             	movzwl %ax,%edx
  10b524:	48 8b 45 b8          	mov    -0x48(%rbp),%rax
  10b528:	0f b7 40 36          	movzwl 0x36(%rax),%eax
  10b52c:	0f b7 c0             	movzwl %ax,%eax
  10b52f:	0f af c2             	imul   %edx,%eax
  10b532:	48 63 d0             	movslq %eax,%rdx
  10b535:	48 8b 45 e8          	mov    -0x18(%rbp),%rax
  10b539:	48 01 c2             	add    %rax,%rdx
  10b53c:	48 8b 45 f8          	mov    -0x8(%rbp),%rax
  10b540:	48 39 c2             	cmp    %rax,%rdx
  10b543:	0f 86 da 00 00 00    	jbe    10b623 <_Z14PrepareProgramP10Elf64_Ehdrm+0x139>
  10b549:	48 8b 45 f8          	mov    -0x8(%rbp),%rax
  10b54d:	8b 00                	mov    (%rax),%eax
  10b54f:	83 f8 01             	cmp    $0x1,%eax
  10b552:	0f 85 b0 00 00 00    	jne    10b608 <_Z14PrepareProgramP10Elf64_Ehdrm+0x11e>
  10b558:	48 8b 45 f8          	mov    -0x8(%rbp),%rax
  10b55c:	48 8b 40 28          	mov    0x28(%rax),%rax
  10b560:	48 05 ff 0f 00 00    	add    $0xfff,%rax
  10b566:	48 c1 e8 0c          	shr    $0xc,%rax
  10b56a:	89 45 e4             	mov    %eax,-0x1c(%rbp)
  10b56d:	48 8b 45 f8          	mov    -0x8(%rbp),%rax
  10b571:	48 8b 40 18          	mov    0x18(%rax),%rax
  10b575:	48 89 45 d8          	mov    %rax,-0x28(%rbp)
  10b579:	48 8b 45 d8          	mov    -0x28(%rbp),%rax
  10b57d:	48 89 45 f0          	mov    %rax,-0x10(%rbp)
  10b581:	8b 45 e4             	mov    -0x1c(%rbp),%eax
  10b584:	c1 e0 0c             	shl    $0xc,%eax
  10b587:	89 c2                	mov    %eax,%edx
  10b589:	48 8b 45 d8          	mov    -0x28(%rbp),%rax
  10b58d:	48 01 d0             	add    %rdx,%rax
  10b590:	48 39 45 f0          	cmp    %rax,-0x10(%rbp)
  10b594:	73 26                	jae    10b5bc <_Z14PrepareProgramP10Elf64_Ehdrm+0xd2>
  10b596:	48 8b 55 f0          	mov    -0x10(%rbp),%rdx
  10b59a:	48 8b 45 f0          	mov    -0x10(%rbp),%rax
  10b59e:	b9 03 00 00 00       	mov    $0x3,%ecx
  10b5a3:	48 89 c6             	mov    %rax,%rsi
  10b5a6:	48 8d 3d 9b 9a 00 00 	lea    0x9a9b(%rip),%rdi        # 115048 <KernelDirectory>
  10b5ad:	e8 24 4b ff ff       	callq  1000d6 <_ZN16PageTableManager9MapMemoryEmmm>
  10b5b2:	48 81 45 f0 00 10 00 	addq   $0x1000,-0x10(%rbp)
  10b5b9:	00 
  10b5ba:	eb c5                	jmp    10b581 <_Z14PrepareProgramP10Elf64_Ehdrm+0x97>
  10b5bc:	48 8b 45 f8          	mov    -0x8(%rbp),%rax
  10b5c0:	48 8b 50 08          	mov    0x8(%rax),%rdx
  10b5c4:	48 8b 45 b0          	mov    -0x50(%rbp),%rax
  10b5c8:	48 01 d0             	add    %rdx,%rax
  10b5cb:	48 89 45 d0          	mov    %rax,-0x30(%rbp)
  10b5cf:	48 8b 45 f8          	mov    -0x8(%rbp),%rax
  10b5d3:	48 8b 40 20          	mov    0x20(%rax),%rax
  10b5d7:	48 89 45 c8          	mov    %rax,-0x38(%rbp)
  10b5db:	48 8b 45 d8          	mov    -0x28(%rbp),%rax
  10b5df:	48 8b 55 c8          	mov    -0x38(%rbp),%rdx
  10b5e3:	be 00 00 00 00       	mov    $0x0,%esi
  10b5e8:	48 89 c7             	mov    %rax,%rdi
  10b5eb:	e8 53 16 00 00       	callq  10cc43 <_Z6memsetPvim>
  10b5f0:	48 8b 4d d0          	mov    -0x30(%rbp),%rcx
  10b5f4:	48 8b 45 d8          	mov    -0x28(%rbp),%rax
  10b5f8:	48 8b 55 c8          	mov    -0x38(%rbp),%rdx
  10b5fc:	48 89 ce             	mov    %rcx,%rsi
  10b5ff:	48 89 c7             	mov    %rax,%rdi
  10b602:	e8 fa 15 00 00       	callq  10cc01 <_Z6memcpyPvPKvm>
  10b607:	90                   	nop
  10b608:	48 8b 45 b8          	mov    -0x48(%rbp),%rax
  10b60c:	0f b7 40 36          	movzwl 0x36(%rax),%eax
  10b610:	0f b7 d0             	movzwl %ax,%edx
  10b613:	48 8b 45 f8          	mov    -0x8(%rbp),%rax
  10b617:	48 01 d0             	add    %rdx,%rax
  10b61a:	48 89 45 f8          	mov    %rax,-0x8(%rbp)
  10b61e:	e9 f6 fe ff ff       	jmpq   10b519 <_Z14PrepareProgramP10Elf64_Ehdrm+0x2f>
  10b623:	90                   	nop
  10b624:	c9                   	leaveq 
  10b625:	c3                   	retq   

000000000010b626 <_Z12task_confirmv>:
  10b626:	f3 0f 1e fa          	endbr64 
  10b62a:	55                   	push   %rbp
  10b62b:	48 89 e5             	mov    %rsp,%rbp
  10b62e:	48 8d 3d 63 5d 00 00 	lea    0x5d63(%rip),%rdi        # 111398 <_ZL8sc_ascii+0x338>
  10b635:	b8 00 00 00 00       	mov    $0x0,%eax
  10b63a:	e8 c5 11 00 00       	callq  10c804 <_Z7kprintfPKcz>
  10b63f:	e8 3f 05 00 00       	callq  10bb83 <_Z5_Killv>
  10b644:	90                   	nop
  10b645:	5d                   	pop    %rbp
  10b646:	c3                   	retq   

000000000010b647 <_Z11idle_threadv>:
  10b647:	f3 0f 1e fa          	endbr64 
  10b64b:	55                   	push   %rbp
  10b64c:	48 89 e5             	mov    %rsp,%rbp
  10b64f:	e8 e4 63 ff ff       	callq  101a38 <_Z13EnableTaskingv>
  10b654:	c6 05 bd c1 00 00 01 	movb   $0x1,0xc1bd(%rip)        # 117818 <__enabled>
  10b65b:	f4                   	hlt    
  10b65c:	eb fd                	jmp    10b65b <_Z11idle_threadv+0x14>

000000000010b65e <_ZN7ProcessC1EPKcPv>:
  10b65e:	f3 0f 1e fa          	endbr64 
  10b662:	55                   	push   %rbp
  10b663:	48 89 e5             	mov    %rsp,%rbp
  10b666:	48 83 ec 30          	sub    $0x30,%rsp
  10b66a:	48 89 7d e8          	mov    %rdi,-0x18(%rbp)
  10b66e:	48 89 75 e0          	mov    %rsi,-0x20(%rbp)
  10b672:	48 89 55 d8          	mov    %rdx,-0x28(%rbp)
  10b676:	48 8b 45 e8          	mov    -0x18(%rbp),%rax
  10b67a:	48 8b 55 e0          	mov    -0x20(%rbp),%rdx
  10b67e:	48 89 90 30 01 00 00 	mov    %rdx,0x130(%rax)
  10b685:	48 8b 05 84 c1 00 00 	mov    0xc184(%rip),%rax        # 117810 <next_pid>
  10b68c:	48 83 c0 01          	add    $0x1,%rax
  10b690:	48 89 05 79 c1 00 00 	mov    %rax,0xc179(%rip)        # 117810 <next_pid>
  10b697:	48 8b 15 72 c1 00 00 	mov    0xc172(%rip),%rdx        # 117810 <next_pid>
  10b69e:	48 8b 45 e8          	mov    -0x18(%rbp),%rax
  10b6a2:	48 89 50 08          	mov    %rdx,0x8(%rax)
  10b6a6:	48 8b 45 e8          	mov    -0x18(%rbp),%rax
  10b6aa:	48 c7 40 20 00 00 00 	movq   $0x0,0x20(%rax)
  10b6b1:	00 
  10b6b2:	48 8b 55 d8          	mov    -0x28(%rbp),%rdx
  10b6b6:	48 8b 45 e8          	mov    -0x18(%rbp),%rax
  10b6ba:	48 89 50 18          	mov    %rdx,0x18(%rax)
  10b6be:	48 8b 45 e8          	mov    -0x18(%rbp),%rax
  10b6c2:	48 c7 80 38 01 00 00 	movq   $0x0,0x138(%rax)
  10b6c9:	00 00 00 00 
  10b6cd:	bf 00 10 00 00       	mov    $0x1000,%edi
  10b6d2:	e8 83 17 00 00       	callq  10ce5a <_Z7kmallocm>
  10b6d7:	48 89 c2             	mov    %rax,%rdx
  10b6da:	48 8b 45 e8          	mov    -0x18(%rbp),%rax
  10b6de:	48 89 50 28          	mov    %rdx,0x28(%rax)
  10b6e2:	48 8b 45 e8          	mov    -0x18(%rbp),%rax
  10b6e6:	48 8b 40 28          	mov    0x28(%rax),%rax
  10b6ea:	48 05 00 10 00 00    	add    $0x1000,%rax
  10b6f0:	48 89 45 f8          	mov    %rax,-0x8(%rbp)
  10b6f4:	48 8b 45 f8          	mov    -0x8(%rbp),%rax
  10b6f8:	48 89 45 f0          	mov    %rax,-0x10(%rbp)
  10b6fc:	48 83 6d f8 08       	subq   $0x8,-0x8(%rbp)
  10b701:	48 8b 45 f8          	mov    -0x8(%rbp),%rax
  10b705:	48 c7 00 10 00 00 00 	movq   $0x10,(%rax)
  10b70c:	48 83 6d f8 08       	subq   $0x8,-0x8(%rbp)
  10b711:	48 8b 55 f8          	mov    -0x8(%rbp),%rdx
  10b715:	48 8b 45 f8          	mov    -0x8(%rbp),%rax
  10b719:	48 89 10             	mov    %rdx,(%rax)
  10b71c:	48 83 6d f8 08       	subq   $0x8,-0x8(%rbp)
  10b721:	48 8b 45 f8          	mov    -0x8(%rbp),%rax
  10b725:	48 c7 00 02 02 00 00 	movq   $0x202,(%rax)
  10b72c:	48 83 6d f8 08       	subq   $0x8,-0x8(%rbp)
  10b731:	48 8b 45 f8          	mov    -0x8(%rbp),%rax
  10b735:	48 c7 00 08 00 00 00 	movq   $0x8,(%rax)
  10b73c:	48 83 6d f8 08       	subq   $0x8,-0x8(%rbp)
  10b741:	48 8b 55 d8          	mov    -0x28(%rbp),%rdx
  10b745:	48 8b 45 f8          	mov    -0x8(%rbp),%rax
  10b749:	48 89 10             	mov    %rdx,(%rax)
  10b74c:	48 83 6d f8 08       	subq   $0x8,-0x8(%rbp)
  10b751:	48 8b 45 f8          	mov    -0x8(%rbp),%rax
  10b755:	48 c7 00 00 00 00 00 	movq   $0x0,(%rax)
  10b75c:	48 83 6d f8 08       	subq   $0x8,-0x8(%rbp)
  10b761:	48 8b 45 f8          	mov    -0x8(%rbp),%rax
  10b765:	48 c7 00 00 00 00 00 	movq   $0x0,(%rax)
  10b76c:	48 83 6d f8 08       	subq   $0x8,-0x8(%rbp)
  10b771:	48 8b 45 f8          	mov    -0x8(%rbp),%rax
  10b775:	48 c7 00 00 00 00 00 	movq   $0x0,(%rax)
  10b77c:	48 83 6d f8 08       	subq   $0x8,-0x8(%rbp)
  10b781:	48 8b 45 f8          	mov    -0x8(%rbp),%rax
  10b785:	48 c7 00 00 00 00 00 	movq   $0x0,(%rax)
  10b78c:	48 83 6d f8 08       	subq   $0x8,-0x8(%rbp)
  10b791:	48 8b 45 f8          	mov    -0x8(%rbp),%rax
  10b795:	48 c7 00 00 00 00 00 	movq   $0x0,(%rax)
  10b79c:	48 83 6d f8 08       	subq   $0x8,-0x8(%rbp)
  10b7a1:	48 8b 45 f8          	mov    -0x8(%rbp),%rax
  10b7a5:	48 c7 00 00 00 00 00 	movq   $0x0,(%rax)
  10b7ac:	48 83 6d f8 08       	subq   $0x8,-0x8(%rbp)
  10b7b1:	48 8b 45 f8          	mov    -0x8(%rbp),%rax
  10b7b5:	48 c7 00 00 00 00 00 	movq   $0x0,(%rax)
  10b7bc:	48 83 6d f8 08       	subq   $0x8,-0x8(%rbp)
  10b7c1:	48 8b 45 f8          	mov    -0x8(%rbp),%rax
  10b7c5:	48 c7 00 00 00 00 00 	movq   $0x0,(%rax)
  10b7cc:	48 83 6d f8 08       	subq   $0x8,-0x8(%rbp)
  10b7d1:	48 8b 45 f8          	mov    -0x8(%rbp),%rax
  10b7d5:	48 c7 00 00 00 00 00 	movq   $0x0,(%rax)
  10b7dc:	48 83 6d f8 08       	subq   $0x8,-0x8(%rbp)
  10b7e1:	48 8b 45 f8          	mov    -0x8(%rbp),%rax
  10b7e5:	48 c7 00 00 00 00 00 	movq   $0x0,(%rax)
  10b7ec:	48 83 6d f8 08       	subq   $0x8,-0x8(%rbp)
  10b7f1:	48 8b 45 f8          	mov    -0x8(%rbp),%rax
  10b7f5:	48 c7 00 00 00 00 00 	movq   $0x0,(%rax)
  10b7fc:	48 83 6d f8 08       	subq   $0x8,-0x8(%rbp)
  10b801:	48 8b 45 f8          	mov    -0x8(%rbp),%rax
  10b805:	48 c7 00 00 00 00 00 	movq   $0x0,(%rax)
  10b80c:	48 83 6d f8 08       	subq   $0x8,-0x8(%rbp)
  10b811:	48 8b 45 f8          	mov    -0x8(%rbp),%rax
  10b815:	48 c7 00 00 00 00 00 	movq   $0x0,(%rax)
  10b81c:	48 83 6d f8 08       	subq   $0x8,-0x8(%rbp)
  10b821:	48 8b 45 f8          	mov    -0x8(%rbp),%rax
  10b825:	48 c7 00 00 00 00 00 	movq   $0x0,(%rax)
  10b82c:	48 83 6d f8 08       	subq   $0x8,-0x8(%rbp)
  10b831:	48 8b 45 f8          	mov    -0x8(%rbp),%rax
  10b835:	48 8b 55 f0          	mov    -0x10(%rbp),%rdx
  10b839:	48 89 10             	mov    %rdx,(%rax)
  10b83c:	48 83 6d f8 08       	subq   $0x8,-0x8(%rbp)
  10b841:	48 8b 45 f8          	mov    -0x8(%rbp),%rax
  10b845:	48 c7 00 00 00 00 00 	movq   $0x0,(%rax)
  10b84c:	48 83 6d f8 08       	subq   $0x8,-0x8(%rbp)
  10b851:	48 8b 45 f8          	mov    -0x8(%rbp),%rax
  10b855:	48 c7 00 00 00 00 00 	movq   $0x0,(%rax)
  10b85c:	48 83 6d f8 08       	subq   $0x8,-0x8(%rbp)
  10b861:	48 8b 45 f8          	mov    -0x8(%rbp),%rax
  10b865:	48 c7 00 00 00 00 00 	movq   $0x0,(%rax)
  10b86c:	48 81 6d f8 00 01 00 	subq   $0x100,-0x8(%rbp)
  10b873:	00 
  10b874:	48 8b 45 f8          	mov    -0x8(%rbp),%rax
  10b878:	ba 00 01 00 00       	mov    $0x100,%edx
  10b87d:	be 00 00 00 00       	mov    $0x0,%esi
  10b882:	48 89 c7             	mov    %rax,%rdi
  10b885:	e8 b9 13 00 00       	callq  10cc43 <_Z6memsetPvim>
  10b88a:	48 8b 55 f8          	mov    -0x8(%rbp),%rdx
  10b88e:	48 8b 45 e8          	mov    -0x18(%rbp),%rax
  10b892:	48 89 50 10          	mov    %rdx,0x10(%rax)
  10b896:	48 8b 45 e8          	mov    -0x18(%rbp),%rax
  10b89a:	48 83 c0 30          	add    $0x30,%rax
  10b89e:	ba 00 01 00 00       	mov    $0x100,%edx
  10b8a3:	be 00 00 00 00       	mov    $0x0,%esi
  10b8a8:	48 89 c7             	mov    %rax,%rdi
  10b8ab:	e8 93 13 00 00       	callq  10cc43 <_Z6memsetPvim>
  10b8b0:	48 8b 45 e8          	mov    -0x18(%rbp),%rax
  10b8b4:	48 83 c0 30          	add    $0x30,%rax
  10b8b8:	48 8d 35 ee 5a 00 00 	lea    0x5aee(%rip),%rsi        # 1113ad <_ZL8sc_ascii+0x34d>
  10b8bf:	48 89 c7             	mov    %rax,%rdi
  10b8c2:	e8 35 0c 00 00       	callq  10c4fc <_Z6strcpyPcPKc>
  10b8c7:	48 8b 05 82 97 00 00 	mov    0x9782(%rip),%rax        # 115050 <CurrentDirectory>
  10b8ce:	48 89 c7             	mov    %rax,%rdi
  10b8d1:	e8 bc 4b ff ff       	callq  100492 <_ZN16PageTableManager5CloneEv>
  10b8d6:	48 8b 55 e8          	mov    -0x18(%rbp),%rdx
  10b8da:	48 89 02             	mov    %rax,(%rdx)
  10b8dd:	90                   	nop
  10b8de:	c9                   	leaveq 
  10b8df:	c3                   	retq   

000000000010b8e0 <_ZN7ProcessD1Ev>:
  10b8e0:	f3 0f 1e fa          	endbr64 
  10b8e4:	55                   	push   %rbp
  10b8e5:	48 89 e5             	mov    %rsp,%rbp
  10b8e8:	48 83 ec 10          	sub    $0x10,%rsp
  10b8ec:	48 89 7d f8          	mov    %rdi,-0x8(%rbp)
  10b8f0:	48 8b 45 f8          	mov    -0x8(%rbp),%rax
  10b8f4:	48 8b 00             	mov    (%rax),%rax
  10b8f7:	48 85 c0             	test   %rax,%rax
  10b8fa:	74 0d                	je     10b909 <_ZN7ProcessD1Ev+0x29>
  10b8fc:	be 08 00 00 00       	mov    $0x8,%esi
  10b901:	48 89 c7             	mov    %rax,%rdi
  10b904:	e8 4e 81 ff ff       	callq  103a57 <_ZdlPvm>
  10b909:	48 8b 45 f8          	mov    -0x8(%rbp),%rax
  10b90d:	48 8b 40 28          	mov    0x28(%rax),%rax
  10b911:	48 89 c7             	mov    %rax,%rdi
  10b914:	e8 99 14 00 00       	callq  10cdb2 <_Z5kfreePv>
  10b919:	90                   	nop
  10b91a:	c9                   	leaveq 
  10b91b:	c3                   	retq   

000000000010b91c <_ZN7Process6NotifyEi>:
  10b91c:	f3 0f 1e fa          	endbr64 
  10b920:	55                   	push   %rbp
  10b921:	48 89 e5             	mov    %rsp,%rbp
  10b924:	48 83 ec 10          	sub    $0x10,%rsp
  10b928:	48 89 7d f8          	mov    %rdi,-0x8(%rbp)
  10b92c:	89 75 f4             	mov    %esi,-0xc(%rbp)
  10b92f:	83 7d f4 03          	cmpl   $0x3,-0xc(%rbp)
  10b933:	74 42                	je     10b977 <_ZN7Process6NotifyEi+0x5b>
  10b935:	83 7d f4 03          	cmpl   $0x3,-0xc(%rbp)
  10b939:	7f 52                	jg     10b98d <_ZN7Process6NotifyEi+0x71>
  10b93b:	83 7d f4 01          	cmpl   $0x1,-0xc(%rbp)
  10b93f:	74 08                	je     10b949 <_ZN7Process6NotifyEi+0x2d>
  10b941:	83 7d f4 02          	cmpl   $0x2,-0xc(%rbp)
  10b945:	74 1a                	je     10b961 <_ZN7Process6NotifyEi+0x45>
  10b947:	eb 44                	jmp    10b98d <_ZN7Process6NotifyEi+0x71>
  10b949:	48 8d 3d 60 5a 00 00 	lea    0x5a60(%rip),%rdi        # 1113b0 <_ZL8sc_ascii+0x350>
  10b950:	b8 00 00 00 00       	mov    $0x0,%eax
  10b955:	e8 aa 0e 00 00       	callq  10c804 <_Z7kprintfPKcz>
  10b95a:	e8 24 02 00 00       	callq  10bb83 <_Z5_Killv>
  10b95f:	eb 3e                	jmp    10b99f <_ZN7Process6NotifyEi+0x83>
  10b961:	48 8d 3d 68 5a 00 00 	lea    0x5a68(%rip),%rdi        # 1113d0 <_ZL8sc_ascii+0x370>
  10b968:	b8 00 00 00 00       	mov    $0x0,%eax
  10b96d:	e8 92 0e 00 00       	callq  10c804 <_Z7kprintfPKcz>
  10b972:	e8 0c 02 00 00       	callq  10bb83 <_Z5_Killv>
  10b977:	48 8d 3d 72 5a 00 00 	lea    0x5a72(%rip),%rdi        # 1113f0 <_ZL8sc_ascii+0x390>
  10b97e:	b8 00 00 00 00       	mov    $0x0,%eax
  10b983:	e8 7c 0e 00 00       	callq  10c804 <_Z7kprintfPKcz>
  10b988:	e8 f6 01 00 00       	callq  10bb83 <_Z5_Killv>
  10b98d:	48 8d 3d 7c 5a 00 00 	lea    0x5a7c(%rip),%rdi        # 111410 <_ZL8sc_ascii+0x3b0>
  10b994:	b8 00 00 00 00       	mov    $0x0,%eax
  10b999:	e8 66 0e 00 00       	callq  10c804 <_Z7kprintfPKcz>
  10b99e:	90                   	nop
  10b99f:	c9                   	leaveq 
  10b9a0:	c3                   	retq   

000000000010b9a1 <_Z12__AddProcessP7Process>:
  10b9a1:	f3 0f 1e fa          	endbr64 
  10b9a5:	55                   	push   %rbp
  10b9a6:	48 89 e5             	mov    %rsp,%rbp
  10b9a9:	48 83 ec 18          	sub    $0x18,%rsp
  10b9ad:	48 89 7d e8          	mov    %rdi,-0x18(%rbp)
  10b9b1:	48 8b 05 50 be 00 00 	mov    0xbe50(%rip),%rax        # 117808 <ready_queue>
  10b9b8:	48 89 45 f8          	mov    %rax,-0x8(%rbp)
  10b9bc:	48 8b 45 f8          	mov    -0x8(%rbp),%rax
  10b9c0:	48 8b 80 38 01 00 00 	mov    0x138(%rax),%rax
  10b9c7:	48 85 c0             	test   %rax,%rax
  10b9ca:	74 11                	je     10b9dd <_Z12__AddProcessP7Process+0x3c>
  10b9cc:	48 8b 45 f8          	mov    -0x8(%rbp),%rax
  10b9d0:	48 8b 80 38 01 00 00 	mov    0x138(%rax),%rax
  10b9d7:	48 89 45 f8          	mov    %rax,-0x8(%rbp)
  10b9db:	eb df                	jmp    10b9bc <_Z12__AddProcessP7Process+0x1b>
  10b9dd:	48 8b 45 f8          	mov    -0x8(%rbp),%rax
  10b9e1:	48 8b 55 e8          	mov    -0x18(%rbp),%rdx
  10b9e5:	48 89 90 38 01 00 00 	mov    %rdx,0x138(%rax)
  10b9ec:	90                   	nop
  10b9ed:	c9                   	leaveq 
  10b9ee:	c3                   	retq   

000000000010b9ef <_Z10AddProcessP7Process>:
  10b9ef:	f3 0f 1e fa          	endbr64 
  10b9f3:	55                   	push   %rbp
  10b9f4:	48 89 e5             	mov    %rsp,%rbp
  10b9f7:	48 83 ec 10          	sub    $0x10,%rsp
  10b9fb:	48 89 7d f8          	mov    %rdi,-0x8(%rbp)
  10b9ff:	bf 00 00 00 00       	mov    $0x0,%edi
  10ba04:	e8 04 60 ff ff       	callq  101a0d <_Z9StartTaskm>
  10ba09:	48 8b 45 f8          	mov    -0x8(%rbp),%rax
  10ba0d:	48 89 c7             	mov    %rax,%rdi
  10ba10:	e8 8c ff ff ff       	callq  10b9a1 <_Z12__AddProcessP7Process>
  10ba15:	bf 01 00 00 00       	mov    $0x1,%edi
  10ba1a:	e8 ee 5f ff ff       	callq  101a0d <_Z9StartTaskm>
  10ba1f:	48 8b 45 f8          	mov    -0x8(%rbp),%rax
  10ba23:	48 8b 40 08          	mov    0x8(%rax),%rax
  10ba27:	c9                   	leaveq 
  10ba28:	c3                   	retq   

000000000010ba29 <_Z9IsRunningm>:
  10ba29:	f3 0f 1e fa          	endbr64 
  10ba2d:	55                   	push   %rbp
  10ba2e:	48 89 e5             	mov    %rsp,%rbp
  10ba31:	48 83 ec 30          	sub    $0x30,%rsp
  10ba35:	48 89 7d d8          	mov    %rdi,-0x28(%rbp)
  10ba39:	bf 00 00 00 00       	mov    $0x0,%edi
  10ba3e:	e8 ca 5f ff ff       	callq  101a0d <_Z9StartTaskm>
  10ba43:	48 8b 05 b6 bd 00 00 	mov    0xbdb6(%rip),%rax        # 117800 <current_process>
  10ba4a:	48 89 45 f8          	mov    %rax,-0x8(%rbp)
  10ba4e:	48 8b 05 ab bd 00 00 	mov    0xbdab(%rip),%rax        # 117800 <current_process>
  10ba55:	48 89 45 e8          	mov    %rax,-0x18(%rbp)
  10ba59:	c6 45 f7 00          	movb   $0x0,-0x9(%rbp)
  10ba5d:	48 8b 45 f8          	mov    -0x8(%rbp),%rax
  10ba61:	48 8b 40 08          	mov    0x8(%rax),%rax
  10ba65:	48 39 45 d8          	cmp    %rax,-0x28(%rbp)
  10ba69:	75 06                	jne    10ba71 <_Z9IsRunningm+0x48>
  10ba6b:	c6 45 f7 01          	movb   $0x1,-0x9(%rbp)
  10ba6f:	eb 1c                	jmp    10ba8d <_Z9IsRunningm+0x64>
  10ba71:	48 8b 45 f8          	mov    -0x8(%rbp),%rax
  10ba75:	48 8b 80 38 01 00 00 	mov    0x138(%rax),%rax
  10ba7c:	48 89 45 f8          	mov    %rax,-0x8(%rbp)
  10ba80:	48 8b 45 f8          	mov    -0x8(%rbp),%rax
  10ba84:	48 3b 45 e8          	cmp    -0x18(%rbp),%rax
  10ba88:	74 02                	je     10ba8c <_Z9IsRunningm+0x63>
  10ba8a:	eb d1                	jmp    10ba5d <_Z9IsRunningm+0x34>
  10ba8c:	90                   	nop
  10ba8d:	bf 01 00 00 00       	mov    $0x1,%edi
  10ba92:	e8 76 5f ff ff       	callq  101a0d <_Z9StartTaskm>
  10ba97:	0f b6 45 f7          	movzbl -0x9(%rbp),%eax
  10ba9b:	c9                   	leaveq 
  10ba9c:	c3                   	retq   

000000000010ba9d <_Z15IsTaskingOnlinev>:
  10ba9d:	f3 0f 1e fa          	endbr64 
  10baa1:	55                   	push   %rbp
  10baa2:	48 89 e5             	mov    %rsp,%rbp
  10baa5:	0f b6 05 6c bd 00 00 	movzbl 0xbd6c(%rip),%eax        # 117818 <__enabled>
  10baac:	84 c0                	test   %al,%al
  10baae:	0f 95 c0             	setne  %al
  10bab1:	5d                   	pop    %rbp
  10bab2:	c3                   	retq   

000000000010bab3 <_Z17GetRunningProcessv>:
  10bab3:	f3 0f 1e fa          	endbr64 
  10bab7:	55                   	push   %rbp
  10bab8:	48 89 e5             	mov    %rsp,%rbp
  10babb:	48 8b 05 3e bd 00 00 	mov    0xbd3e(%rip),%rax        # 117800 <current_process>
  10bac2:	5d                   	pop    %rbp
  10bac3:	c3                   	retq   

000000000010bac4 <_Z10SendSignali>:
  10bac4:	f3 0f 1e fa          	endbr64 
  10bac8:	55                   	push   %rbp
  10bac9:	48 89 e5             	mov    %rsp,%rbp
  10bacc:	48 83 ec 10          	sub    $0x10,%rsp
  10bad0:	89 7d fc             	mov    %edi,-0x4(%rbp)
  10bad3:	48 8b 05 26 bd 00 00 	mov    0xbd26(%rip),%rax        # 117800 <current_process>
  10bada:	8b 55 fc             	mov    -0x4(%rbp),%edx
  10badd:	89 d6                	mov    %edx,%esi
  10badf:	48 89 c7             	mov    %rax,%rdi
  10bae2:	e8 35 fe ff ff       	callq  10b91c <_ZN7Process6NotifyEi>
  10bae7:	90                   	nop
  10bae8:	c9                   	leaveq 
  10bae9:	c3                   	retq   

000000000010baea <_Z8PrintAllv>:
  10baea:	f3 0f 1e fa          	endbr64 
  10baee:	55                   	push   %rbp
  10baef:	48 89 e5             	mov    %rsp,%rbp
  10baf2:	48 83 ec 10          	sub    $0x10,%rsp
  10baf6:	48 8b 05 03 bd 00 00 	mov    0xbd03(%rip),%rax        # 117800 <current_process>
  10bafd:	48 89 45 f0          	mov    %rax,-0x10(%rbp)
  10bb01:	48 8b 45 f0          	mov    -0x10(%rbp),%rax
  10bb05:	48 89 45 f8          	mov    %rax,-0x8(%rbp)
  10bb09:	48 8b 45 f8          	mov    -0x8(%rbp),%rax
  10bb0d:	48 8b 40 20          	mov    0x20(%rax),%rax
  10bb11:	48 83 f8 01          	cmp    $0x1,%rax
  10bb15:	74 1f                	je     10bb36 <_Z8PrintAllv+0x4c>
  10bb17:	48 8b 45 f8          	mov    -0x8(%rbp),%rax
  10bb1b:	48 8b 40 20          	mov    0x20(%rax),%rax
  10bb1f:	48 85 c0             	test   %rax,%rax
  10bb22:	75 09                	jne    10bb2d <_Z8PrintAllv+0x43>
  10bb24:	48 8d 05 fc 58 00 00 	lea    0x58fc(%rip),%rax        # 111427 <_ZL8sc_ascii+0x3c7>
  10bb2b:	eb 10                	jmp    10bb3d <_Z8PrintAllv+0x53>
  10bb2d:	48 8d 05 f9 58 00 00 	lea    0x58f9(%rip),%rax        # 11142d <_ZL8sc_ascii+0x3cd>
  10bb34:	eb 07                	jmp    10bb3d <_Z8PrintAllv+0x53>
  10bb36:	48 8d 05 f5 58 00 00 	lea    0x58f5(%rip),%rax        # 111432 <_ZL8sc_ascii+0x3d2>
  10bb3d:	48 8b 55 f8          	mov    -0x8(%rbp),%rdx
  10bb41:	48 8b 52 08          	mov    0x8(%rdx),%rdx
  10bb45:	48 8b 4d f8          	mov    -0x8(%rbp),%rcx
  10bb49:	48 8b b1 30 01 00 00 	mov    0x130(%rcx),%rsi
  10bb50:	48 89 c1             	mov    %rax,%rcx
  10bb53:	48 8d 3d df 58 00 00 	lea    0x58df(%rip),%rdi        # 111439 <_ZL8sc_ascii+0x3d9>
  10bb5a:	b8 00 00 00 00       	mov    $0x0,%eax
  10bb5f:	e8 a0 0c 00 00       	callq  10c804 <_Z7kprintfPKcz>
  10bb64:	48 8b 45 f8          	mov    -0x8(%rbp),%rax
  10bb68:	48 8b 80 38 01 00 00 	mov    0x138(%rax),%rax
  10bb6f:	48 89 45 f8          	mov    %rax,-0x8(%rbp)
  10bb73:	48 8b 45 f8          	mov    -0x8(%rbp),%rax
  10bb77:	48 3b 45 f0          	cmp    -0x10(%rbp),%rax
  10bb7b:	74 02                	je     10bb7f <_Z8PrintAllv+0x95>
  10bb7d:	eb 8a                	jmp    10bb09 <_Z8PrintAllv+0x1f>
  10bb7f:	90                   	nop
  10bb80:	90                   	nop
  10bb81:	c9                   	leaveq 
  10bb82:	c3                   	retq   

000000000010bb83 <_Z5_Killv>:
  10bb83:	f3 0f 1e fa          	endbr64 
  10bb87:	55                   	push   %rbp
  10bb88:	48 89 e5             	mov    %rsp,%rbp
  10bb8b:	53                   	push   %rbx
  10bb8c:	48 83 ec 18          	sub    $0x18,%rsp
  10bb90:	fa                   	cli    
  10bb91:	48 8b 05 68 bc 00 00 	mov    0xbc68(%rip),%rax        # 117800 <current_process>
  10bb98:	48 8b 40 08          	mov    0x8(%rax),%rax
  10bb9c:	48 83 f8 01          	cmp    $0x1,%rax
  10bba0:	75 1e                	jne    10bbc0 <_Z5_Killv+0x3d>
  10bba2:	bf 00 00 00 00       	mov    $0x0,%edi
  10bba7:	e8 61 5e ff ff       	callq  101a0d <_Z9StartTaskm>
  10bbac:	48 8d 3d 9b 58 00 00 	lea    0x589b(%rip),%rdi        # 11144e <_ZL8sc_ascii+0x3ee>
  10bbb3:	b8 00 00 00 00       	mov    $0x0,%eax
  10bbb8:	e8 47 0c 00 00       	callq  10c804 <_Z7kprintfPKcz>
  10bbbd:	f4                   	hlt    
  10bbbe:	eb fd                	jmp    10bbbd <_Z5_Killv+0x3a>
  10bbc0:	48 8b 05 39 bc 00 00 	mov    0xbc39(%rip),%rax        # 117800 <current_process>
  10bbc7:	48 8b 50 08          	mov    0x8(%rax),%rdx
  10bbcb:	48 8b 05 2e bc 00 00 	mov    0xbc2e(%rip),%rax        # 117800 <current_process>
  10bbd2:	48 8b 80 30 01 00 00 	mov    0x130(%rax),%rax
  10bbd9:	48 89 c6             	mov    %rax,%rsi
  10bbdc:	48 8d 3d 82 58 00 00 	lea    0x5882(%rip),%rdi        # 111465 <_ZL8sc_ascii+0x405>
  10bbe3:	b8 00 00 00 00       	mov    $0x0,%eax
  10bbe8:	e8 17 0c 00 00       	callq  10c804 <_Z7kprintfPKcz>
  10bbed:	bf 00 00 00 00       	mov    $0x0,%edi
  10bbf2:	e8 16 5e ff ff       	callq  101a0d <_Z9StartTaskm>
  10bbf7:	48 8b 05 02 bc 00 00 	mov    0xbc02(%rip),%rax        # 117800 <current_process>
  10bbfe:	48 8b 00             	mov    (%rax),%rax
  10bc01:	48 89 c7             	mov    %rax,%rdi
  10bc04:	e8 a9 11 00 00       	callq  10cdb2 <_Z5kfreePv>
  10bc09:	48 8b 05 f8 bb 00 00 	mov    0xbbf8(%rip),%rax        # 117808 <ready_queue>
  10bc10:	48 89 45 e8          	mov    %rax,-0x18(%rbp)
  10bc14:	48 83 7d e8 00       	cmpq   $0x0,-0x18(%rbp)
  10bc19:	74 41                	je     10bc5c <_Z5_Killv+0xd9>
  10bc1b:	48 8b 45 e8          	mov    -0x18(%rbp),%rax
  10bc1f:	48 8b 90 38 01 00 00 	mov    0x138(%rax),%rdx
  10bc26:	48 8b 05 d3 bb 00 00 	mov    0xbbd3(%rip),%rax        # 117800 <current_process>
  10bc2d:	48 39 c2             	cmp    %rax,%rdx
  10bc30:	75 19                	jne    10bc4b <_Z5_Killv+0xc8>
  10bc32:	48 8b 05 c7 bb 00 00 	mov    0xbbc7(%rip),%rax        # 117800 <current_process>
  10bc39:	48 8b 90 38 01 00 00 	mov    0x138(%rax),%rdx
  10bc40:	48 8b 45 e8          	mov    -0x18(%rbp),%rax
  10bc44:	48 89 90 38 01 00 00 	mov    %rdx,0x138(%rax)
  10bc4b:	48 8b 45 e8          	mov    -0x18(%rbp),%rax
  10bc4f:	48 8b 80 38 01 00 00 	mov    0x138(%rax),%rax
  10bc56:	48 89 45 e8          	mov    %rax,-0x18(%rbp)
  10bc5a:	eb b8                	jmp    10bc14 <_Z5_Killv+0x91>
  10bc5c:	48 8b 1d 9d bb 00 00 	mov    0xbb9d(%rip),%rbx        # 117800 <current_process>
  10bc63:	48 85 db             	test   %rbx,%rbx
  10bc66:	74 15                	je     10bc7d <_Z5_Killv+0xfa>
  10bc68:	48 89 df             	mov    %rbx,%rdi
  10bc6b:	e8 70 fc ff ff       	callq  10b8e0 <_ZN7ProcessD1Ev>
  10bc70:	be 40 01 00 00       	mov    $0x140,%esi
  10bc75:	48 89 df             	mov    %rbx,%rdi
  10bc78:	e8 da 7d ff ff       	callq  103a57 <_ZdlPvm>
  10bc7d:	bf 01 00 00 00       	mov    $0x1,%edi
  10bc82:	e8 86 5d ff ff       	callq  101a0d <_Z9StartTaskm>
  10bc87:	fb                   	sti    
  10bc88:	e8 0f 01 00 00       	callq  10bd9c <_Z11ScheduleIRQv>
  10bc8d:	90                   	nop
  10bc8e:	48 83 c4 18          	add    $0x18,%rsp
  10bc92:	5b                   	pop    %rbx
  10bc93:	5d                   	pop    %rbp
  10bc94:	c3                   	retq   

000000000010bc95 <_Z4Killm>:
  10bc95:	f3 0f 1e fa          	endbr64 
  10bc99:	55                   	push   %rbp
  10bc9a:	48 89 e5             	mov    %rsp,%rbp
  10bc9d:	48 83 ec 20          	sub    $0x20,%rsp
  10bca1:	48 89 7d e8          	mov    %rdi,-0x18(%rbp)
  10bca5:	48 83 7d e8 01       	cmpq   $0x1,-0x18(%rbp)
  10bcaa:	75 11                	jne    10bcbd <_Z4Killm+0x28>
  10bcac:	48 8d 3d 9b 57 00 00 	lea    0x579b(%rip),%rdi        # 11144e <_ZL8sc_ascii+0x3ee>
  10bcb3:	b8 00 00 00 00       	mov    $0x0,%eax
  10bcb8:	e8 47 0b 00 00       	callq  10c804 <_Z7kprintfPKcz>
  10bcbd:	48 8b 05 3c bb 00 00 	mov    0xbb3c(%rip),%rax        # 117800 <current_process>
  10bcc4:	48 8b 40 08          	mov    0x8(%rax),%rax
  10bcc8:	48 39 45 e8          	cmp    %rax,-0x18(%rbp)
  10bccc:	75 05                	jne    10bcd3 <_Z4Killm+0x3e>
  10bcce:	e8 b0 fe ff ff       	callq  10bb83 <_Z5_Killv>
  10bcd3:	48 8b 05 26 bb 00 00 	mov    0xbb26(%rip),%rax        # 117800 <current_process>
  10bcda:	48 89 45 f0          	mov    %rax,-0x10(%rbp)
  10bcde:	48 8b 45 f0          	mov    -0x10(%rbp),%rax
  10bce2:	48 89 45 f8          	mov    %rax,-0x8(%rbp)
  10bce6:	48 83 7d f8 00       	cmpq   $0x0,-0x8(%rbp)
  10bceb:	74 51                	je     10bd3e <_Z4Killm+0xa9>
  10bced:	48 8b 45 f8          	mov    -0x8(%rbp),%rax
  10bcf1:	48 8b 40 08          	mov    0x8(%rax),%rax
  10bcf5:	48 39 45 e8          	cmp    %rax,-0x18(%rbp)
  10bcf9:	75 32                	jne    10bd2d <_Z4Killm+0x98>
  10bcfb:	48 8b 45 f8          	mov    -0x8(%rbp),%rax
  10bcff:	48 8b 80 30 01 00 00 	mov    0x130(%rax),%rax
  10bd06:	48 8b 55 e8          	mov    -0x18(%rbp),%rdx
  10bd0a:	48 89 c6             	mov    %rax,%rsi
  10bd0d:	48 8d 3d 6c 57 00 00 	lea    0x576c(%rip),%rdi        # 111480 <_ZL8sc_ascii+0x420>
  10bd14:	b8 00 00 00 00       	mov    $0x0,%eax
  10bd19:	e8 e6 0a 00 00       	callq  10c804 <_Z7kprintfPKcz>
  10bd1e:	48 8b 45 f8          	mov    -0x8(%rbp),%rax
  10bd22:	48 c7 40 20 01 00 00 	movq   $0x1,0x20(%rax)
  10bd29:	00 
  10bd2a:	90                   	nop
  10bd2b:	eb 11                	jmp    10bd3e <_Z4Killm+0xa9>
  10bd2d:	48 8b 45 f8          	mov    -0x8(%rbp),%rax
  10bd31:	48 8b 80 38 01 00 00 	mov    0x138(%rax),%rax
  10bd38:	48 89 45 f8          	mov    %rax,-0x8(%rbp)
  10bd3c:	eb a8                	jmp    10bce6 <_Z4Killm+0x51>
  10bd3e:	90                   	nop
  10bd3f:	c9                   	leaveq 
  10bd40:	c3                   	retq   

000000000010bd41 <_Z6__execv>:
  10bd41:	f3 0f 1e fa          	endbr64 
  10bd45:	55                   	push   %rbp
  10bd46:	48 89 e5             	mov    %rsp,%rbp
  10bd49:	48 83 ec 10          	sub    $0x10,%rsp
  10bd4d:	48 8b 05 fc 92 00 00 	mov    0x92fc(%rip),%rax        # 115050 <CurrentDirectory>
  10bd54:	48 89 c7             	mov    %rax,%rdi
  10bd57:	e8 dc 21 00 00       	callq  10df38 <_ZN16PageTableManager7GetPML4Ev>
  10bd5c:	48 89 45 f8          	mov    %rax,-0x8(%rbp)
  10bd60:	48 8b 45 f8          	mov    -0x8(%rbp),%rax
  10bd64:	0f 22 d8             	mov    %rax,%cr3
  10bd67:	48 8b 05 92 ba 00 00 	mov    0xba92(%rip),%rax        # 117800 <current_process>
  10bd6e:	48 8b 40 10          	mov    0x10(%rax),%rax
  10bd72:	48 89 c4             	mov    %rax,%rsp
  10bd75:	41 5f                	pop    %r15
  10bd77:	41 5e                	pop    %r14
  10bd79:	41 5d                	pop    %r13
  10bd7b:	41 5c                	pop    %r12
  10bd7d:	41 5b                	pop    %r11
  10bd7f:	41 5a                	pop    %r10
  10bd81:	41 59                	pop    %r9
  10bd83:	41 58                	pop    %r8
  10bd85:	5d                   	pop    %rbp
  10bd86:	5f                   	pop    %rdi
  10bd87:	5e                   	pop    %rsi
  10bd88:	ba 20 00 00 00       	mov    $0x20,%edx
  10bd8d:	b8 20 00 00 00       	mov    $0x20,%eax
  10bd92:	ee                   	out    %al,(%dx)
  10bd93:	5a                   	pop    %rdx
  10bd94:	59                   	pop    %rcx
  10bd95:	5b                   	pop    %rbx
  10bd96:	58                   	pop    %rax
  10bd97:	48 cf                	iretq  
  10bd99:	90                   	nop
  10bd9a:	c9                   	leaveq 
  10bd9b:	c3                   	retq   

000000000010bd9c <_Z11ScheduleIRQv>:
  10bd9c:	f3 0f 1e fa          	endbr64 
  10bda0:	55                   	push   %rbp
  10bda1:	48 89 e5             	mov    %rsp,%rbp
  10bda4:	0f b6 05 6d ba 00 00 	movzbl 0xba6d(%rip),%eax        # 117818 <__enabled>
  10bdab:	84 c0                	test   %al,%al
  10bdad:	74 04                	je     10bdb3 <_Z11ScheduleIRQv+0x17>
  10bdaf:	cd 2e                	int    $0x2e
  10bdb1:	eb 01                	jmp    10bdb4 <_Z11ScheduleIRQv+0x18>
  10bdb3:	90                   	nop
  10bdb4:	5d                   	pop    %rbp
  10bdb5:	c3                   	retq   

000000000010bdb6 <_Z8Schedulev>:
  10bdb6:	f3 0f 1e fa          	endbr64 
  10bdba:	55                   	push   %rbp
  10bdbb:	48 89 e5             	mov    %rsp,%rbp
  10bdbe:	48 83 ec 10          	sub    $0x10,%rsp
  10bdc2:	50                   	push   %rax
  10bdc3:	53                   	push   %rbx
  10bdc4:	51                   	push   %rcx
  10bdc5:	52                   	push   %rdx
  10bdc6:	56                   	push   %rsi
  10bdc7:	57                   	push   %rdi
  10bdc8:	55                   	push   %rbp
  10bdc9:	41 50                	push   %r8
  10bdcb:	41 51                	push   %r9
  10bdcd:	41 52                	push   %r10
  10bdcf:	41 53                	push   %r11
  10bdd1:	41 54                	push   %r12
  10bdd3:	41 55                	push   %r13
  10bdd5:	41 56                	push   %r14
  10bdd7:	41 57                	push   %r15
  10bdd9:	48 8b 15 20 ba 00 00 	mov    0xba20(%rip),%rdx        # 117800 <current_process>
  10bde0:	48 89 e0             	mov    %rsp,%rax
  10bde3:	48 89 42 10          	mov    %rax,0x10(%rdx)
  10bde7:	48 8b 05 12 ba 00 00 	mov    0xba12(%rip),%rax        # 117800 <current_process>
  10bdee:	48 8b 80 38 01 00 00 	mov    0x138(%rax),%rax
  10bdf5:	48 89 05 04 ba 00 00 	mov    %rax,0xba04(%rip)        # 117800 <current_process>
  10bdfc:	48 8b 05 fd b9 00 00 	mov    0xb9fd(%rip),%rax        # 117800 <current_process>
  10be03:	48 85 c0             	test   %rax,%rax
  10be06:	75 0e                	jne    10be16 <_Z8Schedulev+0x60>
  10be08:	48 8b 05 f9 b9 00 00 	mov    0xb9f9(%rip),%rax        # 117808 <ready_queue>
  10be0f:	48 89 05 ea b9 00 00 	mov    %rax,0xb9ea(%rip)        # 117800 <current_process>
  10be16:	48 8b 05 33 92 00 00 	mov    0x9233(%rip),%rax        # 115050 <CurrentDirectory>
  10be1d:	48 89 c7             	mov    %rax,%rdi
  10be20:	e8 13 21 00 00       	callq  10df38 <_ZN16PageTableManager7GetPML4Ev>
  10be25:	48 89 45 f8          	mov    %rax,-0x8(%rbp)
  10be29:	48 8b 45 f8          	mov    -0x8(%rbp),%rax
  10be2d:	0f 22 d8             	mov    %rax,%cr3
  10be30:	48 8b 05 c9 b9 00 00 	mov    0xb9c9(%rip),%rax        # 117800 <current_process>
  10be37:	48 8b 40 10          	mov    0x10(%rax),%rax
  10be3b:	48 89 c4             	mov    %rax,%rsp
  10be3e:	41 5f                	pop    %r15
  10be40:	41 5e                	pop    %r14
  10be42:	41 5d                	pop    %r13
  10be44:	41 5c                	pop    %r12
  10be46:	41 5b                	pop    %r11
  10be48:	41 5a                	pop    %r10
  10be4a:	41 59                	pop    %r9
  10be4c:	41 58                	pop    %r8
  10be4e:	5d                   	pop    %rbp
  10be4f:	5f                   	pop    %rdi
  10be50:	5e                   	pop    %rsi
  10be51:	ba 20 00 00 00       	mov    $0x20,%edx
  10be56:	b8 20 00 00 00       	mov    $0x20,%eax
  10be5b:	ee                   	out    %al,(%dx)
  10be5c:	5a                   	pop    %rdx
  10be5d:	59                   	pop    %rcx
  10be5e:	5b                   	pop    %rbx
  10be5f:	58                   	pop    %rax
  10be60:	48 cf                	iretq  
  10be62:	90                   	nop
  10be63:	c9                   	leaveq 
  10be64:	c3                   	retq   

000000000010be65 <_Z17InitialiseTaskingv>:
  10be65:	f3 0f 1e fa          	endbr64 
  10be69:	55                   	push   %rbp
  10be6a:	48 89 e5             	mov    %rsp,%rbp
  10be6d:	53                   	push   %rbx
  10be6e:	48 83 ec 08          	sub    $0x8,%rsp
  10be72:	be 00 20 00 00       	mov    $0x2000,%esi
  10be77:	48 bf 00 00 00 00 00 	movabs $0x700000000000,%rdi
  10be7e:	70 00 00 
  10be81:	e8 af 00 00 00       	callq  10bf35 <_Z9MoveStackPvm>
  10be86:	bf 40 01 00 00       	mov    $0x140,%edi
  10be8b:	e8 4d 7b ff ff       	callq  1039dd <_Znwm>
  10be90:	48 89 c3             	mov    %rax,%rbx
  10be93:	48 8d 15 ad f7 ff ff 	lea    -0x853(%rip),%rdx        # 10b647 <_Z11idle_threadv>
  10be9a:	48 8d 35 03 56 00 00 	lea    0x5603(%rip),%rsi        # 1114a4 <_ZL8sc_ascii+0x444>
  10bea1:	48 89 df             	mov    %rbx,%rdi
  10bea4:	e8 b5 f7 ff ff       	callq  10b65e <_ZN7ProcessC1EPKcPv>
  10bea9:	48 89 1d 50 b9 00 00 	mov    %rbx,0xb950(%rip)        # 117800 <current_process>
  10beb0:	48 8b 05 49 b9 00 00 	mov    0xb949(%rip),%rax        # 117800 <current_process>
  10beb7:	48 89 05 4a b9 00 00 	mov    %rax,0xb94a(%rip)        # 117808 <ready_queue>
  10bebe:	bf 40 01 00 00       	mov    $0x140,%edi
  10bec3:	e8 15 7b ff ff       	callq  1039dd <_Znwm>
  10bec8:	48 89 c3             	mov    %rax,%rbx
  10becb:	48 8d 15 54 f7 ff ff 	lea    -0x8ac(%rip),%rdx        # 10b626 <_Z12task_confirmv>
  10bed2:	48 8d 35 d7 55 00 00 	lea    0x55d7(%rip),%rsi        # 1114b0 <_ZL8sc_ascii+0x450>
  10bed9:	48 89 df             	mov    %rbx,%rdi
  10bedc:	e8 7d f7 ff ff       	callq  10b65e <_ZN7ProcessC1EPKcPv>
  10bee1:	48 89 df             	mov    %rbx,%rdi
  10bee4:	e8 b8 fa ff ff       	callq  10b9a1 <_Z12__AddProcessP7Process>
  10bee9:	bf 40 01 00 00       	mov    $0x140,%edi
  10beee:	e8 ea 7a ff ff       	callq  1039dd <_Znwm>
  10bef3:	48 89 c3             	mov    %rax,%rbx
  10bef6:	48 c7 c0 37 33 10 00 	mov    $0x103337,%rax
  10befd:	48 89 c2             	mov    %rax,%rdx
  10bf00:	48 8d 35 b6 55 00 00 	lea    0x55b6(%rip),%rsi        # 1114bd <_ZL8sc_ascii+0x45d>
  10bf07:	48 89 df             	mov    %rbx,%rdi
  10bf0a:	e8 4f f7 ff ff       	callq  10b65e <_ZN7ProcessC1EPKcPv>
  10bf0f:	48 89 df             	mov    %rbx,%rdi
  10bf12:	e8 8a fa ff ff       	callq  10b9a1 <_Z12__AddProcessP7Process>
  10bf17:	e8 25 fe ff ff       	callq  10bd41 <_Z6__execv>
  10bf1c:	48 8d 3d a1 55 00 00 	lea    0x55a1(%rip),%rdi        # 1114c4 <_ZL8sc_ascii+0x464>
  10bf23:	b8 00 00 00 00       	mov    $0x0,%eax
  10bf28:	e8 d7 08 00 00       	callq  10c804 <_Z7kprintfPKcz>
  10bf2d:	90                   	nop
  10bf2e:	48 83 c4 08          	add    $0x8,%rsp
  10bf32:	5b                   	pop    %rbx
  10bf33:	5d                   	pop    %rbp
  10bf34:	c3                   	retq   

000000000010bf35 <_Z9MoveStackPvm>:
  10bf35:	f3 0f 1e fa          	endbr64 
  10bf39:	55                   	push   %rbp
  10bf3a:	48 89 e5             	mov    %rsp,%rbp
  10bf3d:	48 83 ec 70          	sub    $0x70,%rsp
  10bf41:	48 89 7d 98          	mov    %rdi,-0x68(%rbp)
  10bf45:	48 89 75 90          	mov    %rsi,-0x70(%rbp)
  10bf49:	48 8b 05 38 ab 00 00 	mov    0xab38(%rip),%rax        # 116a88 <initial_rsp>
  10bf50:	48 85 c0             	test   %rax,%rax
  10bf53:	0f 84 27 01 00 00    	je     10c080 <_Z9MoveStackPvm+0x14b>
  10bf59:	48 8b 45 98          	mov    -0x68(%rbp),%rax
  10bf5d:	48 89 45 f8          	mov    %rax,-0x8(%rbp)
  10bf61:	48 8b 45 98          	mov    -0x68(%rbp),%rax
  10bf65:	48 2b 45 90          	sub    -0x70(%rbp),%rax
  10bf69:	48 39 45 f8          	cmp    %rax,-0x8(%rbp)
  10bf6d:	72 37                	jb     10bfa6 <_Z9MoveStackPvm+0x71>
  10bf6f:	e8 ae 55 ff ff       	callq  101522 <_ZN18PageFrameAllocator15SharedAllocatorEv>
  10bf74:	48 89 c7             	mov    %rax,%rdi
  10bf77:	e8 fa 52 ff ff       	callq  101276 <_ZN18PageFrameAllocator11RequestPageEv>
  10bf7c:	48 89 45 e8          	mov    %rax,-0x18(%rbp)
  10bf80:	48 8b 05 c9 90 00 00 	mov    0x90c9(%rip),%rax        # 115050 <CurrentDirectory>
  10bf87:	48 8b 55 e8          	mov    -0x18(%rbp),%rdx
  10bf8b:	48 8b 75 f8          	mov    -0x8(%rbp),%rsi
  10bf8f:	b9 03 00 00 00       	mov    $0x3,%ecx
  10bf94:	48 89 c7             	mov    %rax,%rdi
  10bf97:	e8 3a 41 ff ff       	callq  1000d6 <_ZN16PageTableManager9MapMemoryEmmm>
  10bf9c:	48 81 6d f8 00 10 00 	subq   $0x1000,-0x8(%rbp)
  10bfa3:	00 
  10bfa4:	eb bb                	jmp    10bf61 <_Z9MoveStackPvm+0x2c>
  10bfa6:	0f 20 d8             	mov    %cr3,%rax
  10bfa9:	48 89 45 e0          	mov    %rax,-0x20(%rbp)
  10bfad:	48 8b 45 e0          	mov    -0x20(%rbp),%rax
  10bfb1:	0f 22 d8             	mov    %rax,%cr3
  10bfb4:	48 89 e0             	mov    %rsp,%rax
  10bfb7:	48 89 45 d8          	mov    %rax,-0x28(%rbp)
  10bfbb:	48 89 e8             	mov    %rbp,%rax
  10bfbe:	48 89 45 d0          	mov    %rax,-0x30(%rbp)
  10bfc2:	48 8b 55 98          	mov    -0x68(%rbp),%rdx
  10bfc6:	48 8b 05 bb aa 00 00 	mov    0xaabb(%rip),%rax        # 116a88 <initial_rsp>
  10bfcd:	48 29 c2             	sub    %rax,%rdx
  10bfd0:	48 89 d0             	mov    %rdx,%rax
  10bfd3:	48 89 45 c8          	mov    %rax,-0x38(%rbp)
  10bfd7:	48 8b 55 d8          	mov    -0x28(%rbp),%rdx
  10bfdb:	48 8b 45 c8          	mov    -0x38(%rbp),%rax
  10bfdf:	48 01 d0             	add    %rdx,%rax
  10bfe2:	48 89 45 c0          	mov    %rax,-0x40(%rbp)
  10bfe6:	48 8b 55 d0          	mov    -0x30(%rbp),%rdx
  10bfea:	48 8b 45 c8          	mov    -0x38(%rbp),%rax
  10bfee:	48 01 d0             	add    %rdx,%rax
  10bff1:	48 89 45 b8          	mov    %rax,-0x48(%rbp)
  10bff5:	48 8b 05 8c aa 00 00 	mov    0xaa8c(%rip),%rax        # 116a88 <initial_rsp>
  10bffc:	48 2b 45 d8          	sub    -0x28(%rbp),%rax
  10c000:	48 89 c2             	mov    %rax,%rdx
  10c003:	48 8b 4d d8          	mov    -0x28(%rbp),%rcx
  10c007:	48 8b 45 c0          	mov    -0x40(%rbp),%rax
  10c00b:	48 89 ce             	mov    %rcx,%rsi
  10c00e:	48 89 c7             	mov    %rax,%rdi
  10c011:	e8 eb 0b 00 00       	callq  10cc01 <_Z6memcpyPvPKvm>
  10c016:	48 8b 45 98          	mov    -0x68(%rbp),%rax
  10c01a:	48 89 45 f0          	mov    %rax,-0x10(%rbp)
  10c01e:	48 8b 45 98          	mov    -0x68(%rbp),%rax
  10c022:	48 2b 45 90          	sub    -0x70(%rbp),%rax
  10c026:	48 39 45 f0          	cmp    %rax,-0x10(%rbp)
  10c02a:	76 44                	jbe    10c070 <_Z9MoveStackPvm+0x13b>
  10c02c:	48 8b 45 f0          	mov    -0x10(%rbp),%rax
  10c030:	48 8b 00             	mov    (%rax),%rax
  10c033:	48 89 45 b0          	mov    %rax,-0x50(%rbp)
  10c037:	48 8b 45 d8          	mov    -0x28(%rbp),%rax
  10c03b:	48 3b 45 b0          	cmp    -0x50(%rbp),%rax
  10c03f:	73 28                	jae    10c069 <_Z9MoveStackPvm+0x134>
  10c041:	48 8b 05 40 aa 00 00 	mov    0xaa40(%rip),%rax        # 116a88 <initial_rsp>
  10c048:	48 39 45 b0          	cmp    %rax,-0x50(%rbp)
  10c04c:	73 1b                	jae    10c069 <_Z9MoveStackPvm+0x134>
  10c04e:	48 8b 45 c8          	mov    -0x38(%rbp),%rax
  10c052:	48 01 45 b0          	add    %rax,-0x50(%rbp)
  10c056:	48 8b 45 f0          	mov    -0x10(%rbp),%rax
  10c05a:	48 89 45 a8          	mov    %rax,-0x58(%rbp)
  10c05e:	48 8b 45 a8          	mov    -0x58(%rbp),%rax
  10c062:	48 8b 55 b0          	mov    -0x50(%rbp),%rdx
  10c066:	48 89 10             	mov    %rdx,(%rax)
  10c069:	48 83 6d f0 08       	subq   $0x8,-0x10(%rbp)
  10c06e:	eb ae                	jmp    10c01e <_Z9MoveStackPvm+0xe9>
  10c070:	48 8b 45 c0          	mov    -0x40(%rbp),%rax
  10c074:	48 89 c4             	mov    %rax,%rsp
  10c077:	48 8b 45 b8          	mov    -0x48(%rbp),%rax
  10c07b:	48 89 c5             	mov    %rax,%rbp
  10c07e:	eb 01                	jmp    10c081 <_Z9MoveStackPvm+0x14c>
  10c080:	90                   	nop
  10c081:	c9                   	leaveq 
  10c082:	c3                   	retq   
  10c083:	90                   	nop

000000000010c084 <_ZN6Bitmap3GetEm>:
  10c084:	f3 0f 1e fa          	endbr64 
  10c088:	55                   	push   %rbp
  10c089:	48 89 e5             	mov    %rsp,%rbp
  10c08c:	48 83 ec 20          	sub    $0x20,%rsp
  10c090:	48 89 7d e8          	mov    %rdi,-0x18(%rbp)
  10c094:	48 89 75 e0          	mov    %rsi,-0x20(%rbp)
  10c098:	48 8b 45 e0          	mov    -0x20(%rbp),%rax
  10c09c:	48 c1 e8 06          	shr    $0x6,%rax
  10c0a0:	48 89 45 f8          	mov    %rax,-0x8(%rbp)
  10c0a4:	48 8b 45 e0          	mov    -0x20(%rbp),%rax
  10c0a8:	83 e0 3f             	and    $0x3f,%eax
  10c0ab:	48 89 45 f0          	mov    %rax,-0x10(%rbp)
  10c0af:	48 8b 45 e8          	mov    -0x18(%rbp),%rax
  10c0b3:	48 8b 40 08          	mov    0x8(%rax),%rax
  10c0b7:	48 8b 55 f8          	mov    -0x8(%rbp),%rdx
  10c0bb:	48 c1 e2 03          	shl    $0x3,%rdx
  10c0bf:	48 01 d0             	add    %rdx,%rax
  10c0c2:	48 8b 10             	mov    (%rax),%rdx
  10c0c5:	48 8b 45 f0          	mov    -0x10(%rbp),%rax
  10c0c9:	be 01 00 00 00       	mov    $0x1,%esi
  10c0ce:	89 c1                	mov    %eax,%ecx
  10c0d0:	d3 e6                	shl    %cl,%esi
  10c0d2:	89 f0                	mov    %esi,%eax
  10c0d4:	48 98                	cltq   
  10c0d6:	48 21 d0             	and    %rdx,%rax
  10c0d9:	48 85 c0             	test   %rax,%rax
  10c0dc:	0f 95 c0             	setne  %al
  10c0df:	c9                   	leaveq 
  10c0e0:	c3                   	retq   
  10c0e1:	90                   	nop

000000000010c0e2 <_ZN6Bitmap3SetEmb>:
  10c0e2:	f3 0f 1e fa          	endbr64 
  10c0e6:	55                   	push   %rbp
  10c0e7:	48 89 e5             	mov    %rsp,%rbp
  10c0ea:	48 83 ec 28          	sub    $0x28,%rsp
  10c0ee:	48 89 7d e8          	mov    %rdi,-0x18(%rbp)
  10c0f2:	48 89 75 e0          	mov    %rsi,-0x20(%rbp)
  10c0f6:	89 d0                	mov    %edx,%eax
  10c0f8:	88 45 dc             	mov    %al,-0x24(%rbp)
  10c0fb:	48 8b 45 e0          	mov    -0x20(%rbp),%rax
  10c0ff:	48 c1 e8 06          	shr    $0x6,%rax
  10c103:	48 89 45 f8          	mov    %rax,-0x8(%rbp)
  10c107:	48 8b 45 e0          	mov    -0x20(%rbp),%rax
  10c10b:	83 e0 3f             	and    $0x3f,%eax
  10c10e:	48 89 45 f0          	mov    %rax,-0x10(%rbp)
  10c112:	80 7d dc 00          	cmpb   $0x0,-0x24(%rbp)
  10c116:	74 43                	je     10c15b <_ZN6Bitmap3SetEmb+0x79>
  10c118:	48 8b 45 e8          	mov    -0x18(%rbp),%rax
  10c11c:	48 8b 40 08          	mov    0x8(%rax),%rax
  10c120:	48 8b 55 f8          	mov    -0x8(%rbp),%rdx
  10c124:	48 c1 e2 03          	shl    $0x3,%rdx
  10c128:	48 01 d0             	add    %rdx,%rax
  10c12b:	48 8b 30             	mov    (%rax),%rsi
  10c12e:	48 8b 45 f0          	mov    -0x10(%rbp),%rax
  10c132:	ba 01 00 00 00       	mov    $0x1,%edx
  10c137:	89 c1                	mov    %eax,%ecx
  10c139:	d3 e2                	shl    %cl,%edx
  10c13b:	89 d0                	mov    %edx,%eax
  10c13d:	48 63 d0             	movslq %eax,%rdx
  10c140:	48 8b 45 e8          	mov    -0x18(%rbp),%rax
  10c144:	48 8b 40 08          	mov    0x8(%rax),%rax
  10c148:	48 8b 4d f8          	mov    -0x8(%rbp),%rcx
  10c14c:	48 c1 e1 03          	shl    $0x3,%rcx
  10c150:	48 01 c8             	add    %rcx,%rax
  10c153:	48 09 f2             	or     %rsi,%rdx
  10c156:	48 89 10             	mov    %rdx,(%rax)
  10c159:	eb 43                	jmp    10c19e <_ZN6Bitmap3SetEmb+0xbc>
  10c15b:	48 8b 45 e8          	mov    -0x18(%rbp),%rax
  10c15f:	48 8b 40 08          	mov    0x8(%rax),%rax
  10c163:	48 8b 55 f8          	mov    -0x8(%rbp),%rdx
  10c167:	48 c1 e2 03          	shl    $0x3,%rdx
  10c16b:	48 01 d0             	add    %rdx,%rax
  10c16e:	48 8b 30             	mov    (%rax),%rsi
  10c171:	48 8b 45 f0          	mov    -0x10(%rbp),%rax
  10c175:	ba 01 00 00 00       	mov    $0x1,%edx
  10c17a:	89 c1                	mov    %eax,%ecx
  10c17c:	d3 e2                	shl    %cl,%edx
  10c17e:	89 d0                	mov    %edx,%eax
  10c180:	f7 d0                	not    %eax
  10c182:	48 63 d0             	movslq %eax,%rdx
  10c185:	48 8b 45 e8          	mov    -0x18(%rbp),%rax
  10c189:	48 8b 40 08          	mov    0x8(%rax),%rax
  10c18d:	48 8b 4d f8          	mov    -0x8(%rbp),%rcx
  10c191:	48 c1 e1 03          	shl    $0x3,%rcx
  10c195:	48 01 c8             	add    %rcx,%rax
  10c198:	48 21 f2             	and    %rsi,%rdx
  10c19b:	48 89 10             	mov    %rdx,(%rax)
  10c19e:	90                   	nop
  10c19f:	c9                   	leaveq 
  10c1a0:	c3                   	retq   
  10c1a1:	90                   	nop

000000000010c1a2 <_ZN6Bitmap5FirstEv>:
  10c1a2:	f3 0f 1e fa          	endbr64 
  10c1a6:	55                   	push   %rbp
  10c1a7:	48 89 e5             	mov    %rsp,%rbp
  10c1aa:	48 83 ec 28          	sub    $0x28,%rsp
  10c1ae:	48 89 7d d8          	mov    %rdi,-0x28(%rbp)
  10c1b2:	48 c7 45 f8 00 00 00 	movq   $0x0,-0x8(%rbp)
  10c1b9:	00 
  10c1ba:	48 8b 45 d8          	mov    -0x28(%rbp),%rax
  10c1be:	48 8b 00             	mov    (%rax),%rax
  10c1c1:	48 39 45 f8          	cmp    %rax,-0x8(%rbp)
  10c1c5:	0f 83 84 00 00 00    	jae    10c24f <_ZN6Bitmap5FirstEv+0xad>
  10c1cb:	48 8b 45 d8          	mov    -0x28(%rbp),%rax
  10c1cf:	48 8b 40 08          	mov    0x8(%rax),%rax
  10c1d3:	48 8b 55 f8          	mov    -0x8(%rbp),%rdx
  10c1d7:	48 c1 e2 03          	shl    $0x3,%rdx
  10c1db:	48 01 d0             	add    %rdx,%rax
  10c1de:	48 8b 00             	mov    (%rax),%rax
  10c1e1:	48 83 f8 ff          	cmp    $0xffffffffffffffff,%rax
  10c1e5:	74 5e                	je     10c245 <_ZN6Bitmap5FirstEv+0xa3>
  10c1e7:	48 c7 45 f0 00 00 00 	movq   $0x0,-0x10(%rbp)
  10c1ee:	00 
  10c1ef:	48 83 7d f0 3f       	cmpq   $0x3f,-0x10(%rbp)
  10c1f4:	77 4f                	ja     10c245 <_ZN6Bitmap5FirstEv+0xa3>
  10c1f6:	48 8b 45 f0          	mov    -0x10(%rbp),%rax
  10c1fa:	ba 01 00 00 00       	mov    $0x1,%edx
  10c1ff:	89 c1                	mov    %eax,%ecx
  10c201:	d3 e2                	shl    %cl,%edx
  10c203:	89 d0                	mov    %edx,%eax
  10c205:	48 98                	cltq   
  10c207:	48 89 45 e8          	mov    %rax,-0x18(%rbp)
  10c20b:	48 8b 45 d8          	mov    -0x28(%rbp),%rax
  10c20f:	48 8b 40 08          	mov    0x8(%rax),%rax
  10c213:	48 8b 55 f8          	mov    -0x8(%rbp),%rdx
  10c217:	48 c1 e2 03          	shl    $0x3,%rdx
  10c21b:	48 01 d0             	add    %rdx,%rax
  10c21e:	48 8b 00             	mov    (%rax),%rax
  10c221:	48 23 45 e8          	and    -0x18(%rbp),%rax
  10c225:	48 85 c0             	test   %rax,%rax
  10c228:	75 14                	jne    10c23e <_ZN6Bitmap5FirstEv+0x9c>
  10c22a:	48 8b 45 f8          	mov    -0x8(%rbp),%rax
  10c22e:	48 c1 e0 06          	shl    $0x6,%rax
  10c232:	48 89 c2             	mov    %rax,%rdx
  10c235:	48 8b 45 f0          	mov    -0x10(%rbp),%rax
  10c239:	48 01 d0             	add    %rdx,%rax
  10c23c:	eb 18                	jmp    10c256 <_ZN6Bitmap5FirstEv+0xb4>
  10c23e:	48 83 45 f0 01       	addq   $0x1,-0x10(%rbp)
  10c243:	eb aa                	jmp    10c1ef <_ZN6Bitmap5FirstEv+0x4d>
  10c245:	48 83 45 f8 01       	addq   $0x1,-0x8(%rbp)
  10c24a:	e9 6b ff ff ff       	jmpq   10c1ba <_ZN6Bitmap5FirstEv+0x18>
  10c24f:	48 c7 c0 ff ff ff ff 	mov    $0xffffffffffffffff,%rax
  10c256:	c9                   	leaveq 
  10c257:	c3                   	retq   

000000000010c258 <_Z4itoaPhjm>:
  10c258:	f3 0f 1e fa          	endbr64 
  10c25c:	55                   	push   %rbp
  10c25d:	48 89 e5             	mov    %rsp,%rbp
  10c260:	48 83 ec 58          	sub    $0x58,%rsp
  10c264:	48 89 7d b8          	mov    %rdi,-0x48(%rbp)
  10c268:	89 75 b4             	mov    %esi,-0x4c(%rbp)
  10c26b:	48 89 55 a8          	mov    %rdx,-0x58(%rbp)
  10c26f:	48 8b 45 b8          	mov    -0x48(%rbp),%rax
  10c273:	48 89 45 f8          	mov    %rax,-0x8(%rbp)
  10c277:	48 8b 45 a8          	mov    -0x58(%rbp),%rax
  10c27b:	48 89 45 e0          	mov    %rax,-0x20(%rbp)
  10c27f:	48 c7 45 d8 0a 00 00 	movq   $0xa,-0x28(%rbp)
  10c286:	00 
  10c287:	83 7d b4 78          	cmpl   $0x78,-0x4c(%rbp)
  10c28b:	75 08                	jne    10c295 <_Z4itoaPhjm+0x3d>
  10c28d:	48 c7 45 d8 10 00 00 	movq   $0x10,-0x28(%rbp)
  10c294:	00 
  10c295:	48 8b 45 e0          	mov    -0x20(%rbp),%rax
  10c299:	ba 00 00 00 00       	mov    $0x0,%edx
  10c29e:	48 f7 75 d8          	divq   -0x28(%rbp)
  10c2a2:	48 89 55 d0          	mov    %rdx,-0x30(%rbp)
  10c2a6:	48 83 7d d0 09       	cmpq   $0x9,-0x30(%rbp)
  10c2ab:	77 09                	ja     10c2b6 <_Z4itoaPhjm+0x5e>
  10c2ad:	48 8b 45 d0          	mov    -0x30(%rbp),%rax
  10c2b1:	8d 50 30             	lea    0x30(%rax),%edx
  10c2b4:	eb 07                	jmp    10c2bd <_Z4itoaPhjm+0x65>
  10c2b6:	48 8b 45 d0          	mov    -0x30(%rbp),%rax
  10c2ba:	8d 50 37             	lea    0x37(%rax),%edx
  10c2bd:	48 8b 45 f8          	mov    -0x8(%rbp),%rax
  10c2c1:	48 8d 48 01          	lea    0x1(%rax),%rcx
  10c2c5:	48 89 4d f8          	mov    %rcx,-0x8(%rbp)
  10c2c9:	88 10                	mov    %dl,(%rax)
  10c2cb:	48 8b 45 e0          	mov    -0x20(%rbp),%rax
  10c2cf:	ba 00 00 00 00       	mov    $0x0,%edx
  10c2d4:	48 f7 75 d8          	divq   -0x28(%rbp)
  10c2d8:	48 89 45 e0          	mov    %rax,-0x20(%rbp)
  10c2dc:	48 83 7d e0 00       	cmpq   $0x0,-0x20(%rbp)
  10c2e1:	0f 95 c0             	setne  %al
  10c2e4:	84 c0                	test   %al,%al
  10c2e6:	74 02                	je     10c2ea <_Z4itoaPhjm+0x92>
  10c2e8:	eb ab                	jmp    10c295 <_Z4itoaPhjm+0x3d>
  10c2ea:	48 8b 45 f8          	mov    -0x8(%rbp),%rax
  10c2ee:	c6 00 00             	movb   $0x0,(%rax)
  10c2f1:	48 8b 45 b8          	mov    -0x48(%rbp),%rax
  10c2f5:	48 89 45 f0          	mov    %rax,-0x10(%rbp)
  10c2f9:	48 8b 45 f8          	mov    -0x8(%rbp),%rax
  10c2fd:	48 83 e8 01          	sub    $0x1,%rax
  10c301:	48 89 45 e8          	mov    %rax,-0x18(%rbp)
  10c305:	48 8b 45 f0          	mov    -0x10(%rbp),%rax
  10c309:	48 3b 45 e8          	cmp    -0x18(%rbp),%rax
  10c30d:	73 2d                	jae    10c33c <_Z4itoaPhjm+0xe4>
  10c30f:	48 8b 45 f0          	mov    -0x10(%rbp),%rax
  10c313:	0f b6 00             	movzbl (%rax),%eax
  10c316:	88 45 cf             	mov    %al,-0x31(%rbp)
  10c319:	48 8b 45 e8          	mov    -0x18(%rbp),%rax
  10c31d:	0f b6 10             	movzbl (%rax),%edx
  10c320:	48 8b 45 f0          	mov    -0x10(%rbp),%rax
  10c324:	88 10                	mov    %dl,(%rax)
  10c326:	48 8b 45 e8          	mov    -0x18(%rbp),%rax
  10c32a:	0f b6 55 cf          	movzbl -0x31(%rbp),%edx
  10c32e:	88 10                	mov    %dl,(%rax)
  10c330:	48 83 45 f0 01       	addq   $0x1,-0x10(%rbp)
  10c335:	48 83 6d e8 01       	subq   $0x1,-0x18(%rbp)
  10c33a:	eb c9                	jmp    10c305 <_Z4itoaPhjm+0xad>
  10c33c:	90                   	nop
  10c33d:	c9                   	leaveq 
  10c33e:	c3                   	retq   

000000000010c33f <_Z7reversePc>:
  10c33f:	f3 0f 1e fa          	endbr64 
  10c343:	55                   	push   %rbp
  10c344:	48 89 e5             	mov    %rsp,%rbp
  10c347:	48 83 ec 20          	sub    $0x20,%rsp
  10c34b:	48 89 7d e8          	mov    %rdi,-0x18(%rbp)
  10c34f:	c7 45 fc 00 00 00 00 	movl   $0x0,-0x4(%rbp)
  10c356:	48 8b 45 e8          	mov    -0x18(%rbp),%rax
  10c35a:	48 89 c7             	mov    %rax,%rdi
  10c35d:	e8 e2 00 00 00       	callq  10c444 <_Z6strlenPc>
  10c362:	83 e8 01             	sub    $0x1,%eax
  10c365:	89 45 f8             	mov    %eax,-0x8(%rbp)
  10c368:	8b 45 fc             	mov    -0x4(%rbp),%eax
  10c36b:	3b 45 f8             	cmp    -0x8(%rbp),%eax
  10c36e:	7d 51                	jge    10c3c1 <_Z7reversePc+0x82>
  10c370:	8b 45 fc             	mov    -0x4(%rbp),%eax
  10c373:	48 63 d0             	movslq %eax,%rdx
  10c376:	48 8b 45 e8          	mov    -0x18(%rbp),%rax
  10c37a:	48 01 d0             	add    %rdx,%rax
  10c37d:	0f b6 00             	movzbl (%rax),%eax
  10c380:	0f be c0             	movsbl %al,%eax
  10c383:	89 45 f4             	mov    %eax,-0xc(%rbp)
  10c386:	8b 45 f8             	mov    -0x8(%rbp),%eax
  10c389:	48 63 d0             	movslq %eax,%rdx
  10c38c:	48 8b 45 e8          	mov    -0x18(%rbp),%rax
  10c390:	48 01 d0             	add    %rdx,%rax
  10c393:	8b 55 fc             	mov    -0x4(%rbp),%edx
  10c396:	48 63 ca             	movslq %edx,%rcx
  10c399:	48 8b 55 e8          	mov    -0x18(%rbp),%rdx
  10c39d:	48 01 ca             	add    %rcx,%rdx
  10c3a0:	0f b6 00             	movzbl (%rax),%eax
  10c3a3:	88 02                	mov    %al,(%rdx)
  10c3a5:	8b 45 f8             	mov    -0x8(%rbp),%eax
  10c3a8:	48 63 d0             	movslq %eax,%rdx
  10c3ab:	48 8b 45 e8          	mov    -0x18(%rbp),%rax
  10c3af:	48 01 d0             	add    %rdx,%rax
  10c3b2:	8b 55 f4             	mov    -0xc(%rbp),%edx
  10c3b5:	88 10                	mov    %dl,(%rax)
  10c3b7:	83 45 fc 01          	addl   $0x1,-0x4(%rbp)
  10c3bb:	83 6d f8 01          	subl   $0x1,-0x8(%rbp)
  10c3bf:	eb a7                	jmp    10c368 <_Z7reversePc+0x29>
  10c3c1:	90                   	nop
  10c3c2:	c9                   	leaveq 
  10c3c3:	c3                   	retq   

000000000010c3c4 <_Z6appendPcc>:
  10c3c4:	f3 0f 1e fa          	endbr64 
  10c3c8:	55                   	push   %rbp
  10c3c9:	48 89 e5             	mov    %rsp,%rbp
  10c3cc:	48 83 ec 20          	sub    $0x20,%rsp
  10c3d0:	48 89 7d e8          	mov    %rdi,-0x18(%rbp)
  10c3d4:	89 f0                	mov    %esi,%eax
  10c3d6:	88 45 e4             	mov    %al,-0x1c(%rbp)
  10c3d9:	48 8b 45 e8          	mov    -0x18(%rbp),%rax
  10c3dd:	48 89 c7             	mov    %rax,%rdi
  10c3e0:	e8 5f 00 00 00       	callq  10c444 <_Z6strlenPc>
  10c3e5:	48 89 45 f8          	mov    %rax,-0x8(%rbp)
  10c3e9:	48 8b 55 e8          	mov    -0x18(%rbp),%rdx
  10c3ed:	48 8b 45 f8          	mov    -0x8(%rbp),%rax
  10c3f1:	48 01 c2             	add    %rax,%rdx
  10c3f4:	0f b6 45 e4          	movzbl -0x1c(%rbp),%eax
  10c3f8:	88 02                	mov    %al,(%rdx)
  10c3fa:	48 8b 45 f8          	mov    -0x8(%rbp),%rax
  10c3fe:	48 8d 50 01          	lea    0x1(%rax),%rdx
  10c402:	48 8b 45 e8          	mov    -0x18(%rbp),%rax
  10c406:	48 01 d0             	add    %rdx,%rax
  10c409:	c6 00 00             	movb   $0x0,(%rax)
  10c40c:	90                   	nop
  10c40d:	c9                   	leaveq 
  10c40e:	c3                   	retq   

000000000010c40f <_Z9backspacePc>:
  10c40f:	f3 0f 1e fa          	endbr64 
  10c413:	55                   	push   %rbp
  10c414:	48 89 e5             	mov    %rsp,%rbp
  10c417:	48 83 ec 20          	sub    $0x20,%rsp
  10c41b:	48 89 7d e8          	mov    %rdi,-0x18(%rbp)
  10c41f:	48 8b 45 e8          	mov    -0x18(%rbp),%rax
  10c423:	48 89 c7             	mov    %rax,%rdi
  10c426:	e8 19 00 00 00       	callq  10c444 <_Z6strlenPc>
  10c42b:	48 89 45 f8          	mov    %rax,-0x8(%rbp)
  10c42f:	48 8b 45 f8          	mov    -0x8(%rbp),%rax
  10c433:	48 8d 50 ff          	lea    -0x1(%rax),%rdx
  10c437:	48 8b 45 e8          	mov    -0x18(%rbp),%rax
  10c43b:	48 01 d0             	add    %rdx,%rax
  10c43e:	c6 00 00             	movb   $0x0,(%rax)
  10c441:	90                   	nop
  10c442:	c9                   	leaveq 
  10c443:	c3                   	retq   

000000000010c444 <_Z6strlenPc>:
  10c444:	f3 0f 1e fa          	endbr64 
  10c448:	55                   	push   %rbp
  10c449:	48 89 e5             	mov    %rsp,%rbp
  10c44c:	48 83 ec 10          	sub    $0x10,%rsp
  10c450:	48 89 7d f8          	mov    %rdi,-0x8(%rbp)
  10c454:	48 8b 45 f8          	mov    -0x8(%rbp),%rax
  10c458:	48 89 c7             	mov    %rax,%rdi
  10c45b:	e8 b0 19 00 00       	callq  10de10 <__strlen>
  10c460:	c9                   	leaveq 
  10c461:	c3                   	retq   

000000000010c462 <_Z6strcmpPcS_>:
  10c462:	f3 0f 1e fa          	endbr64 
  10c466:	55                   	push   %rbp
  10c467:	48 89 e5             	mov    %rsp,%rbp
  10c46a:	48 83 ec 20          	sub    $0x20,%rsp
  10c46e:	48 89 7d e8          	mov    %rdi,-0x18(%rbp)
  10c472:	48 89 75 e0          	mov    %rsi,-0x20(%rbp)
  10c476:	48 c7 45 f8 00 00 00 	movq   $0x0,-0x8(%rbp)
  10c47d:	00 
  10c47e:	48 8b 45 e8          	mov    -0x18(%rbp),%rax
  10c482:	0f b6 00             	movzbl (%rax),%eax
  10c485:	84 c0                	test   %al,%al
  10c487:	74 1f                	je     10c4a8 <_Z6strcmpPcS_+0x46>
  10c489:	48 8b 45 e8          	mov    -0x18(%rbp),%rax
  10c48d:	0f b6 10             	movzbl (%rax),%edx
  10c490:	48 8b 45 e0          	mov    -0x20(%rbp),%rax
  10c494:	0f b6 00             	movzbl (%rax),%eax
  10c497:	38 c2                	cmp    %al,%dl
  10c499:	75 0c                	jne    10c4a7 <_Z6strcmpPcS_+0x45>
  10c49b:	48 83 45 e8 01       	addq   $0x1,-0x18(%rbp)
  10c4a0:	48 83 45 e0 01       	addq   $0x1,-0x20(%rbp)
  10c4a5:	eb d7                	jmp    10c47e <_Z6strcmpPcS_+0x1c>
  10c4a7:	90                   	nop
  10c4a8:	48 8b 45 e8          	mov    -0x18(%rbp),%rax
  10c4ac:	0f b6 00             	movzbl (%rax),%eax
  10c4af:	0f be d0             	movsbl %al,%edx
  10c4b2:	48 8b 45 e0          	mov    -0x20(%rbp),%rax
  10c4b6:	0f b6 00             	movzbl (%rax),%eax
  10c4b9:	0f be c0             	movsbl %al,%eax
  10c4bc:	29 c2                	sub    %eax,%edx
  10c4be:	89 d0                	mov    %edx,%eax
  10c4c0:	c9                   	leaveq 
  10c4c1:	c3                   	retq   

000000000010c4c2 <_Z7strncmpPcS_i>:
  10c4c2:	f3 0f 1e fa          	endbr64 
  10c4c6:	55                   	push   %rbp
  10c4c7:	48 89 e5             	mov    %rsp,%rbp
  10c4ca:	48 83 ec 20          	sub    $0x20,%rsp
  10c4ce:	48 89 7d f8          	mov    %rdi,-0x8(%rbp)
  10c4d2:	48 89 75 f0          	mov    %rsi,-0x10(%rbp)
  10c4d6:	89 55 ec             	mov    %edx,-0x14(%rbp)
  10c4d9:	8b 45 ec             	mov    -0x14(%rbp),%eax
  10c4dc:	48 63 d0             	movslq %eax,%rdx
  10c4df:	48 8b 4d f0          	mov    -0x10(%rbp),%rcx
  10c4e3:	48 8b 45 f8          	mov    -0x8(%rbp),%rax
  10c4e7:	48 89 ce             	mov    %rcx,%rsi
  10c4ea:	48 89 c7             	mov    %rax,%rdi
  10c4ed:	e8 65 19 00 00       	callq  10de57 <__strncmp>
  10c4f2:	85 c0                	test   %eax,%eax
  10c4f4:	0f 94 c0             	sete   %al
  10c4f7:	0f b6 c0             	movzbl %al,%eax
  10c4fa:	c9                   	leaveq 
  10c4fb:	c3                   	retq   

000000000010c4fc <_Z6strcpyPcPKc>:
  10c4fc:	f3 0f 1e fa          	endbr64 
  10c500:	55                   	push   %rbp
  10c501:	48 89 e5             	mov    %rsp,%rbp
  10c504:	48 83 ec 10          	sub    $0x10,%rsp
  10c508:	48 89 7d f8          	mov    %rdi,-0x8(%rbp)
  10c50c:	48 89 75 f0          	mov    %rsi,-0x10(%rbp)
  10c510:	48 8b 55 f0          	mov    -0x10(%rbp),%rdx
  10c514:	48 8b 45 f8          	mov    -0x8(%rbp),%rax
  10c518:	48 89 d6             	mov    %rdx,%rsi
  10c51b:	48 89 c7             	mov    %rax,%rdi
  10c51e:	e8 41 19 00 00       	callq  10de64 <__strcpy>
  10c523:	c9                   	leaveq 
  10c524:	c3                   	retq   

000000000010c525 <_Z5splitPKccPi>:
  10c525:	f3 0f 1e fa          	endbr64 
  10c529:	55                   	push   %rbp
  10c52a:	48 89 e5             	mov    %rsp,%rbp
  10c52d:	48 83 ec 60          	sub    $0x60,%rsp
  10c531:	48 89 7d b8          	mov    %rdi,-0x48(%rbp)
  10c535:	89 f0                	mov    %esi,%eax
  10c537:	48 89 55 a8          	mov    %rdx,-0x58(%rbp)
  10c53b:	88 45 b4             	mov    %al,-0x4c(%rbp)
  10c53e:	48 8b 45 b8          	mov    -0x48(%rbp),%rax
  10c542:	48 89 c7             	mov    %rax,%rdi
  10c545:	e8 fa fe ff ff       	callq  10c444 <_Z6strlenPc>
  10c54a:	48 89 45 d0          	mov    %rax,-0x30(%rbp)
  10c54e:	48 c7 45 f8 00 00 00 	movq   $0x0,-0x8(%rbp)
  10c555:	00 
  10c556:	48 c7 45 f0 00 00 00 	movq   $0x0,-0x10(%rbp)
  10c55d:	00 
  10c55e:	48 8b 45 f0          	mov    -0x10(%rbp),%rax
  10c562:	48 3b 45 d0          	cmp    -0x30(%rbp),%rax
  10c566:	73 1f                	jae    10c587 <_Z5splitPKccPi+0x62>
  10c568:	48 8b 55 b8          	mov    -0x48(%rbp),%rdx
  10c56c:	48 8b 45 f0          	mov    -0x10(%rbp),%rax
  10c570:	48 01 d0             	add    %rdx,%rax
  10c573:	0f b6 00             	movzbl (%rax),%eax
  10c576:	38 45 b4             	cmp    %al,-0x4c(%rbp)
  10c579:	75 05                	jne    10c580 <_Z5splitPKccPi+0x5b>
  10c57b:	48 83 45 f8 01       	addq   $0x1,-0x8(%rbp)
  10c580:	48 83 45 f0 01       	addq   $0x1,-0x10(%rbp)
  10c585:	eb d7                	jmp    10c55e <_Z5splitPKccPi+0x39>
  10c587:	48 8b 45 f8          	mov    -0x8(%rbp),%rax
  10c58b:	48 c1 e0 03          	shl    $0x3,%rax
  10c58f:	48 89 c7             	mov    %rax,%rdi
  10c592:	e8 c3 08 00 00       	callq  10ce5a <_Z7kmallocm>
  10c597:	48 89 45 c8          	mov    %rax,-0x38(%rbp)
  10c59b:	48 8b 45 f8          	mov    -0x8(%rbp),%rax
  10c59f:	89 c2                	mov    %eax,%edx
  10c5a1:	48 8b 45 a8          	mov    -0x58(%rbp),%rax
  10c5a5:	89 10                	mov    %edx,(%rax)
  10c5a7:	48 c7 45 e8 00 00 00 	movq   $0x0,-0x18(%rbp)
  10c5ae:	00 
  10c5af:	48 c7 45 e0 00 00 00 	movq   $0x0,-0x20(%rbp)
  10c5b6:	00 
  10c5b7:	48 c7 45 d8 00 00 00 	movq   $0x0,-0x28(%rbp)
  10c5be:	00 
  10c5bf:	48 8b 45 d8          	mov    -0x28(%rbp),%rax
  10c5c3:	48 3b 45 d0          	cmp    -0x30(%rbp),%rax
  10c5c7:	0f 83 87 00 00 00    	jae    10c654 <_Z5splitPKccPi+0x12f>
  10c5cd:	48 8b 55 b8          	mov    -0x48(%rbp),%rdx
  10c5d1:	48 8b 45 d8          	mov    -0x28(%rbp),%rax
  10c5d5:	48 01 d0             	add    %rdx,%rax
  10c5d8:	0f b6 00             	movzbl (%rax),%eax
  10c5db:	38 45 b4             	cmp    %al,-0x4c(%rbp)
  10c5de:	75 6a                	jne    10c64a <_Z5splitPKccPi+0x125>
  10c5e0:	48 8b 45 d8          	mov    -0x28(%rbp),%rax
  10c5e4:	48 2b 45 e0          	sub    -0x20(%rbp),%rax
  10c5e8:	48 89 45 c0          	mov    %rax,-0x40(%rbp)
  10c5ec:	48 8b 45 c0          	mov    -0x40(%rbp),%rax
  10c5f0:	48 89 c7             	mov    %rax,%rdi
  10c5f3:	e8 62 08 00 00       	callq  10ce5a <_Z7kmallocm>
  10c5f8:	48 8b 55 e8          	mov    -0x18(%rbp),%rdx
  10c5fc:	48 8d 0c d5 00 00 00 	lea    0x0(,%rdx,8),%rcx
  10c603:	00 
  10c604:	48 8b 55 c8          	mov    -0x38(%rbp),%rdx
  10c608:	48 01 ca             	add    %rcx,%rdx
  10c60b:	48 89 02             	mov    %rax,(%rdx)
  10c60e:	48 8b 55 b8          	mov    -0x48(%rbp),%rdx
  10c612:	48 8b 45 e0          	mov    -0x20(%rbp),%rax
  10c616:	48 8d 34 02          	lea    (%rdx,%rax,1),%rsi
  10c61a:	48 8b 45 e8          	mov    -0x18(%rbp),%rax
  10c61e:	48 8d 14 c5 00 00 00 	lea    0x0(,%rax,8),%rdx
  10c625:	00 
  10c626:	48 8b 45 c8          	mov    -0x38(%rbp),%rax
  10c62a:	48 8d 0c 02          	lea    (%rdx,%rax,1),%rcx
  10c62e:	48 8b 45 c0          	mov    -0x40(%rbp),%rax
  10c632:	48 89 c2             	mov    %rax,%rdx
  10c635:	48 89 cf             	mov    %rcx,%rdi
  10c638:	e8 c4 05 00 00       	callq  10cc01 <_Z6memcpyPvPKvm>
  10c63d:	48 8b 45 e8          	mov    -0x18(%rbp),%rax
  10c641:	48 89 45 e0          	mov    %rax,-0x20(%rbp)
  10c645:	48 83 45 e8 01       	addq   $0x1,-0x18(%rbp)
  10c64a:	48 83 45 d8 01       	addq   $0x1,-0x28(%rbp)
  10c64f:	e9 6b ff ff ff       	jmpq   10c5bf <_Z5splitPKccPi+0x9a>
  10c654:	48 8b 45 c8          	mov    -0x38(%rbp),%rax
  10c658:	c9                   	leaveq 
  10c659:	c3                   	retq   

000000000010c65a <_Z18string_from_doubledh>:
  10c65a:	f3 0f 1e fa          	endbr64 
  10c65e:	55                   	push   %rbp
  10c65f:	48 89 e5             	mov    %rsp,%rbp
  10c662:	48 83 ec 40          	sub    $0x40,%rsp
  10c666:	f2 0f 11 45 c8       	movsd  %xmm0,-0x38(%rbp)
  10c66b:	89 f8                	mov    %edi,%eax
  10c66d:	88 45 c4             	mov    %al,-0x3c(%rbp)
  10c670:	80 7d c4 14          	cmpb   $0x14,-0x3c(%rbp)
  10c674:	76 04                	jbe    10c67a <_Z18string_from_doubledh+0x20>
  10c676:	c6 45 c4 14          	movb   $0x14,-0x3c(%rbp)
  10c67a:	48 8d 05 1f b2 00 00 	lea    0xb21f(%rip),%rax        # 1178a0 <intBuffer>
  10c681:	48 89 45 f8          	mov    %rax,-0x8(%rbp)
  10c685:	f2 0f 10 45 c8       	movsd  -0x38(%rbp),%xmm0
  10c68a:	f2 48 0f 2c c0       	cvttsd2si %xmm0,%rax
  10c68f:	48 89 45 d8          	mov    %rax,-0x28(%rbp)
  10c693:	48 83 7d d8 00       	cmpq   $0x0,-0x28(%rbp)
  10c698:	79 2e                	jns    10c6c8 <_Z18string_from_doubledh+0x6e>
  10c69a:	48 8b 45 f8          	mov    -0x8(%rbp),%rax
  10c69e:	c6 00 2d             	movb   $0x2d,(%rax)
  10c6a1:	f2 0f 10 45 c8       	movsd  -0x38(%rbp),%xmm0
  10c6a6:	f2 48 0f 2c c0       	cvttsd2si %xmm0,%rax
  10c6ab:	48 f7 d8             	neg    %rax
  10c6ae:	48 89 c2             	mov    %rax,%rdx
  10c6b1:	48 8b 45 f8          	mov    -0x8(%rbp),%rax
  10c6b5:	48 83 c0 01          	add    $0x1,%rax
  10c6b9:	be 64 00 00 00       	mov    $0x64,%esi
  10c6be:	48 89 c7             	mov    %rax,%rdi
  10c6c1:	e8 92 fb ff ff       	callq  10c258 <_Z4itoaPhjm>
  10c6c6:	eb 52                	jmp    10c71a <_Z18string_from_doubledh+0xc0>
  10c6c8:	f2 0f 10 45 c8       	movsd  -0x38(%rbp),%xmm0
  10c6cd:	66 0f 2f 05 63 4e 00 	comisd 0x4e63(%rip),%xmm0        # 111538 <_ZL8sc_ascii+0x4d8>
  10c6d4:	00 
  10c6d5:	73 0c                	jae    10c6e3 <_Z18string_from_doubledh+0x89>
  10c6d7:	f2 0f 10 45 c8       	movsd  -0x38(%rbp),%xmm0
  10c6dc:	f2 48 0f 2c c0       	cvttsd2si %xmm0,%rax
  10c6e1:	eb 23                	jmp    10c706 <_Z18string_from_doubledh+0xac>
  10c6e3:	f2 0f 10 45 c8       	movsd  -0x38(%rbp),%xmm0
  10c6e8:	f2 0f 10 0d 48 4e 00 	movsd  0x4e48(%rip),%xmm1        # 111538 <_ZL8sc_ascii+0x4d8>
  10c6ef:	00 
  10c6f0:	f2 0f 5c c1          	subsd  %xmm1,%xmm0
  10c6f4:	f2 48 0f 2c c0       	cvttsd2si %xmm0,%rax
  10c6f9:	48 ba 00 00 00 00 00 	movabs $0x8000000000000000,%rdx
  10c700:	00 00 80 
  10c703:	48 31 d0             	xor    %rdx,%rax
  10c706:	48 8b 4d f8          	mov    -0x8(%rbp),%rcx
  10c70a:	48 89 c2             	mov    %rax,%rdx
  10c70d:	be 64 00 00 00       	mov    $0x64,%esi
  10c712:	48 89 cf             	mov    %rcx,%rdi
  10c715:	e8 3e fb ff ff       	callq  10c258 <_Z4itoaPhjm>
  10c71a:	48 8d 05 ff b0 00 00 	lea    0xb0ff(%rip),%rax        # 117820 <doubleTo_StringOutput>
  10c721:	48 89 45 f0          	mov    %rax,-0x10(%rbp)
  10c725:	66 0f ef c0          	pxor   %xmm0,%xmm0
  10c729:	66 0f 2f 45 c8       	comisd -0x38(%rbp),%xmm0
  10c72e:	76 16                	jbe    10c746 <_Z18string_from_doubledh+0xec>
  10c730:	f2 0f 10 45 c8       	movsd  -0x38(%rbp),%xmm0
  10c735:	f3 0f 7e 0d 03 4e 00 	movq   0x4e03(%rip),%xmm1        # 111540 <_ZL8sc_ascii+0x4e0>
  10c73c:	00 
  10c73d:	66 0f 57 c1          	xorpd  %xmm1,%xmm0
  10c741:	f2 0f 11 45 c8       	movsd  %xmm0,-0x38(%rbp)
  10c746:	48 8b 45 f8          	mov    -0x8(%rbp),%rax
  10c74a:	0f b6 00             	movzbl (%rax),%eax
  10c74d:	84 c0                	test   %al,%al
  10c74f:	74 19                	je     10c76a <_Z18string_from_doubledh+0x110>
  10c751:	48 8b 45 f8          	mov    -0x8(%rbp),%rax
  10c755:	0f b6 10             	movzbl (%rax),%edx
  10c758:	48 8b 45 f0          	mov    -0x10(%rbp),%rax
  10c75c:	88 10                	mov    %dl,(%rax)
  10c75e:	48 83 45 f8 01       	addq   $0x1,-0x8(%rbp)
  10c763:	48 83 45 f0 01       	addq   $0x1,-0x10(%rbp)
  10c768:	eb dc                	jmp    10c746 <_Z18string_from_doubledh+0xec>
  10c76a:	48 8b 45 f0          	mov    -0x10(%rbp),%rax
  10c76e:	c6 00 2e             	movb   $0x2e,(%rax)
  10c771:	48 83 45 f0 01       	addq   $0x1,-0x10(%rbp)
  10c776:	f2 0f 10 45 c8       	movsd  -0x38(%rbp),%xmm0
  10c77b:	f2 0f 2c c0          	cvttsd2si %xmm0,%eax
  10c77f:	f2 0f 2a c8          	cvtsi2sd %eax,%xmm1
  10c783:	f2 0f 10 45 c8       	movsd  -0x38(%rbp),%xmm0
  10c788:	f2 0f 5c c1          	subsd  %xmm1,%xmm0
  10c78c:	f2 0f 11 45 e8       	movsd  %xmm0,-0x18(%rbp)
  10c791:	c6 45 e7 00          	movb   $0x0,-0x19(%rbp)
  10c795:	0f b6 45 e7          	movzbl -0x19(%rbp),%eax
  10c799:	3a 45 c4             	cmp    -0x3c(%rbp),%al
  10c79c:	73 56                	jae    10c7f4 <_Z18string_from_doubledh+0x19a>
  10c79e:	f2 0f 10 4d e8       	movsd  -0x18(%rbp),%xmm1
  10c7a3:	f2 0f 10 05 a5 4d 00 	movsd  0x4da5(%rip),%xmm0        # 111550 <_ZL8sc_ascii+0x4f0>
  10c7aa:	00 
  10c7ab:	f2 0f 59 c1          	mulsd  %xmm1,%xmm0
  10c7af:	f2 0f 11 45 e8       	movsd  %xmm0,-0x18(%rbp)
  10c7b4:	f2 0f 10 45 e8       	movsd  -0x18(%rbp),%xmm0
  10c7b9:	f2 0f 2c c0          	cvttsd2si %xmm0,%eax
  10c7bd:	83 c0 30             	add    $0x30,%eax
  10c7c0:	89 c2                	mov    %eax,%edx
  10c7c2:	48 8b 45 f0          	mov    -0x10(%rbp),%rax
  10c7c6:	88 10                	mov    %dl,(%rax)
  10c7c8:	f2 0f 10 45 e8       	movsd  -0x18(%rbp),%xmm0
  10c7cd:	f2 0f 2c c0          	cvttsd2si %xmm0,%eax
  10c7d1:	f2 0f 2a c8          	cvtsi2sd %eax,%xmm1
  10c7d5:	f2 0f 10 45 e8       	movsd  -0x18(%rbp),%xmm0
  10c7da:	f2 0f 5c c1          	subsd  %xmm1,%xmm0
  10c7de:	f2 0f 11 45 e8       	movsd  %xmm0,-0x18(%rbp)
  10c7e3:	48 83 45 f0 01       	addq   $0x1,-0x10(%rbp)
  10c7e8:	0f b6 45 e7          	movzbl -0x19(%rbp),%eax
  10c7ec:	83 c0 01             	add    $0x1,%eax
  10c7ef:	88 45 e7             	mov    %al,-0x19(%rbp)
  10c7f2:	eb a1                	jmp    10c795 <_Z18string_from_doubledh+0x13b>
  10c7f4:	48 8b 45 f0          	mov    -0x10(%rbp),%rax
  10c7f8:	c6 00 00             	movb   $0x0,(%rax)
  10c7fb:	48 8d 05 1e b0 00 00 	lea    0xb01e(%rip),%rax        # 117820 <doubleTo_StringOutput>
  10c802:	c9                   	leaveq 
  10c803:	c3                   	retq   

000000000010c804 <_Z7kprintfPKcz>:
  10c804:	f3 0f 1e fa          	endbr64 
  10c808:	55                   	push   %rbp
  10c809:	48 89 e5             	mov    %rsp,%rbp
  10c80c:	48 81 ec 30 01 00 00 	sub    $0x130,%rsp
  10c813:	48 89 bd d8 fe ff ff 	mov    %rdi,-0x128(%rbp)
  10c81a:	48 89 b5 58 ff ff ff 	mov    %rsi,-0xa8(%rbp)
  10c821:	48 89 95 60 ff ff ff 	mov    %rdx,-0xa0(%rbp)
  10c828:	48 89 8d 68 ff ff ff 	mov    %rcx,-0x98(%rbp)
  10c82f:	4c 89 85 70 ff ff ff 	mov    %r8,-0x90(%rbp)
  10c836:	4c 89 8d 78 ff ff ff 	mov    %r9,-0x88(%rbp)
  10c83d:	84 c0                	test   %al,%al
  10c83f:	74 20                	je     10c861 <_Z7kprintfPKcz+0x5d>
  10c841:	0f 29 45 80          	movaps %xmm0,-0x80(%rbp)
  10c845:	0f 29 4d 90          	movaps %xmm1,-0x70(%rbp)
  10c849:	0f 29 55 a0          	movaps %xmm2,-0x60(%rbp)
  10c84d:	0f 29 5d b0          	movaps %xmm3,-0x50(%rbp)
  10c851:	0f 29 65 c0          	movaps %xmm4,-0x40(%rbp)
  10c855:	0f 29 6d d0          	movaps %xmm5,-0x30(%rbp)
  10c859:	0f 29 75 e0          	movaps %xmm6,-0x20(%rbp)
  10c85d:	0f 29 7d f0          	movaps %xmm7,-0x10(%rbp)
  10c861:	e8 18 89 ff ff       	callq  10517e <_ZN7Display13SharedDisplayEv>
  10c866:	48 89 85 40 ff ff ff 	mov    %rax,-0xc0(%rbp)
  10c86d:	c7 85 e8 fe ff ff 08 	movl   $0x8,-0x118(%rbp)
  10c874:	00 00 00 
  10c877:	c7 85 ec fe ff ff 30 	movl   $0x30,-0x114(%rbp)
  10c87e:	00 00 00 
  10c881:	48 8d 45 10          	lea    0x10(%rbp),%rax
  10c885:	48 89 85 f0 fe ff ff 	mov    %rax,-0x110(%rbp)
  10c88c:	48 8d 85 50 ff ff ff 	lea    -0xb0(%rbp),%rax
  10c893:	48 89 85 f8 fe ff ff 	mov    %rax,-0x108(%rbp)
  10c89a:	48 8b 85 d8 fe ff ff 	mov    -0x128(%rbp),%rax
  10c8a1:	48 89 85 48 ff ff ff 	mov    %rax,-0xb8(%rbp)
  10c8a8:	48 8b 85 48 ff ff ff 	mov    -0xb8(%rbp),%rax
  10c8af:	0f b6 00             	movzbl (%rax),%eax
  10c8b2:	84 c0                	test   %al,%al
  10c8b4:	0f 84 1c 03 00 00    	je     10cbd6 <_Z7kprintfPKcz+0x3d2>
  10c8ba:	48 8b 85 48 ff ff ff 	mov    -0xb8(%rbp),%rax
  10c8c1:	0f b6 00             	movzbl (%rax),%eax
  10c8c4:	3c 25                	cmp    $0x25,%al
  10c8c6:	74 3a                	je     10c902 <_Z7kprintfPKcz+0xfe>
  10c8c8:	48 8b 85 48 ff ff ff 	mov    -0xb8(%rbp),%rax
  10c8cf:	0f b6 00             	movzbl (%rax),%eax
  10c8d2:	84 c0                	test   %al,%al
  10c8d4:	0f 84 ff 02 00 00    	je     10cbd9 <_Z7kprintfPKcz+0x3d5>
  10c8da:	48 8b 85 48 ff ff ff 	mov    -0xb8(%rbp),%rax
  10c8e1:	0f b6 00             	movzbl (%rax),%eax
  10c8e4:	0f be d0             	movsbl %al,%edx
  10c8e7:	48 8b 85 40 ff ff ff 	mov    -0xc0(%rbp),%rax
  10c8ee:	89 d6                	mov    %edx,%esi
  10c8f0:	48 89 c7             	mov    %rax,%rdi
  10c8f3:	e8 74 8d ff ff       	callq  10566c <_ZN7Display4putcEc>
  10c8f8:	48 83 85 48 ff ff ff 	addq   $0x1,-0xb8(%rbp)
  10c8ff:	01 
  10c900:	eb b8                	jmp    10c8ba <_Z7kprintfPKcz+0xb6>
  10c902:	48 83 85 48 ff ff ff 	addq   $0x1,-0xb8(%rbp)
  10c909:	01 
  10c90a:	48 8b 85 48 ff ff ff 	mov    -0xb8(%rbp),%rax
  10c911:	0f b6 00             	movzbl (%rax),%eax
  10c914:	0f be c0             	movsbl %al,%eax
  10c917:	83 e8 63             	sub    $0x63,%eax
  10c91a:	83 f8 15             	cmp    $0x15,%eax
  10c91d:	0f 87 a5 02 00 00    	ja     10cbc8 <_Z7kprintfPKcz+0x3c4>
  10c923:	89 c0                	mov    %eax,%eax
  10c925:	48 8d 14 85 00 00 00 	lea    0x0(,%rax,4),%rdx
  10c92c:	00 
  10c92d:	48 8d 05 ac 4b 00 00 	lea    0x4bac(%rip),%rax        # 1114e0 <_ZL8sc_ascii+0x480>
  10c934:	8b 04 02             	mov    (%rdx,%rax,1),%eax
  10c937:	48 98                	cltq   
  10c939:	48 8d 15 a0 4b 00 00 	lea    0x4ba0(%rip),%rdx        # 1114e0 <_ZL8sc_ascii+0x480>
  10c940:	48 01 d0             	add    %rdx,%rax
  10c943:	3e ff e0             	notrack jmpq *%rax
  10c946:	8b 85 e8 fe ff ff    	mov    -0x118(%rbp),%eax
  10c94c:	83 f8 2f             	cmp    $0x2f,%eax
  10c94f:	77 23                	ja     10c974 <_Z7kprintfPKcz+0x170>
  10c951:	48 8b 85 f8 fe ff ff 	mov    -0x108(%rbp),%rax
  10c958:	8b 95 e8 fe ff ff    	mov    -0x118(%rbp),%edx
  10c95e:	89 d2                	mov    %edx,%edx
  10c960:	48 01 d0             	add    %rdx,%rax
  10c963:	8b 95 e8 fe ff ff    	mov    -0x118(%rbp),%edx
  10c969:	83 c2 08             	add    $0x8,%edx
  10c96c:	89 95 e8 fe ff ff    	mov    %edx,-0x118(%rbp)
  10c972:	eb 12                	jmp    10c986 <_Z7kprintfPKcz+0x182>
  10c974:	48 8b 85 f0 fe ff ff 	mov    -0x110(%rbp),%rax
  10c97b:	48 8d 50 08          	lea    0x8(%rax),%rdx
  10c97f:	48 89 95 f0 fe ff ff 	mov    %rdx,-0x110(%rbp)
  10c986:	48 8b 00             	mov    (%rax),%rax
  10c989:	48 89 85 38 ff ff ff 	mov    %rax,-0xc8(%rbp)
  10c990:	48 8b 85 38 ff ff ff 	mov    -0xc8(%rbp),%rax
  10c997:	0f be d0             	movsbl %al,%edx
  10c99a:	48 8b 85 40 ff ff ff 	mov    -0xc0(%rbp),%rax
  10c9a1:	89 d6                	mov    %edx,%esi
  10c9a3:	48 89 c7             	mov    %rax,%rdi
  10c9a6:	e8 c1 8c ff ff       	callq  10566c <_ZN7Display4putcEc>
  10c9ab:	e9 19 02 00 00       	jmpq   10cbc9 <_Z7kprintfPKcz+0x3c5>
  10c9b0:	8b 85 e8 fe ff ff    	mov    -0x118(%rbp),%eax
  10c9b6:	83 f8 2f             	cmp    $0x2f,%eax
  10c9b9:	77 23                	ja     10c9de <_Z7kprintfPKcz+0x1da>
  10c9bb:	48 8b 85 f8 fe ff ff 	mov    -0x108(%rbp),%rax
  10c9c2:	8b 95 e8 fe ff ff    	mov    -0x118(%rbp),%edx
  10c9c8:	89 d2                	mov    %edx,%edx
  10c9ca:	48 01 d0             	add    %rdx,%rax
  10c9cd:	8b 95 e8 fe ff ff    	mov    -0x118(%rbp),%edx
  10c9d3:	83 c2 08             	add    $0x8,%edx
  10c9d6:	89 95 e8 fe ff ff    	mov    %edx,-0x118(%rbp)
  10c9dc:	eb 12                	jmp    10c9f0 <_Z7kprintfPKcz+0x1ec>
  10c9de:	48 8b 85 f0 fe ff ff 	mov    -0x110(%rbp),%rax
  10c9e5:	48 8d 50 08          	lea    0x8(%rax),%rdx
  10c9e9:	48 89 95 f0 fe ff ff 	mov    %rdx,-0x110(%rbp)
  10c9f0:	48 8b 00             	mov    (%rax),%rax
  10c9f3:	48 89 85 30 ff ff ff 	mov    %rax,-0xd0(%rbp)
  10c9fa:	48 8b 95 30 ff ff ff 	mov    -0xd0(%rbp),%rdx
  10ca01:	48 8b 85 40 ff ff ff 	mov    -0xc0(%rbp),%rax
  10ca08:	48 89 d6             	mov    %rdx,%rsi
  10ca0b:	48 89 c7             	mov    %rax,%rdi
  10ca0e:	e8 5d 89 ff ff       	callq  105370 <_ZN7Display4putsEPKc>
  10ca13:	e9 b1 01 00 00       	jmpq   10cbc9 <_Z7kprintfPKcz+0x3c5>
  10ca18:	8b 85 e8 fe ff ff    	mov    -0x118(%rbp),%eax
  10ca1e:	83 f8 2f             	cmp    $0x2f,%eax
  10ca21:	77 23                	ja     10ca46 <_Z7kprintfPKcz+0x242>
  10ca23:	48 8b 85 f8 fe ff ff 	mov    -0x108(%rbp),%rax
  10ca2a:	8b 95 e8 fe ff ff    	mov    -0x118(%rbp),%edx
  10ca30:	89 d2                	mov    %edx,%edx
  10ca32:	48 01 d0             	add    %rdx,%rax
  10ca35:	8b 95 e8 fe ff ff    	mov    -0x118(%rbp),%edx
  10ca3b:	83 c2 08             	add    $0x8,%edx
  10ca3e:	89 95 e8 fe ff ff    	mov    %edx,-0x118(%rbp)
  10ca44:	eb 12                	jmp    10ca58 <_Z7kprintfPKcz+0x254>
  10ca46:	48 8b 85 f0 fe ff ff 	mov    -0x110(%rbp),%rax
  10ca4d:	48 8d 50 08          	lea    0x8(%rax),%rdx
  10ca51:	48 89 95 f0 fe ff ff 	mov    %rdx,-0x110(%rbp)
  10ca58:	48 8b 00             	mov    (%rax),%rax
  10ca5b:	48 89 85 38 ff ff ff 	mov    %rax,-0xc8(%rbp)
  10ca62:	48 8d 85 00 ff ff ff 	lea    -0x100(%rbp),%rax
  10ca69:	ba 1e 00 00 00       	mov    $0x1e,%edx
  10ca6e:	be 00 00 00 00       	mov    $0x0,%esi
  10ca73:	48 89 c7             	mov    %rax,%rdi
  10ca76:	e8 c8 01 00 00       	callq  10cc43 <_Z6memsetPvim>
  10ca7b:	48 8b 95 38 ff ff ff 	mov    -0xc8(%rbp),%rdx
  10ca82:	48 8d 85 00 ff ff ff 	lea    -0x100(%rbp),%rax
  10ca89:	be 64 00 00 00       	mov    $0x64,%esi
  10ca8e:	48 89 c7             	mov    %rax,%rdi
  10ca91:	e8 c2 f7 ff ff       	callq  10c258 <_Z4itoaPhjm>
  10ca96:	48 8d 95 00 ff ff ff 	lea    -0x100(%rbp),%rdx
  10ca9d:	48 8b 85 40 ff ff ff 	mov    -0xc0(%rbp),%rax
  10caa4:	48 89 d6             	mov    %rdx,%rsi
  10caa7:	48 89 c7             	mov    %rax,%rdi
  10caaa:	e8 c1 88 ff ff       	callq  105370 <_ZN7Display4putsEPKc>
  10caaf:	e9 15 01 00 00       	jmpq   10cbc9 <_Z7kprintfPKcz+0x3c5>
  10cab4:	8b 85 e8 fe ff ff    	mov    -0x118(%rbp),%eax
  10caba:	83 f8 2f             	cmp    $0x2f,%eax
  10cabd:	77 23                	ja     10cae2 <_Z7kprintfPKcz+0x2de>
  10cabf:	48 8b 85 f8 fe ff ff 	mov    -0x108(%rbp),%rax
  10cac6:	8b 95 e8 fe ff ff    	mov    -0x118(%rbp),%edx
  10cacc:	89 d2                	mov    %edx,%edx
  10cace:	48 01 d0             	add    %rdx,%rax
  10cad1:	8b 95 e8 fe ff ff    	mov    -0x118(%rbp),%edx
  10cad7:	83 c2 08             	add    $0x8,%edx
  10cada:	89 95 e8 fe ff ff    	mov    %edx,-0x118(%rbp)
  10cae0:	eb 12                	jmp    10caf4 <_Z7kprintfPKcz+0x2f0>
  10cae2:	48 8b 85 f0 fe ff ff 	mov    -0x110(%rbp),%rax
  10cae9:	48 8d 50 08          	lea    0x8(%rax),%rdx
  10caed:	48 89 95 f0 fe ff ff 	mov    %rdx,-0x110(%rbp)
  10caf4:	48 8b 00             	mov    (%rax),%rax
  10caf7:	48 89 85 38 ff ff ff 	mov    %rax,-0xc8(%rbp)
  10cafe:	48 8d 85 00 ff ff ff 	lea    -0x100(%rbp),%rax
  10cb05:	ba 1e 00 00 00       	mov    $0x1e,%edx
  10cb0a:	be 00 00 00 00       	mov    $0x0,%esi
  10cb0f:	48 89 c7             	mov    %rax,%rdi
  10cb12:	e8 2c 01 00 00       	callq  10cc43 <_Z6memsetPvim>
  10cb17:	48 8b 95 38 ff ff ff 	mov    -0xc8(%rbp),%rdx
  10cb1e:	48 8d 85 00 ff ff ff 	lea    -0x100(%rbp),%rax
  10cb25:	be 78 00 00 00       	mov    $0x78,%esi
  10cb2a:	48 89 c7             	mov    %rax,%rdi
  10cb2d:	e8 26 f7 ff ff       	callq  10c258 <_Z4itoaPhjm>
  10cb32:	48 8d 95 00 ff ff ff 	lea    -0x100(%rbp),%rdx
  10cb39:	48 8b 85 40 ff ff ff 	mov    -0xc0(%rbp),%rax
  10cb40:	48 89 d6             	mov    %rdx,%rsi
  10cb43:	48 89 c7             	mov    %rax,%rdi
  10cb46:	e8 25 88 ff ff       	callq  105370 <_ZN7Display4putsEPKc>
  10cb4b:	eb 7c                	jmp    10cbc9 <_Z7kprintfPKcz+0x3c5>
  10cb4d:	8b 85 ec fe ff ff    	mov    -0x114(%rbp),%eax
  10cb53:	3d af 00 00 00       	cmp    $0xaf,%eax
  10cb58:	77 23                	ja     10cb7d <_Z7kprintfPKcz+0x379>
  10cb5a:	48 8b 85 f8 fe ff ff 	mov    -0x108(%rbp),%rax
  10cb61:	8b 95 ec fe ff ff    	mov    -0x114(%rbp),%edx
  10cb67:	89 d2                	mov    %edx,%edx
  10cb69:	48 01 d0             	add    %rdx,%rax
  10cb6c:	8b 95 ec fe ff ff    	mov    -0x114(%rbp),%edx
  10cb72:	83 c2 10             	add    $0x10,%edx
  10cb75:	89 95 ec fe ff ff    	mov    %edx,-0x114(%rbp)
  10cb7b:	eb 12                	jmp    10cb8f <_Z7kprintfPKcz+0x38b>
  10cb7d:	48 8b 85 f0 fe ff ff 	mov    -0x110(%rbp),%rax
  10cb84:	48 8d 50 08          	lea    0x8(%rax),%rdx
  10cb88:	48 89 95 f0 fe ff ff 	mov    %rdx,-0x110(%rbp)
  10cb8f:	f2 0f 10 00          	movsd  (%rax),%xmm0
  10cb93:	f2 0f 11 85 28 ff ff 	movsd  %xmm0,-0xd8(%rbp)
  10cb9a:	ff 
  10cb9b:	48 8b 85 28 ff ff ff 	mov    -0xd8(%rbp),%rax
  10cba2:	bf 08 00 00 00       	mov    $0x8,%edi
  10cba7:	66 48 0f 6e c0       	movq   %rax,%xmm0
  10cbac:	e8 a9 fa ff ff       	callq  10c65a <_Z18string_from_doubledh>
  10cbb1:	48 89 c2             	mov    %rax,%rdx
  10cbb4:	48 8b 85 40 ff ff ff 	mov    -0xc0(%rbp),%rax
  10cbbb:	48 89 d6             	mov    %rdx,%rsi
  10cbbe:	48 89 c7             	mov    %rax,%rdi
  10cbc1:	e8 aa 87 ff ff       	callq  105370 <_ZN7Display4putsEPKc>
  10cbc6:	eb 01                	jmp    10cbc9 <_Z7kprintfPKcz+0x3c5>
  10cbc8:	90                   	nop
  10cbc9:	48 83 85 48 ff ff ff 	addq   $0x1,-0xb8(%rbp)
  10cbd0:	01 
  10cbd1:	e9 d2 fc ff ff       	jmpq   10c8a8 <_Z7kprintfPKcz+0xa4>
  10cbd6:	90                   	nop
  10cbd7:	eb 01                	jmp    10cbda <_Z7kprintfPKcz+0x3d6>
  10cbd9:	90                   	nop
  10cbda:	90                   	nop
  10cbdb:	c9                   	leaveq 
  10cbdc:	c3                   	retq   

000000000010cbdd <_Z17kprintf_backspacev>:
  10cbdd:	f3 0f 1e fa          	endbr64 
  10cbe1:	55                   	push   %rbp
  10cbe2:	48 89 e5             	mov    %rsp,%rbp
  10cbe5:	48 83 ec 10          	sub    $0x10,%rsp
  10cbe9:	e8 90 85 ff ff       	callq  10517e <_ZN7Display13SharedDisplayEv>
  10cbee:	48 89 45 f8          	mov    %rax,-0x8(%rbp)
  10cbf2:	48 8b 45 f8          	mov    -0x8(%rbp),%rax
  10cbf6:	48 89 c7             	mov    %rax,%rdi
  10cbf9:	e8 4e 87 ff ff       	callq  10534c <_ZN7Display13put_backspaceEv>
  10cbfe:	90                   	nop
  10cbff:	c9                   	leaveq 
  10cc00:	c3                   	retq   

000000000010cc01 <_Z6memcpyPvPKvm>:
  10cc01:	f3 0f 1e fa          	endbr64 
  10cc05:	55                   	push   %rbp
  10cc06:	48 89 e5             	mov    %rsp,%rbp
  10cc09:	48 83 ec 20          	sub    $0x20,%rsp
  10cc0d:	48 89 7d f8          	mov    %rdi,-0x8(%rbp)
  10cc11:	48 89 75 f0          	mov    %rsi,-0x10(%rbp)
  10cc15:	48 89 55 e8          	mov    %rdx,-0x18(%rbp)
  10cc19:	48 83 7d e8 00       	cmpq   $0x0,-0x18(%rbp)
  10cc1e:	75 06                	jne    10cc26 <_Z6memcpyPvPKvm+0x25>
  10cc20:	48 8b 45 f8          	mov    -0x8(%rbp),%rax
  10cc24:	eb 1b                	jmp    10cc41 <_Z6memcpyPvPKvm+0x40>
  10cc26:	48 8b 55 e8          	mov    -0x18(%rbp),%rdx
  10cc2a:	48 8b 4d f0          	mov    -0x10(%rbp),%rcx
  10cc2e:	48 8b 45 f8          	mov    -0x8(%rbp),%rax
  10cc32:	48 89 ce             	mov    %rcx,%rsi
  10cc35:	48 89 c7             	mov    %rax,%rdi
  10cc38:	e8 4c 12 00 00       	callq  10de89 <__memcpy>
  10cc3d:	48 8b 45 f8          	mov    -0x8(%rbp),%rax
  10cc41:	c9                   	leaveq 
  10cc42:	c3                   	retq   

000000000010cc43 <_Z6memsetPvim>:
  10cc43:	f3 0f 1e fa          	endbr64 
  10cc47:	55                   	push   %rbp
  10cc48:	48 89 e5             	mov    %rsp,%rbp
  10cc4b:	48 83 ec 20          	sub    $0x20,%rsp
  10cc4f:	48 89 7d f8          	mov    %rdi,-0x8(%rbp)
  10cc53:	89 75 f4             	mov    %esi,-0xc(%rbp)
  10cc56:	48 89 55 e8          	mov    %rdx,-0x18(%rbp)
  10cc5a:	48 83 7d e8 00       	cmpq   $0x0,-0x18(%rbp)
  10cc5f:	75 06                	jne    10cc67 <_Z6memsetPvim+0x24>
  10cc61:	48 8b 45 f8          	mov    -0x8(%rbp),%rax
  10cc65:	eb 19                	jmp    10cc80 <_Z6memsetPvim+0x3d>
  10cc67:	48 8b 55 e8          	mov    -0x18(%rbp),%rdx
  10cc6b:	8b 4d f4             	mov    -0xc(%rbp),%ecx
  10cc6e:	48 8b 45 f8          	mov    -0x8(%rbp),%rax
  10cc72:	89 ce                	mov    %ecx,%esi
  10cc74:	48 89 c7             	mov    %rax,%rdi
  10cc77:	e8 04 12 00 00       	callq  10de80 <__memset>
  10cc7c:	48 8b 45 f8          	mov    -0x8(%rbp),%rax
  10cc80:	c9                   	leaveq 
  10cc81:	c3                   	retq   

000000000010cc82 <_Z6memcmpPvS_m>:
  10cc82:	f3 0f 1e fa          	endbr64 
  10cc86:	55                   	push   %rbp
  10cc87:	48 89 e5             	mov    %rsp,%rbp
  10cc8a:	48 83 ec 20          	sub    $0x20,%rsp
  10cc8e:	48 89 7d f8          	mov    %rdi,-0x8(%rbp)
  10cc92:	48 89 75 f0          	mov    %rsi,-0x10(%rbp)
  10cc96:	48 89 55 e8          	mov    %rdx,-0x18(%rbp)
  10cc9a:	48 83 7d e8 00       	cmpq   $0x0,-0x18(%rbp)
  10cc9f:	75 07                	jne    10cca8 <_Z6memcmpPvS_m+0x26>
  10cca1:	b8 ff ff ff ff       	mov    $0xffffffff,%eax
  10cca6:	eb 1f                	jmp    10ccc7 <_Z6memcmpPvS_m+0x45>
  10cca8:	48 8b 55 e8          	mov    -0x18(%rbp),%rdx
  10ccac:	48 8b 4d f0          	mov    -0x10(%rbp),%rcx
  10ccb0:	48 8b 45 f8          	mov    -0x8(%rbp),%rax
  10ccb4:	48 89 ce             	mov    %rcx,%rsi
  10ccb7:	48 89 c7             	mov    %rax,%rdi
  10ccba:	e8 d0 11 00 00       	callq  10de8f <__memcmp>
  10ccbf:	85 c0                	test   %eax,%eax
  10ccc1:	0f 94 c0             	sete   %al
  10ccc4:	0f b6 c0             	movzbl %al,%eax
  10ccc7:	c9                   	leaveq 
  10ccc8:	c3                   	retq   

000000000010ccc9 <_Z11kmalloc_intmiPm>:
  10ccc9:	f3 0f 1e fa          	endbr64 
  10cccd:	55                   	push   %rbp
  10ccce:	48 89 e5             	mov    %rsp,%rbp
  10ccd1:	48 83 ec 40          	sub    $0x40,%rsp
  10ccd5:	48 89 7d d8          	mov    %rdi,-0x28(%rbp)
  10ccd9:	89 75 d4             	mov    %esi,-0x2c(%rbp)
  10ccdc:	48 89 55 c8          	mov    %rdx,-0x38(%rbp)
  10cce0:	0f b6 05 31 ac 00 00 	movzbl 0xac31(%rip),%eax        # 117918 <heap_init>
  10cce7:	84 c0                	test   %al,%al
  10cce9:	75 79                	jne    10cd64 <_Z11kmalloc_intmiPm+0x9b>
  10cceb:	83 7d d4 01          	cmpl   $0x1,-0x2c(%rbp)
  10ccef:	75 38                	jne    10cd29 <_Z11kmalloc_intmiPm+0x60>
  10ccf1:	48 8b 05 98 27 00 00 	mov    0x2798(%rip),%rax        # 10f490 <free_mem_addr>
  10ccf8:	25 ff 0f 00 00       	and    $0xfff,%eax
  10ccfd:	48 85 c0             	test   %rax,%rax
  10cd00:	74 27                	je     10cd29 <_Z11kmalloc_intmiPm+0x60>
  10cd02:	48 8b 05 87 27 00 00 	mov    0x2787(%rip),%rax        # 10f490 <free_mem_addr>
  10cd09:	25 00 f0 ff ff       	and    $0xfffff000,%eax
  10cd0e:	48 89 05 7b 27 00 00 	mov    %rax,0x277b(%rip)        # 10f490 <free_mem_addr>
  10cd15:	48 8b 05 74 27 00 00 	mov    0x2774(%rip),%rax        # 10f490 <free_mem_addr>
  10cd1c:	48 05 00 10 00 00    	add    $0x1000,%rax
  10cd22:	48 89 05 67 27 00 00 	mov    %rax,0x2767(%rip)        # 10f490 <free_mem_addr>
  10cd29:	48 83 7d c8 00       	cmpq   $0x0,-0x38(%rbp)
  10cd2e:	74 0e                	je     10cd3e <_Z11kmalloc_intmiPm+0x75>
  10cd30:	48 8b 15 59 27 00 00 	mov    0x2759(%rip),%rdx        # 10f490 <free_mem_addr>
  10cd37:	48 8b 45 c8          	mov    -0x38(%rbp),%rax
  10cd3b:	48 89 10             	mov    %rdx,(%rax)
  10cd3e:	48 8b 05 4b 27 00 00 	mov    0x274b(%rip),%rax        # 10f490 <free_mem_addr>
  10cd45:	48 89 45 e8          	mov    %rax,-0x18(%rbp)
  10cd49:	48 8b 15 40 27 00 00 	mov    0x2740(%rip),%rdx        # 10f490 <free_mem_addr>
  10cd50:	48 8b 45 d8          	mov    -0x28(%rbp),%rax
  10cd54:	48 01 d0             	add    %rdx,%rax
  10cd57:	48 89 05 32 27 00 00 	mov    %rax,0x2732(%rip)        # 10f490 <free_mem_addr>
  10cd5e:	48 8b 45 e8          	mov    -0x18(%rbp),%rax
  10cd62:	eb 4c                	jmp    10cdb0 <_Z11kmalloc_intmiPm+0xe7>
  10cd64:	48 8b 45 d8          	mov    -0x28(%rbp),%rax
  10cd68:	48 89 c7             	mov    %rax,%rdi
  10cd6b:	e8 94 68 ff ff       	callq  103604 <_Z5allocm>
  10cd70:	48 89 45 f8          	mov    %rax,-0x8(%rbp)
  10cd74:	48 83 7d c8 00       	cmpq   $0x0,-0x38(%rbp)
  10cd79:	74 31                	je     10cdac <_Z11kmalloc_intmiPm+0xe3>
  10cd7b:	48 8b 45 f8          	mov    -0x8(%rbp),%rax
  10cd7f:	48 89 c6             	mov    %rax,%rsi
  10cd82:	48 8d 3d bf 82 00 00 	lea    0x82bf(%rip),%rdi        # 115048 <KernelDirectory>
  10cd89:	e8 fa 35 ff ff       	callq  100388 <_ZN16PageTableManager15PhysicalAddressEm>
  10cd8e:	48 89 45 f0          	mov    %rax,-0x10(%rbp)
  10cd92:	48 8b 45 f8          	mov    -0x8(%rbp),%rax
  10cd96:	25 ff 0f 00 00       	and    $0xfff,%eax
  10cd9b:	48 89 c2             	mov    %rax,%rdx
  10cd9e:	48 8b 45 f0          	mov    -0x10(%rbp),%rax
  10cda2:	48 01 c2             	add    %rax,%rdx
  10cda5:	48 8b 45 c8          	mov    -0x38(%rbp),%rax
  10cda9:	48 89 10             	mov    %rdx,(%rax)
  10cdac:	48 8b 45 f8          	mov    -0x8(%rbp),%rax
  10cdb0:	c9                   	leaveq 
  10cdb1:	c3                   	retq   

000000000010cdb2 <_Z5kfreePv>:
  10cdb2:	f3 0f 1e fa          	endbr64 
  10cdb6:	55                   	push   %rbp
  10cdb7:	48 89 e5             	mov    %rsp,%rbp
  10cdba:	48 83 ec 10          	sub    $0x10,%rsp
  10cdbe:	48 89 7d f8          	mov    %rdi,-0x8(%rbp)
  10cdc2:	0f b6 05 4f ab 00 00 	movzbl 0xab4f(%rip),%eax        # 117918 <heap_init>
  10cdc9:	3c 01                	cmp    $0x1,%al
  10cdcb:	75 0c                	jne    10cdd9 <_Z5kfreePv+0x27>
  10cdcd:	48 8b 45 f8          	mov    -0x8(%rbp),%rax
  10cdd1:	48 89 c7             	mov    %rax,%rdi
  10cdd4:	e8 01 69 ff ff       	callq  1036da <_Z4freePv>
  10cdd9:	90                   	nop
  10cdda:	c9                   	leaveq 
  10cddb:	c3                   	retq   

000000000010cddc <_Z9kmalloc_am>:
  10cddc:	f3 0f 1e fa          	endbr64 
  10cde0:	55                   	push   %rbp
  10cde1:	48 89 e5             	mov    %rsp,%rbp
  10cde4:	48 83 ec 10          	sub    $0x10,%rsp
  10cde8:	48 89 7d f8          	mov    %rdi,-0x8(%rbp)
  10cdec:	48 8b 45 f8          	mov    -0x8(%rbp),%rax
  10cdf0:	ba 00 00 00 00       	mov    $0x0,%edx
  10cdf5:	be 01 00 00 00       	mov    $0x1,%esi
  10cdfa:	48 89 c7             	mov    %rax,%rdi
  10cdfd:	e8 c7 fe ff ff       	callq  10ccc9 <_Z11kmalloc_intmiPm>
  10ce02:	c9                   	leaveq 
  10ce03:	c3                   	retq   

000000000010ce04 <_Z9kmalloc_pmPm>:
  10ce04:	f3 0f 1e fa          	endbr64 
  10ce08:	55                   	push   %rbp
  10ce09:	48 89 e5             	mov    %rsp,%rbp
  10ce0c:	48 83 ec 10          	sub    $0x10,%rsp
  10ce10:	48 89 7d f8          	mov    %rdi,-0x8(%rbp)
  10ce14:	48 89 75 f0          	mov    %rsi,-0x10(%rbp)
  10ce18:	48 8b 55 f0          	mov    -0x10(%rbp),%rdx
  10ce1c:	48 8b 45 f8          	mov    -0x8(%rbp),%rax
  10ce20:	be 00 00 00 00       	mov    $0x0,%esi
  10ce25:	48 89 c7             	mov    %rax,%rdi
  10ce28:	e8 9c fe ff ff       	callq  10ccc9 <_Z11kmalloc_intmiPm>
  10ce2d:	c9                   	leaveq 
  10ce2e:	c3                   	retq   

000000000010ce2f <_Z10kmalloc_apmPm>:
  10ce2f:	f3 0f 1e fa          	endbr64 
  10ce33:	55                   	push   %rbp
  10ce34:	48 89 e5             	mov    %rsp,%rbp
  10ce37:	48 83 ec 10          	sub    $0x10,%rsp
  10ce3b:	48 89 7d f8          	mov    %rdi,-0x8(%rbp)
  10ce3f:	48 89 75 f0          	mov    %rsi,-0x10(%rbp)
  10ce43:	48 8b 55 f0          	mov    -0x10(%rbp),%rdx
  10ce47:	48 8b 45 f8          	mov    -0x8(%rbp),%rax
  10ce4b:	be 01 00 00 00       	mov    $0x1,%esi
  10ce50:	48 89 c7             	mov    %rax,%rdi
  10ce53:	e8 71 fe ff ff       	callq  10ccc9 <_Z11kmalloc_intmiPm>
  10ce58:	c9                   	leaveq 
  10ce59:	c3                   	retq   

000000000010ce5a <_Z7kmallocm>:
  10ce5a:	f3 0f 1e fa          	endbr64 
  10ce5e:	55                   	push   %rbp
  10ce5f:	48 89 e5             	mov    %rsp,%rbp
  10ce62:	48 83 ec 10          	sub    $0x10,%rsp
  10ce66:	48 89 7d f8          	mov    %rdi,-0x8(%rbp)
  10ce6a:	48 8b 45 f8          	mov    -0x8(%rbp),%rax
  10ce6e:	ba 00 00 00 00       	mov    $0x0,%edx
  10ce73:	be 00 00 00 00       	mov    $0x0,%esi
  10ce78:	48 89 c7             	mov    %rax,%rdi
  10ce7b:	e8 49 fe ff ff       	callq  10ccc9 <_Z11kmalloc_intmiPm>
  10ce80:	c9                   	leaveq 
  10ce81:	c3                   	retq   

000000000010ce82 <_Z14InitialiseRSDPP10KernelInfo>:
  10ce82:	f3 0f 1e fa          	endbr64 
  10ce86:	55                   	push   %rbp
  10ce87:	48 89 e5             	mov    %rsp,%rbp
  10ce8a:	48 81 ec c0 03 00 00 	sub    $0x3c0,%rsp
  10ce91:	48 89 bd 48 fc ff ff 	mov    %rdi,-0x3b8(%rbp)
  10ce98:	48 8b 85 48 fc ff ff 	mov    -0x3b8(%rbp),%rax
  10ce9f:	48 8b 40 30          	mov    0x30(%rax),%rax
  10cea3:	48 89 45 d8          	mov    %rax,-0x28(%rbp)
  10cea7:	48 8b 45 d8          	mov    -0x28(%rbp),%rax
  10ceab:	48 89 c7             	mov    %rax,%rdi
  10ceae:	e8 1b 78 ff ff       	callq  1046ce <_ZN4ACPI4RSDP8is_validEv>
  10ceb3:	83 f0 01             	xor    $0x1,%eax
  10ceb6:	84 c0                	test   %al,%al
  10ceb8:	74 14                	je     10cece <_Z14InitialiseRSDPP10KernelInfo+0x4c>
  10ceba:	48 8d 3d 97 46 00 00 	lea    0x4697(%rip),%rdi        # 111558 <_ZL8sc_ascii+0x4f8>
  10cec1:	b8 00 00 00 00       	mov    $0x0,%eax
  10cec6:	e8 39 f9 ff ff       	callq  10c804 <_Z7kprintfPKcz>
  10cecb:	f4                   	hlt    
  10cecc:	eb fd                	jmp    10cecb <_Z14InitialiseRSDPP10KernelInfo+0x49>
  10cece:	48 8d 3d 9b 46 00 00 	lea    0x469b(%rip),%rdi        # 111570 <_ZL8sc_ascii+0x510>
  10ced5:	b8 00 00 00 00       	mov    $0x0,%eax
  10ceda:	e8 25 f9 ff ff       	callq  10c804 <_Z7kprintfPKcz>
  10cedf:	48 8b 45 d8          	mov    -0x28(%rbp),%rax
  10cee3:	48 89 c6             	mov    %rax,%rsi
  10cee6:	48 8d 3d 97 46 00 00 	lea    0x4697(%rip),%rdi        # 111584 <_ZL8sc_ascii+0x524>
  10ceed:	b8 00 00 00 00       	mov    $0x0,%eax
  10cef2:	e8 0d f9 ff ff       	callq  10c804 <_Z7kprintfPKcz>
  10cef7:	48 8d 3d 97 46 00 00 	lea    0x4697(%rip),%rdi        # 111595 <_ZL8sc_ascii+0x535>
  10cefe:	b8 00 00 00 00       	mov    $0x0,%eax
  10cf03:	e8 fc f8 ff ff       	callq  10c804 <_Z7kprintfPKcz>
  10cf08:	48 c7 45 f8 00 00 00 	movq   $0x0,-0x8(%rbp)
  10cf0f:	00 
  10cf10:	48 83 7d f8 07       	cmpq   $0x7,-0x8(%rbp)
  10cf15:	77 2b                	ja     10cf42 <_Z14InitialiseRSDPP10KernelInfo+0xc0>
  10cf17:	48 8b 55 d8          	mov    -0x28(%rbp),%rdx
  10cf1b:	48 8b 45 f8          	mov    -0x8(%rbp),%rax
  10cf1f:	48 01 d0             	add    %rdx,%rax
  10cf22:	0f b6 00             	movzbl (%rax),%eax
  10cf25:	0f be c0             	movsbl %al,%eax
  10cf28:	89 c6                	mov    %eax,%esi
  10cf2a:	48 8d 3d 71 46 00 00 	lea    0x4671(%rip),%rdi        # 1115a2 <_ZL8sc_ascii+0x542>
  10cf31:	b8 00 00 00 00       	mov    $0x0,%eax
  10cf36:	e8 c9 f8 ff ff       	callq  10c804 <_Z7kprintfPKcz>
  10cf3b:	48 83 45 f8 01       	addq   $0x1,-0x8(%rbp)
  10cf40:	eb ce                	jmp    10cf10 <_Z14InitialiseRSDPP10KernelInfo+0x8e>
  10cf42:	48 8d 3d 5c 46 00 00 	lea    0x465c(%rip),%rdi        # 1115a5 <_ZL8sc_ascii+0x545>
  10cf49:	b8 00 00 00 00       	mov    $0x0,%eax
  10cf4e:	e8 b1 f8 ff ff       	callq  10c804 <_Z7kprintfPKcz>
  10cf53:	48 8b 45 d8          	mov    -0x28(%rbp),%rax
  10cf57:	0f b6 40 08          	movzbl 0x8(%rax),%eax
  10cf5b:	0f b6 c0             	movzbl %al,%eax
  10cf5e:	89 c6                	mov    %eax,%esi
  10cf60:	48 8d 3d 40 46 00 00 	lea    0x4640(%rip),%rdi        # 1115a7 <_ZL8sc_ascii+0x547>
  10cf67:	b8 00 00 00 00       	mov    $0x0,%eax
  10cf6c:	e8 93 f8 ff ff       	callq  10c804 <_Z7kprintfPKcz>
  10cf71:	48 8d 3d 3e 46 00 00 	lea    0x463e(%rip),%rdi        # 1115b6 <_ZL8sc_ascii+0x556>
  10cf78:	b8 00 00 00 00       	mov    $0x0,%eax
  10cf7d:	e8 82 f8 ff ff       	callq  10c804 <_Z7kprintfPKcz>
  10cf82:	48 c7 45 f0 00 00 00 	movq   $0x0,-0x10(%rbp)
  10cf89:	00 
  10cf8a:	48 83 7d f0 05       	cmpq   $0x5,-0x10(%rbp)
  10cf8f:	77 2f                	ja     10cfc0 <_Z14InitialiseRSDPP10KernelInfo+0x13e>
  10cf91:	48 8b 55 d8          	mov    -0x28(%rbp),%rdx
  10cf95:	48 8b 45 f0          	mov    -0x10(%rbp),%rax
  10cf99:	48 01 d0             	add    %rdx,%rax
  10cf9c:	48 83 c0 09          	add    $0x9,%rax
  10cfa0:	0f b6 00             	movzbl (%rax),%eax
  10cfa3:	0f be c0             	movsbl %al,%eax
  10cfa6:	89 c6                	mov    %eax,%esi
  10cfa8:	48 8d 3d f3 45 00 00 	lea    0x45f3(%rip),%rdi        # 1115a2 <_ZL8sc_ascii+0x542>
  10cfaf:	b8 00 00 00 00       	mov    $0x0,%eax
  10cfb4:	e8 4b f8 ff ff       	callq  10c804 <_Z7kprintfPKcz>
  10cfb9:	48 83 45 f0 01       	addq   $0x1,-0x10(%rbp)
  10cfbe:	eb ca                	jmp    10cf8a <_Z14InitialiseRSDPP10KernelInfo+0x108>
  10cfc0:	48 8d 3d de 45 00 00 	lea    0x45de(%rip),%rdi        # 1115a5 <_ZL8sc_ascii+0x545>
  10cfc7:	b8 00 00 00 00       	mov    $0x0,%eax
  10cfcc:	e8 33 f8 ff ff       	callq  10c804 <_Z7kprintfPKcz>
  10cfd1:	48 8b 45 d8          	mov    -0x28(%rbp),%rax
  10cfd5:	0f b6 40 0f          	movzbl 0xf(%rax),%eax
  10cfd9:	0f b6 c0             	movzbl %al,%eax
  10cfdc:	89 c6                	mov    %eax,%esi
  10cfde:	48 8d 3d da 45 00 00 	lea    0x45da(%rip),%rdi        # 1115bf <_ZL8sc_ascii+0x55f>
  10cfe5:	b8 00 00 00 00       	mov    $0x0,%eax
  10cfea:	e8 15 f8 ff ff       	callq  10c804 <_Z7kprintfPKcz>
  10cfef:	48 8b 45 d8          	mov    -0x28(%rbp),%rax
  10cff3:	8b 40 10             	mov    0x10(%rax),%eax
  10cff6:	89 c6                	mov    %eax,%esi
  10cff8:	48 8d 3d cf 45 00 00 	lea    0x45cf(%rip),%rdi        # 1115ce <_ZL8sc_ascii+0x56e>
  10cfff:	b8 00 00 00 00       	mov    $0x0,%eax
  10d004:	e8 fb f7 ff ff       	callq  10c804 <_Z7kprintfPKcz>
  10d009:	48 8b 45 d8          	mov    -0x28(%rbp),%rax
  10d00d:	8b 40 14             	mov    0x14(%rax),%eax
  10d010:	89 c6                	mov    %eax,%esi
  10d012:	48 8d 3d ca 45 00 00 	lea    0x45ca(%rip),%rdi        # 1115e3 <_ZL8sc_ascii+0x583>
  10d019:	b8 00 00 00 00       	mov    $0x0,%eax
  10d01e:	e8 e1 f7 ff ff       	callq  10c804 <_Z7kprintfPKcz>
  10d023:	48 8b 45 d8          	mov    -0x28(%rbp),%rax
  10d027:	48 8b 40 18          	mov    0x18(%rax),%rax
  10d02b:	48 89 c6             	mov    %rax,%rsi
  10d02e:	48 8d 3d bb 45 00 00 	lea    0x45bb(%rip),%rdi        # 1115f0 <_ZL8sc_ascii+0x590>
  10d035:	b8 00 00 00 00       	mov    $0x0,%eax
  10d03a:	e8 c5 f7 ff ff       	callq  10c804 <_Z7kprintfPKcz>
  10d03f:	48 8b 45 d8          	mov    -0x28(%rbp),%rax
  10d043:	0f b6 40 20          	movzbl 0x20(%rax),%eax
  10d047:	0f b6 c0             	movzbl %al,%eax
  10d04a:	89 c6                	mov    %eax,%esi
  10d04c:	48 8d 3d b2 45 00 00 	lea    0x45b2(%rip),%rdi        # 111605 <_ZL8sc_ascii+0x5a5>
  10d053:	b8 00 00 00 00       	mov    $0x0,%eax
  10d058:	e8 a7 f7 ff ff       	callq  10c804 <_Z7kprintfPKcz>
  10d05d:	48 8b 45 d8          	mov    -0x28(%rbp),%rax
  10d061:	48 89 c7             	mov    %rax,%rdi
  10d064:	e8 27 76 ff ff       	callq  104690 <_ZN4ACPI4RSDP18GetRootSystemTableEv>
  10d069:	48 89 45 d0          	mov    %rax,-0x30(%rbp)
  10d06d:	48 8b 45 d8          	mov    -0x28(%rbp),%rax
  10d071:	48 89 c7             	mov    %rax,%rdi
  10d074:	e8 c3 76 ff ff       	callq  10473c <_ZN4ACPI4RSDP13GetTableCountEv>
  10d079:	48 89 45 c8          	mov    %rax,-0x38(%rbp)
  10d07d:	48 8b 45 c8          	mov    -0x38(%rbp),%rax
  10d081:	48 89 c6             	mov    %rax,%rsi
  10d084:	48 8d 3d 93 45 00 00 	lea    0x4593(%rip),%rdi        # 11161e <_ZL8sc_ascii+0x5be>
  10d08b:	b8 00 00 00 00       	mov    $0x0,%eax
  10d090:	e8 6f f7 ff ff       	callq  10c804 <_Z7kprintfPKcz>
  10d095:	48 8d 3d 8d 45 00 00 	lea    0x458d(%rip),%rdi        # 111629 <_ZL8sc_ascii+0x5c9>
  10d09c:	b8 00 00 00 00       	mov    $0x0,%eax
  10d0a1:	e8 5e f7 ff ff       	callq  10c804 <_Z7kprintfPKcz>
  10d0a6:	48 c7 45 e8 00 00 00 	movq   $0x0,-0x18(%rbp)
  10d0ad:	00 
  10d0ae:	48 8b 45 e8          	mov    -0x18(%rbp),%rax
  10d0b2:	48 3b 45 c8          	cmp    -0x38(%rbp),%rax
  10d0b6:	73 65                	jae    10d11d <_Z14InitialiseRSDPP10KernelInfo+0x29b>
  10d0b8:	48 8b 55 e8          	mov    -0x18(%rbp),%rdx
  10d0bc:	48 8b 45 d8          	mov    -0x28(%rbp),%rax
  10d0c0:	48 89 d6             	mov    %rdx,%rsi
  10d0c3:	48 89 c7             	mov    %rax,%rdi
  10d0c6:	e8 c5 76 ff ff       	callq  104790 <_ZN4ACPI4RSDP3GetEm>
  10d0cb:	48 89 45 c0          	mov    %rax,-0x40(%rbp)
  10d0cf:	c7 45 e4 00 00 00 00 	movl   $0x0,-0x1c(%rbp)
  10d0d6:	83 7d e4 03          	cmpl   $0x3,-0x1c(%rbp)
  10d0da:	7f 29                	jg     10d105 <_Z14InitialiseRSDPP10KernelInfo+0x283>
  10d0dc:	48 8b 55 c0          	mov    -0x40(%rbp),%rdx
  10d0e0:	8b 45 e4             	mov    -0x1c(%rbp),%eax
  10d0e3:	48 98                	cltq   
  10d0e5:	0f b6 04 02          	movzbl (%rdx,%rax,1),%eax
  10d0e9:	0f be c0             	movsbl %al,%eax
  10d0ec:	89 c6                	mov    %eax,%esi
  10d0ee:	48 8d 3d ad 44 00 00 	lea    0x44ad(%rip),%rdi        # 1115a2 <_ZL8sc_ascii+0x542>
  10d0f5:	b8 00 00 00 00       	mov    $0x0,%eax
  10d0fa:	e8 05 f7 ff ff       	callq  10c804 <_Z7kprintfPKcz>
  10d0ff:	83 45 e4 01          	addl   $0x1,-0x1c(%rbp)
  10d103:	eb d1                	jmp    10d0d6 <_Z14InitialiseRSDPP10KernelInfo+0x254>
  10d105:	48 8d 3d 2d 45 00 00 	lea    0x452d(%rip),%rdi        # 111639 <_ZL8sc_ascii+0x5d9>
  10d10c:	b8 00 00 00 00       	mov    $0x0,%eax
  10d111:	e8 ee f6 ff ff       	callq  10c804 <_Z7kprintfPKcz>
  10d116:	48 83 45 e8 01       	addq   $0x1,-0x18(%rbp)
  10d11b:	eb 91                	jmp    10d0ae <_Z14InitialiseRSDPP10KernelInfo+0x22c>
  10d11d:	48 8d 3d 17 45 00 00 	lea    0x4517(%rip),%rdi        # 11163b <_ZL8sc_ascii+0x5db>
  10d124:	b8 00 00 00 00       	mov    $0x0,%eax
  10d129:	e8 d6 f6 ff ff       	callq  10c804 <_Z7kprintfPKcz>
  10d12e:	48 8b 45 d8          	mov    -0x28(%rbp),%rax
  10d132:	48 8d 35 05 45 00 00 	lea    0x4505(%rip),%rsi        # 11163e <_ZL8sc_ascii+0x5de>
  10d139:	48 89 c7             	mov    %rax,%rdi
  10d13c:	e8 ef 76 ff ff       	callq  104830 <_ZN4ACPI4RSDP14GetSystemTableEPKc>
  10d141:	48 89 45 b8          	mov    %rax,-0x48(%rbp)
  10d145:	48 8b 45 b8          	mov    -0x48(%rbp),%rax
  10d149:	48 89 c6             	mov    %rax,%rsi
  10d14c:	48 8d 3d f0 44 00 00 	lea    0x44f0(%rip),%rdi        # 111643 <_ZL8sc_ascii+0x5e3>
  10d153:	b8 00 00 00 00       	mov    $0x0,%eax
  10d158:	e8 a7 f6 ff ff       	callq  10c804 <_Z7kprintfPKcz>
  10d15d:	48 8b 45 d8          	mov    -0x28(%rbp),%rax
  10d161:	48 8d 35 ee 44 00 00 	lea    0x44ee(%rip),%rsi        # 111656 <_ZL8sc_ascii+0x5f6>
  10d168:	48 89 c7             	mov    %rax,%rdi
  10d16b:	e8 c0 76 ff ff       	callq  104830 <_ZN4ACPI4RSDP14GetSystemTableEPKc>
  10d170:	48 89 45 b0          	mov    %rax,-0x50(%rbp)
  10d174:	48 8b 45 b0          	mov    -0x50(%rbp),%rax
  10d178:	48 89 c6             	mov    %rax,%rsi
  10d17b:	48 8d 3d d9 44 00 00 	lea    0x44d9(%rip),%rdi        # 11165b <_ZL8sc_ascii+0x5fb>
  10d182:	b8 00 00 00 00       	mov    $0x0,%eax
  10d187:	e8 78 f6 ff ff       	callq  10c804 <_Z7kprintfPKcz>
  10d18c:	48 8b 45 d8          	mov    -0x28(%rbp),%rax
  10d190:	48 8d 35 d7 44 00 00 	lea    0x44d7(%rip),%rsi        # 11166e <_ZL8sc_ascii+0x60e>
  10d197:	48 89 c7             	mov    %rax,%rdi
  10d19a:	e8 91 76 ff ff       	callq  104830 <_ZN4ACPI4RSDP14GetSystemTableEPKc>
  10d19f:	48 89 45 a8          	mov    %rax,-0x58(%rbp)
  10d1a3:	48 8b 45 a8          	mov    -0x58(%rbp),%rax
  10d1a7:	48 89 c6             	mov    %rax,%rsi
  10d1aa:	48 8d 3d c2 44 00 00 	lea    0x44c2(%rip),%rdi        # 111673 <_ZL8sc_ascii+0x613>
  10d1b1:	b8 00 00 00 00       	mov    $0x0,%eax
  10d1b6:	e8 49 f6 ff ff       	callq  10c804 <_Z7kprintfPKcz>
  10d1bb:	48 8b 45 d8          	mov    -0x28(%rbp),%rax
  10d1bf:	48 8d 35 c0 44 00 00 	lea    0x44c0(%rip),%rsi        # 111686 <_ZL8sc_ascii+0x626>
  10d1c6:	48 89 c7             	mov    %rax,%rdi
  10d1c9:	e8 62 76 ff ff       	callq  104830 <_ZN4ACPI4RSDP14GetSystemTableEPKc>
  10d1ce:	48 89 45 a0          	mov    %rax,-0x60(%rbp)
  10d1d2:	48 8b 45 a0          	mov    -0x60(%rbp),%rax
  10d1d6:	48 89 c6             	mov    %rax,%rsi
  10d1d9:	48 8d 3d ab 44 00 00 	lea    0x44ab(%rip),%rdi        # 11168b <_ZL8sc_ascii+0x62b>
  10d1e0:	b8 00 00 00 00       	mov    $0x0,%eax
  10d1e5:	e8 1a f6 ff ff       	callq  10c804 <_Z7kprintfPKcz>
  10d1ea:	48 83 7d a0 00       	cmpq   $0x0,-0x60(%rbp)
  10d1ef:	74 0c                	je     10d1fd <_Z14InitialiseRSDPP10KernelInfo+0x37b>
  10d1f1:	48 8b 45 a0          	mov    -0x60(%rbp),%rax
  10d1f5:	48 89 c7             	mov    %rax,%rdi
  10d1f8:	e8 c3 77 ff ff       	callq  1049c0 <_ZN4ACPI4FADT10ACPIEnableEv>
  10d1fd:	48 8d 3d 9b 44 00 00 	lea    0x449b(%rip),%rdi        # 11169f <_ZL8sc_ascii+0x63f>
  10d204:	b8 00 00 00 00       	mov    $0x0,%eax
  10d209:	e8 f6 f5 ff ff       	callq  10c804 <_Z7kprintfPKcz>
  10d20e:	48 83 7d a0 00       	cmpq   $0x0,-0x60(%rbp)
  10d213:	0f 84 91 00 00 00    	je     10d2aa <_Z14InitialiseRSDPP10KernelInfo+0x428>
  10d219:	48 8d 85 50 fc ff ff 	lea    -0x3b0(%rbp),%rax
  10d220:	48 8b 55 a0          	mov    -0x60(%rbp),%rdx
  10d224:	48 89 d6             	mov    %rdx,%rsi
  10d227:	48 89 c7             	mov    %rax,%rdi
  10d22a:	e8 7b 17 00 00       	callq  10e9aa <_ZN4ACPI4FADT7GetFADTEv>
  10d22f:	0f b6 85 bc fc ff ff 	movzbl -0x344(%rbp),%eax
  10d236:	0f b6 c0             	movzbl %al,%eax
  10d239:	89 c6                	mov    %eax,%esi
  10d23b:	48 8d 3d 6e 44 00 00 	lea    0x446e(%rip),%rdi        # 1116b0 <_ZL8sc_ascii+0x650>
  10d242:	b8 00 00 00 00       	mov    $0x0,%eax
  10d247:	e8 b8 f5 ff ff       	callq  10c804 <_Z7kprintfPKcz>
  10d24c:	48 8d 85 50 fd ff ff 	lea    -0x2b0(%rbp),%rax
  10d253:	48 8b 55 a0          	mov    -0x60(%rbp),%rdx
  10d257:	48 89 d6             	mov    %rdx,%rsi
  10d25a:	48 89 c7             	mov    %rax,%rdi
  10d25d:	e8 48 17 00 00       	callq  10e9aa <_ZN4ACPI4FADT7GetFADTEv>
  10d262:	8b 85 74 fd ff ff    	mov    -0x28c(%rbp),%eax
  10d268:	89 c6                	mov    %eax,%esi
  10d26a:	48 8d 3d 56 44 00 00 	lea    0x4456(%rip),%rdi        # 1116c7 <_ZL8sc_ascii+0x667>
  10d271:	b8 00 00 00 00       	mov    $0x0,%eax
  10d276:	e8 89 f5 ff ff       	callq  10c804 <_Z7kprintfPKcz>
  10d27b:	48 8d 85 50 fe ff ff 	lea    -0x1b0(%rbp),%rax
  10d282:	48 8b 55 a0          	mov    -0x60(%rbp),%rdx
  10d286:	48 89 d6             	mov    %rdx,%rsi
  10d289:	48 89 c7             	mov    %rax,%rdi
  10d28c:	e8 19 17 00 00       	callq  10e9aa <_ZN4ACPI4FADT7GetFADTEv>
  10d291:	8b 85 78 fe ff ff    	mov    -0x188(%rbp),%eax
  10d297:	89 c6                	mov    %eax,%esi
  10d299:	48 8d 3d 40 44 00 00 	lea    0x4440(%rip),%rdi        # 1116e0 <_ZL8sc_ascii+0x680>
  10d2a0:	b8 00 00 00 00       	mov    $0x0,%eax
  10d2a5:	e8 5a f5 ff ff       	callq  10c804 <_Z7kprintfPKcz>
  10d2aa:	e8 73 42 ff ff       	callq  101522 <_ZN18PageFrameAllocator15SharedAllocatorEv>
  10d2af:	48 89 c7             	mov    %rax,%rdi
  10d2b2:	e8 bf 16 00 00       	callq  10e976 <_ZNK18PageFrameAllocator10GetUsedRAMEv>
  10d2b7:	48 89 45 98          	mov    %rax,-0x68(%rbp)
  10d2bb:	e8 62 42 ff ff       	callq  101522 <_ZN18PageFrameAllocator15SharedAllocatorEv>
  10d2c0:	48 89 c7             	mov    %rax,%rdi
  10d2c3:	e8 94 16 00 00       	callq  10e95c <_ZNK18PageFrameAllocator10GetFreeRAMEv>
  10d2c8:	48 89 45 90          	mov    %rax,-0x70(%rbp)
  10d2cc:	e8 51 42 ff ff       	callq  101522 <_ZN18PageFrameAllocator15SharedAllocatorEv>
  10d2d1:	48 89 c7             	mov    %rax,%rdi
  10d2d4:	e8 b7 16 00 00       	callq  10e990 <_ZNK18PageFrameAllocator14GetReservedRAMEv>
  10d2d9:	48 89 45 88          	mov    %rax,-0x78(%rbp)
  10d2dd:	48 8b 45 98          	mov    -0x68(%rbp),%rax
  10d2e1:	48 85 c0             	test   %rax,%rax
  10d2e4:	78 07                	js     10d2ed <_Z14InitialiseRSDPP10KernelInfo+0x46b>
  10d2e6:	f2 48 0f 2a c0       	cvtsi2sd %rax,%xmm0
  10d2eb:	eb 15                	jmp    10d302 <_Z14InitialiseRSDPP10KernelInfo+0x480>
  10d2ed:	48 89 c2             	mov    %rax,%rdx
  10d2f0:	48 d1 ea             	shr    %rdx
  10d2f3:	83 e0 01             	and    $0x1,%eax
  10d2f6:	48 09 c2             	or     %rax,%rdx
  10d2f9:	f2 48 0f 2a c2       	cvtsi2sd %rdx,%xmm0
  10d2fe:	f2 0f 58 c0          	addsd  %xmm0,%xmm0
  10d302:	f2 0f 10 0d b6 45 00 	movsd  0x45b6(%rip),%xmm1        # 1118c0 <_ZL8sc_ascii+0x860>
  10d309:	00 
  10d30a:	f2 0f 5e c1          	divsd  %xmm1,%xmm0
  10d30e:	f2 0f 11 45 80       	movsd  %xmm0,-0x80(%rbp)
  10d313:	48 8b 45 98          	mov    -0x68(%rbp),%rax
  10d317:	48 85 c0             	test   %rax,%rax
  10d31a:	78 07                	js     10d323 <_Z14InitialiseRSDPP10KernelInfo+0x4a1>
  10d31c:	f2 48 0f 2a c0       	cvtsi2sd %rax,%xmm0
  10d321:	eb 15                	jmp    10d338 <_Z14InitialiseRSDPP10KernelInfo+0x4b6>
  10d323:	48 89 c2             	mov    %rax,%rdx
  10d326:	48 d1 ea             	shr    %rdx
  10d329:	83 e0 01             	and    $0x1,%eax
  10d32c:	48 09 c2             	or     %rax,%rdx
  10d32f:	f2 48 0f 2a c2       	cvtsi2sd %rdx,%xmm0
  10d334:	f2 0f 58 c0          	addsd  %xmm0,%xmm0
  10d338:	f2 0f 10 0d 88 45 00 	movsd  0x4588(%rip),%xmm1        # 1118c8 <_ZL8sc_ascii+0x868>
  10d33f:	00 
  10d340:	f2 0f 5e c1          	divsd  %xmm1,%xmm0
  10d344:	f2 0f 11 85 78 ff ff 	movsd  %xmm0,-0x88(%rbp)
  10d34b:	ff 
  10d34c:	48 8b 45 90          	mov    -0x70(%rbp),%rax
  10d350:	48 85 c0             	test   %rax,%rax
  10d353:	78 07                	js     10d35c <_Z14InitialiseRSDPP10KernelInfo+0x4da>
  10d355:	f2 48 0f 2a c0       	cvtsi2sd %rax,%xmm0
  10d35a:	eb 15                	jmp    10d371 <_Z14InitialiseRSDPP10KernelInfo+0x4ef>
  10d35c:	48 89 c2             	mov    %rax,%rdx
  10d35f:	48 d1 ea             	shr    %rdx
  10d362:	83 e0 01             	and    $0x1,%eax
  10d365:	48 09 c2             	or     %rax,%rdx
  10d368:	f2 48 0f 2a c2       	cvtsi2sd %rdx,%xmm0
  10d36d:	f2 0f 58 c0          	addsd  %xmm0,%xmm0
  10d371:	f2 0f 10 0d 47 45 00 	movsd  0x4547(%rip),%xmm1        # 1118c0 <_ZL8sc_ascii+0x860>
  10d378:	00 
  10d379:	f2 0f 5e c1          	divsd  %xmm1,%xmm0
  10d37d:	f2 0f 11 85 70 ff ff 	movsd  %xmm0,-0x90(%rbp)
  10d384:	ff 
  10d385:	48 8b 45 90          	mov    -0x70(%rbp),%rax
  10d389:	48 85 c0             	test   %rax,%rax
  10d38c:	78 07                	js     10d395 <_Z14InitialiseRSDPP10KernelInfo+0x513>
  10d38e:	f2 48 0f 2a c0       	cvtsi2sd %rax,%xmm0
  10d393:	eb 15                	jmp    10d3aa <_Z14InitialiseRSDPP10KernelInfo+0x528>
  10d395:	48 89 c2             	mov    %rax,%rdx
  10d398:	48 d1 ea             	shr    %rdx
  10d39b:	83 e0 01             	and    $0x1,%eax
  10d39e:	48 09 c2             	or     %rax,%rdx
  10d3a1:	f2 48 0f 2a c2       	cvtsi2sd %rdx,%xmm0
  10d3a6:	f2 0f 58 c0          	addsd  %xmm0,%xmm0
  10d3aa:	f2 0f 10 0d 16 45 00 	movsd  0x4516(%rip),%xmm1        # 1118c8 <_ZL8sc_ascii+0x868>
  10d3b1:	00 
  10d3b2:	f2 0f 5e c1          	divsd  %xmm1,%xmm0
  10d3b6:	f2 0f 11 85 68 ff ff 	movsd  %xmm0,-0x98(%rbp)
  10d3bd:	ff 
  10d3be:	48 8b 45 88          	mov    -0x78(%rbp),%rax
  10d3c2:	48 85 c0             	test   %rax,%rax
  10d3c5:	78 07                	js     10d3ce <_Z14InitialiseRSDPP10KernelInfo+0x54c>
  10d3c7:	f2 48 0f 2a c0       	cvtsi2sd %rax,%xmm0
  10d3cc:	eb 15                	jmp    10d3e3 <_Z14InitialiseRSDPP10KernelInfo+0x561>
  10d3ce:	48 89 c2             	mov    %rax,%rdx
  10d3d1:	48 d1 ea             	shr    %rdx
  10d3d4:	83 e0 01             	and    $0x1,%eax
  10d3d7:	48 09 c2             	or     %rax,%rdx
  10d3da:	f2 48 0f 2a c2       	cvtsi2sd %rdx,%xmm0
  10d3df:	f2 0f 58 c0          	addsd  %xmm0,%xmm0
  10d3e3:	f2 0f 10 0d d5 44 00 	movsd  0x44d5(%rip),%xmm1        # 1118c0 <_ZL8sc_ascii+0x860>
  10d3ea:	00 
  10d3eb:	f2 0f 5e c1          	divsd  %xmm1,%xmm0
  10d3ef:	f2 0f 11 85 60 ff ff 	movsd  %xmm0,-0xa0(%rbp)
  10d3f6:	ff 
  10d3f7:	48 8b 45 88          	mov    -0x78(%rbp),%rax
  10d3fb:	48 85 c0             	test   %rax,%rax
  10d3fe:	78 07                	js     10d407 <_Z14InitialiseRSDPP10KernelInfo+0x585>
  10d400:	f2 48 0f 2a c0       	cvtsi2sd %rax,%xmm0
  10d405:	eb 15                	jmp    10d41c <_Z14InitialiseRSDPP10KernelInfo+0x59a>
  10d407:	48 89 c2             	mov    %rax,%rdx
  10d40a:	48 d1 ea             	shr    %rdx
  10d40d:	83 e0 01             	and    $0x1,%eax
  10d410:	48 09 c2             	or     %rax,%rdx
  10d413:	f2 48 0f 2a c2       	cvtsi2sd %rdx,%xmm0
  10d418:	f2 0f 58 c0          	addsd  %xmm0,%xmm0
  10d41c:	f2 0f 10 0d a4 44 00 	movsd  0x44a4(%rip),%xmm1        # 1118c8 <_ZL8sc_ascii+0x868>
  10d423:	00 
  10d424:	f2 0f 5e c1          	divsd  %xmm1,%xmm0
  10d428:	f2 0f 11 85 58 ff ff 	movsd  %xmm0,-0xa8(%rbp)
  10d42f:	ff 
  10d430:	f2 0f 10 45 80       	movsd  -0x80(%rbp),%xmm0
  10d435:	f2 0f 58 85 70 ff ff 	addsd  -0x90(%rbp),%xmm0
  10d43c:	ff 
  10d43d:	f2 0f 10 8d 60 ff ff 	movsd  -0xa0(%rbp),%xmm1
  10d444:	ff 
  10d445:	f2 0f 58 c1          	addsd  %xmm1,%xmm0
  10d449:	f2 0f 11 85 50 ff ff 	movsd  %xmm0,-0xb0(%rbp)
  10d450:	ff 
  10d451:	48 8d 3d 9e 42 00 00 	lea    0x429e(%rip),%rdi        # 1116f6 <_ZL8sc_ascii+0x696>
  10d458:	b8 00 00 00 00       	mov    $0x0,%eax
  10d45d:	e8 a2 f3 ff ff       	callq  10c804 <_Z7kprintfPKcz>
  10d462:	48 8b 45 98          	mov    -0x68(%rbp),%rax
  10d466:	48 c1 e8 0a          	shr    $0xa,%rax
  10d46a:	48 89 c1             	mov    %rax,%rcx
  10d46d:	f2 0f 10 85 78 ff ff 	movsd  -0x88(%rbp),%xmm0
  10d474:	ff 
  10d475:	48 8b 55 80          	mov    -0x80(%rbp),%rdx
  10d479:	48 8b 45 98          	mov    -0x68(%rbp),%rax
  10d47d:	66 0f 28 c8          	movapd %xmm0,%xmm1
  10d481:	66 48 0f 6e c2       	movq   %rdx,%xmm0
  10d486:	48 89 ca             	mov    %rcx,%rdx
  10d489:	48 89 c6             	mov    %rax,%rsi
  10d48c:	48 8d 3d 75 42 00 00 	lea    0x4275(%rip),%rdi        # 111708 <_ZL8sc_ascii+0x6a8>
  10d493:	b8 02 00 00 00       	mov    $0x2,%eax
  10d498:	e8 67 f3 ff ff       	callq  10c804 <_Z7kprintfPKcz>
  10d49d:	48 8b 45 90          	mov    -0x70(%rbp),%rax
  10d4a1:	48 c1 e8 0a          	shr    $0xa,%rax
  10d4a5:	48 89 c1             	mov    %rax,%rcx
  10d4a8:	f2 0f 10 85 68 ff ff 	movsd  -0x98(%rbp),%xmm0
  10d4af:	ff 
  10d4b0:	48 8b 95 70 ff ff ff 	mov    -0x90(%rbp),%rdx
  10d4b7:	48 8b 45 90          	mov    -0x70(%rbp),%rax
  10d4bb:	66 0f 28 c8          	movapd %xmm0,%xmm1
  10d4bf:	66 48 0f 6e c2       	movq   %rdx,%xmm0
  10d4c4:	48 89 ca             	mov    %rcx,%rdx
  10d4c7:	48 89 c6             	mov    %rax,%rsi
  10d4ca:	48 8d 3d 7f 42 00 00 	lea    0x427f(%rip),%rdi        # 111750 <_ZL8sc_ascii+0x6f0>
  10d4d1:	b8 02 00 00 00       	mov    $0x2,%eax
  10d4d6:	e8 29 f3 ff ff       	callq  10c804 <_Z7kprintfPKcz>
  10d4db:	48 8b 45 88          	mov    -0x78(%rbp),%rax
  10d4df:	48 c1 e8 0a          	shr    $0xa,%rax
  10d4e3:	48 89 c1             	mov    %rax,%rcx
  10d4e6:	f2 0f 10 85 58 ff ff 	movsd  -0xa8(%rbp),%xmm0
  10d4ed:	ff 
  10d4ee:	48 8b 95 60 ff ff ff 	mov    -0xa0(%rbp),%rdx
  10d4f5:	48 8b 45 88          	mov    -0x78(%rbp),%rax
  10d4f9:	66 0f 28 c8          	movapd %xmm0,%xmm1
  10d4fd:	66 48 0f 6e c2       	movq   %rdx,%xmm0
  10d502:	48 89 ca             	mov    %rcx,%rdx
  10d505:	48 89 c6             	mov    %rax,%rsi
  10d508:	48 8d 3d 89 42 00 00 	lea    0x4289(%rip),%rdi        # 111798 <_ZL8sc_ascii+0x738>
  10d50f:	b8 02 00 00 00       	mov    $0x2,%eax
  10d514:	e8 eb f2 ff ff       	callq  10c804 <_Z7kprintfPKcz>
  10d519:	48 8b 85 50 ff ff ff 	mov    -0xb0(%rbp),%rax
  10d520:	66 48 0f 6e c0       	movq   %rax,%xmm0
  10d525:	48 8d 3d bc 42 00 00 	lea    0x42bc(%rip),%rdi        # 1117e8 <_ZL8sc_ascii+0x788>
  10d52c:	b8 01 00 00 00       	mov    $0x1,%eax
  10d531:	e8 ce f2 ff ff       	callq  10c804 <_Z7kprintfPKcz>
  10d536:	48 83 7d b8 00       	cmpq   $0x0,-0x48(%rbp)
  10d53b:	74 2e                	je     10d56b <_Z14InitialiseRSDPP10KernelInfo+0x6e9>
  10d53d:	48 8d 3d ca 42 00 00 	lea    0x42ca(%rip),%rdi        # 11180e <_ZL8sc_ascii+0x7ae>
  10d544:	b8 00 00 00 00       	mov    $0x0,%eax
  10d549:	e8 b6 f2 ff ff       	callq  10c804 <_Z7kprintfPKcz>
  10d54e:	48 8b 45 b8          	mov    -0x48(%rbp),%rax
  10d552:	48 89 c7             	mov    %rax,%rdi
  10d555:	e8 aa 6a ff ff       	callq  104004 <_ZN3PCI12EnumeratePCIEPN4ACPI10MCFGHeaderE>
  10d55a:	48 8d 3d 44 40 00 00 	lea    0x4044(%rip),%rdi        # 1115a5 <_ZL8sc_ascii+0x545>
  10d561:	b8 00 00 00 00       	mov    $0x0,%eax
  10d566:	e8 99 f2 ff ff       	callq  10c804 <_Z7kprintfPKcz>
  10d56b:	90                   	nop
  10d56c:	c9                   	leaveq 
  10d56d:	c3                   	retq   

000000000010d56e <_Z17InitialiseDisplayP10KernelInfo>:
  10d56e:	f3 0f 1e fa          	endbr64 
  10d572:	55                   	push   %rbp
  10d573:	48 89 e5             	mov    %rsp,%rbp
  10d576:	48 83 ec 20          	sub    $0x20,%rsp
  10d57a:	48 89 7d e8          	mov    %rdi,-0x18(%rbp)
  10d57e:	48 8b 45 e8          	mov    -0x18(%rbp),%rax
  10d582:	0f b6 40 3a          	movzbl 0x3a(%rax),%eax
  10d586:	3c 01                	cmp    $0x1,%al
  10d588:	0f 95 c0             	setne  %al
  10d58b:	88 05 8f a3 00 00    	mov    %al,0xa38f(%rip)        # 117920 <fromUEFI>
  10d591:	fa                   	cli    
  10d592:	e8 de 47 ff ff       	callq  101d75 <_Z13InitialiseGDTv>
  10d597:	48 8b 45 e8          	mov    -0x18(%rbp),%rax
  10d59b:	0f b6 40 38          	movzbl 0x38(%rax),%eax
  10d59f:	0f b6 d0             	movzbl %al,%edx
  10d5a2:	48 8b 45 e8          	mov    -0x18(%rbp),%rax
  10d5a6:	48 8b 48 20          	mov    0x20(%rax),%rcx
  10d5aa:	48 8d 45 f0          	lea    -0x10(%rbp),%rax
  10d5ae:	48 89 ce             	mov    %rcx,%rsi
  10d5b1:	48 89 c7             	mov    %rax,%rdi
  10d5b4:	e8 71 13 00 00       	callq  10e92a <_ZN9MemoryMapC1EP14MemoryMapEntrym>
  10d5b9:	48 8b 45 f0          	mov    -0x10(%rbp),%rax
  10d5bd:	48 8b 55 f8          	mov    -0x8(%rbp),%rdx
  10d5c1:	48 89 05 68 a3 00 00 	mov    %rax,0xa368(%rip)        # 117930 <_map>
  10d5c8:	48 89 15 69 a3 00 00 	mov    %rdx,0xa369(%rip)        # 117938 <_map+0x8>
  10d5cf:	e8 b3 4a ff ff       	callq  102087 <_Z13InitialiseIDTv>
  10d5d4:	48 8b 05 9d 1e 00 00 	mov    0x1e9d(%rip),%rax        # 10f478 <map>
  10d5db:	48 89 c7             	mov    %rax,%rdi
  10d5de:	e8 6a 3f ff ff       	callq  10154d <_Z10InitPagingP9MemoryMap>
  10d5e3:	48 8b 45 e8          	mov    -0x18(%rbp),%rax
  10d5e7:	48 8b 50 18          	mov    0x18(%rax),%rdx
  10d5eb:	48 83 ec 08          	sub    $0x8,%rsp
  10d5ef:	48 8b 45 e8          	mov    -0x18(%rbp),%rax
  10d5f3:	ff 70 10             	pushq  0x10(%rax)
  10d5f6:	ff 70 08             	pushq  0x8(%rax)
  10d5f9:	ff 30                	pushq  (%rax)
  10d5fb:	48 89 d7             	mov    %rdx,%rdi
  10d5fe:	e8 a6 7b ff ff       	callq  1051a9 <_Z17InitialiseDisplay11FramebufferP9psf1_font>
  10d603:	48 83 c4 20          	add    $0x20,%rsp
  10d607:	e8 a9 7c ff ff       	callq  1052b5 <_Z6clrscrv>
  10d60c:	48 8d 3d 15 42 00 00 	lea    0x4215(%rip),%rdi        # 111828 <_ZL8sc_ascii+0x7c8>
  10d613:	b8 00 00 00 00       	mov    $0x0,%eax
  10d618:	e8 e7 f1 ff ff       	callq  10c804 <_Z7kprintfPKcz>
  10d61d:	48 8b 45 e8          	mov    -0x18(%rbp),%rax
  10d621:	8b 50 0c             	mov    0xc(%rax),%edx
  10d624:	48 8b 45 e8          	mov    -0x18(%rbp),%rax
  10d628:	8b 40 08             	mov    0x8(%rax),%eax
  10d62b:	89 c6                	mov    %eax,%esi
  10d62d:	48 8d 3d 13 42 00 00 	lea    0x4213(%rip),%rdi        # 111847 <_ZL8sc_ascii+0x7e7>
  10d634:	b8 00 00 00 00       	mov    $0x0,%eax
  10d639:	e8 c6 f1 ff ff       	callq  10c804 <_Z7kprintfPKcz>
  10d63e:	90                   	nop
  10d63f:	c9                   	leaveq 
  10d640:	c3                   	retq   

000000000010d641 <_Z20InitialiseFilesystemv>:
  10d641:	f3 0f 1e fa          	endbr64 
  10d645:	55                   	push   %rbp
  10d646:	48 89 e5             	mov    %rsp,%rbp
  10d649:	48 83 ec 20          	sub    $0x20,%rsp
  10d64d:	48 8d 45 e0          	lea    -0x20(%rbp),%rax
  10d651:	48 89 c6             	mov    %rax,%rsi
  10d654:	48 8d 3d 0a 42 00 00 	lea    0x420a(%rip),%rdi        # 111865 <_ZL8sc_ascii+0x805>
  10d65b:	e8 7a dd ff ff       	callq  10b3da <_Z11LoadProgramPKcPm>
  10d660:	48 89 45 f8          	mov    %rax,-0x8(%rbp)
  10d664:	48 83 7d f8 00       	cmpq   $0x0,-0x8(%rbp)
  10d669:	74 40                	je     10d6ab <_Z20InitialiseFilesystemv+0x6a>
  10d66b:	48 8b 55 e0          	mov    -0x20(%rbp),%rdx
  10d66f:	48 8b 45 f8          	mov    -0x8(%rbp),%rax
  10d673:	48 89 d6             	mov    %rdx,%rsi
  10d676:	48 89 c7             	mov    %rax,%rdi
  10d679:	e8 6c de ff ff       	callq  10b4ea <_Z14PrepareProgramP10Elf64_Ehdrm>
  10d67e:	48 8b 45 f8          	mov    -0x8(%rbp),%rax
  10d682:	48 8b 40 18          	mov    0x18(%rax),%rax
  10d686:	48 89 45 f0          	mov    %rax,-0x10(%rbp)
  10d68a:	48 8b 45 f0          	mov    -0x10(%rbp),%rax
  10d68e:	ff d0                	callq  *%rax
  10d690:	89 45 ec             	mov    %eax,-0x14(%rbp)
  10d693:	8b 45 ec             	mov    -0x14(%rbp),%eax
  10d696:	89 c6                	mov    %eax,%esi
  10d698:	48 8d 3d e1 41 00 00 	lea    0x41e1(%rip),%rdi        # 111880 <_ZL8sc_ascii+0x820>
  10d69f:	b8 00 00 00 00       	mov    $0x0,%eax
  10d6a4:	e8 5b f1 ff ff       	callq  10c804 <_Z7kprintfPKcz>
  10d6a9:	eb 01                	jmp    10d6ac <_Z20InitialiseFilesystemv+0x6b>
  10d6ab:	90                   	nop
  10d6ac:	c9                   	leaveq 
  10d6ad:	c3                   	retq   

000000000010d6ae <_Z16InitialiseKernelP10KernelInfo>:
  10d6ae:	f3 0f 1e fa          	endbr64 
  10d6b2:	55                   	push   %rbp
  10d6b3:	48 89 e5             	mov    %rsp,%rbp
  10d6b6:	53                   	push   %rbx
  10d6b7:	48 83 ec 28          	sub    $0x28,%rsp
  10d6bb:	48 89 7d d8          	mov    %rdi,-0x28(%rbp)
  10d6bf:	48 8d 3d da 41 00 00 	lea    0x41da(%rip),%rdi        # 1118a0 <_ZL8sc_ascii+0x840>
  10d6c6:	b8 00 00 00 00       	mov    $0x0,%eax
  10d6cb:	e8 34 f1 ff ff       	callq  10c804 <_Z7kprintfPKcz>
  10d6d0:	be 00 10 00 00       	mov    $0x1000,%esi
  10d6d5:	48 bf 00 00 00 00 00 	movabs $0x100000000000,%rdi
  10d6dc:	10 00 00 
  10d6df:	e8 40 5e ff ff       	callq  103524 <_Z14InitialiseHeapPvm>
  10d6e4:	e8 5e 96 ff ff       	callq  106d47 <_Z17InitialiseDevicesv>
  10d6e9:	e8 56 db ff ff       	callq  10b244 <_Z21InitialiseFilesystemsv>
  10d6ee:	bf 08 00 00 00       	mov    $0x8,%edi
  10d6f3:	e8 e5 62 ff ff       	callq  1039dd <_Znwm>
  10d6f8:	48 89 c3             	mov    %rax,%rbx
  10d6fb:	48 89 df             	mov    %rbx,%rdi
  10d6fe:	e8 1d 14 00 00       	callq  10eb20 <_ZN9ATADeviceC1Ev>
  10d703:	48 89 5d e8          	mov    %rbx,-0x18(%rbp)
  10d707:	48 8b 45 e8          	mov    -0x18(%rbp),%rax
  10d70b:	48 89 c7             	mov    %rax,%rdi
  10d70e:	e8 55 96 ff ff       	callq  106d68 <_Z14RegisterDeviceP6Device>
  10d713:	48 8b 45 e8          	mov    -0x18(%rbp),%rax
  10d717:	48 89 c7             	mov    %rax,%rdi
  10d71a:	e8 27 97 ff ff       	callq  106e46 <_Z22LocateFilesystemsFAT32P6Device>
  10d71f:	48 8b 45 d8          	mov    -0x28(%rbp),%rax
  10d723:	48 89 c7             	mov    %rax,%rdi
  10d726:	e8 57 f7 ff ff       	callq  10ce82 <_Z14InitialiseRSDPP10KernelInfo>
  10d72b:	e8 11 ff ff ff       	callq  10d641 <_Z20InitialiseFilesystemv>
  10d730:	e8 5e 52 ff ff       	callq  102993 <_Z15InitialiseShellv>
  10d735:	e8 90 50 ff ff       	callq  1027ca <_Z13InitialiseIRQv>
  10d73a:	e8 26 e7 ff ff       	callq  10be65 <_Z17InitialiseTaskingv>
  10d73f:	90                   	nop
  10d740:	48 83 c4 28          	add    $0x28,%rsp
  10d744:	5b                   	pop    %rbx
  10d745:	5d                   	pop    %rbp
  10d746:	c3                   	retq   

000000000010d747 <_Z41__static_initialization_and_destruction_0ii>:
  10d747:	f3 0f 1e fa          	endbr64 
  10d74b:	55                   	push   %rbp
  10d74c:	48 89 e5             	mov    %rsp,%rbp
  10d74f:	48 83 ec 10          	sub    $0x10,%rsp
  10d753:	89 7d fc             	mov    %edi,-0x4(%rbp)
  10d756:	89 75 f8             	mov    %esi,-0x8(%rbp)
  10d759:	83 7d fc 01          	cmpl   $0x1,-0x4(%rbp)
  10d75d:	75 1f                	jne    10d77e <_Z41__static_initialization_and_destruction_0ii+0x37>
  10d75f:	81 7d f8 ff ff 00 00 	cmpl   $0xffff,-0x8(%rbp)
  10d766:	75 16                	jne    10d77e <_Z41__static_initialization_and_destruction_0ii+0x37>
  10d768:	ba 00 00 00 00       	mov    $0x0,%edx
  10d76d:	be 00 00 00 00       	mov    $0x0,%esi
  10d772:	48 8d 3d b7 a1 00 00 	lea    0xa1b7(%rip),%rdi        # 117930 <_map>
  10d779:	e8 ac 11 00 00       	callq  10e92a <_ZN9MemoryMapC1EP14MemoryMapEntrym>
  10d77e:	90                   	nop
  10d77f:	c9                   	leaveq 
  10d780:	c3                   	retq   

000000000010d781 <_GLOBAL__sub_I_fromUEFI>:
  10d781:	f3 0f 1e fa          	endbr64 
  10d785:	55                   	push   %rbp
  10d786:	48 89 e5             	mov    %rsp,%rbp
  10d789:	be ff ff 00 00       	mov    $0xffff,%esi
  10d78e:	bf 01 00 00 00       	mov    $0x1,%edi
  10d793:	e8 af ff ff ff       	callq  10d747 <_Z41__static_initialization_and_destruction_0ii>
  10d798:	5d                   	pop    %rbp
  10d799:	c3                   	retq   
  10d79a:	66 0f 1f 44 00 00    	nopw   0x0(%rax,%rax,1)

000000000010d7a0 <__gdt_flush>:
  10d7a0:	0f 01 17             	lgdt   (%rdi)
  10d7a3:	66 b8 10 00          	mov    $0x10,%ax
  10d7a7:	8e d8                	mov    %eax,%ds
  10d7a9:	8e c0                	mov    %eax,%es
  10d7ab:	8e e0                	mov    %eax,%fs
  10d7ad:	8e e8                	mov    %eax,%gs
  10d7af:	8e d0                	mov    %eax,%ss
  10d7b1:	5f                   	pop    %rdi
  10d7b2:	b8 08 00 00 00       	mov    $0x8,%eax
  10d7b7:	50                   	push   %rax
  10d7b8:	57                   	push   %rdi
  10d7b9:	48 cb                	lretq  

000000000010d7bb <__tss_flush>:
  10d7bb:	0f 00 df             	ltr    %di
  10d7be:	c3                   	retq   
  10d7bf:	90                   	nop

000000000010d7c0 <__set_idt>:
  10d7c0:	48 89 f8             	mov    %rdi,%rax
  10d7c3:	0f 01 18             	lidt   (%rax)
  10d7c6:	c3                   	retq   

000000000010d7c7 <isr_common_stub>:
  10d7c7:	41 57                	push   %r15
  10d7c9:	41 56                	push   %r14
  10d7cb:	41 55                	push   %r13
  10d7cd:	41 54                	push   %r12
  10d7cf:	41 53                	push   %r11
  10d7d1:	41 52                	push   %r10
  10d7d3:	41 51                	push   %r9
  10d7d5:	41 50                	push   %r8
  10d7d7:	50                   	push   %rax
  10d7d8:	51                   	push   %rcx
  10d7d9:	52                   	push   %rdx
  10d7da:	53                   	push   %rbx
  10d7db:	54                   	push   %rsp
  10d7dc:	55                   	push   %rbp
  10d7dd:	56                   	push   %rsi
  10d7de:	57                   	push   %rdi
  10d7df:	48 81 ec 00 01 00 00 	sub    $0x100,%rsp
  10d7e6:	66 44 0f 7f bc 24 f0 	movdqa %xmm15,0xf0(%rsp)
  10d7ed:	00 00 00 
  10d7f0:	66 44 0f 7f b4 24 e0 	movdqa %xmm14,0xe0(%rsp)
  10d7f7:	00 00 00 
  10d7fa:	66 44 0f 7f ac 24 d0 	movdqa %xmm13,0xd0(%rsp)
  10d801:	00 00 00 
  10d804:	66 44 0f 7f a4 24 c0 	movdqa %xmm12,0xc0(%rsp)
  10d80b:	00 00 00 
  10d80e:	66 44 0f 7f 9c 24 b0 	movdqa %xmm11,0xb0(%rsp)
  10d815:	00 00 00 
  10d818:	66 44 0f 7f 94 24 a0 	movdqa %xmm10,0xa0(%rsp)
  10d81f:	00 00 00 
  10d822:	66 44 0f 7f 8c 24 90 	movdqa %xmm9,0x90(%rsp)
  10d829:	00 00 00 
  10d82c:	66 44 0f 7f 84 24 80 	movdqa %xmm8,0x80(%rsp)
  10d833:	00 00 00 
  10d836:	66 0f 7f 7c 24 70    	movdqa %xmm7,0x70(%rsp)
  10d83c:	66 0f 7f 74 24 60    	movdqa %xmm6,0x60(%rsp)
  10d842:	66 0f 7f 6c 24 50    	movdqa %xmm5,0x50(%rsp)
  10d848:	66 0f 7f 64 24 40    	movdqa %xmm4,0x40(%rsp)
  10d84e:	66 0f 7f 5c 24 30    	movdqa %xmm3,0x30(%rsp)
  10d854:	66 0f 7f 54 24 20    	movdqa %xmm2,0x20(%rsp)
  10d85a:	66 0f 7f 4c 24 10    	movdqa %xmm1,0x10(%rsp)
  10d860:	66 0f 7f 04 24       	movdqa %xmm0,(%rsp)
  10d865:	48 89 e7             	mov    %rsp,%rdi
  10d868:	48 83 ec 28          	sub    $0x28,%rsp
  10d86c:	fc                   	cld    
  10d86d:	e8 b4 4f ff ff       	callq  102826 <ISRHandler>
  10d872:	48 83 c4 28          	add    $0x28,%rsp
  10d876:	66 44 0f 6f bc 24 f0 	movdqa 0xf0(%rsp),%xmm15
  10d87d:	00 00 00 
  10d880:	66 44 0f 6f b4 24 e0 	movdqa 0xe0(%rsp),%xmm14
  10d887:	00 00 00 
  10d88a:	66 44 0f 6f ac 24 d0 	movdqa 0xd0(%rsp),%xmm13
  10d891:	00 00 00 
  10d894:	66 44 0f 6f a4 24 c0 	movdqa 0xc0(%rsp),%xmm12
  10d89b:	00 00 00 
  10d89e:	66 44 0f 6f a4 24 b0 	movdqa 0xb0(%rsp),%xmm12
  10d8a5:	00 00 00 
  10d8a8:	66 44 0f 6f 94 24 a0 	movdqa 0xa0(%rsp),%xmm10
  10d8af:	00 00 00 
  10d8b2:	66 44 0f 6f 8c 24 90 	movdqa 0x90(%rsp),%xmm9
  10d8b9:	00 00 00 
  10d8bc:	66 44 0f 6f 84 24 80 	movdqa 0x80(%rsp),%xmm8
  10d8c3:	00 00 00 
  10d8c6:	66 0f 6f 7c 24 70    	movdqa 0x70(%rsp),%xmm7
  10d8cc:	66 0f 6f 74 24 60    	movdqa 0x60(%rsp),%xmm6
  10d8d2:	66 0f 6f 6c 24 50    	movdqa 0x50(%rsp),%xmm5
  10d8d8:	66 0f 6f 64 24 40    	movdqa 0x40(%rsp),%xmm4
  10d8de:	66 0f 6f 5c 24 30    	movdqa 0x30(%rsp),%xmm3
  10d8e4:	66 0f 6f 54 24 20    	movdqa 0x20(%rsp),%xmm2
  10d8ea:	66 0f 6f 4c 24 10    	movdqa 0x10(%rsp),%xmm1
  10d8f0:	66 0f 6f 04 24       	movdqa (%rsp),%xmm0
  10d8f5:	48 81 c4 00 01 00 00 	add    $0x100,%rsp
  10d8fc:	5f                   	pop    %rdi
  10d8fd:	5e                   	pop    %rsi
  10d8fe:	5d                   	pop    %rbp
  10d8ff:	48 83 c4 08          	add    $0x8,%rsp
  10d903:	5b                   	pop    %rbx
  10d904:	5a                   	pop    %rdx
  10d905:	59                   	pop    %rcx
  10d906:	58                   	pop    %rax
  10d907:	41 58                	pop    %r8
  10d909:	41 59                	pop    %r9
  10d90b:	41 5a                	pop    %r10
  10d90d:	41 5b                	pop    %r11
  10d90f:	41 5c                	pop    %r12
  10d911:	41 5d                	pop    %r13
  10d913:	41 5e                	pop    %r14
  10d915:	41 5f                	pop    %r15
  10d917:	48 83 c4 10          	add    $0x10,%rsp
  10d91b:	48 cf                	iretq  

000000000010d91d <irq_common_stub>:
  10d91d:	41 57                	push   %r15
  10d91f:	41 56                	push   %r14
  10d921:	41 55                	push   %r13
  10d923:	41 54                	push   %r12
  10d925:	41 53                	push   %r11
  10d927:	41 52                	push   %r10
  10d929:	41 51                	push   %r9
  10d92b:	41 50                	push   %r8
  10d92d:	50                   	push   %rax
  10d92e:	51                   	push   %rcx
  10d92f:	52                   	push   %rdx
  10d930:	53                   	push   %rbx
  10d931:	54                   	push   %rsp
  10d932:	55                   	push   %rbp
  10d933:	56                   	push   %rsi
  10d934:	57                   	push   %rdi
  10d935:	48 81 ec 00 01 00 00 	sub    $0x100,%rsp
  10d93c:	66 44 0f 7f bc 24 f0 	movdqa %xmm15,0xf0(%rsp)
  10d943:	00 00 00 
  10d946:	66 44 0f 7f b4 24 e0 	movdqa %xmm14,0xe0(%rsp)
  10d94d:	00 00 00 
  10d950:	66 44 0f 7f ac 24 d0 	movdqa %xmm13,0xd0(%rsp)
  10d957:	00 00 00 
  10d95a:	66 44 0f 7f a4 24 c0 	movdqa %xmm12,0xc0(%rsp)
  10d961:	00 00 00 
  10d964:	66 44 0f 7f 9c 24 b0 	movdqa %xmm11,0xb0(%rsp)
  10d96b:	00 00 00 
  10d96e:	66 44 0f 7f 94 24 a0 	movdqa %xmm10,0xa0(%rsp)
  10d975:	00 00 00 
  10d978:	66 44 0f 7f 8c 24 90 	movdqa %xmm9,0x90(%rsp)
  10d97f:	00 00 00 
  10d982:	66 44 0f 7f 84 24 80 	movdqa %xmm8,0x80(%rsp)
  10d989:	00 00 00 
  10d98c:	66 0f 7f 7c 24 70    	movdqa %xmm7,0x70(%rsp)
  10d992:	66 0f 7f 74 24 60    	movdqa %xmm6,0x60(%rsp)
  10d998:	66 0f 7f 6c 24 50    	movdqa %xmm5,0x50(%rsp)
  10d99e:	66 0f 7f 64 24 40    	movdqa %xmm4,0x40(%rsp)
  10d9a4:	66 0f 7f 5c 24 30    	movdqa %xmm3,0x30(%rsp)
  10d9aa:	66 0f 7f 54 24 20    	movdqa %xmm2,0x20(%rsp)
  10d9b0:	66 0f 7f 4c 24 10    	movdqa %xmm1,0x10(%rsp)
  10d9b6:	66 0f 7f 04 24       	movdqa %xmm0,(%rsp)
  10d9bb:	48 89 e7             	mov    %rsp,%rdi
  10d9be:	48 83 ec 28          	sub    $0x28,%rsp
  10d9c2:	fc                   	cld    
  10d9c3:	e8 e6 4e ff ff       	callq  1028ae <IRQHandler>
  10d9c8:	48 83 c4 28          	add    $0x28,%rsp
  10d9cc:	66 44 0f 6f bc 24 f0 	movdqa 0xf0(%rsp),%xmm15
  10d9d3:	00 00 00 
  10d9d6:	66 44 0f 6f b4 24 e0 	movdqa 0xe0(%rsp),%xmm14
  10d9dd:	00 00 00 
  10d9e0:	66 44 0f 6f ac 24 d0 	movdqa 0xd0(%rsp),%xmm13
  10d9e7:	00 00 00 
  10d9ea:	66 44 0f 6f a4 24 c0 	movdqa 0xc0(%rsp),%xmm12
  10d9f1:	00 00 00 
  10d9f4:	66 44 0f 6f a4 24 b0 	movdqa 0xb0(%rsp),%xmm12
  10d9fb:	00 00 00 
  10d9fe:	66 44 0f 6f 94 24 a0 	movdqa 0xa0(%rsp),%xmm10
  10da05:	00 00 00 
  10da08:	66 44 0f 6f 8c 24 90 	movdqa 0x90(%rsp),%xmm9
  10da0f:	00 00 00 
  10da12:	66 44 0f 6f 84 24 80 	movdqa 0x80(%rsp),%xmm8
  10da19:	00 00 00 
  10da1c:	66 0f 6f 7c 24 70    	movdqa 0x70(%rsp),%xmm7
  10da22:	66 0f 6f 74 24 60    	movdqa 0x60(%rsp),%xmm6
  10da28:	66 0f 6f 6c 24 50    	movdqa 0x50(%rsp),%xmm5
  10da2e:	66 0f 6f 64 24 40    	movdqa 0x40(%rsp),%xmm4
  10da34:	66 0f 6f 5c 24 30    	movdqa 0x30(%rsp),%xmm3
  10da3a:	66 0f 6f 54 24 20    	movdqa 0x20(%rsp),%xmm2
  10da40:	66 0f 6f 4c 24 10    	movdqa 0x10(%rsp),%xmm1
  10da46:	66 0f 6f 04 24       	movdqa (%rsp),%xmm0
  10da4b:	48 81 c4 00 01 00 00 	add    $0x100,%rsp
  10da52:	5f                   	pop    %rdi
  10da53:	5e                   	pop    %rsi
  10da54:	5d                   	pop    %rbp
  10da55:	48 83 c4 08          	add    $0x8,%rsp
  10da59:	5b                   	pop    %rbx
  10da5a:	5a                   	pop    %rdx
  10da5b:	59                   	pop    %rcx
  10da5c:	58                   	pop    %rax
  10da5d:	41 58                	pop    %r8
  10da5f:	41 59                	pop    %r9
  10da61:	41 5a                	pop    %r10
  10da63:	41 5b                	pop    %r11
  10da65:	41 5c                	pop    %r12
  10da67:	41 5d                	pop    %r13
  10da69:	41 5e                	pop    %r14
  10da6b:	41 5f                	pop    %r15
  10da6d:	48 83 c4 10          	add    $0x10,%rsp
  10da71:	48 cf                	iretq  

000000000010da73 <isr0>:
  10da73:	6a 00                	pushq  $0x0
  10da75:	6a 00                	pushq  $0x0
  10da77:	e9 4b fd ff ff       	jmpq   10d7c7 <isr_common_stub>

000000000010da7c <isr1>:
  10da7c:	6a 00                	pushq  $0x0
  10da7e:	6a 01                	pushq  $0x1
  10da80:	e9 42 fd ff ff       	jmpq   10d7c7 <isr_common_stub>

000000000010da85 <isr2>:
  10da85:	6a 00                	pushq  $0x0
  10da87:	6a 02                	pushq  $0x2
  10da89:	e9 39 fd ff ff       	jmpq   10d7c7 <isr_common_stub>

000000000010da8e <isr3>:
  10da8e:	6a 00                	pushq  $0x0
  10da90:	6a 03                	pushq  $0x3
  10da92:	e9 30 fd ff ff       	jmpq   10d7c7 <isr_common_stub>

000000000010da97 <isr4>:
  10da97:	6a 00                	pushq  $0x0
  10da99:	6a 04                	pushq  $0x4
  10da9b:	e9 27 fd ff ff       	jmpq   10d7c7 <isr_common_stub>

000000000010daa0 <isr5>:
  10daa0:	6a 00                	pushq  $0x0
  10daa2:	6a 05                	pushq  $0x5
  10daa4:	e9 1e fd ff ff       	jmpq   10d7c7 <isr_common_stub>

000000000010daa9 <isr6>:
  10daa9:	6a 00                	pushq  $0x0
  10daab:	6a 06                	pushq  $0x6
  10daad:	e9 15 fd ff ff       	jmpq   10d7c7 <isr_common_stub>

000000000010dab2 <isr7>:
  10dab2:	6a 00                	pushq  $0x0
  10dab4:	6a 07                	pushq  $0x7
  10dab6:	e9 0c fd ff ff       	jmpq   10d7c7 <isr_common_stub>

000000000010dabb <isr8>:
  10dabb:	6a 08                	pushq  $0x8
  10dabd:	e9 05 fd ff ff       	jmpq   10d7c7 <isr_common_stub>

000000000010dac2 <isr9>:
  10dac2:	6a 00                	pushq  $0x0
  10dac4:	6a 09                	pushq  $0x9
  10dac6:	e9 fc fc ff ff       	jmpq   10d7c7 <isr_common_stub>

000000000010dacb <isr10>:
  10dacb:	6a 0a                	pushq  $0xa
  10dacd:	e9 f5 fc ff ff       	jmpq   10d7c7 <isr_common_stub>

000000000010dad2 <isr11>:
  10dad2:	6a 0b                	pushq  $0xb
  10dad4:	e9 ee fc ff ff       	jmpq   10d7c7 <isr_common_stub>

000000000010dad9 <isr12>:
  10dad9:	6a 0c                	pushq  $0xc
  10dadb:	e9 e7 fc ff ff       	jmpq   10d7c7 <isr_common_stub>

000000000010dae0 <isr13>:
  10dae0:	6a 0d                	pushq  $0xd
  10dae2:	e9 e0 fc ff ff       	jmpq   10d7c7 <isr_common_stub>

000000000010dae7 <isr14>:
  10dae7:	6a 0e                	pushq  $0xe
  10dae9:	e9 d9 fc ff ff       	jmpq   10d7c7 <isr_common_stub>

000000000010daee <isr15>:
  10daee:	6a 0f                	pushq  $0xf
  10daf0:	e9 d2 fc ff ff       	jmpq   10d7c7 <isr_common_stub>

000000000010daf5 <isr16>:
  10daf5:	6a 10                	pushq  $0x10
  10daf7:	e9 cb fc ff ff       	jmpq   10d7c7 <isr_common_stub>

000000000010dafc <isr17>:
  10dafc:	6a 11                	pushq  $0x11
  10dafe:	e9 c4 fc ff ff       	jmpq   10d7c7 <isr_common_stub>

000000000010db03 <isr18>:
  10db03:	6a 12                	pushq  $0x12
  10db05:	e9 bd fc ff ff       	jmpq   10d7c7 <isr_common_stub>

000000000010db0a <isr19>:
  10db0a:	6a 13                	pushq  $0x13
  10db0c:	e9 b6 fc ff ff       	jmpq   10d7c7 <isr_common_stub>

000000000010db11 <isr20>:
  10db11:	6a 14                	pushq  $0x14
  10db13:	e9 af fc ff ff       	jmpq   10d7c7 <isr_common_stub>

000000000010db18 <isr21>:
  10db18:	6a 15                	pushq  $0x15
  10db1a:	e9 a8 fc ff ff       	jmpq   10d7c7 <isr_common_stub>

000000000010db1f <isr22>:
  10db1f:	6a 16                	pushq  $0x16
  10db21:	e9 a1 fc ff ff       	jmpq   10d7c7 <isr_common_stub>

000000000010db26 <isr23>:
  10db26:	6a 17                	pushq  $0x17
  10db28:	e9 9a fc ff ff       	jmpq   10d7c7 <isr_common_stub>

000000000010db2d <isr24>:
  10db2d:	6a 18                	pushq  $0x18
  10db2f:	e9 93 fc ff ff       	jmpq   10d7c7 <isr_common_stub>

000000000010db34 <isr25>:
  10db34:	6a 19                	pushq  $0x19
  10db36:	e9 8c fc ff ff       	jmpq   10d7c7 <isr_common_stub>

000000000010db3b <isr26>:
  10db3b:	6a 1a                	pushq  $0x1a
  10db3d:	e9 85 fc ff ff       	jmpq   10d7c7 <isr_common_stub>

000000000010db42 <isr27>:
  10db42:	6a 1b                	pushq  $0x1b
  10db44:	e9 7e fc ff ff       	jmpq   10d7c7 <isr_common_stub>

000000000010db49 <isr28>:
  10db49:	6a 1c                	pushq  $0x1c
  10db4b:	e9 77 fc ff ff       	jmpq   10d7c7 <isr_common_stub>

000000000010db50 <isr29>:
  10db50:	6a 1d                	pushq  $0x1d
  10db52:	e9 70 fc ff ff       	jmpq   10d7c7 <isr_common_stub>

000000000010db57 <isr30>:
  10db57:	6a 1e                	pushq  $0x1e
  10db59:	e9 69 fc ff ff       	jmpq   10d7c7 <isr_common_stub>

000000000010db5e <isr31>:
  10db5e:	6a 1f                	pushq  $0x1f
  10db60:	e9 62 fc ff ff       	jmpq   10d7c7 <isr_common_stub>

000000000010db65 <irq0>:
  10db65:	6a 00                	pushq  $0x0
  10db67:	6a 20                	pushq  $0x20
  10db69:	e9 af fd ff ff       	jmpq   10d91d <irq_common_stub>

000000000010db6e <irq1>:
  10db6e:	6a 00                	pushq  $0x0
  10db70:	6a 21                	pushq  $0x21
  10db72:	e9 a6 fd ff ff       	jmpq   10d91d <irq_common_stub>

000000000010db77 <irq2>:
  10db77:	6a 00                	pushq  $0x0
  10db79:	6a 22                	pushq  $0x22
  10db7b:	e9 9d fd ff ff       	jmpq   10d91d <irq_common_stub>

000000000010db80 <irq3>:
  10db80:	6a 00                	pushq  $0x0
  10db82:	6a 23                	pushq  $0x23
  10db84:	e9 94 fd ff ff       	jmpq   10d91d <irq_common_stub>

000000000010db89 <irq4>:
  10db89:	6a 00                	pushq  $0x0
  10db8b:	6a 24                	pushq  $0x24
  10db8d:	e9 8b fd ff ff       	jmpq   10d91d <irq_common_stub>

000000000010db92 <irq5>:
  10db92:	6a 00                	pushq  $0x0
  10db94:	6a 25                	pushq  $0x25
  10db96:	e9 82 fd ff ff       	jmpq   10d91d <irq_common_stub>

000000000010db9b <irq6>:
  10db9b:	6a 00                	pushq  $0x0
  10db9d:	6a 26                	pushq  $0x26
  10db9f:	e9 79 fd ff ff       	jmpq   10d91d <irq_common_stub>

000000000010dba4 <irq7>:
  10dba4:	6a 00                	pushq  $0x0
  10dba6:	6a 27                	pushq  $0x27
  10dba8:	e9 70 fd ff ff       	jmpq   10d91d <irq_common_stub>

000000000010dbad <irq8>:
  10dbad:	6a 00                	pushq  $0x0
  10dbaf:	6a 28                	pushq  $0x28
  10dbb1:	e9 67 fd ff ff       	jmpq   10d91d <irq_common_stub>

000000000010dbb6 <irq9>:
  10dbb6:	6a 00                	pushq  $0x0
  10dbb8:	6a 29                	pushq  $0x29
  10dbba:	e9 5e fd ff ff       	jmpq   10d91d <irq_common_stub>

000000000010dbbf <irq10>:
  10dbbf:	6a 00                	pushq  $0x0
  10dbc1:	6a 2a                	pushq  $0x2a
  10dbc3:	e9 55 fd ff ff       	jmpq   10d91d <irq_common_stub>

000000000010dbc8 <irq11>:
  10dbc8:	6a 00                	pushq  $0x0
  10dbca:	6a 2b                	pushq  $0x2b
  10dbcc:	e9 4c fd ff ff       	jmpq   10d91d <irq_common_stub>

000000000010dbd1 <irq12>:
  10dbd1:	6a 00                	pushq  $0x0
  10dbd3:	6a 2c                	pushq  $0x2c
  10dbd5:	e9 43 fd ff ff       	jmpq   10d91d <irq_common_stub>

000000000010dbda <irq13>:
  10dbda:	6a 00                	pushq  $0x0
  10dbdc:	6a 2d                	pushq  $0x2d
  10dbde:	e9 3a fd ff ff       	jmpq   10d91d <irq_common_stub>

000000000010dbe3 <irq14>:
  10dbe3:	6a 00                	pushq  $0x0
  10dbe5:	6a 2e                	pushq  $0x2e
  10dbe7:	e9 31 fd ff ff       	jmpq   10d91d <irq_common_stub>

000000000010dbec <irq15>:
  10dbec:	6a 00                	pushq  $0x0
  10dbee:	6a 2f                	pushq  $0x2f
  10dbf0:	e9 28 fd ff ff       	jmpq   10d91d <irq_common_stub>
  10dbf5:	66 2e 0f 1f 84 00 00 	nopw   %cs:0x0(%rax,%rax,1)
  10dbfc:	00 00 00 
  10dbff:	90                   	nop

000000000010dc00 <StartProcess>:
  10dc00:	41 57                	push   %r15
  10dc02:	41 56                	push   %r14
  10dc04:	41 55                	push   %r13
  10dc06:	41 54                	push   %r12
  10dc08:	41 53                	push   %r11
  10dc0a:	41 52                	push   %r10
  10dc0c:	41 51                	push   %r9
  10dc0e:	41 50                	push   %r8
  10dc10:	50                   	push   %rax
  10dc11:	51                   	push   %rcx
  10dc12:	52                   	push   %rdx
  10dc13:	53                   	push   %rbx
  10dc14:	54                   	push   %rsp
  10dc15:	55                   	push   %rbp
  10dc16:	56                   	push   %rsi
  10dc17:	57                   	push   %rdi
  10dc18:	48 81 ec 00 01 00 00 	sub    $0x100,%rsp
  10dc1f:	66 44 0f 7f bc 24 f0 	movdqa %xmm15,0xf0(%rsp)
  10dc26:	00 00 00 
  10dc29:	66 44 0f 7f b4 24 e0 	movdqa %xmm14,0xe0(%rsp)
  10dc30:	00 00 00 
  10dc33:	66 44 0f 7f ac 24 d0 	movdqa %xmm13,0xd0(%rsp)
  10dc3a:	00 00 00 
  10dc3d:	66 44 0f 7f a4 24 c0 	movdqa %xmm12,0xc0(%rsp)
  10dc44:	00 00 00 
  10dc47:	66 44 0f 7f 9c 24 b0 	movdqa %xmm11,0xb0(%rsp)
  10dc4e:	00 00 00 
  10dc51:	66 44 0f 7f 94 24 a0 	movdqa %xmm10,0xa0(%rsp)
  10dc58:	00 00 00 
  10dc5b:	66 44 0f 7f 8c 24 90 	movdqa %xmm9,0x90(%rsp)
  10dc62:	00 00 00 
  10dc65:	66 44 0f 7f 84 24 80 	movdqa %xmm8,0x80(%rsp)
  10dc6c:	00 00 00 
  10dc6f:	66 0f 7f 7c 24 70    	movdqa %xmm7,0x70(%rsp)
  10dc75:	66 0f 7f 74 24 60    	movdqa %xmm6,0x60(%rsp)
  10dc7b:	66 0f 7f 6c 24 50    	movdqa %xmm5,0x50(%rsp)
  10dc81:	66 0f 7f 64 24 40    	movdqa %xmm4,0x40(%rsp)
  10dc87:	66 0f 7f 5c 24 30    	movdqa %xmm3,0x30(%rsp)
  10dc8d:	66 0f 7f 54 24 20    	movdqa %xmm2,0x20(%rsp)
  10dc93:	66 0f 7f 4c 24 10    	movdqa %xmm1,0x10(%rsp)
  10dc99:	66 0f 7f 04 24       	movdqa %xmm0,(%rsp)
  10dc9e:	0f 22 de             	mov    %rsi,%cr3
  10dca1:	48 89 fc             	mov    %rdi,%rsp
  10dca4:	b0 20                	mov    $0x20,%al
  10dca6:	66 ba 20 00          	mov    $0x20,%dx
  10dcaa:	ee                   	out    %al,(%dx)
  10dcab:	66 44 0f 6f bc 24 f0 	movdqa 0xf0(%rsp),%xmm15
  10dcb2:	00 00 00 
  10dcb5:	66 44 0f 6f b4 24 e0 	movdqa 0xe0(%rsp),%xmm14
  10dcbc:	00 00 00 
  10dcbf:	66 44 0f 6f ac 24 d0 	movdqa 0xd0(%rsp),%xmm13
  10dcc6:	00 00 00 
  10dcc9:	66 44 0f 6f a4 24 c0 	movdqa 0xc0(%rsp),%xmm12
  10dcd0:	00 00 00 
  10dcd3:	66 44 0f 6f a4 24 b0 	movdqa 0xb0(%rsp),%xmm12
  10dcda:	00 00 00 
  10dcdd:	66 44 0f 6f 94 24 a0 	movdqa 0xa0(%rsp),%xmm10
  10dce4:	00 00 00 
  10dce7:	66 44 0f 6f 8c 24 90 	movdqa 0x90(%rsp),%xmm9
  10dcee:	00 00 00 
  10dcf1:	66 44 0f 6f 84 24 80 	movdqa 0x80(%rsp),%xmm8
  10dcf8:	00 00 00 
  10dcfb:	66 0f 6f 7c 24 70    	movdqa 0x70(%rsp),%xmm7
  10dd01:	66 0f 6f 74 24 60    	movdqa 0x60(%rsp),%xmm6
  10dd07:	66 0f 6f 6c 24 50    	movdqa 0x50(%rsp),%xmm5
  10dd0d:	66 0f 6f 64 24 40    	movdqa 0x40(%rsp),%xmm4
  10dd13:	66 0f 6f 5c 24 30    	movdqa 0x30(%rsp),%xmm3
  10dd19:	66 0f 6f 54 24 20    	movdqa 0x20(%rsp),%xmm2
  10dd1f:	66 0f 6f 4c 24 10    	movdqa 0x10(%rsp),%xmm1
  10dd25:	66 0f 6f 04 24       	movdqa (%rsp),%xmm0
  10dd2a:	48 81 c4 00 01 00 00 	add    $0x100,%rsp
  10dd31:	5f                   	pop    %rdi
  10dd32:	5e                   	pop    %rsi
  10dd33:	5d                   	pop    %rbp
  10dd34:	48 83 c4 08          	add    $0x8,%rsp
  10dd38:	5b                   	pop    %rbx
  10dd39:	5a                   	pop    %rdx
  10dd3a:	59                   	pop    %rcx
  10dd3b:	58                   	pop    %rax
  10dd3c:	41 58                	pop    %r8
  10dd3e:	41 59                	pop    %r9
  10dd40:	41 5a                	pop    %r10
  10dd42:	41 5b                	pop    %r11
  10dd44:	41 5c                	pop    %r12
  10dd46:	41 5d                	pop    %r13
  10dd48:	41 5e                	pop    %r14
  10dd4a:	41 5f                	pop    %r15
  10dd4c:	48 83 c4 10          	add    $0x10,%rsp
  10dd50:	fb                   	sti    
  10dd51:	48 cf                	iretq  

000000000010dd53 <StartProcess_FirstTime>:
  10dd53:	0f 22 de             	mov    %rsi,%cr3
  10dd56:	48 89 fc             	mov    %rdi,%rsp
  10dd59:	66 44 0f 6f bc 24 f0 	movdqa 0xf0(%rsp),%xmm15
  10dd60:	00 00 00 
  10dd63:	66 44 0f 6f b4 24 e0 	movdqa 0xe0(%rsp),%xmm14
  10dd6a:	00 00 00 
  10dd6d:	66 44 0f 6f ac 24 d0 	movdqa 0xd0(%rsp),%xmm13
  10dd74:	00 00 00 
  10dd77:	66 44 0f 6f a4 24 c0 	movdqa 0xc0(%rsp),%xmm12
  10dd7e:	00 00 00 
  10dd81:	66 44 0f 6f a4 24 b0 	movdqa 0xb0(%rsp),%xmm12
  10dd88:	00 00 00 
  10dd8b:	66 44 0f 6f 94 24 a0 	movdqa 0xa0(%rsp),%xmm10
  10dd92:	00 00 00 
  10dd95:	66 44 0f 6f 8c 24 90 	movdqa 0x90(%rsp),%xmm9
  10dd9c:	00 00 00 
  10dd9f:	66 44 0f 6f 84 24 80 	movdqa 0x80(%rsp),%xmm8
  10dda6:	00 00 00 
  10dda9:	66 0f 6f 7c 24 70    	movdqa 0x70(%rsp),%xmm7
  10ddaf:	66 0f 6f 74 24 60    	movdqa 0x60(%rsp),%xmm6
  10ddb5:	66 0f 6f 6c 24 50    	movdqa 0x50(%rsp),%xmm5
  10ddbb:	66 0f 6f 64 24 40    	movdqa 0x40(%rsp),%xmm4
  10ddc1:	66 0f 6f 5c 24 30    	movdqa 0x30(%rsp),%xmm3
  10ddc7:	66 0f 6f 54 24 20    	movdqa 0x20(%rsp),%xmm2
  10ddcd:	66 0f 6f 4c 24 10    	movdqa 0x10(%rsp),%xmm1
  10ddd3:	66 0f 6f 04 24       	movdqa (%rsp),%xmm0
  10ddd8:	48 81 c4 00 01 00 00 	add    $0x100,%rsp
  10dddf:	5f                   	pop    %rdi
  10dde0:	5e                   	pop    %rsi
  10dde1:	5d                   	pop    %rbp
  10dde2:	48 83 c4 08          	add    $0x8,%rsp
  10dde6:	5b                   	pop    %rbx
  10dde7:	5a                   	pop    %rdx
  10dde8:	59                   	pop    %rcx
  10dde9:	58                   	pop    %rax
  10ddea:	41 58                	pop    %r8
  10ddec:	41 59                	pop    %r9
  10ddee:	41 5a                	pop    %r10
  10ddf0:	41 5b                	pop    %r11
  10ddf2:	41 5c                	pop    %r12
  10ddf4:	41 5d                	pop    %r13
  10ddf6:	41 5e                	pop    %r14
  10ddf8:	41 5f                	pop    %r15
  10ddfa:	48 83 c4 10          	add    $0x10,%rsp
  10ddfe:	fb                   	sti    
  10ddff:	48 cf                	iretq  
  10de01:	66 2e 0f 1f 84 00 00 	nopw   %cs:0x0(%rax,%rax,1)
  10de08:	00 00 00 
  10de0b:	0f 1f 44 00 00       	nopl   0x0(%rax,%rax,1)

000000000010de10 <__strlen>:
  10de10:	53                   	push   %rbx
  10de11:	51                   	push   %rcx
  10de12:	48 89 fb             	mov    %rdi,%rbx
  10de15:	30 c0                	xor    %al,%al
  10de17:	b9 ff ff ff ff       	mov    $0xffffffff,%ecx
  10de1c:	f2 ae                	repnz scas %es:(%rdi),%al
  10de1e:	48 29 df             	sub    %rbx,%rdi
  10de21:	48 89 f8             	mov    %rdi,%rax
  10de24:	48 ff c8             	dec    %rax
  10de27:	59                   	pop    %rcx
  10de28:	5b                   	pop    %rbx
  10de29:	c3                   	retq   

000000000010de2a <__strcmp>:
  10de2a:	57                   	push   %rdi
  10de2b:	56                   	push   %rsi
  10de2c:	e8 df ff ff ff       	callq  10de10 <__strlen>
  10de31:	48 89 c1             	mov    %rax,%rcx
  10de34:	48 89 f7             	mov    %rsi,%rdi
  10de37:	e8 d4 ff ff ff       	callq  10de10 <__strlen>
  10de3c:	48 89 c2             	mov    %rax,%rdx
  10de3f:	5e                   	pop    %rsi
  10de40:	5f                   	pop    %rdi
  10de41:	48 31 c0             	xor    %rax,%rax
  10de44:	48 39 d1             	cmp    %rdx,%rcx
  10de47:	74 07                	je     10de50 <compare>
  10de49:	48 89 d0             	mov    %rdx,%rax
  10de4c:	48 29 c8             	sub    %rcx,%rax
  10de4f:	c3                   	retq   

000000000010de50 <compare>:
  10de50:	fc                   	cld    
  10de51:	f3 a6                	repz cmpsb %es:(%rdi),%ds:(%rsi)
  10de53:	0f 94 c0             	sete   %al
  10de56:	c3                   	retq   

000000000010de57 <__strncmp>:
  10de57:	48 31 c0             	xor    %rax,%rax
  10de5a:	48 89 d1             	mov    %rdx,%rcx
  10de5d:	fc                   	cld    
  10de5e:	f3 a6                	repz cmpsb %es:(%rdi),%ds:(%rsi)
  10de60:	0f 94 c0             	sete   %al
  10de63:	c3                   	retq   

000000000010de64 <__strcpy>:
  10de64:	57                   	push   %rdi
  10de65:	48 89 f7             	mov    %rsi,%rdi
  10de68:	e8 a3 ff ff ff       	callq  10de10 <__strlen>
  10de6d:	48 89 c2             	mov    %rax,%rdx
  10de70:	48 ff c2             	inc    %rdx
  10de73:	5f                   	pop    %rdi
  10de74:	e8 10 00 00 00       	callq  10de89 <__memcpy>
  10de79:	48 89 f8             	mov    %rdi,%rax
  10de7c:	c3                   	retq   
  10de7d:	0f 1f 00             	nopl   (%rax)

000000000010de80 <__memset>:
  10de80:	48 89 d1             	mov    %rdx,%rcx
  10de83:	48 89 f0             	mov    %rsi,%rax
  10de86:	f3 aa                	rep stos %al,%es:(%rdi)
  10de88:	c3                   	retq   

000000000010de89 <__memcpy>:
  10de89:	48 89 d1             	mov    %rdx,%rcx
  10de8c:	f3 a4                	rep movsb %ds:(%rsi),%es:(%rdi)
  10de8e:	c3                   	retq   

000000000010de8f <__memcmp>:
  10de8f:	48 31 c0             	xor    %rax,%rax
  10de92:	48 89 d1             	mov    %rdx,%rcx
  10de95:	fc                   	cld    
  10de96:	f3 a6                	repz cmpsb %es:(%rdi),%ds:(%rsi)
  10de98:	0f 94 c0             	sete   %al
  10de9b:	c3                   	retq   

Disassembly of section .text._ZN14PageMapIndexerC2Em:

000000000010de9c <_ZN14PageMapIndexerC1Em>:
  10de9c:	f3 0f 1e fa          	endbr64 
  10dea0:	55                   	push   %rbp
  10dea1:	48 89 e5             	mov    %rsp,%rbp
  10dea4:	48 83 ec 10          	sub    $0x10,%rsp
  10dea8:	48 89 7d f8          	mov    %rdi,-0x8(%rbp)
  10deac:	48 89 75 f0          	mov    %rsi,-0x10(%rbp)
  10deb0:	48 c1 6d f0 0c       	shrq   $0xc,-0x10(%rbp)
  10deb5:	48 8b 45 f0          	mov    -0x10(%rbp),%rax
  10deb9:	25 ff 01 00 00       	and    $0x1ff,%eax
  10debe:	48 89 c2             	mov    %rax,%rdx
  10dec1:	48 8b 45 f8          	mov    -0x8(%rbp),%rax
  10dec5:	48 89 50 18          	mov    %rdx,0x18(%rax)
  10dec9:	48 c1 6d f0 09       	shrq   $0x9,-0x10(%rbp)
  10dece:	48 8b 45 f0          	mov    -0x10(%rbp),%rax
  10ded2:	25 ff 01 00 00       	and    $0x1ff,%eax
  10ded7:	48 89 c2             	mov    %rax,%rdx
  10deda:	48 8b 45 f8          	mov    -0x8(%rbp),%rax
  10dede:	48 89 50 10          	mov    %rdx,0x10(%rax)
  10dee2:	48 c1 6d f0 09       	shrq   $0x9,-0x10(%rbp)
  10dee7:	48 8b 45 f0          	mov    -0x10(%rbp),%rax
  10deeb:	25 ff 01 00 00       	and    $0x1ff,%eax
  10def0:	48 89 c2             	mov    %rax,%rdx
  10def3:	48 8b 45 f8          	mov    -0x8(%rbp),%rax
  10def7:	48 89 50 08          	mov    %rdx,0x8(%rax)
  10defb:	48 c1 6d f0 09       	shrq   $0x9,-0x10(%rbp)
  10df00:	48 8b 45 f0          	mov    -0x10(%rbp),%rax
  10df04:	25 ff 01 00 00       	and    $0x1ff,%eax
  10df09:	48 89 c2             	mov    %rax,%rdx
  10df0c:	48 8b 45 f8          	mov    -0x8(%rbp),%rax
  10df10:	48 89 10             	mov    %rdx,(%rax)
  10df13:	90                   	nop
  10df14:	c9                   	leaveq 
  10df15:	c3                   	retq   

Disassembly of section .text._ZN16PageTableManagerC2EP9PageTable:

000000000010df16 <_ZN16PageTableManagerC1EP9PageTable>:
  10df16:	f3 0f 1e fa          	endbr64 
  10df1a:	55                   	push   %rbp
  10df1b:	48 89 e5             	mov    %rsp,%rbp
  10df1e:	48 83 ec 10          	sub    $0x10,%rsp
  10df22:	48 89 7d f8          	mov    %rdi,-0x8(%rbp)
  10df26:	48 89 75 f0          	mov    %rsi,-0x10(%rbp)
  10df2a:	48 8b 45 f8          	mov    -0x8(%rbp),%rax
  10df2e:	48 8b 55 f0          	mov    -0x10(%rbp),%rdx
  10df32:	48 89 10             	mov    %rdx,(%rax)
  10df35:	90                   	nop
  10df36:	c9                   	leaveq 
  10df37:	c3                   	retq   

Disassembly of section .text._ZN16PageTableManager7GetPML4Ev:

000000000010df38 <_ZN16PageTableManager7GetPML4Ev>:
  10df38:	f3 0f 1e fa          	endbr64 
  10df3c:	55                   	push   %rbp
  10df3d:	48 89 e5             	mov    %rsp,%rbp
  10df40:	48 83 ec 08          	sub    $0x8,%rsp
  10df44:	48 89 7d f8          	mov    %rdi,-0x8(%rbp)
  10df48:	48 8b 45 f8          	mov    -0x8(%rbp),%rax
  10df4c:	48 8b 00             	mov    (%rax),%rax
  10df4f:	c9                   	leaveq 
  10df50:	c3                   	retq   

Disassembly of section .text._ZN6Bitmap7SetSizeEm:

000000000010df52 <_ZN6Bitmap7SetSizeEm>:
  10df52:	f3 0f 1e fa          	endbr64 
  10df56:	55                   	push   %rbp
  10df57:	48 89 e5             	mov    %rsp,%rbp
  10df5a:	48 83 ec 10          	sub    $0x10,%rsp
  10df5e:	48 89 7d f8          	mov    %rdi,-0x8(%rbp)
  10df62:	48 89 75 f0          	mov    %rsi,-0x10(%rbp)
  10df66:	48 8b 45 f8          	mov    -0x8(%rbp),%rax
  10df6a:	48 8b 55 f0          	mov    -0x10(%rbp),%rdx
  10df6e:	48 89 10             	mov    %rdx,(%rax)
  10df71:	90                   	nop
  10df72:	c9                   	leaveq 
  10df73:	c3                   	retq   

Disassembly of section .text._ZN6Bitmap9SetBufferEPm:

000000000010df74 <_ZN6Bitmap9SetBufferEPm>:
  10df74:	f3 0f 1e fa          	endbr64 
  10df78:	55                   	push   %rbp
  10df79:	48 89 e5             	mov    %rsp,%rbp
  10df7c:	48 83 ec 10          	sub    $0x10,%rsp
  10df80:	48 89 7d f8          	mov    %rdi,-0x8(%rbp)
  10df84:	48 89 75 f0          	mov    %rsi,-0x10(%rbp)
  10df88:	48 8b 45 f8          	mov    -0x8(%rbp),%rax
  10df8c:	48 8b 55 f0          	mov    -0x10(%rbp),%rdx
  10df90:	48 89 50 08          	mov    %rdx,0x8(%rax)
  10df94:	90                   	nop
  10df95:	c9                   	leaveq 
  10df96:	c3                   	retq   

Disassembly of section .text._ZNK9MemoryMap13GetEntryCountEv:

000000000010df98 <_ZNK9MemoryMap13GetEntryCountEv>:
  10df98:	f3 0f 1e fa          	endbr64 
  10df9c:	55                   	push   %rbp
  10df9d:	48 89 e5             	mov    %rsp,%rbp
  10dfa0:	48 83 ec 08          	sub    $0x8,%rsp
  10dfa4:	48 89 7d f8          	mov    %rdi,-0x8(%rbp)
  10dfa8:	48 8b 45 f8          	mov    -0x8(%rbp),%rax
  10dfac:	48 8b 40 08          	mov    0x8(%rax),%rax
  10dfb0:	c9                   	leaveq 
  10dfb1:	c3                   	retq   

Disassembly of section .text._ZNK9MemoryMap8GetEntryEm:

000000000010dfb2 <_ZNK9MemoryMap8GetEntryEm>:
  10dfb2:	f3 0f 1e fa          	endbr64 
  10dfb6:	55                   	push   %rbp
  10dfb7:	48 89 e5             	mov    %rsp,%rbp
  10dfba:	48 83 ec 10          	sub    $0x10,%rsp
  10dfbe:	48 89 7d f8          	mov    %rdi,-0x8(%rbp)
  10dfc2:	48 89 75 f0          	mov    %rsi,-0x10(%rbp)
  10dfc6:	48 8b 45 f8          	mov    -0x8(%rbp),%rax
  10dfca:	48 8b 08             	mov    (%rax),%rcx
  10dfcd:	48 8b 55 f0          	mov    -0x10(%rbp),%rdx
  10dfd1:	48 89 d0             	mov    %rdx,%rax
  10dfd4:	48 01 c0             	add    %rax,%rax
  10dfd7:	48 01 d0             	add    %rdx,%rax
  10dfda:	48 c1 e0 03          	shl    $0x3,%rax
  10dfde:	48 01 c8             	add    %rcx,%rax
  10dfe1:	c9                   	leaveq 
  10dfe2:	c3                   	retq   

Disassembly of section .text._ZN6vectorIPN4AHCI10AHCIDeviceEED2Ev:

000000000010dfe4 <_ZN6vectorIPN4AHCI10AHCIDeviceEED1Ev>:
  10dfe4:	f3 0f 1e fa          	endbr64 
  10dfe8:	55                   	push   %rbp
  10dfe9:	48 89 e5             	mov    %rsp,%rbp
  10dfec:	48 83 ec 10          	sub    $0x10,%rsp
  10dff0:	48 89 7d f8          	mov    %rdi,-0x8(%rbp)
  10dff4:	48 8b 45 f8          	mov    -0x8(%rbp),%rax
  10dff8:	48 8b 40 10          	mov    0x10(%rax),%rax
  10dffc:	48 85 c0             	test   %rax,%rax
  10dfff:	74 10                	je     10e011 <_ZN6vectorIPN4AHCI10AHCIDeviceEED1Ev+0x2d>
  10e001:	48 8b 45 f8          	mov    -0x8(%rbp),%rax
  10e005:	48 8b 40 10          	mov    0x10(%rax),%rax
  10e009:	48 89 c7             	mov    %rax,%rdi
  10e00c:	e8 27 5a ff ff       	callq  103a38 <_ZdaPv>
  10e011:	90                   	nop
  10e012:	c9                   	leaveq 
  10e013:	c3                   	retq   

Disassembly of section .text._ZNK6vectorIPN4AHCI10AHCIDeviceEE4sizeEv:

000000000010e014 <_ZNK6vectorIPN4AHCI10AHCIDeviceEE4sizeEv>:
  10e014:	f3 0f 1e fa          	endbr64 
  10e018:	55                   	push   %rbp
  10e019:	48 89 e5             	mov    %rsp,%rbp
  10e01c:	48 83 ec 08          	sub    $0x8,%rsp
  10e020:	48 89 7d f8          	mov    %rdi,-0x8(%rbp)
  10e024:	48 8b 45 f8          	mov    -0x8(%rbp),%rax
  10e028:	48 8b 40 08          	mov    0x8(%rax),%rax
  10e02c:	c9                   	leaveq 
  10e02d:	c3                   	retq   

Disassembly of section .text._ZN6vectorIPN4AHCI10AHCIDeviceEEixEm:

000000000010e02e <_ZN6vectorIPN4AHCI10AHCIDeviceEEixEm>:
  10e02e:	f3 0f 1e fa          	endbr64 
  10e032:	55                   	push   %rbp
  10e033:	48 89 e5             	mov    %rsp,%rbp
  10e036:	48 83 ec 10          	sub    $0x10,%rsp
  10e03a:	48 89 7d f8          	mov    %rdi,-0x8(%rbp)
  10e03e:	48 89 75 f0          	mov    %rsi,-0x10(%rbp)
  10e042:	48 8b 45 f8          	mov    -0x8(%rbp),%rax
  10e046:	48 8b 40 08          	mov    0x8(%rax),%rax
  10e04a:	48 39 45 f0          	cmp    %rax,-0x10(%rbp)
  10e04e:	73 15                	jae    10e065 <_ZN6vectorIPN4AHCI10AHCIDeviceEEixEm+0x37>
  10e050:	48 8b 45 f8          	mov    -0x8(%rbp),%rax
  10e054:	48 8b 40 10          	mov    0x10(%rax),%rax
  10e058:	48 8b 55 f0          	mov    -0x10(%rbp),%rdx
  10e05c:	48 c1 e2 03          	shl    $0x3,%rdx
  10e060:	48 01 d0             	add    %rdx,%rax
  10e063:	eb 00                	jmp    10e065 <_ZN6vectorIPN4AHCI10AHCIDeviceEEixEm+0x37>
  10e065:	c9                   	leaveq 
  10e066:	c3                   	retq   

Disassembly of section .text._ZN6DeviceD2Ev:

000000000010e068 <_ZN6DeviceD1Ev>:
  10e068:	f3 0f 1e fa          	endbr64 
  10e06c:	55                   	push   %rbp
  10e06d:	48 89 e5             	mov    %rsp,%rbp
  10e070:	48 83 ec 08          	sub    $0x8,%rsp
  10e074:	48 89 7d f8          	mov    %rdi,-0x8(%rbp)
  10e078:	48 8d 15 61 14 00 00 	lea    0x1461(%rip),%rdx        # 10f4e0 <_ZTV6Device+0x10>
  10e07f:	48 8b 45 f8          	mov    -0x8(%rbp),%rax
  10e083:	48 89 10             	mov    %rdx,(%rax)
  10e086:	90                   	nop
  10e087:	c9                   	leaveq 
  10e088:	c3                   	retq   

Disassembly of section .text._ZN6DeviceD0Ev:

000000000010e08a <_ZN6DeviceD0Ev>:
  10e08a:	f3 0f 1e fa          	endbr64 
  10e08e:	55                   	push   %rbp
  10e08f:	48 89 e5             	mov    %rsp,%rbp
  10e092:	48 83 ec 10          	sub    $0x10,%rsp
  10e096:	48 89 7d f8          	mov    %rdi,-0x8(%rbp)
  10e09a:	48 8b 45 f8          	mov    -0x8(%rbp),%rax
  10e09e:	48 89 c7             	mov    %rax,%rdi
  10e0a1:	e8 c2 ff ff ff       	callq  10e068 <_ZN6DeviceD1Ev>
  10e0a6:	48 8b 45 f8          	mov    -0x8(%rbp),%rax
  10e0aa:	be 08 00 00 00       	mov    $0x8,%esi
  10e0af:	48 89 c7             	mov    %rax,%rdi
  10e0b2:	e8 a0 59 ff ff       	callq  103a57 <_ZdlPvm>
  10e0b7:	c9                   	leaveq 
  10e0b8:	c3                   	retq   

Disassembly of section .text._ZN9ATADeviceD2Ev:

000000000010e0ba <_ZN9ATADeviceD1Ev>:
  10e0ba:	f3 0f 1e fa          	endbr64 
  10e0be:	55                   	push   %rbp
  10e0bf:	48 89 e5             	mov    %rsp,%rbp
  10e0c2:	48 83 ec 10          	sub    $0x10,%rsp
  10e0c6:	48 89 7d f8          	mov    %rdi,-0x8(%rbp)
  10e0ca:	48 8d 15 d7 13 00 00 	lea    0x13d7(%rip),%rdx        # 10f4a8 <_ZTV9ATADevice+0x10>
  10e0d1:	48 8b 45 f8          	mov    -0x8(%rbp),%rax
  10e0d5:	48 89 10             	mov    %rdx,(%rax)
  10e0d8:	48 8b 45 f8          	mov    -0x8(%rbp),%rax
  10e0dc:	48 89 c7             	mov    %rax,%rdi
  10e0df:	e8 84 ff ff ff       	callq  10e068 <_ZN6DeviceD1Ev>
  10e0e4:	90                   	nop
  10e0e5:	c9                   	leaveq 
  10e0e6:	c3                   	retq   

Disassembly of section .text._ZN9ATADeviceD0Ev:

000000000010e0e8 <_ZN9ATADeviceD0Ev>:
  10e0e8:	f3 0f 1e fa          	endbr64 
  10e0ec:	55                   	push   %rbp
  10e0ed:	48 89 e5             	mov    %rsp,%rbp
  10e0f0:	48 83 ec 10          	sub    $0x10,%rsp
  10e0f4:	48 89 7d f8          	mov    %rdi,-0x8(%rbp)
  10e0f8:	48 8b 45 f8          	mov    -0x8(%rbp),%rax
  10e0fc:	48 89 c7             	mov    %rax,%rdi
  10e0ff:	e8 b6 ff ff ff       	callq  10e0ba <_ZN9ATADeviceD1Ev>
  10e104:	48 8b 45 f8          	mov    -0x8(%rbp),%rax
  10e108:	be 08 00 00 00       	mov    $0x8,%esi
  10e10d:	48 89 c7             	mov    %rax,%rdi
  10e110:	e8 42 59 ff ff       	callq  103a57 <_ZdlPvm>
  10e115:	c9                   	leaveq 
  10e116:	c3                   	retq   

Disassembly of section .text._ZN9ATADevice7GetTypeEv:

000000000010e118 <_ZN9ATADevice7GetTypeEv>:
  10e118:	f3 0f 1e fa          	endbr64 
  10e11c:	55                   	push   %rbp
  10e11d:	48 89 e5             	mov    %rsp,%rbp
  10e120:	48 83 ec 08          	sub    $0x8,%rsp
  10e124:	48 89 7d f8          	mov    %rdi,-0x8(%rbp)
  10e128:	b8 01 00 00 00       	mov    $0x1,%eax
  10e12d:	c9                   	leaveq 
  10e12e:	c3                   	retq   

Disassembly of section .text._ZN6DeviceC2Ev:

000000000010e130 <_ZN6DeviceC1Ev>:
  10e130:	f3 0f 1e fa          	endbr64 
  10e134:	55                   	push   %rbp
  10e135:	48 89 e5             	mov    %rsp,%rbp
  10e138:	48 83 ec 08          	sub    $0x8,%rsp
  10e13c:	48 89 7d f8          	mov    %rdi,-0x8(%rbp)
  10e140:	48 8d 15 99 13 00 00 	lea    0x1399(%rip),%rdx        # 10f4e0 <_ZTV6Device+0x10>
  10e147:	48 8b 45 f8          	mov    -0x8(%rbp),%rax
  10e14b:	48 89 10             	mov    %rdx,(%rax)
  10e14e:	90                   	nop
  10e14f:	c9                   	leaveq 
  10e150:	c3                   	retq   

Disassembly of section .text._ZN4AHCI10AHCIDevice7GetTypeEv:

000000000010e152 <_ZN4AHCI10AHCIDevice7GetTypeEv>:
  10e152:	f3 0f 1e fa          	endbr64 
  10e156:	55                   	push   %rbp
  10e157:	48 89 e5             	mov    %rsp,%rbp
  10e15a:	48 83 ec 08          	sub    $0x8,%rsp
  10e15e:	48 89 7d f8          	mov    %rdi,-0x8(%rbp)
  10e162:	b8 02 00 00 00       	mov    $0x2,%eax
  10e167:	c9                   	leaveq 
  10e168:	c3                   	retq   

Disassembly of section .text._ZN6vectorIPN4AHCI10AHCIDeviceEEC2Ev:

000000000010e16a <_ZN6vectorIPN4AHCI10AHCIDeviceEEC1Ev>:
  10e16a:	f3 0f 1e fa          	endbr64 
  10e16e:	55                   	push   %rbp
  10e16f:	48 89 e5             	mov    %rsp,%rbp
  10e172:	48 83 ec 10          	sub    $0x10,%rsp
  10e176:	48 89 7d f8          	mov    %rdi,-0x8(%rbp)
  10e17a:	bf 10 00 00 00       	mov    $0x10,%edi
  10e17f:	e8 77 58 ff ff       	callq  1039fb <_Znam>
  10e184:	48 89 c2             	mov    %rax,%rdx
  10e187:	48 8b 45 f8          	mov    -0x8(%rbp),%rax
  10e18b:	48 89 50 10          	mov    %rdx,0x10(%rax)
  10e18f:	48 8b 45 f8          	mov    -0x8(%rbp),%rax
  10e193:	48 c7 40 08 00 00 00 	movq   $0x0,0x8(%rax)
  10e19a:	00 
  10e19b:	48 8b 45 f8          	mov    -0x8(%rbp),%rax
  10e19f:	48 c7 00 02 00 00 00 	movq   $0x2,(%rax)
  10e1a6:	90                   	nop
  10e1a7:	c9                   	leaveq 
  10e1a8:	c3                   	retq   

Disassembly of section .text._ZN6vectorIPN4AHCI10AHCIDeviceEE9push_backERKS2_:

000000000010e1aa <_ZN6vectorIPN4AHCI10AHCIDeviceEE9push_backERKS2_>:
  10e1aa:	f3 0f 1e fa          	endbr64 
  10e1ae:	55                   	push   %rbp
  10e1af:	48 89 e5             	mov    %rsp,%rbp
  10e1b2:	48 83 ec 10          	sub    $0x10,%rsp
  10e1b6:	48 89 7d f8          	mov    %rdi,-0x8(%rbp)
  10e1ba:	48 89 75 f0          	mov    %rsi,-0x10(%rbp)
  10e1be:	48 8b 45 f8          	mov    -0x8(%rbp),%rax
  10e1c2:	48 8b 50 08          	mov    0x8(%rax),%rdx
  10e1c6:	48 8b 45 f8          	mov    -0x8(%rbp),%rax
  10e1ca:	48 8b 00             	mov    (%rax),%rax
  10e1cd:	48 39 c2             	cmp    %rax,%rdx
  10e1d0:	75 1a                	jne    10e1ec <_ZN6vectorIPN4AHCI10AHCIDeviceEE9push_backERKS2_+0x42>
  10e1d2:	48 8b 45 f8          	mov    -0x8(%rbp),%rax
  10e1d6:	48 8b 00             	mov    (%rax),%rax
  10e1d9:	48 8d 14 00          	lea    (%rax,%rax,1),%rdx
  10e1dd:	48 8b 45 f8          	mov    -0x8(%rbp),%rax
  10e1e1:	48 89 d6             	mov    %rdx,%rsi
  10e1e4:	48 89 c7             	mov    %rax,%rdi
  10e1e7:	e8 32 00 00 00       	callq  10e21e <_ZN6vectorIPN4AHCI10AHCIDeviceEE6resizeEm>
  10e1ec:	48 8b 45 f8          	mov    -0x8(%rbp),%rax
  10e1f0:	48 8b 70 10          	mov    0x10(%rax),%rsi
  10e1f4:	48 8b 45 f8          	mov    -0x8(%rbp),%rax
  10e1f8:	48 8b 40 08          	mov    0x8(%rax),%rax
  10e1fc:	48 8d 48 01          	lea    0x1(%rax),%rcx
  10e200:	48 8b 55 f8          	mov    -0x8(%rbp),%rdx
  10e204:	48 89 4a 08          	mov    %rcx,0x8(%rdx)
  10e208:	48 c1 e0 03          	shl    $0x3,%rax
  10e20c:	48 8d 14 06          	lea    (%rsi,%rax,1),%rdx
  10e210:	48 8b 45 f0          	mov    -0x10(%rbp),%rax
  10e214:	48 8b 00             	mov    (%rax),%rax
  10e217:	48 89 02             	mov    %rax,(%rdx)
  10e21a:	90                   	nop
  10e21b:	c9                   	leaveq 
  10e21c:	c3                   	retq   

Disassembly of section .text._ZN6vectorIPN4AHCI10AHCIDeviceEE6resizeEm:

000000000010e21e <_ZN6vectorIPN4AHCI10AHCIDeviceEE6resizeEm>:
  10e21e:	f3 0f 1e fa          	endbr64 
  10e222:	55                   	push   %rbp
  10e223:	48 89 e5             	mov    %rsp,%rbp
  10e226:	48 83 ec 20          	sub    $0x20,%rsp
  10e22a:	48 89 7d e8          	mov    %rdi,-0x18(%rbp)
  10e22e:	48 89 75 e0          	mov    %rsi,-0x20(%rbp)
  10e232:	48 8b 45 e8          	mov    -0x18(%rbp),%rax
  10e236:	48 8b 55 e0          	mov    -0x20(%rbp),%rdx
  10e23a:	48 89 10             	mov    %rdx,(%rax)
  10e23d:	48 8b 45 e8          	mov    -0x18(%rbp),%rax
  10e241:	48 8b 00             	mov    (%rax),%rax
  10e244:	48 ba ff ff ff ff ff 	movabs $0xfffffffffffffff,%rdx
  10e24b:	ff ff 0f 
  10e24e:	48 39 d0             	cmp    %rdx,%rax
  10e251:	77 06                	ja     10e259 <_ZN6vectorIPN4AHCI10AHCIDeviceEE6resizeEm+0x3b>
  10e253:	48 c1 e0 03          	shl    $0x3,%rax
  10e257:	eb 07                	jmp    10e260 <_ZN6vectorIPN4AHCI10AHCIDeviceEE6resizeEm+0x42>
  10e259:	48 c7 c0 ff ff ff ff 	mov    $0xffffffffffffffff,%rax
  10e260:	48 89 c7             	mov    %rax,%rdi
  10e263:	e8 93 57 ff ff       	callq  1039fb <_Znam>
  10e268:	48 89 45 f8          	mov    %rax,-0x8(%rbp)
  10e26c:	48 8b 45 e8          	mov    -0x18(%rbp),%rax
  10e270:	48 8b 40 08          	mov    0x8(%rax),%rax
  10e274:	48 8d 14 c5 00 00 00 	lea    0x0(,%rax,8),%rdx
  10e27b:	00 
  10e27c:	48 8b 45 e8          	mov    -0x18(%rbp),%rax
  10e280:	48 8b 48 10          	mov    0x10(%rax),%rcx
  10e284:	48 8b 45 f8          	mov    -0x8(%rbp),%rax
  10e288:	48 89 ce             	mov    %rcx,%rsi
  10e28b:	48 89 c7             	mov    %rax,%rdi
  10e28e:	e8 6e e9 ff ff       	callq  10cc01 <_Z6memcpyPvPKvm>
  10e293:	48 8b 45 e8          	mov    -0x18(%rbp),%rax
  10e297:	48 8b 40 10          	mov    0x10(%rax),%rax
  10e29b:	48 85 c0             	test   %rax,%rax
  10e29e:	74 10                	je     10e2b0 <_ZN6vectorIPN4AHCI10AHCIDeviceEE6resizeEm+0x92>
  10e2a0:	48 8b 45 e8          	mov    -0x18(%rbp),%rax
  10e2a4:	48 8b 40 10          	mov    0x10(%rax),%rax
  10e2a8:	48 89 c7             	mov    %rax,%rdi
  10e2ab:	e8 88 57 ff ff       	callq  103a38 <_ZdaPv>
  10e2b0:	48 8b 45 e8          	mov    -0x18(%rbp),%rax
  10e2b4:	48 8b 55 f8          	mov    -0x8(%rbp),%rdx
  10e2b8:	48 89 50 10          	mov    %rdx,0x10(%rax)
  10e2bc:	90                   	nop
  10e2bd:	c9                   	leaveq 
  10e2be:	c3                   	retq   

Disassembly of section .text._ZN4AHCI10AHCIDeviceD2Ev:

000000000010e2c0 <_ZN4AHCI10AHCIDeviceD1Ev>:
  10e2c0:	f3 0f 1e fa          	endbr64 
  10e2c4:	55                   	push   %rbp
  10e2c5:	48 89 e5             	mov    %rsp,%rbp
  10e2c8:	48 83 ec 10          	sub    $0x10,%rsp
  10e2cc:	48 89 7d f8          	mov    %rdi,-0x8(%rbp)
  10e2d0:	48 8d 15 41 12 00 00 	lea    0x1241(%rip),%rdx        # 10f518 <_ZTVN4AHCI10AHCIDeviceE+0x10>
  10e2d7:	48 8b 45 f8          	mov    -0x8(%rbp),%rax
  10e2db:	48 89 10             	mov    %rdx,(%rax)
  10e2de:	48 8b 45 f8          	mov    -0x8(%rbp),%rax
  10e2e2:	48 89 c7             	mov    %rax,%rdi
  10e2e5:	e8 7e fd ff ff       	callq  10e068 <_ZN6DeviceD1Ev>
  10e2ea:	90                   	nop
  10e2eb:	c9                   	leaveq 
  10e2ec:	c3                   	retq   

Disassembly of section .text._ZN4AHCI10AHCIDeviceD0Ev:

000000000010e2ee <_ZN4AHCI10AHCIDeviceD0Ev>:
  10e2ee:	f3 0f 1e fa          	endbr64 
  10e2f2:	55                   	push   %rbp
  10e2f3:	48 89 e5             	mov    %rsp,%rbp
  10e2f6:	48 83 ec 10          	sub    $0x10,%rsp
  10e2fa:	48 89 7d f8          	mov    %rdi,-0x8(%rbp)
  10e2fe:	48 8b 45 f8          	mov    -0x8(%rbp),%rax
  10e302:	48 89 c7             	mov    %rax,%rdi
  10e305:	e8 b6 ff ff ff       	callq  10e2c0 <_ZN4AHCI10AHCIDeviceD1Ev>
  10e30a:	48 8b 45 f8          	mov    -0x8(%rbp),%rax
  10e30e:	be 10 00 00 00       	mov    $0x10,%esi
  10e313:	48 89 c7             	mov    %rax,%rdi
  10e316:	e8 3c 57 ff ff       	callq  103a57 <_ZdlPvm>
  10e31b:	c9                   	leaveq 
  10e31c:	c3                   	retq   

Disassembly of section .text._ZN10ActiveFileC2Ev:

000000000010e31e <_ZN10ActiveFileC1Ev>:
  10e31e:	f3 0f 1e fa          	endbr64 
  10e322:	55                   	push   %rbp
  10e323:	48 89 e5             	mov    %rsp,%rbp
  10e326:	48 83 ec 08          	sub    $0x8,%rsp
  10e32a:	48 89 7d f8          	mov    %rdi,-0x8(%rbp)
  10e32e:	48 8d 15 fb 12 00 00 	lea    0x12fb(%rip),%rdx        # 10f630 <_ZTV10ActiveFile+0x10>
  10e335:	48 8b 45 f8          	mov    -0x8(%rbp),%rax
  10e339:	48 89 10             	mov    %rdx,(%rax)
  10e33c:	48 8b 45 f8          	mov    -0x8(%rbp),%rax
  10e340:	48 c7 40 08 00 00 00 	movq   $0x0,0x8(%rax)
  10e347:	00 
  10e348:	90                   	nop
  10e349:	c9                   	leaveq 
  10e34a:	c3                   	retq   

Disassembly of section .text._ZN10ActiveFileD2Ev:

000000000010e34c <_ZN10ActiveFileD1Ev>:
  10e34c:	f3 0f 1e fa          	endbr64 
  10e350:	55                   	push   %rbp
  10e351:	48 89 e5             	mov    %rsp,%rbp
  10e354:	48 83 ec 08          	sub    $0x8,%rsp
  10e358:	48 89 7d f8          	mov    %rdi,-0x8(%rbp)
  10e35c:	48 8d 15 cd 12 00 00 	lea    0x12cd(%rip),%rdx        # 10f630 <_ZTV10ActiveFile+0x10>
  10e363:	48 8b 45 f8          	mov    -0x8(%rbp),%rax
  10e367:	48 89 10             	mov    %rdx,(%rax)
  10e36a:	90                   	nop
  10e36b:	c9                   	leaveq 
  10e36c:	c3                   	retq   

Disassembly of section .text._ZN10FilesystemC2EP6Devicej:

000000000010e36e <_ZN10FilesystemC1EP6Devicej>:
  10e36e:	f3 0f 1e fa          	endbr64 
  10e372:	55                   	push   %rbp
  10e373:	48 89 e5             	mov    %rsp,%rbp
  10e376:	48 83 ec 18          	sub    $0x18,%rsp
  10e37a:	48 89 7d f8          	mov    %rdi,-0x8(%rbp)
  10e37e:	48 89 75 f0          	mov    %rsi,-0x10(%rbp)
  10e382:	89 55 ec             	mov    %edx,-0x14(%rbp)
  10e385:	48 8d 15 4c 12 00 00 	lea    0x124c(%rip),%rdx        # 10f5d8 <_ZTV10Filesystem+0x10>
  10e38c:	48 8b 45 f8          	mov    -0x8(%rbp),%rax
  10e390:	48 89 10             	mov    %rdx,(%rax)
  10e393:	48 8b 45 f8          	mov    -0x8(%rbp),%rax
  10e397:	48 8b 55 f0          	mov    -0x10(%rbp),%rdx
  10e39b:	48 89 50 08          	mov    %rdx,0x8(%rax)
  10e39f:	48 8b 45 f8          	mov    -0x8(%rbp),%rax
  10e3a3:	8b 55 ec             	mov    -0x14(%rbp),%edx
  10e3a6:	89 50 10             	mov    %edx,0x10(%rax)
  10e3a9:	90                   	nop
  10e3aa:	c9                   	leaveq 
  10e3ab:	c3                   	retq   

Disassembly of section .text._ZN10FilesystemD2Ev:

000000000010e3ac <_ZN10FilesystemD1Ev>:
  10e3ac:	f3 0f 1e fa          	endbr64 
  10e3b0:	55                   	push   %rbp
  10e3b1:	48 89 e5             	mov    %rsp,%rbp
  10e3b4:	48 83 ec 08          	sub    $0x8,%rsp
  10e3b8:	48 89 7d f8          	mov    %rdi,-0x8(%rbp)
  10e3bc:	48 8d 15 15 12 00 00 	lea    0x1215(%rip),%rdx        # 10f5d8 <_ZTV10Filesystem+0x10>
  10e3c3:	48 8b 45 f8          	mov    -0x8(%rbp),%rax
  10e3c7:	48 89 10             	mov    %rdx,(%rax)
  10e3ca:	90                   	nop
  10e3cb:	c9                   	leaveq 
  10e3cc:	c3                   	retq   

Disassembly of section .text._ZN16FAT32_ActiveFileC2Ev:

000000000010e3ce <_ZN16FAT32_ActiveFileC1Ev>:
  10e3ce:	f3 0f 1e fa          	endbr64 
  10e3d2:	55                   	push   %rbp
  10e3d3:	48 89 e5             	mov    %rsp,%rbp
  10e3d6:	48 83 ec 10          	sub    $0x10,%rsp
  10e3da:	48 89 7d f8          	mov    %rdi,-0x8(%rbp)
  10e3de:	48 8b 45 f8          	mov    -0x8(%rbp),%rax
  10e3e2:	48 89 c7             	mov    %rax,%rdi
  10e3e5:	e8 34 ff ff ff       	callq  10e31e <_ZN10ActiveFileC1Ev>
  10e3ea:	48 8d 15 b7 11 00 00 	lea    0x11b7(%rip),%rdx        # 10f5a8 <_ZTV16FAT32_ActiveFile+0x10>
  10e3f1:	48 8b 45 f8          	mov    -0x8(%rbp),%rax
  10e3f5:	48 89 10             	mov    %rdx,(%rax)
  10e3f8:	90                   	nop
  10e3f9:	c9                   	leaveq 
  10e3fa:	c3                   	retq   

Disassembly of section .text._ZN6vectorI8DirEntryED2Ev:

000000000010e3fc <_ZN6vectorI8DirEntryED1Ev>:
  10e3fc:	f3 0f 1e fa          	endbr64 
  10e400:	55                   	push   %rbp
  10e401:	48 89 e5             	mov    %rsp,%rbp
  10e404:	48 83 ec 10          	sub    $0x10,%rsp
  10e408:	48 89 7d f8          	mov    %rdi,-0x8(%rbp)
  10e40c:	48 8b 45 f8          	mov    -0x8(%rbp),%rax
  10e410:	48 8b 40 10          	mov    0x10(%rax),%rax
  10e414:	48 85 c0             	test   %rax,%rax
  10e417:	74 10                	je     10e429 <_ZN6vectorI8DirEntryED1Ev+0x2d>
  10e419:	48 8b 45 f8          	mov    -0x8(%rbp),%rax
  10e41d:	48 8b 40 10          	mov    0x10(%rax),%rax
  10e421:	48 89 c7             	mov    %rax,%rdi
  10e424:	e8 0f 56 ff ff       	callq  103a38 <_ZdaPv>
  10e429:	90                   	nop
  10e42a:	c9                   	leaveq 
  10e42b:	c3                   	retq   

Disassembly of section .text._ZNK6vectorI8DirEntryE4sizeEv:

000000000010e42c <_ZNK6vectorI8DirEntryE4sizeEv>:
  10e42c:	f3 0f 1e fa          	endbr64 
  10e430:	55                   	push   %rbp
  10e431:	48 89 e5             	mov    %rsp,%rbp
  10e434:	48 83 ec 08          	sub    $0x8,%rsp
  10e438:	48 89 7d f8          	mov    %rdi,-0x8(%rbp)
  10e43c:	48 8b 45 f8          	mov    -0x8(%rbp),%rax
  10e440:	48 8b 40 08          	mov    0x8(%rax),%rax
  10e444:	c9                   	leaveq 
  10e445:	c3                   	retq   

Disassembly of section .text._ZN6vectorI8DirEntryEixEm:

000000000010e446 <_ZN6vectorI8DirEntryEixEm>:
  10e446:	f3 0f 1e fa          	endbr64 
  10e44a:	55                   	push   %rbp
  10e44b:	48 89 e5             	mov    %rsp,%rbp
  10e44e:	48 83 ec 10          	sub    $0x10,%rsp
  10e452:	48 89 7d f8          	mov    %rdi,-0x8(%rbp)
  10e456:	48 89 75 f0          	mov    %rsi,-0x10(%rbp)
  10e45a:	48 8b 45 f8          	mov    -0x8(%rbp),%rax
  10e45e:	48 8b 40 08          	mov    0x8(%rax),%rax
  10e462:	48 39 45 f0          	cmp    %rax,-0x10(%rbp)
  10e466:	73 26                	jae    10e48e <_ZN6vectorI8DirEntryEixEm+0x48>
  10e468:	48 8b 45 f8          	mov    -0x8(%rbp),%rax
  10e46c:	48 8b 48 10          	mov    0x10(%rax),%rcx
  10e470:	48 8b 55 f0          	mov    -0x10(%rbp),%rdx
  10e474:	48 89 d0             	mov    %rdx,%rax
  10e477:	48 c1 e0 03          	shl    $0x3,%rax
  10e47b:	48 01 d0             	add    %rdx,%rax
  10e47e:	48 c1 e0 02          	shl    $0x2,%rax
  10e482:	48 01 d0             	add    %rdx,%rax
  10e485:	48 c1 e0 02          	shl    $0x2,%rax
  10e489:	48 01 c8             	add    %rcx,%rax
  10e48c:	eb 00                	jmp    10e48e <_ZN6vectorI8DirEntryEixEm+0x48>
  10e48e:	c9                   	leaveq 
  10e48f:	c3                   	retq   

Disassembly of section .text._ZN6vectorIjEC2Ev:

000000000010e490 <_ZN6vectorIjEC1Ev>:
  10e490:	f3 0f 1e fa          	endbr64 
  10e494:	55                   	push   %rbp
  10e495:	48 89 e5             	mov    %rsp,%rbp
  10e498:	48 83 ec 10          	sub    $0x10,%rsp
  10e49c:	48 89 7d f8          	mov    %rdi,-0x8(%rbp)
  10e4a0:	bf 08 00 00 00       	mov    $0x8,%edi
  10e4a5:	e8 51 55 ff ff       	callq  1039fb <_Znam>
  10e4aa:	48 89 c2             	mov    %rax,%rdx
  10e4ad:	48 8b 45 f8          	mov    -0x8(%rbp),%rax
  10e4b1:	48 89 50 10          	mov    %rdx,0x10(%rax)
  10e4b5:	48 8b 45 f8          	mov    -0x8(%rbp),%rax
  10e4b9:	48 c7 40 08 00 00 00 	movq   $0x0,0x8(%rax)
  10e4c0:	00 
  10e4c1:	48 8b 45 f8          	mov    -0x8(%rbp),%rax
  10e4c5:	48 c7 00 02 00 00 00 	movq   $0x2,(%rax)
  10e4cc:	90                   	nop
  10e4cd:	c9                   	leaveq 
  10e4ce:	c3                   	retq   

Disassembly of section .text._ZN6vectorIjED2Ev:

000000000010e4d0 <_ZN6vectorIjED1Ev>:
  10e4d0:	f3 0f 1e fa          	endbr64 
  10e4d4:	55                   	push   %rbp
  10e4d5:	48 89 e5             	mov    %rsp,%rbp
  10e4d8:	48 83 ec 10          	sub    $0x10,%rsp
  10e4dc:	48 89 7d f8          	mov    %rdi,-0x8(%rbp)
  10e4e0:	48 8b 45 f8          	mov    -0x8(%rbp),%rax
  10e4e4:	48 8b 40 10          	mov    0x10(%rax),%rax
  10e4e8:	48 85 c0             	test   %rax,%rax
  10e4eb:	74 10                	je     10e4fd <_ZN6vectorIjED1Ev+0x2d>
  10e4ed:	48 8b 45 f8          	mov    -0x8(%rbp),%rax
  10e4f1:	48 8b 40 10          	mov    0x10(%rax),%rax
  10e4f5:	48 89 c7             	mov    %rax,%rdi
  10e4f8:	e8 3b 55 ff ff       	callq  103a38 <_ZdaPv>
  10e4fd:	90                   	nop
  10e4fe:	c9                   	leaveq 
  10e4ff:	c3                   	retq   

Disassembly of section .text._ZN6vectorIjE9push_backERKj:

000000000010e500 <_ZN6vectorIjE9push_backERKj>:
  10e500:	f3 0f 1e fa          	endbr64 
  10e504:	55                   	push   %rbp
  10e505:	48 89 e5             	mov    %rsp,%rbp
  10e508:	48 83 ec 10          	sub    $0x10,%rsp
  10e50c:	48 89 7d f8          	mov    %rdi,-0x8(%rbp)
  10e510:	48 89 75 f0          	mov    %rsi,-0x10(%rbp)
  10e514:	48 8b 45 f8          	mov    -0x8(%rbp),%rax
  10e518:	48 8b 50 08          	mov    0x8(%rax),%rdx
  10e51c:	48 8b 45 f8          	mov    -0x8(%rbp),%rax
  10e520:	48 8b 00             	mov    (%rax),%rax
  10e523:	48 39 c2             	cmp    %rax,%rdx
  10e526:	75 1a                	jne    10e542 <_ZN6vectorIjE9push_backERKj+0x42>
  10e528:	48 8b 45 f8          	mov    -0x8(%rbp),%rax
  10e52c:	48 8b 00             	mov    (%rax),%rax
  10e52f:	48 8d 14 00          	lea    (%rax,%rax,1),%rdx
  10e533:	48 8b 45 f8          	mov    -0x8(%rbp),%rax
  10e537:	48 89 d6             	mov    %rdx,%rsi
  10e53a:	48 89 c7             	mov    %rax,%rdi
  10e53d:	e8 84 02 00 00       	callq  10e7c6 <_ZN6vectorIjE6resizeEm>
  10e542:	48 8b 45 f8          	mov    -0x8(%rbp),%rax
  10e546:	48 8b 70 10          	mov    0x10(%rax),%rsi
  10e54a:	48 8b 45 f8          	mov    -0x8(%rbp),%rax
  10e54e:	48 8b 40 08          	mov    0x8(%rax),%rax
  10e552:	48 8d 48 01          	lea    0x1(%rax),%rcx
  10e556:	48 8b 55 f8          	mov    -0x8(%rbp),%rdx
  10e55a:	48 89 4a 08          	mov    %rcx,0x8(%rdx)
  10e55e:	48 c1 e0 02          	shl    $0x2,%rax
  10e562:	48 8d 14 06          	lea    (%rsi,%rax,1),%rdx
  10e566:	48 8b 45 f0          	mov    -0x10(%rbp),%rax
  10e56a:	8b 00                	mov    (%rax),%eax
  10e56c:	89 02                	mov    %eax,(%rdx)
  10e56e:	90                   	nop
  10e56f:	c9                   	leaveq 
  10e570:	c3                   	retq   

Disassembly of section .text._ZN6vectorIjEC2ERKS0_:

000000000010e572 <_ZN6vectorIjEC1ERKS0_>:
  10e572:	f3 0f 1e fa          	endbr64 
  10e576:	55                   	push   %rbp
  10e577:	48 89 e5             	mov    %rsp,%rbp
  10e57a:	48 83 ec 10          	sub    $0x10,%rsp
  10e57e:	48 89 7d f8          	mov    %rdi,-0x8(%rbp)
  10e582:	48 89 75 f0          	mov    %rsi,-0x10(%rbp)
  10e586:	48 8b 45 f0          	mov    -0x10(%rbp),%rax
  10e58a:	48 8b 10             	mov    (%rax),%rdx
  10e58d:	48 8b 45 f8          	mov    -0x8(%rbp),%rax
  10e591:	48 89 10             	mov    %rdx,(%rax)
  10e594:	48 8b 45 f0          	mov    -0x10(%rbp),%rax
  10e598:	48 8b 50 08          	mov    0x8(%rax),%rdx
  10e59c:	48 8b 45 f8          	mov    -0x8(%rbp),%rax
  10e5a0:	48 89 50 08          	mov    %rdx,0x8(%rax)
  10e5a4:	48 8b 45 f8          	mov    -0x8(%rbp),%rax
  10e5a8:	48 8b 00             	mov    (%rax),%rax
  10e5ab:	48 ba fe ff ff ff ff 	movabs $0x1ffffffffffffffe,%rdx
  10e5b2:	ff ff 1f 
  10e5b5:	48 39 d0             	cmp    %rdx,%rax
  10e5b8:	77 06                	ja     10e5c0 <_ZN6vectorIjEC1ERKS0_+0x4e>
  10e5ba:	48 c1 e0 02          	shl    $0x2,%rax
  10e5be:	eb 07                	jmp    10e5c7 <_ZN6vectorIjEC1ERKS0_+0x55>
  10e5c0:	48 c7 c0 ff ff ff ff 	mov    $0xffffffffffffffff,%rax
  10e5c7:	48 89 c7             	mov    %rax,%rdi
  10e5ca:	e8 2c 54 ff ff       	callq  1039fb <_Znam>
  10e5cf:	48 89 c2             	mov    %rax,%rdx
  10e5d2:	48 8b 45 f8          	mov    -0x8(%rbp),%rax
  10e5d6:	48 89 50 10          	mov    %rdx,0x10(%rax)
  10e5da:	48 8b 45 f8          	mov    -0x8(%rbp),%rax
  10e5de:	48 8b 40 08          	mov    0x8(%rax),%rax
  10e5e2:	48 8d 14 85 00 00 00 	lea    0x0(,%rax,4),%rdx
  10e5e9:	00 
  10e5ea:	48 8b 45 f0          	mov    -0x10(%rbp),%rax
  10e5ee:	48 8b 48 10          	mov    0x10(%rax),%rcx
  10e5f2:	48 8b 45 f8          	mov    -0x8(%rbp),%rax
  10e5f6:	48 8b 40 10          	mov    0x10(%rax),%rax
  10e5fa:	48 89 ce             	mov    %rcx,%rsi
  10e5fd:	48 89 c7             	mov    %rax,%rdi
  10e600:	e8 fc e5 ff ff       	callq  10cc01 <_Z6memcpyPvPKvm>
  10e605:	90                   	nop
  10e606:	c9                   	leaveq 
  10e607:	c3                   	retq   

Disassembly of section .text._ZNK6vectorIjE4sizeEv:

000000000010e608 <_ZNK6vectorIjE4sizeEv>:
  10e608:	f3 0f 1e fa          	endbr64 
  10e60c:	55                   	push   %rbp
  10e60d:	48 89 e5             	mov    %rsp,%rbp
  10e610:	48 83 ec 08          	sub    $0x8,%rsp
  10e614:	48 89 7d f8          	mov    %rdi,-0x8(%rbp)
  10e618:	48 8b 45 f8          	mov    -0x8(%rbp),%rax
  10e61c:	48 8b 40 08          	mov    0x8(%rax),%rax
  10e620:	c9                   	leaveq 
  10e621:	c3                   	retq   

Disassembly of section .text._ZN6vectorIjEixEm:

000000000010e622 <_ZN6vectorIjEixEm>:
  10e622:	f3 0f 1e fa          	endbr64 
  10e626:	55                   	push   %rbp
  10e627:	48 89 e5             	mov    %rsp,%rbp
  10e62a:	48 83 ec 10          	sub    $0x10,%rsp
  10e62e:	48 89 7d f8          	mov    %rdi,-0x8(%rbp)
  10e632:	48 89 75 f0          	mov    %rsi,-0x10(%rbp)
  10e636:	48 8b 45 f8          	mov    -0x8(%rbp),%rax
  10e63a:	48 8b 40 08          	mov    0x8(%rax),%rax
  10e63e:	48 39 45 f0          	cmp    %rax,-0x10(%rbp)
  10e642:	73 15                	jae    10e659 <_ZN6vectorIjEixEm+0x37>
  10e644:	48 8b 45 f8          	mov    -0x8(%rbp),%rax
  10e648:	48 8b 40 10          	mov    0x10(%rax),%rax
  10e64c:	48 8b 55 f0          	mov    -0x10(%rbp),%rdx
  10e650:	48 c1 e2 02          	shl    $0x2,%rdx
  10e654:	48 01 d0             	add    %rdx,%rax
  10e657:	eb 00                	jmp    10e659 <_ZN6vectorIjEixEm+0x37>
  10e659:	c9                   	leaveq 
  10e65a:	c3                   	retq   

Disassembly of section .text._ZN6vectorI8DirEntryE9push_backERKS0_:

000000000010e65c <_ZN6vectorI8DirEntryE9push_backERKS0_>:
  10e65c:	f3 0f 1e fa          	endbr64 
  10e660:	55                   	push   %rbp
  10e661:	48 89 e5             	mov    %rsp,%rbp
  10e664:	53                   	push   %rbx
  10e665:	48 83 ec 18          	sub    $0x18,%rsp
  10e669:	48 89 7d e8          	mov    %rdi,-0x18(%rbp)
  10e66d:	48 89 75 e0          	mov    %rsi,-0x20(%rbp)
  10e671:	48 8b 45 e8          	mov    -0x18(%rbp),%rax
  10e675:	48 8b 50 08          	mov    0x8(%rax),%rdx
  10e679:	48 8b 45 e8          	mov    -0x18(%rbp),%rax
  10e67d:	48 8b 00             	mov    (%rax),%rax
  10e680:	48 39 c2             	cmp    %rax,%rdx
  10e683:	75 1a                	jne    10e69f <_ZN6vectorI8DirEntryE9push_backERKS0_+0x43>
  10e685:	48 8b 45 e8          	mov    -0x18(%rbp),%rax
  10e689:	48 8b 00             	mov    (%rax),%rax
  10e68c:	48 8d 14 00          	lea    (%rax,%rax,1),%rdx
  10e690:	48 8b 45 e8          	mov    -0x18(%rbp),%rax
  10e694:	48 89 d6             	mov    %rdx,%rsi
  10e697:	48 89 c7             	mov    %rax,%rdi
  10e69a:	e8 c9 01 00 00       	callq  10e868 <_ZN6vectorI8DirEntryE6resizeEm>
  10e69f:	48 8b 45 e8          	mov    -0x18(%rbp),%rax
  10e6a3:	48 8b 70 10          	mov    0x10(%rax),%rsi
  10e6a7:	48 8b 45 e8          	mov    -0x18(%rbp),%rax
  10e6ab:	48 8b 50 08          	mov    0x8(%rax),%rdx
  10e6af:	48 8d 4a 01          	lea    0x1(%rdx),%rcx
  10e6b3:	48 8b 45 e8          	mov    -0x18(%rbp),%rax
  10e6b7:	48 89 48 08          	mov    %rcx,0x8(%rax)
  10e6bb:	48 89 d0             	mov    %rdx,%rax
  10e6be:	48 c1 e0 03          	shl    $0x3,%rax
  10e6c2:	48 01 d0             	add    %rdx,%rax
  10e6c5:	48 c1 e0 02          	shl    $0x2,%rax
  10e6c9:	48 01 d0             	add    %rdx,%rax
  10e6cc:	48 c1 e0 02          	shl    $0x2,%rax
  10e6d0:	48 8d 14 06          	lea    (%rsi,%rax,1),%rdx
  10e6d4:	48 8b 45 e0          	mov    -0x20(%rbp),%rax
  10e6d8:	48 8b 08             	mov    (%rax),%rcx
  10e6db:	48 8b 58 08          	mov    0x8(%rax),%rbx
  10e6df:	48 89 0a             	mov    %rcx,(%rdx)
  10e6e2:	48 89 5a 08          	mov    %rbx,0x8(%rdx)
  10e6e6:	48 8b 48 10          	mov    0x10(%rax),%rcx
  10e6ea:	48 8b 58 18          	mov    0x18(%rax),%rbx
  10e6ee:	48 89 4a 10          	mov    %rcx,0x10(%rdx)
  10e6f2:	48 89 5a 18          	mov    %rbx,0x18(%rdx)
  10e6f6:	48 8b 48 20          	mov    0x20(%rax),%rcx
  10e6fa:	48 8b 58 28          	mov    0x28(%rax),%rbx
  10e6fe:	48 89 4a 20          	mov    %rcx,0x20(%rdx)
  10e702:	48 89 5a 28          	mov    %rbx,0x28(%rdx)
  10e706:	48 8b 48 30          	mov    0x30(%rax),%rcx
  10e70a:	48 8b 58 38          	mov    0x38(%rax),%rbx
  10e70e:	48 89 4a 30          	mov    %rcx,0x30(%rdx)
  10e712:	48 89 5a 38          	mov    %rbx,0x38(%rdx)
  10e716:	48 8b 48 40          	mov    0x40(%rax),%rcx
  10e71a:	48 8b 58 48          	mov    0x48(%rax),%rbx
  10e71e:	48 89 4a 40          	mov    %rcx,0x40(%rdx)
  10e722:	48 89 5a 48          	mov    %rbx,0x48(%rdx)
  10e726:	48 8b 48 50          	mov    0x50(%rax),%rcx
  10e72a:	48 8b 58 58          	mov    0x58(%rax),%rbx
  10e72e:	48 89 4a 50          	mov    %rcx,0x50(%rdx)
  10e732:	48 89 5a 58          	mov    %rbx,0x58(%rdx)
  10e736:	48 8b 48 60          	mov    0x60(%rax),%rcx
  10e73a:	48 8b 58 68          	mov    0x68(%rax),%rbx
  10e73e:	48 89 4a 60          	mov    %rcx,0x60(%rdx)
  10e742:	48 89 5a 68          	mov    %rbx,0x68(%rdx)
  10e746:	48 8b 48 70          	mov    0x70(%rax),%rcx
  10e74a:	48 8b 58 78          	mov    0x78(%rax),%rbx
  10e74e:	48 89 4a 70          	mov    %rcx,0x70(%rdx)
  10e752:	48 89 5a 78          	mov    %rbx,0x78(%rdx)
  10e756:	48 8b 88 80 00 00 00 	mov    0x80(%rax),%rcx
  10e75d:	48 8b 98 88 00 00 00 	mov    0x88(%rax),%rbx
  10e764:	48 89 8a 80 00 00 00 	mov    %rcx,0x80(%rdx)
  10e76b:	48 89 9a 88 00 00 00 	mov    %rbx,0x88(%rdx)
  10e772:	8b 80 90 00 00 00    	mov    0x90(%rax),%eax
  10e778:	89 82 90 00 00 00    	mov    %eax,0x90(%rdx)
  10e77e:	90                   	nop
  10e77f:	48 83 c4 18          	add    $0x18,%rsp
  10e783:	5b                   	pop    %rbx
  10e784:	5d                   	pop    %rbp
  10e785:	c3                   	retq   

Disassembly of section .text._ZN6vectorI8DirEntryEC2Ev:

000000000010e786 <_ZN6vectorI8DirEntryEC1Ev>:
  10e786:	f3 0f 1e fa          	endbr64 
  10e78a:	55                   	push   %rbp
  10e78b:	48 89 e5             	mov    %rsp,%rbp
  10e78e:	48 83 ec 10          	sub    $0x10,%rsp
  10e792:	48 89 7d f8          	mov    %rdi,-0x8(%rbp)
  10e796:	bf 28 01 00 00       	mov    $0x128,%edi
  10e79b:	e8 5b 52 ff ff       	callq  1039fb <_Znam>
  10e7a0:	48 89 c2             	mov    %rax,%rdx
  10e7a3:	48 8b 45 f8          	mov    -0x8(%rbp),%rax
  10e7a7:	48 89 50 10          	mov    %rdx,0x10(%rax)
  10e7ab:	48 8b 45 f8          	mov    -0x8(%rbp),%rax
  10e7af:	48 c7 40 08 00 00 00 	movq   $0x0,0x8(%rax)
  10e7b6:	00 
  10e7b7:	48 8b 45 f8          	mov    -0x8(%rbp),%rax
  10e7bb:	48 c7 00 02 00 00 00 	movq   $0x2,(%rax)
  10e7c2:	90                   	nop
  10e7c3:	c9                   	leaveq 
  10e7c4:	c3                   	retq   

Disassembly of section .text._ZN6vectorIjE6resizeEm:

000000000010e7c6 <_ZN6vectorIjE6resizeEm>:
  10e7c6:	f3 0f 1e fa          	endbr64 
  10e7ca:	55                   	push   %rbp
  10e7cb:	48 89 e5             	mov    %rsp,%rbp
  10e7ce:	48 83 ec 20          	sub    $0x20,%rsp
  10e7d2:	48 89 7d e8          	mov    %rdi,-0x18(%rbp)
  10e7d6:	48 89 75 e0          	mov    %rsi,-0x20(%rbp)
  10e7da:	48 8b 45 e8          	mov    -0x18(%rbp),%rax
  10e7de:	48 8b 55 e0          	mov    -0x20(%rbp),%rdx
  10e7e2:	48 89 10             	mov    %rdx,(%rax)
  10e7e5:	48 8b 45 e8          	mov    -0x18(%rbp),%rax
  10e7e9:	48 8b 00             	mov    (%rax),%rax
  10e7ec:	48 ba fe ff ff ff ff 	movabs $0x1ffffffffffffffe,%rdx
  10e7f3:	ff ff 1f 
  10e7f6:	48 39 d0             	cmp    %rdx,%rax
  10e7f9:	77 06                	ja     10e801 <_ZN6vectorIjE6resizeEm+0x3b>
  10e7fb:	48 c1 e0 02          	shl    $0x2,%rax
  10e7ff:	eb 07                	jmp    10e808 <_ZN6vectorIjE6resizeEm+0x42>
  10e801:	48 c7 c0 ff ff ff ff 	mov    $0xffffffffffffffff,%rax
  10e808:	48 89 c7             	mov    %rax,%rdi
  10e80b:	e8 eb 51 ff ff       	callq  1039fb <_Znam>
  10e810:	48 89 45 f8          	mov    %rax,-0x8(%rbp)
  10e814:	48 8b 45 e8          	mov    -0x18(%rbp),%rax
  10e818:	48 8b 40 08          	mov    0x8(%rax),%rax
  10e81c:	48 8d 14 85 00 00 00 	lea    0x0(,%rax,4),%rdx
  10e823:	00 
  10e824:	48 8b 45 e8          	mov    -0x18(%rbp),%rax
  10e828:	48 8b 48 10          	mov    0x10(%rax),%rcx
  10e82c:	48 8b 45 f8          	mov    -0x8(%rbp),%rax
  10e830:	48 89 ce             	mov    %rcx,%rsi
  10e833:	48 89 c7             	mov    %rax,%rdi
  10e836:	e8 c6 e3 ff ff       	callq  10cc01 <_Z6memcpyPvPKvm>
  10e83b:	48 8b 45 e8          	mov    -0x18(%rbp),%rax
  10e83f:	48 8b 40 10          	mov    0x10(%rax),%rax
  10e843:	48 85 c0             	test   %rax,%rax
  10e846:	74 10                	je     10e858 <_ZN6vectorIjE6resizeEm+0x92>
  10e848:	48 8b 45 e8          	mov    -0x18(%rbp),%rax
  10e84c:	48 8b 40 10          	mov    0x10(%rax),%rax
  10e850:	48 89 c7             	mov    %rax,%rdi
  10e853:	e8 e0 51 ff ff       	callq  103a38 <_ZdaPv>
  10e858:	48 8b 45 e8          	mov    -0x18(%rbp),%rax
  10e85c:	48 8b 55 f8          	mov    -0x8(%rbp),%rdx
  10e860:	48 89 50 10          	mov    %rdx,0x10(%rax)
  10e864:	90                   	nop
  10e865:	c9                   	leaveq 
  10e866:	c3                   	retq   

Disassembly of section .text._ZN6vectorI8DirEntryE6resizeEm:

000000000010e868 <_ZN6vectorI8DirEntryE6resizeEm>:
  10e868:	f3 0f 1e fa          	endbr64 
  10e86c:	55                   	push   %rbp
  10e86d:	48 89 e5             	mov    %rsp,%rbp
  10e870:	48 83 ec 20          	sub    $0x20,%rsp
  10e874:	48 89 7d e8          	mov    %rdi,-0x18(%rbp)
  10e878:	48 89 75 e0          	mov    %rsi,-0x20(%rbp)
  10e87c:	48 8b 45 e8          	mov    -0x18(%rbp),%rax
  10e880:	48 8b 55 e0          	mov    -0x20(%rbp),%rdx
  10e884:	48 89 10             	mov    %rdx,(%rax)
  10e887:	48 8b 45 e8          	mov    -0x18(%rbp),%rax
  10e88b:	48 8b 10             	mov    (%rax),%rdx
  10e88e:	48 b8 7c d6 0d a6 c8 	movabs $0xdd67c8a60dd67c,%rax
  10e895:	67 dd 00 
  10e898:	48 39 c2             	cmp    %rax,%rdx
  10e89b:	77 17                	ja     10e8b4 <_ZN6vectorI8DirEntryE6resizeEm+0x4c>
  10e89d:	48 89 d0             	mov    %rdx,%rax
  10e8a0:	48 c1 e0 03          	shl    $0x3,%rax
  10e8a4:	48 01 d0             	add    %rdx,%rax
  10e8a7:	48 c1 e0 02          	shl    $0x2,%rax
  10e8ab:	48 01 d0             	add    %rdx,%rax
  10e8ae:	48 c1 e0 02          	shl    $0x2,%rax
  10e8b2:	eb 07                	jmp    10e8bb <_ZN6vectorI8DirEntryE6resizeEm+0x53>
  10e8b4:	48 c7 c0 ff ff ff ff 	mov    $0xffffffffffffffff,%rax
  10e8bb:	48 89 c7             	mov    %rax,%rdi
  10e8be:	e8 38 51 ff ff       	callq  1039fb <_Znam>
  10e8c3:	48 89 45 f8          	mov    %rax,-0x8(%rbp)
  10e8c7:	48 8b 45 e8          	mov    -0x18(%rbp),%rax
  10e8cb:	48 8b 50 08          	mov    0x8(%rax),%rdx
  10e8cf:	48 89 d0             	mov    %rdx,%rax
  10e8d2:	48 c1 e0 03          	shl    $0x3,%rax
  10e8d6:	48 01 d0             	add    %rdx,%rax
  10e8d9:	48 c1 e0 02          	shl    $0x2,%rax
  10e8dd:	48 01 d0             	add    %rdx,%rax
  10e8e0:	48 c1 e0 02          	shl    $0x2,%rax
  10e8e4:	48 89 c2             	mov    %rax,%rdx
  10e8e7:	48 8b 45 e8          	mov    -0x18(%rbp),%rax
  10e8eb:	48 8b 48 10          	mov    0x10(%rax),%rcx
  10e8ef:	48 8b 45 f8          	mov    -0x8(%rbp),%rax
  10e8f3:	48 89 ce             	mov    %rcx,%rsi
  10e8f6:	48 89 c7             	mov    %rax,%rdi
  10e8f9:	e8 03 e3 ff ff       	callq  10cc01 <_Z6memcpyPvPKvm>
  10e8fe:	48 8b 45 e8          	mov    -0x18(%rbp),%rax
  10e902:	48 8b 40 10          	mov    0x10(%rax),%rax
  10e906:	48 85 c0             	test   %rax,%rax
  10e909:	74 10                	je     10e91b <_ZN6vectorI8DirEntryE6resizeEm+0xb3>
  10e90b:	48 8b 45 e8          	mov    -0x18(%rbp),%rax
  10e90f:	48 8b 40 10          	mov    0x10(%rax),%rax
  10e913:	48 89 c7             	mov    %rax,%rdi
  10e916:	e8 1d 51 ff ff       	callq  103a38 <_ZdaPv>
  10e91b:	48 8b 45 e8          	mov    -0x18(%rbp),%rax
  10e91f:	48 8b 55 f8          	mov    -0x8(%rbp),%rdx
  10e923:	48 89 50 10          	mov    %rdx,0x10(%rax)
  10e927:	90                   	nop
  10e928:	c9                   	leaveq 
  10e929:	c3                   	retq   

Disassembly of section .text._ZN9MemoryMapC2EP14MemoryMapEntrym:

000000000010e92a <_ZN9MemoryMapC1EP14MemoryMapEntrym>:
  10e92a:	f3 0f 1e fa          	endbr64 
  10e92e:	55                   	push   %rbp
  10e92f:	48 89 e5             	mov    %rsp,%rbp
  10e932:	48 83 ec 18          	sub    $0x18,%rsp
  10e936:	48 89 7d f8          	mov    %rdi,-0x8(%rbp)
  10e93a:	48 89 75 f0          	mov    %rsi,-0x10(%rbp)
  10e93e:	48 89 55 e8          	mov    %rdx,-0x18(%rbp)
  10e942:	48 8b 45 f8          	mov    -0x8(%rbp),%rax
  10e946:	48 8b 55 f0          	mov    -0x10(%rbp),%rdx
  10e94a:	48 89 10             	mov    %rdx,(%rax)
  10e94d:	48 8b 45 f8          	mov    -0x8(%rbp),%rax
  10e951:	48 8b 55 e8          	mov    -0x18(%rbp),%rdx
  10e955:	48 89 50 08          	mov    %rdx,0x8(%rax)
  10e959:	90                   	nop
  10e95a:	c9                   	leaveq 
  10e95b:	c3                   	retq   

Disassembly of section .text._ZNK18PageFrameAllocator10GetFreeRAMEv:

000000000010e95c <_ZNK18PageFrameAllocator10GetFreeRAMEv>:
  10e95c:	f3 0f 1e fa          	endbr64 
  10e960:	55                   	push   %rbp
  10e961:	48 89 e5             	mov    %rsp,%rbp
  10e964:	48 83 ec 08          	sub    $0x8,%rsp
  10e968:	48 89 7d f8          	mov    %rdi,-0x8(%rbp)
  10e96c:	48 8b 45 f8          	mov    -0x8(%rbp),%rax
  10e970:	48 8b 40 10          	mov    0x10(%rax),%rax
  10e974:	c9                   	leaveq 
  10e975:	c3                   	retq   

Disassembly of section .text._ZNK18PageFrameAllocator10GetUsedRAMEv:

000000000010e976 <_ZNK18PageFrameAllocator10GetUsedRAMEv>:
  10e976:	f3 0f 1e fa          	endbr64 
  10e97a:	55                   	push   %rbp
  10e97b:	48 89 e5             	mov    %rsp,%rbp
  10e97e:	48 83 ec 08          	sub    $0x8,%rsp
  10e982:	48 89 7d f8          	mov    %rdi,-0x8(%rbp)
  10e986:	48 8b 45 f8          	mov    -0x8(%rbp),%rax
  10e98a:	48 8b 40 18          	mov    0x18(%rax),%rax
  10e98e:	c9                   	leaveq 
  10e98f:	c3                   	retq   

Disassembly of section .text._ZNK18PageFrameAllocator14GetReservedRAMEv:

000000000010e990 <_ZNK18PageFrameAllocator14GetReservedRAMEv>:
  10e990:	f3 0f 1e fa          	endbr64 
  10e994:	55                   	push   %rbp
  10e995:	48 89 e5             	mov    %rsp,%rbp
  10e998:	48 83 ec 08          	sub    $0x8,%rsp
  10e99c:	48 89 7d f8          	mov    %rdi,-0x8(%rbp)
  10e9a0:	48 8b 45 f8          	mov    -0x8(%rbp),%rax
  10e9a4:	48 8b 40 20          	mov    0x20(%rax),%rax
  10e9a8:	c9                   	leaveq 
  10e9a9:	c3                   	retq   

Disassembly of section .text._ZN4ACPI4FADT7GetFADTEv:

000000000010e9aa <_ZN4ACPI4FADT7GetFADTEv>:
  10e9aa:	f3 0f 1e fa          	endbr64 
  10e9ae:	55                   	push   %rbp
  10e9af:	48 89 e5             	mov    %rsp,%rbp
  10e9b2:	53                   	push   %rbx
  10e9b3:	48 83 ec 10          	sub    $0x10,%rsp
  10e9b7:	48 89 7d f0          	mov    %rdi,-0x10(%rbp)
  10e9bb:	48 89 75 e8          	mov    %rsi,-0x18(%rbp)
  10e9bf:	48 8b 45 f0          	mov    -0x10(%rbp),%rax
  10e9c3:	48 8b 55 e8          	mov    -0x18(%rbp),%rdx
  10e9c7:	48 8b 0a             	mov    (%rdx),%rcx
  10e9ca:	48 8b 5a 08          	mov    0x8(%rdx),%rbx
  10e9ce:	48 89 08             	mov    %rcx,(%rax)
  10e9d1:	48 89 58 08          	mov    %rbx,0x8(%rax)
  10e9d5:	48 8b 4a 10          	mov    0x10(%rdx),%rcx
  10e9d9:	48 8b 5a 18          	mov    0x18(%rdx),%rbx
  10e9dd:	48 89 48 10          	mov    %rcx,0x10(%rax)
  10e9e1:	48 89 58 18          	mov    %rbx,0x18(%rax)
  10e9e5:	48 8b 4a 20          	mov    0x20(%rdx),%rcx
  10e9e9:	48 8b 5a 28          	mov    0x28(%rdx),%rbx
  10e9ed:	48 89 48 20          	mov    %rcx,0x20(%rax)
  10e9f1:	48 89 58 28          	mov    %rbx,0x28(%rax)
  10e9f5:	48 8b 4a 30          	mov    0x30(%rdx),%rcx
  10e9f9:	48 8b 5a 38          	mov    0x38(%rdx),%rbx
  10e9fd:	48 89 48 30          	mov    %rcx,0x30(%rax)
  10ea01:	48 89 58 38          	mov    %rbx,0x38(%rax)
  10ea05:	48 8b 4a 40          	mov    0x40(%rdx),%rcx
  10ea09:	48 8b 5a 48          	mov    0x48(%rdx),%rbx
  10ea0d:	48 89 48 40          	mov    %rcx,0x40(%rax)
  10ea11:	48 89 58 48          	mov    %rbx,0x48(%rax)
  10ea15:	48 8b 4a 50          	mov    0x50(%rdx),%rcx
  10ea19:	48 8b 5a 58          	mov    0x58(%rdx),%rbx
  10ea1d:	48 89 48 50          	mov    %rcx,0x50(%rax)
  10ea21:	48 89 58 58          	mov    %rbx,0x58(%rax)
  10ea25:	48 8b 4a 60          	mov    0x60(%rdx),%rcx
  10ea29:	48 8b 5a 68          	mov    0x68(%rdx),%rbx
  10ea2d:	48 89 48 60          	mov    %rcx,0x60(%rax)
  10ea31:	48 89 58 68          	mov    %rbx,0x68(%rax)
  10ea35:	48 8b 4a 70          	mov    0x70(%rdx),%rcx
  10ea39:	48 8b 5a 78          	mov    0x78(%rdx),%rbx
  10ea3d:	48 89 48 70          	mov    %rcx,0x70(%rax)
  10ea41:	48 89 58 78          	mov    %rbx,0x78(%rax)
  10ea45:	48 8b 8a 80 00 00 00 	mov    0x80(%rdx),%rcx
  10ea4c:	48 8b 9a 88 00 00 00 	mov    0x88(%rdx),%rbx
  10ea53:	48 89 88 80 00 00 00 	mov    %rcx,0x80(%rax)
  10ea5a:	48 89 98 88 00 00 00 	mov    %rbx,0x88(%rax)
  10ea61:	48 8b 8a 90 00 00 00 	mov    0x90(%rdx),%rcx
  10ea68:	48 8b 9a 98 00 00 00 	mov    0x98(%rdx),%rbx
  10ea6f:	48 89 88 90 00 00 00 	mov    %rcx,0x90(%rax)
  10ea76:	48 89 98 98 00 00 00 	mov    %rbx,0x98(%rax)
  10ea7d:	48 8b 8a a0 00 00 00 	mov    0xa0(%rdx),%rcx
  10ea84:	48 8b 9a a8 00 00 00 	mov    0xa8(%rdx),%rbx
  10ea8b:	48 89 88 a0 00 00 00 	mov    %rcx,0xa0(%rax)
  10ea92:	48 89 98 a8 00 00 00 	mov    %rbx,0xa8(%rax)
  10ea99:	48 8b 8a b0 00 00 00 	mov    0xb0(%rdx),%rcx
  10eaa0:	48 8b 9a b8 00 00 00 	mov    0xb8(%rdx),%rbx
  10eaa7:	48 89 88 b0 00 00 00 	mov    %rcx,0xb0(%rax)
  10eaae:	48 89 98 b8 00 00 00 	mov    %rbx,0xb8(%rax)
  10eab5:	48 8b 8a c0 00 00 00 	mov    0xc0(%rdx),%rcx
  10eabc:	48 8b 9a c8 00 00 00 	mov    0xc8(%rdx),%rbx
  10eac3:	48 89 88 c0 00 00 00 	mov    %rcx,0xc0(%rax)
  10eaca:	48 89 98 c8 00 00 00 	mov    %rbx,0xc8(%rax)
  10ead1:	48 8b 8a d0 00 00 00 	mov    0xd0(%rdx),%rcx
  10ead8:	48 8b 9a d8 00 00 00 	mov    0xd8(%rdx),%rbx
  10eadf:	48 89 88 d0 00 00 00 	mov    %rcx,0xd0(%rax)
  10eae6:	48 89 98 d8 00 00 00 	mov    %rbx,0xd8(%rax)
  10eaed:	48 8b 8a e0 00 00 00 	mov    0xe0(%rdx),%rcx
  10eaf4:	48 8b 9a e8 00 00 00 	mov    0xe8(%rdx),%rbx
  10eafb:	48 89 88 e0 00 00 00 	mov    %rcx,0xe0(%rax)
  10eb02:	48 89 98 e8 00 00 00 	mov    %rbx,0xe8(%rax)
  10eb09:	8b 92 f0 00 00 00    	mov    0xf0(%rdx),%edx
  10eb0f:	89 90 f0 00 00 00    	mov    %edx,0xf0(%rax)
  10eb15:	48 8b 45 f0          	mov    -0x10(%rbp),%rax
  10eb19:	48 83 c4 10          	add    $0x10,%rsp
  10eb1d:	5b                   	pop    %rbx
  10eb1e:	5d                   	pop    %rbp
  10eb1f:	c3                   	retq   

Disassembly of section .text._ZN9ATADeviceC2Ev:

000000000010eb20 <_ZN9ATADeviceC1Ev>:
  10eb20:	f3 0f 1e fa          	endbr64 
  10eb24:	55                   	push   %rbp
  10eb25:	48 89 e5             	mov    %rsp,%rbp
  10eb28:	48 83 ec 10          	sub    $0x10,%rsp
  10eb2c:	48 89 7d f8          	mov    %rdi,-0x8(%rbp)
  10eb30:	48 8b 45 f8          	mov    -0x8(%rbp),%rax
  10eb34:	48 89 c7             	mov    %rax,%rdi
  10eb37:	e8 f4 f5 ff ff       	callq  10e130 <_ZN6DeviceC1Ev>
  10eb3c:	48 8d 15 65 09 00 00 	lea    0x965(%rip),%rdx        # 10f4a8 <_ZTV9ATADevice+0x10>
  10eb43:	48 8b 45 f8          	mov    -0x8(%rbp),%rax
  10eb47:	48 89 10             	mov    %rdx,(%rax)
  10eb4a:	90                   	nop
  10eb4b:	c9                   	leaveq 
  10eb4c:	c3                   	retq   
